(dp1
S'password'
p2
(dp3
S'type'
p4
S'password'
p5
sS'sortable'
p6
I3
sS'sql'
p7
S'CHAR(64)'
p8
ssS'user_name'
p9
(dp10
g4
S'string'
p11
sg6
I2
sg7
S'CHAR(64)'
p12
ssS'id'
p13
(dp14
g4
S'id'
p15
sg6
I1
sg7
S'INTEGER PRIMARY KEY AUTOINCREMENT'
p16
ss.