(dp1
S'output'
p2
S"<type 'exceptions.SyntaxError'> invalid table name: auth_user"
p3
sS'layer'
p4
S'C:\\Users\\omkara\\Desktop\\web2py\\applications\\SlugBarter\\models\\registerForm.py'
p5
sS'code'
p6
S"# coding: utf8\nfrom gluon.tools import Auth\nfrom datetime import datetime\nauth=Auth(db) \n\ndb.define_table(\n    auth.settings.table_user_name,\n    Field('first_name', length=128, default=''),\n    Field('last_name', length=128, default=''),\n    Field('email', length=128, default='', unique=True), # required\n    Field('password', 'password', length=512,            # required\n          readable=False, label='Password'),\n    Field('address'),\n    Field('city'),\n    Field('zip'),\n    Field('phone'),\n    Field('registration_key', length=512,                # required\n          writable=False, readable=False, default=''),\n    Field('reset_password_key', length=512,              # required\n          writable=False, readable=False, default=''),\n    Field('registration_id', length=512,                 # required\n          writable=False, readable=False, default=''))\n\n## do not forget validators\ncustom_auth_table = db[auth.settings.table_user_name] # get the custom_auth_table\ncustom_auth_table.first_name.requires = \\\n  IS_NOT_EMPTY(error_message=auth.messages.is_empty)\ncustom_auth_table.last_name.requires = \\\n  IS_NOT_EMPTY(error_message=auth.messages.is_empty)\ncustom_auth_table.password.requires = [IS_STRONG(), CRYPT()]\ncustom_auth_table.email.requires = [\n  IS_EMAIL(error_message=auth.messages.invalid_email),\n  IS_NOT_IN_DB(db, custom_auth_table.email)]\n\nauth.settings.table_user = custom_auth_table # tell auth to use custom_auth_table\n\nauth.define_tables()\n"
p7
sS'snapshot'
p8
(dp9
S'exception'
p10
(dp11
S'__getslice__'
p12
S"<method-wrapper '__getslice__' of exceptions.SyntaxError object at 0x06203830>"
p13
sS'text'
p14
S'None'
p15
sS'__str__'
p16
S"<method-wrapper '__str__' of exceptions.SyntaxError object at 0x06203830>"
p17
sS'__reduce__'
p18
S'<built-in method __reduce__ of exceptions.SyntaxError object at 0x06203830>'
p19
sS'__dict__'
p20
S'{}'
p21
sS'__init__'
p22
S"<method-wrapper '__init__' of exceptions.SyntaxError object at 0x06203830>"
p23
sS'__setattr__'
p24
S"<method-wrapper '__setattr__' of exceptions.SyntaxError object at 0x06203830>"
p25
sS'__reduce_ex__'
p26
S'<built-in method __reduce_ex__ of exceptions.SyntaxError object at 0x06203830>'
p27
sS'__new__'
p28
S'<built-in method __new__ of type object at 0x1E1CDBD0>'
p29
sS'__class__'
p30
S"<type 'exceptions.SyntaxError'>"
p31
sS'filename'
p32
S'None'
p33
sS'lineno'
p34
S'None'
p35
sS'msg'
p36
S"'invalid table name: auth_user'"
p37
sS'__doc__'
p38
S"'Invalid syntax.'"
p39
sS'__getitem__'
p40
S"<method-wrapper '__getitem__' of exceptions.SyntaxError object at 0x06203830>"
p41
sS'__setstate__'
p42
S'<built-in method __setstate__ of exceptions.SyntaxError object at 0x06203830>'
p43
sS'__getattribute__'
p44
S"<method-wrapper '__getattribute__' of exceptions.SyntaxError object at 0x06203830>"
p45
sS'print_file_and_line'
p46
S'None'
p47
sS'args'
p48
S"('invalid table name: auth_user',)"
p49
sS'offset'
p50
S'None'
p51
sS'__delattr__'
p52
S"<method-wrapper '__delattr__' of exceptions.SyntaxError object at 0x06203830>"
p53
sS'__repr__'
p54
S"<method-wrapper '__repr__' of exceptions.SyntaxError object at 0x06203830>"
p55
sS'__hash__'
p56
S"<method-wrapper '__hash__' of exceptions.SyntaxError object at 0x06203830>"
p57
ssS'evalue'
p58
S'invalid table name: auth_user'
p59
sS'request'
p60
ccopy_reg
_reconstructor
p61
(cgluon.html
BEAUTIFY
p62
c__builtin__
object
p63
NtRp64
(dp65
S'attributes'
p66
(dp67
sS'components'
p68
(lp69
g61
(cgluon.html
TABLE
p70
g63
NtRp71
(dp72
g66
(dp73
S'level'
p74
I5
ssS'parent'
p75
Nsg68
(lp76
g61
(cgluon.html
TR
p77
g63
NtRp78
(dp79
g66
(dp80
sg75
g71
sg68
(lp81
g61
(cgluon.html
TD
p82
g63
NtRp83
(dp84
g66
(dp85
S'_style'
p86
S'font-weight:bold;vertical-align:top'
p87
ssg75
g78
sg68
(lp88
S'ajax'
p89
asbag61
(g82
g63
NtRp90
(dp91
g66
(dp92
S'_valign'
p93
S'top'
p94
ssg75
g78
sg68
(lp95
S':'
asbag61
(g82
g63
NtRp96
(dp97
g66
(dp98
sg75
g78
sg68
(lp99
g61
(g62
g63
NtRp100
(dp101
g66
(dp102
g74
I5
ssg75
g96
sg68
(lp103
S'False'
p104
asbasbasbag61
(g77
g63
NtRp105
(dp106
g66
(dp107
sg75
g71
sg68
(lp108
g61
(g82
g63
NtRp109
(dp110
g66
(dp111
g86
g87
ssg75
g105
sg68
(lp112
S'application'
p113
asbag61
(g82
g63
NtRp114
(dp115
g66
(dp116
g93
g94
ssg75
g105
sg68
(lp117
S':'
asbag61
(g82
g63
NtRp118
(dp119
g66
(dp120
sg75
g105
sg68
(lp121
g61
(g62
g63
NtRp122
(dp123
g66
(dp124
g74
I5
ssg75
g118
sg68
(lp125
S'SlugBarter'
p126
asbasbasbag61
(g77
g63
NtRp127
(dp128
g66
(dp129
sg75
g71
sg68
(lp130
g61
(g82
g63
NtRp131
(dp132
g66
(dp133
g86
g87
ssg75
g127
sg68
(lp134
g48
asbag61
(g82
g63
NtRp135
(dp136
g66
(dp137
g93
g94
ssg75
g127
sg68
(lp138
S':'
asbag61
(g82
g63
NtRp139
(dp140
g66
(dp141
sg75
g127
sg68
(lp142
g61
(g62
g63
NtRp143
(dp144
g66
(dp145
g74
I5
ssg75
g139
sg68
(lp146
g61
(g70
g63
NtRp147
(dp148
g66
(dp149
g74
I4
ssg75
Nsg68
(lp150
sbasbasbasbag61
(g77
g63
NtRp151
(dp152
g66
(dp153
sg75
g71
sg68
(lp154
g61
(g82
g63
NtRp155
(dp156
g66
(dp157
g86
g87
ssg75
g151
sg68
(lp158
S'body'
p159
asbag61
(g82
g63
NtRp160
(dp161
g66
(dp162
g93
g94
ssg75
g151
sg68
(lp163
S':'
asbag61
(g82
g63
NtRp164
(dp165
g66
(dp166
sg75
g151
sg68
(lp167
g61
(g62
g63
NtRp168
(dp169
g66
(dp170
g74
I5
ssg75
g164
sg68
(lp171
S'<cStringIO.StringO object at 0x05DD7540>'
p172
asbasbasbag61
(g77
g63
NtRp173
(dp174
g66
(dp175
sg75
g71
sg68
(lp176
g61
(g82
g63
NtRp177
(dp178
g66
(dp179
g86
g87
ssg75
g173
sg68
(lp180
S'client'
p181
asbag61
(g82
g63
NtRp182
(dp183
g66
(dp184
g93
g94
ssg75
g173
sg68
(lp185
S':'
asbag61
(g82
g63
NtRp186
(dp187
g66
(dp188
sg75
g173
sg68
(lp189
g61
(g62
g63
NtRp190
(dp191
g66
(dp192
g74
I5
ssg75
g186
sg68
(lp193
S'127.0.0.1'
p194
asbasbasbag61
(g77
g63
NtRp195
(dp196
g66
(dp197
sg75
g71
sg68
(lp198
g61
(g82
g63
NtRp199
(dp200
g66
(dp201
g86
g87
ssg75
g195
sg68
(lp202
S'controller'
p203
asbag61
(g82
g63
NtRp204
(dp205
g66
(dp206
g93
g94
ssg75
g195
sg68
(lp207
S':'
asbag61
(g82
g63
NtRp208
(dp209
g66
(dp210
sg75
g195
sg68
(lp211
g61
(g62
g63
NtRp212
(dp213
g66
(dp214
g74
I5
ssg75
g208
sg68
(lp215
S'default'
p216
asbasbasbag61
(g77
g63
NtRp217
(dp218
g66
(dp219
sg75
g71
sg68
(lp220
g61
(g82
g63
NtRp221
(dp222
g66
(dp223
g86
g87
ssg75
g217
sg68
(lp224
S'cookies'
p225
asbag61
(g82
g63
NtRp226
(dp227
g66
(dp228
g93
g94
ssg75
g217
sg68
(lp229
S':'
asbag61
(g82
g63
NtRp230
(dp231
g66
(dp232
sg75
g217
sg68
(lp233
g61
(g62
g63
NtRp234
(dp235
g66
(dp236
g74
I5
ssg75
g230
sg68
(lp237
g61
(g70
g63
NtRp238
(dp239
g66
(dp240
g74
I4
ssg75
Nsg68
(lp241
g61
(g77
g63
NtRp242
(dp243
g66
(dp244
sg75
g238
sg68
(lp245
g61
(g82
g63
NtRp246
(dp247
g66
(dp248
g86
g87
ssg75
g242
sg68
(lp249
S'session_id_admin'
p250
asbag61
(g82
g63
NtRp251
(dp252
g66
(dp253
g93
g94
ssg75
g242
sg68
(lp254
S':'
asbag61
(g82
g63
NtRp255
(dp256
g66
(dp257
sg75
g242
sg68
(lp258
g61
(g62
g63
NtRp259
(dp260
g66
(dp261
g74
I4
ssg75
g255
sg68
(lp262
g61
(g70
g63
NtRp263
(dp264
g66
(dp265
g74
I3
ssg75
Nsg68
(lp266
g61
(g77
g63
NtRp267
(dp268
g66
(dp269
sg75
g263
sg68
(lp270
g61
(g82
g63
NtRp271
(dp272
g66
(dp273
g86
g87
ssg75
g267
sg68
(lp274
S'comment'
p275
asbag61
(g82
g63
NtRp276
(dp277
g66
(dp278
g93
g94
ssg75
g267
sg68
(lp279
S':'
asbag61
(g82
g63
NtRp280
(dp281
g66
(dp282
sg75
g267
sg68
(lp283
g61
(g62
g63
NtRp284
(dp285
g66
(dp286
g74
I3
ssg75
g280
sg68
(lp287
S''
asbasbasbag61
(g77
g63
NtRp288
(dp289
g66
(dp290
sg75
g263
sg68
(lp291
g61
(g82
g63
NtRp292
(dp293
g66
(dp294
g86
g87
ssg75
g288
sg68
(lp295
S'domain'
p296
asbag61
(g82
g63
NtRp297
(dp298
g66
(dp299
g93
g94
ssg75
g288
sg68
(lp300
S':'
asbag61
(g82
g63
NtRp301
(dp302
g66
(dp303
sg75
g288
sg68
(lp304
g61
(g62
g63
NtRp305
(dp306
g66
(dp307
g74
I3
ssg75
g301
sg68
(lp308
S''
asbasbasbag61
(g77
g63
NtRp309
(dp310
g66
(dp311
sg75
g263
sg68
(lp312
g61
(g82
g63
NtRp313
(dp314
g66
(dp315
g86
g87
ssg75
g309
sg68
(lp316
S'expires'
p317
asbag61
(g82
g63
NtRp318
(dp319
g66
(dp320
g93
g94
ssg75
g309
sg68
(lp321
S':'
asbag61
(g82
g63
NtRp322
(dp323
g66
(dp324
sg75
g309
sg68
(lp325
g61
(g62
g63
NtRp326
(dp327
g66
(dp328
g74
I3
ssg75
g322
sg68
(lp329
S''
asbasbasbag61
(g77
g63
NtRp330
(dp331
g66
(dp332
sg75
g263
sg68
(lp333
g61
(g82
g63
NtRp334
(dp335
g66
(dp336
g86
g87
ssg75
g330
sg68
(lp337
S'max-age'
p338
asbag61
(g82
g63
NtRp339
(dp340
g66
(dp341
g93
g94
ssg75
g330
sg68
(lp342
S':'
asbag61
(g82
g63
NtRp343
(dp344
g66
(dp345
sg75
g330
sg68
(lp346
g61
(g62
g63
NtRp347
(dp348
g66
(dp349
g74
I3
ssg75
g343
sg68
(lp350
S''
asbasbasbag61
(g77
g63
NtRp351
(dp352
g66
(dp353
sg75
g263
sg68
(lp354
g61
(g82
g63
NtRp355
(dp356
g66
(dp357
g86
g87
ssg75
g351
sg68
(lp358
S'path'
p359
asbag61
(g82
g63
NtRp360
(dp361
g66
(dp362
g93
g94
ssg75
g351
sg68
(lp363
S':'
asbag61
(g82
g63
NtRp364
(dp365
g66
(dp366
sg75
g351
sg68
(lp367
g61
(g62
g63
NtRp368
(dp369
g66
(dp370
g74
I3
ssg75
g364
sg68
(lp371
S''
asbasbasbag61
(g77
g63
NtRp372
(dp373
g66
(dp374
sg75
g263
sg68
(lp375
g61
(g82
g63
NtRp376
(dp377
g66
(dp378
g86
g87
ssg75
g372
sg68
(lp379
S'secure'
p380
asbag61
(g82
g63
NtRp381
(dp382
g66
(dp383
g93
g94
ssg75
g372
sg68
(lp384
S':'
asbag61
(g82
g63
NtRp385
(dp386
g66
(dp387
sg75
g372
sg68
(lp388
g61
(g62
g63
NtRp389
(dp390
g66
(dp391
g74
I3
ssg75
g385
sg68
(lp392
S''
asbasbasbag61
(g77
g63
NtRp393
(dp394
g66
(dp395
sg75
g263
sg68
(lp396
g61
(g82
g63
NtRp397
(dp398
g66
(dp399
g86
g87
ssg75
g393
sg68
(lp400
S'version'
p401
asbag61
(g82
g63
NtRp402
(dp403
g66
(dp404
g93
g94
ssg75
g393
sg68
(lp405
S':'
asbag61
(g82
g63
NtRp406
(dp407
g66
(dp408
sg75
g393
sg68
(lp409
g61
(g62
g63
NtRp410
(dp411
g66
(dp412
g74
I3
ssg75
g406
sg68
(lp413
S''
asbasbasbasbasbasbasbag61
(g77
g63
NtRp414
(dp415
g66
(dp416
sg75
g238
sg68
(lp417
g61
(g82
g63
NtRp418
(dp419
g66
(dp420
g86
g87
ssg75
g414
sg68
(lp421
S'session_id_onlinenotes_p1_'
p422
asbag61
(g82
g63
NtRp423
(dp424
g66
(dp425
g93
g94
ssg75
g414
sg68
(lp426
S':'
asbag61
(g82
g63
NtRp427
(dp428
g66
(dp429
sg75
g414
sg68
(lp430
g61
(g62
g63
NtRp431
(dp432
g66
(dp433
g74
I4
ssg75
g427
sg68
(lp434
g61
(g70
g63
NtRp435
(dp436
g66
(dp437
g74
I3
ssg75
Nsg68
(lp438
g61
(g77
g63
NtRp439
(dp440
g66
(dp441
sg75
g435
sg68
(lp442
g61
(g82
g63
NtRp443
(dp444
g66
(dp445
g86
g87
ssg75
g439
sg68
(lp446
g275
asbag61
(g82
g63
NtRp447
(dp448
g66
(dp449
g93
g94
ssg75
g439
sg68
(lp450
S':'
asbag61
(g82
g63
NtRp451
(dp452
g66
(dp453
sg75
g439
sg68
(lp454
g61
(g62
g63
NtRp455
(dp456
g66
(dp457
g74
I3
ssg75
g451
sg68
(lp458
S''
asbasbasbag61
(g77
g63
NtRp459
(dp460
g66
(dp461
sg75
g435
sg68
(lp462
g61
(g82
g63
NtRp463
(dp464
g66
(dp465
g86
g87
ssg75
g459
sg68
(lp466
g296
asbag61
(g82
g63
NtRp467
(dp468
g66
(dp469
g93
g94
ssg75
g459
sg68
(lp470
S':'
asbag61
(g82
g63
NtRp471
(dp472
g66
(dp473
sg75
g459
sg68
(lp474
g61
(g62
g63
NtRp475
(dp476
g66
(dp477
g74
I3
ssg75
g471
sg68
(lp478
S''
asbasbasbag61
(g77
g63
NtRp479
(dp480
g66
(dp481
sg75
g435
sg68
(lp482
g61
(g82
g63
NtRp483
(dp484
g66
(dp485
g86
g87
ssg75
g479
sg68
(lp486
g317
asbag61
(g82
g63
NtRp487
(dp488
g66
(dp489
g93
g94
ssg75
g479
sg68
(lp490
S':'
asbag61
(g82
g63
NtRp491
(dp492
g66
(dp493
sg75
g479
sg68
(lp494
g61
(g62
g63
NtRp495
(dp496
g66
(dp497
g74
I3
ssg75
g491
sg68
(lp498
S''
asbasbasbag61
(g77
g63
NtRp499
(dp500
g66
(dp501
sg75
g435
sg68
(lp502
g61
(g82
g63
NtRp503
(dp504
g66
(dp505
g86
g87
ssg75
g499
sg68
(lp506
g338
asbag61
(g82
g63
NtRp507
(dp508
g66
(dp509
g93
g94
ssg75
g499
sg68
(lp510
S':'
asbag61
(g82
g63
NtRp511
(dp512
g66
(dp513
sg75
g499
sg68
(lp514
g61
(g62
g63
NtRp515
(dp516
g66
(dp517
g74
I3
ssg75
g511
sg68
(lp518
S''
asbasbasbag61
(g77
g63
NtRp519
(dp520
g66
(dp521
sg75
g435
sg68
(lp522
g61
(g82
g63
NtRp523
(dp524
g66
(dp525
g86
g87
ssg75
g519
sg68
(lp526
g359
asbag61
(g82
g63
NtRp527
(dp528
g66
(dp529
g93
g94
ssg75
g519
sg68
(lp530
S':'
asbag61
(g82
g63
NtRp531
(dp532
g66
(dp533
sg75
g519
sg68
(lp534
g61
(g62
g63
NtRp535
(dp536
g66
(dp537
g74
I3
ssg75
g531
sg68
(lp538
S''
asbasbasbag61
(g77
g63
NtRp539
(dp540
g66
(dp541
sg75
g435
sg68
(lp542
g61
(g82
g63
NtRp543
(dp544
g66
(dp545
g86
g87
ssg75
g539
sg68
(lp546
g380
asbag61
(g82
g63
NtRp547
(dp548
g66
(dp549
g93
g94
ssg75
g539
sg68
(lp550
S':'
asbag61
(g82
g63
NtRp551
(dp552
g66
(dp553
sg75
g539
sg68
(lp554
g61
(g62
g63
NtRp555
(dp556
g66
(dp557
g74
I3
ssg75
g551
sg68
(lp558
S''
asbasbasbag61
(g77
g63
NtRp559
(dp560
g66
(dp561
sg75
g435
sg68
(lp562
g61
(g82
g63
NtRp563
(dp564
g66
(dp565
g86
g87
ssg75
g559
sg68
(lp566
g401
asbag61
(g82
g63
NtRp567
(dp568
g66
(dp569
g93
g94
ssg75
g559
sg68
(lp570
S':'
asbag61
(g82
g63
NtRp571
(dp572
g66
(dp573
sg75
g559
sg68
(lp574
g61
(g62
g63
NtRp575
(dp576
g66
(dp577
g74
I3
ssg75
g571
sg68
(lp578
S''
asbasbasbasbasbasbasbag61
(g77
g63
NtRp579
(dp580
g66
(dp581
sg75
g238
sg68
(lp582
g61
(g82
g63
NtRp583
(dp584
g66
(dp585
g86
g87
ssg75
g579
sg68
(lp586
S'session_id_slug_register_page'
p587
asbag61
(g82
g63
NtRp588
(dp589
g66
(dp590
g93
g94
ssg75
g579
sg68
(lp591
S':'
asbag61
(g82
g63
NtRp592
(dp593
g66
(dp594
sg75
g579
sg68
(lp595
g61
(g62
g63
NtRp596
(dp597
g66
(dp598
g74
I4
ssg75
g592
sg68
(lp599
g61
(g70
g63
NtRp600
(dp601
g66
(dp602
g74
I3
ssg75
Nsg68
(lp603
g61
(g77
g63
NtRp604
(dp605
g66
(dp606
sg75
g600
sg68
(lp607
g61
(g82
g63
NtRp608
(dp609
g66
(dp610
g86
g87
ssg75
g604
sg68
(lp611
g275
asbag61
(g82
g63
NtRp612
(dp613
g66
(dp614
g93
g94
ssg75
g604
sg68
(lp615
S':'
asbag61
(g82
g63
NtRp616
(dp617
g66
(dp618
sg75
g604
sg68
(lp619
g61
(g62
g63
NtRp620
(dp621
g66
(dp622
g74
I3
ssg75
g616
sg68
(lp623
S''
asbasbasbag61
(g77
g63
NtRp624
(dp625
g66
(dp626
sg75
g600
sg68
(lp627
g61
(g82
g63
NtRp628
(dp629
g66
(dp630
g86
g87
ssg75
g624
sg68
(lp631
g296
asbag61
(g82
g63
NtRp632
(dp633
g66
(dp634
g93
g94
ssg75
g624
sg68
(lp635
S':'
asbag61
(g82
g63
NtRp636
(dp637
g66
(dp638
sg75
g624
sg68
(lp639
g61
(g62
g63
NtRp640
(dp641
g66
(dp642
g74
I3
ssg75
g636
sg68
(lp643
S''
asbasbasbag61
(g77
g63
NtRp644
(dp645
g66
(dp646
sg75
g600
sg68
(lp647
g61
(g82
g63
NtRp648
(dp649
g66
(dp650
g86
g87
ssg75
g644
sg68
(lp651
g317
asbag61
(g82
g63
NtRp652
(dp653
g66
(dp654
g93
g94
ssg75
g644
sg68
(lp655
S':'
asbag61
(g82
g63
NtRp656
(dp657
g66
(dp658
sg75
g644
sg68
(lp659
g61
(g62
g63
NtRp660
(dp661
g66
(dp662
g74
I3
ssg75
g656
sg68
(lp663
S''
asbasbasbag61
(g77
g63
NtRp664
(dp665
g66
(dp666
sg75
g600
sg68
(lp667
g61
(g82
g63
NtRp668
(dp669
g66
(dp670
g86
g87
ssg75
g664
sg68
(lp671
g338
asbag61
(g82
g63
NtRp672
(dp673
g66
(dp674
g93
g94
ssg75
g664
sg68
(lp675
S':'
asbag61
(g82
g63
NtRp676
(dp677
g66
(dp678
sg75
g664
sg68
(lp679
g61
(g62
g63
NtRp680
(dp681
g66
(dp682
g74
I3
ssg75
g676
sg68
(lp683
S''
asbasbasbag61
(g77
g63
NtRp684
(dp685
g66
(dp686
sg75
g600
sg68
(lp687
g61
(g82
g63
NtRp688
(dp689
g66
(dp690
g86
g87
ssg75
g684
sg68
(lp691
g359
asbag61
(g82
g63
NtRp692
(dp693
g66
(dp694
g93
g94
ssg75
g684
sg68
(lp695
S':'
asbag61
(g82
g63
NtRp696
(dp697
g66
(dp698
sg75
g684
sg68
(lp699
g61
(g62
g63
NtRp700
(dp701
g66
(dp702
g74
I3
ssg75
g696
sg68
(lp703
S''
asbasbasbag61
(g77
g63
NtRp704
(dp705
g66
(dp706
sg75
g600
sg68
(lp707
g61
(g82
g63
NtRp708
(dp709
g66
(dp710
g86
g87
ssg75
g704
sg68
(lp711
g380
asbag61
(g82
g63
NtRp712
(dp713
g66
(dp714
g93
g94
ssg75
g704
sg68
(lp715
S':'
asbag61
(g82
g63
NtRp716
(dp717
g66
(dp718
sg75
g704
sg68
(lp719
g61
(g62
g63
NtRp720
(dp721
g66
(dp722
g74
I3
ssg75
g716
sg68
(lp723
S''
asbasbasbag61
(g77
g63
NtRp724
(dp725
g66
(dp726
sg75
g600
sg68
(lp727
g61
(g82
g63
NtRp728
(dp729
g66
(dp730
g86
g87
ssg75
g724
sg68
(lp731
g401
asbag61
(g82
g63
NtRp732
(dp733
g66
(dp734
g93
g94
ssg75
g724
sg68
(lp735
S':'
asbag61
(g82
g63
NtRp736
(dp737
g66
(dp738
sg75
g724
sg68
(lp739
g61
(g62
g63
NtRp740
(dp741
g66
(dp742
g74
I3
ssg75
g736
sg68
(lp743
S''
asbasbasbasbasbasbasbag61
(g77
g63
NtRp744
(dp745
g66
(dp746
sg75
g238
sg68
(lp747
g61
(g82
g63
NtRp748
(dp749
g66
(dp750
g86
g87
ssg75
g744
sg68
(lp751
S'session_id_slugbarter'
p752
asbag61
(g82
g63
NtRp753
(dp754
g66
(dp755
g93
g94
ssg75
g744
sg68
(lp756
S':'
asbag61
(g82
g63
NtRp757
(dp758
g66
(dp759
sg75
g744
sg68
(lp760
g61
(g62
g63
NtRp761
(dp762
g66
(dp763
g74
I4
ssg75
g757
sg68
(lp764
g61
(g70
g63
NtRp765
(dp766
g66
(dp767
g74
I3
ssg75
Nsg68
(lp768
g61
(g77
g63
NtRp769
(dp770
g66
(dp771
sg75
g765
sg68
(lp772
g61
(g82
g63
NtRp773
(dp774
g66
(dp775
g86
g87
ssg75
g769
sg68
(lp776
g275
asbag61
(g82
g63
NtRp777
(dp778
g66
(dp779
g93
g94
ssg75
g769
sg68
(lp780
S':'
asbag61
(g82
g63
NtRp781
(dp782
g66
(dp783
sg75
g769
sg68
(lp784
g61
(g62
g63
NtRp785
(dp786
g66
(dp787
g74
I3
ssg75
g781
sg68
(lp788
S''
asbasbasbag61
(g77
g63
NtRp789
(dp790
g66
(dp791
sg75
g765
sg68
(lp792
g61
(g82
g63
NtRp793
(dp794
g66
(dp795
g86
g87
ssg75
g789
sg68
(lp796
g296
asbag61
(g82
g63
NtRp797
(dp798
g66
(dp799
g93
g94
ssg75
g789
sg68
(lp800
S':'
asbag61
(g82
g63
NtRp801
(dp802
g66
(dp803
sg75
g789
sg68
(lp804
g61
(g62
g63
NtRp805
(dp806
g66
(dp807
g74
I3
ssg75
g801
sg68
(lp808
S''
asbasbasbag61
(g77
g63
NtRp809
(dp810
g66
(dp811
sg75
g765
sg68
(lp812
g61
(g82
g63
NtRp813
(dp814
g66
(dp815
g86
g87
ssg75
g809
sg68
(lp816
g317
asbag61
(g82
g63
NtRp817
(dp818
g66
(dp819
g93
g94
ssg75
g809
sg68
(lp820
S':'
asbag61
(g82
g63
NtRp821
(dp822
g66
(dp823
sg75
g809
sg68
(lp824
g61
(g62
g63
NtRp825
(dp826
g66
(dp827
g74
I3
ssg75
g821
sg68
(lp828
S''
asbasbasbag61
(g77
g63
NtRp829
(dp830
g66
(dp831
sg75
g765
sg68
(lp832
g61
(g82
g63
NtRp833
(dp834
g66
(dp835
g86
g87
ssg75
g829
sg68
(lp836
g338
asbag61
(g82
g63
NtRp837
(dp838
g66
(dp839
g93
g94
ssg75
g829
sg68
(lp840
S':'
asbag61
(g82
g63
NtRp841
(dp842
g66
(dp843
sg75
g829
sg68
(lp844
g61
(g62
g63
NtRp845
(dp846
g66
(dp847
g74
I3
ssg75
g841
sg68
(lp848
S''
asbasbasbag61
(g77
g63
NtRp849
(dp850
g66
(dp851
sg75
g765
sg68
(lp852
g61
(g82
g63
NtRp853
(dp854
g66
(dp855
g86
g87
ssg75
g849
sg68
(lp856
g359
asbag61
(g82
g63
NtRp857
(dp858
g66
(dp859
g93
g94
ssg75
g849
sg68
(lp860
S':'
asbag61
(g82
g63
NtRp861
(dp862
g66
(dp863
sg75
g849
sg68
(lp864
g61
(g62
g63
NtRp865
(dp866
g66
(dp867
g74
I3
ssg75
g861
sg68
(lp868
S''
asbasbasbag61
(g77
g63
NtRp869
(dp870
g66
(dp871
sg75
g765
sg68
(lp872
g61
(g82
g63
NtRp873
(dp874
g66
(dp875
g86
g87
ssg75
g869
sg68
(lp876
g380
asbag61
(g82
g63
NtRp877
(dp878
g66
(dp879
g93
g94
ssg75
g869
sg68
(lp880
S':'
asbag61
(g82
g63
NtRp881
(dp882
g66
(dp883
sg75
g869
sg68
(lp884
g61
(g62
g63
NtRp885
(dp886
g66
(dp887
g74
I3
ssg75
g881
sg68
(lp888
S''
asbasbasbag61
(g77
g63
NtRp889
(dp890
g66
(dp891
sg75
g765
sg68
(lp892
g61
(g82
g63
NtRp893
(dp894
g66
(dp895
g86
g87
ssg75
g889
sg68
(lp896
g401
asbag61
(g82
g63
NtRp897
(dp898
g66
(dp899
g93
g94
ssg75
g889
sg68
(lp900
S':'
asbag61
(g82
g63
NtRp901
(dp902
g66
(dp903
sg75
g889
sg68
(lp904
g61
(g62
g63
NtRp905
(dp906
g66
(dp907
g74
I3
ssg75
g901
sg68
(lp908
S''
asbasbasbasbasbasbasbag61
(g77
g63
NtRp909
(dp910
g66
(dp911
sg75
g238
sg68
(lp912
g61
(g82
g63
NtRp913
(dp914
g66
(dp915
g86
g87
ssg75
g909
sg68
(lp916
S'session_id_welcome'
p917
asbag61
(g82
g63
NtRp918
(dp919
g66
(dp920
g93
g94
ssg75
g909
sg68
(lp921
S':'
asbag61
(g82
g63
NtRp922
(dp923
g66
(dp924
sg75
g909
sg68
(lp925
g61
(g62
g63
NtRp926
(dp927
g66
(dp928
g74
I4
ssg75
g922
sg68
(lp929
g61
(g70
g63
NtRp930
(dp931
g66
(dp932
g74
I3
ssg75
Nsg68
(lp933
g61
(g77
g63
NtRp934
(dp935
g66
(dp936
sg75
g930
sg68
(lp937
g61
(g82
g63
NtRp938
(dp939
g66
(dp940
g86
g87
ssg75
g934
sg68
(lp941
g275
asbag61
(g82
g63
NtRp942
(dp943
g66
(dp944
g93
g94
ssg75
g934
sg68
(lp945
S':'
asbag61
(g82
g63
NtRp946
(dp947
g66
(dp948
sg75
g934
sg68
(lp949
g61
(g62
g63
NtRp950
(dp951
g66
(dp952
g74
I3
ssg75
g946
sg68
(lp953
S''
asbasbasbag61
(g77
g63
NtRp954
(dp955
g66
(dp956
sg75
g930
sg68
(lp957
g61
(g82
g63
NtRp958
(dp959
g66
(dp960
g86
g87
ssg75
g954
sg68
(lp961
g296
asbag61
(g82
g63
NtRp962
(dp963
g66
(dp964
g93
g94
ssg75
g954
sg68
(lp965
S':'
asbag61
(g82
g63
NtRp966
(dp967
g66
(dp968
sg75
g954
sg68
(lp969
g61
(g62
g63
NtRp970
(dp971
g66
(dp972
g74
I3
ssg75
g966
sg68
(lp973
S''
asbasbasbag61
(g77
g63
NtRp974
(dp975
g66
(dp976
sg75
g930
sg68
(lp977
g61
(g82
g63
NtRp978
(dp979
g66
(dp980
g86
g87
ssg75
g974
sg68
(lp981
g317
asbag61
(g82
g63
NtRp982
(dp983
g66
(dp984
g93
g94
ssg75
g974
sg68
(lp985
S':'
asbag61
(g82
g63
NtRp986
(dp987
g66
(dp988
sg75
g974
sg68
(lp989
g61
(g62
g63
NtRp990
(dp991
g66
(dp992
g74
I3
ssg75
g986
sg68
(lp993
S''
asbasbasbag61
(g77
g63
NtRp994
(dp995
g66
(dp996
sg75
g930
sg68
(lp997
g61
(g82
g63
NtRp998
(dp999
g66
(dp1000
g86
g87
ssg75
g994
sg68
(lp1001
g338
asbag61
(g82
g63
NtRp1002
(dp1003
g66
(dp1004
g93
g94
ssg75
g994
sg68
(lp1005
S':'
asbag61
(g82
g63
NtRp1006
(dp1007
g66
(dp1008
sg75
g994
sg68
(lp1009
g61
(g62
g63
NtRp1010
(dp1011
g66
(dp1012
g74
I3
ssg75
g1006
sg68
(lp1013
S''
asbasbasbag61
(g77
g63
NtRp1014
(dp1015
g66
(dp1016
sg75
g930
sg68
(lp1017
g61
(g82
g63
NtRp1018
(dp1019
g66
(dp1020
g86
g87
ssg75
g1014
sg68
(lp1021
g359
asbag61
(g82
g63
NtRp1022
(dp1023
g66
(dp1024
g93
g94
ssg75
g1014
sg68
(lp1025
S':'
asbag61
(g82
g63
NtRp1026
(dp1027
g66
(dp1028
sg75
g1014
sg68
(lp1029
g61
(g62
g63
NtRp1030
(dp1031
g66
(dp1032
g74
I3
ssg75
g1026
sg68
(lp1033
S''
asbasbasbag61
(g77
g63
NtRp1034
(dp1035
g66
(dp1036
sg75
g930
sg68
(lp1037
g61
(g82
g63
NtRp1038
(dp1039
g66
(dp1040
g86
g87
ssg75
g1034
sg68
(lp1041
g380
asbag61
(g82
g63
NtRp1042
(dp1043
g66
(dp1044
g93
g94
ssg75
g1034
sg68
(lp1045
S':'
asbag61
(g82
g63
NtRp1046
(dp1047
g66
(dp1048
sg75
g1034
sg68
(lp1049
g61
(g62
g63
NtRp1050
(dp1051
g66
(dp1052
g74
I3
ssg75
g1046
sg68
(lp1053
S''
asbasbasbag61
(g77
g63
NtRp1054
(dp1055
g66
(dp1056
sg75
g930
sg68
(lp1057
g61
(g82
g63
NtRp1058
(dp1059
g66
(dp1060
g86
g87
ssg75
g1054
sg68
(lp1061
g401
asbag61
(g82
g63
NtRp1062
(dp1063
g66
(dp1064
g93
g94
ssg75
g1054
sg68
(lp1065
S':'
asbag61
(g82
g63
NtRp1066
(dp1067
g66
(dp1068
sg75
g1054
sg68
(lp1069
g61
(g62
g63
NtRp1070
(dp1071
g66
(dp1072
g74
I3
ssg75
g1066
sg68
(lp1073
S''
asbasbasbasbasbasbasbasbasbasbasbag61
(g77
g63
NtRp1074
(dp1075
g66
(dp1076
sg75
g71
sg68
(lp1077
g61
(g82
g63
NtRp1078
(dp1079
g66
(dp1080
g86
g87
ssg75
g1074
sg68
(lp1081
S'env'
p1082
asbag61
(g82
g63
NtRp1083
(dp1084
g66
(dp1085
g93
g94
ssg75
g1074
sg68
(lp1086
S':'
asbag61
(g82
g63
NtRp1087
(dp1088
g66
(dp1089
sg75
g1074
sg68
(lp1090
g61
(g62
g63
NtRp1091
(dp1092
g66
(dp1093
g74
I5
ssg75
g1087
sg68
(lp1094
g61
(g70
g63
NtRp1095
(dp1096
g66
(dp1097
g74
I4
ssg75
Nsg68
(lp1098
g61
(g77
g63
NtRp1099
(dp1100
g66
(dp1101
sg75
g1095
sg68
(lp1102
g61
(g82
g63
NtRp1103
(dp1104
g66
(dp1105
g86
g87
ssg75
g1099
sg68
(lp1106
S'app_folders'
p1107
asbag61
(g82
g63
NtRp1108
(dp1109
g66
(dp1110
g93
g94
ssg75
g1099
sg68
(lp1111
S':'
asbag61
(g82
g63
NtRp1112
(dp1113
g66
(dp1114
sg75
g1099
sg68
(lp1115
g61
(g62
g63
NtRp1116
(dp1117
g66
(dp1118
g74
I4
ssg75
g1112
sg68
(lp1119
S"set(['C:\\\\Users\\\\omkara\\\\Desktop\\\\web2py\\\\applications\\\\admin\\\\', 'C:\\\\Users\\\\omkara\\\\Desktop\\\\web2py\\\\applications\\\\welcome\\\\', 'C:\\\\Users\\\\omkara\\\\Desktop\\\\web2py\\\\applications\\\\slug_register_page\\\\', 'C:\\\\Users\\\\omkara\\\\Desktop\\\\web2py\\\\applications\\\\SlugBarter\\\\'])"
p1120
asbasbasbag61
(g77
g63
NtRp1121
(dp1122
g66
(dp1123
sg75
g1095
sg68
(lp1124
g61
(g82
g63
NtRp1125
(dp1126
g66
(dp1127
g86
g87
ssg75
g1121
sg68
(lp1128
S'applications_parent'
p1129
asbag61
(g82
g63
NtRp1130
(dp1131
g66
(dp1132
g93
g94
ssg75
g1121
sg68
(lp1133
S':'
asbag61
(g82
g63
NtRp1134
(dp1135
g66
(dp1136
sg75
g1121
sg68
(lp1137
g61
(g62
g63
NtRp1138
(dp1139
g66
(dp1140
g74
I4
ssg75
g1134
sg68
(lp1141
S'C:\\Users\\omkara\\Desktop\\web2py'
p1142
asbasbasbag61
(g77
g63
NtRp1143
(dp1144
g66
(dp1145
sg75
g1095
sg68
(lp1146
g61
(g82
g63
NtRp1147
(dp1148
g66
(dp1149
g86
g87
ssg75
g1143
sg68
(lp1150
S'cmd_args'
p1151
asbag61
(g82
g63
NtRp1152
(dp1153
g66
(dp1154
g93
g94
ssg75
g1143
sg68
(lp1155
S':'
asbag61
(g82
g63
NtRp1156
(dp1157
g66
(dp1158
sg75
g1143
sg68
(lp1159
g61
(g62
g63
NtRp1160
(dp1161
g66
(dp1162
g74
I4
ssg75
g1156
sg68
(lp1163
g61
(g70
g63
NtRp1164
(dp1165
g66
(dp1166
g74
I3
ssg75
Nsg68
(lp1167
sbasbasbasbag61
(g77
g63
NtRp1168
(dp1169
g66
(dp1170
sg75
g1095
sg68
(lp1171
g61
(g82
g63
NtRp1172
(dp1173
g66
(dp1174
g86
g87
ssg75
g1168
sg68
(lp1175
S'cmd_options'
p1176
asbag61
(g82
g63
NtRp1177
(dp1178
g66
(dp1179
g93
g94
ssg75
g1168
sg68
(lp1180
S':'
asbag61
(g82
g63
NtRp1181
(dp1182
g66
(dp1183
sg75
g1168
sg68
(lp1184
g61
(g62
g63
NtRp1185
(dp1186
g66
(dp1187
g74
I4
ssg75
g1181
sg68
(lp1188
S"<Values at 0x27b1f80: {'verbose': False, 'ip': '127.0.0.1', 'shutdown_timeout': 5, 'taskbar': False, 'nocron': False, 'pid_filename': 'httpserver.pid', 'maxthreads': None, 'softcron': False, 'server_name': 'omkara-PC', 'bpython': False, 'nogui': False, 'port': 8000, 'extcron': False, 'debuglevel': 30, 'test': None, 'folder': 'C:\\\\Users\\\\omkara\\\\Desktop\\\\web2py', 'config': '', 'import_models': False, 'winservice': '', 'shell': None, 'run': '', 'log_filename': 'httpserver.log', 'args': [''], 'socket_timeout': 5, 'ssl_ca_certificate': None, 'scheduler': None, 'profiler_filename': None, 'ssl_private_key': '', 'password': '<ask>', 'request_queue_size': 5, 'ssl_certificate': '', 'cronjob': False, 'numthreads': None, 'quiet': False, 'interfaces': None, 'minthreads': None, 'timeout': 10, 'plain': False, 'nobanner': False}>"
p1189
asbasbasbag61
(g77
g63
NtRp1190
(dp1191
g66
(dp1192
sg75
g1095
sg68
(lp1193
g61
(g82
g63
NtRp1194
(dp1195
g66
(dp1196
g86
g87
ssg75
g1190
sg68
(lp1197
S'db_sessions'
p1198
asbag61
(g82
g63
NtRp1199
(dp1200
g66
(dp1201
g93
g94
ssg75
g1190
sg68
(lp1202
S':'
asbag61
(g82
g63
NtRp1203
(dp1204
g66
(dp1205
sg75
g1190
sg68
(lp1206
g61
(g62
g63
NtRp1207
(dp1208
g66
(dp1209
g74
I4
ssg75
g1203
sg68
(lp1210
S'set([])'
p1211
asbasbasbag61
(g77
g63
NtRp1212
(dp1213
g66
(dp1214
sg75
g1095
sg68
(lp1215
g61
(g82
g63
NtRp1216
(dp1217
g66
(dp1218
g86
g87
ssg75
g1212
sg68
(lp1219
S'debugging'
p1220
asbag61
(g82
g63
NtRp1221
(dp1222
g66
(dp1223
g93
g94
ssg75
g1212
sg68
(lp1224
S':'
asbag61
(g82
g63
NtRp1225
(dp1226
g66
(dp1227
sg75
g1212
sg68
(lp1228
g61
(g62
g63
NtRp1229
(dp1230
g66
(dp1231
g74
I4
ssg75
g1225
sg68
(lp1232
g104
asbasbasbag61
(g77
g63
NtRp1233
(dp1234
g66
(dp1235
sg75
g1095
sg68
(lp1236
g61
(g82
g63
NtRp1237
(dp1238
g66
(dp1239
g86
g87
ssg75
g1233
sg68
(lp1240
S'gluon_parent'
p1241
asbag61
(g82
g63
NtRp1242
(dp1243
g66
(dp1244
g93
g94
ssg75
g1233
sg68
(lp1245
S':'
asbag61
(g82
g63
NtRp1246
(dp1247
g66
(dp1248
sg75
g1233
sg68
(lp1249
g61
(g62
g63
NtRp1250
(dp1251
g66
(dp1252
g74
I4
ssg75
g1246
sg68
(lp1253
S'C:\\Users\\omkara\\Desktop\\web2py'
p1254
asbasbasbag61
(g77
g63
NtRp1255
(dp1256
g66
(dp1257
sg75
g1095
sg68
(lp1258
g61
(g82
g63
NtRp1259
(dp1260
g66
(dp1261
g86
g87
ssg75
g1255
sg68
(lp1262
S'http_accept'
p1263
asbag61
(g82
g63
NtRp1264
(dp1265
g66
(dp1266
g93
g94
ssg75
g1255
sg68
(lp1267
S':'
asbag61
(g82
g63
NtRp1268
(dp1269
g66
(dp1270
sg75
g1255
sg68
(lp1271
g61
(g62
g63
NtRp1272
(dp1273
g66
(dp1274
g74
I4
ssg75
g1268
sg68
(lp1275
S'text/html,application/xhtml+xml,application/xml;q=0.9,*/*;q=0.8'
p1276
asbasbasbag61
(g77
g63
NtRp1277
(dp1278
g66
(dp1279
sg75
g1095
sg68
(lp1280
g61
(g82
g63
NtRp1281
(dp1282
g66
(dp1283
g86
g87
ssg75
g1277
sg68
(lp1284
S'http_accept_charset'
p1285
asbag61
(g82
g63
NtRp1286
(dp1287
g66
(dp1288
g93
g94
ssg75
g1277
sg68
(lp1289
S':'
asbag61
(g82
g63
NtRp1290
(dp1291
g66
(dp1292
sg75
g1277
sg68
(lp1293
g61
(g62
g63
NtRp1294
(dp1295
g66
(dp1296
g74
I4
ssg75
g1290
sg68
(lp1297
S'ISO-8859-1,utf-8;q=0.7,*;q=0.3'
p1298
asbasbasbag61
(g77
g63
NtRp1299
(dp1300
g66
(dp1301
sg75
g1095
sg68
(lp1302
g61
(g82
g63
NtRp1303
(dp1304
g66
(dp1305
g86
g87
ssg75
g1299
sg68
(lp1306
S'http_accept_encoding'
p1307
asbag61
(g82
g63
NtRp1308
(dp1309
g66
(dp1310
g93
g94
ssg75
g1299
sg68
(lp1311
S':'
asbag61
(g82
g63
NtRp1312
(dp1313
g66
(dp1314
sg75
g1299
sg68
(lp1315
g61
(g62
g63
NtRp1316
(dp1317
g66
(dp1318
g74
I4
ssg75
g1312
sg68
(lp1319
S'gzip,deflate,sdch'
p1320
asbasbasbag61
(g77
g63
NtRp1321
(dp1322
g66
(dp1323
sg75
g1095
sg68
(lp1324
g61
(g82
g63
NtRp1325
(dp1326
g66
(dp1327
g86
g87
ssg75
g1321
sg68
(lp1328
S'http_accept_language'
p1329
asbag61
(g82
g63
NtRp1330
(dp1331
g66
(dp1332
g93
g94
ssg75
g1321
sg68
(lp1333
S':'
asbag61
(g82
g63
NtRp1334
(dp1335
g66
(dp1336
sg75
g1321
sg68
(lp1337
g61
(g62
g63
NtRp1338
(dp1339
g66
(dp1340
g74
I4
ssg75
g1334
sg68
(lp1341
S'en-US,en;q=0.8'
p1342
asbasbasbag61
(g77
g63
NtRp1343
(dp1344
g66
(dp1345
sg75
g1095
sg68
(lp1346
g61
(g82
g63
NtRp1347
(dp1348
g66
(dp1349
g86
g87
ssg75
g1343
sg68
(lp1350
S'http_connection'
p1351
asbag61
(g82
g63
NtRp1352
(dp1353
g66
(dp1354
g93
g94
ssg75
g1343
sg68
(lp1355
S':'
asbag61
(g82
g63
NtRp1356
(dp1357
g66
(dp1358
sg75
g1343
sg68
(lp1359
g61
(g62
g63
NtRp1360
(dp1361
g66
(dp1362
g74
I4
ssg75
g1356
sg68
(lp1363
S'keep-alive'
p1364
asbasbasbag61
(g77
g63
NtRp1365
(dp1366
g66
(dp1367
sg75
g1095
sg68
(lp1368
g61
(g82
g63
NtRp1369
(dp1370
g66
(dp1371
g86
g87
ssg75
g1365
sg68
(lp1372
S'http_cookie'
p1373
asbag61
(g82
g63
NtRp1374
(dp1375
g66
(dp1376
g93
g94
ssg75
g1365
sg68
(lp1377
S':'
asbag61
(g82
g63
NtRp1378
(dp1379
g66
(dp1380
sg75
g1365
sg68
(lp1381
g61
(g62
g63
NtRp1382
(dp1383
g66
(dp1384
g74
I4
ssg75
g1378
sg68
(lp1385
S'session_id_onlinenotes_p1_=127.0.0.1-2b1a349f-aa95-4718-93d5-e7df1c85d951; session_id_welcome=127.0.0.1-a1b3016b-66b8-408b-ae8e-37231f35f16e; session_id_slug_register_page=127.0.0.1-c2775933-22a4-419d-80e2-4c993aff45c7; session_id_slugbarter=127.0.0.1-e6ebae72-1bbc-48a5-9458-95dbb65a4e54; session_id_admin=127.0.0.1-3b1553ef-7186-4588-80e8-d2bbbaa88c9f'
p1386
asbasbasbag61
(g77
g63
NtRp1387
(dp1388
g66
(dp1389
sg75
g1095
sg68
(lp1390
g61
(g82
g63
NtRp1391
(dp1392
g66
(dp1393
g86
g87
ssg75
g1387
sg68
(lp1394
S'http_host'
p1395
asbag61
(g82
g63
NtRp1396
(dp1397
g66
(dp1398
g93
g94
ssg75
g1387
sg68
(lp1399
S':'
asbag61
(g82
g63
NtRp1400
(dp1401
g66
(dp1402
sg75
g1387
sg68
(lp1403
g61
(g62
g63
NtRp1404
(dp1405
g66
(dp1406
g74
I4
ssg75
g1400
sg68
(lp1407
S'127.0.0.1:8000'
p1408
asbasbasbag61
(g77
g63
NtRp1409
(dp1410
g66
(dp1411
sg75
g1095
sg68
(lp1412
g61
(g82
g63
NtRp1413
(dp1414
g66
(dp1415
g86
g87
ssg75
g1409
sg68
(lp1416
S'http_referer'
p1417
asbag61
(g82
g63
NtRp1418
(dp1419
g66
(dp1420
g93
g94
ssg75
g1409
sg68
(lp1421
S':'
asbag61
(g82
g63
NtRp1422
(dp1423
g66
(dp1424
sg75
g1409
sg68
(lp1425
g61
(g62
g63
NtRp1426
(dp1427
g66
(dp1428
g74
I4
ssg75
g1422
sg68
(lp1429
S'http://127.0.0.1:8000/admin/default/design/SlugBarter'
p1430
asbasbasbag61
(g77
g63
NtRp1431
(dp1432
g66
(dp1433
sg75
g1095
sg68
(lp1434
g61
(g82
g63
NtRp1435
(dp1436
g66
(dp1437
g86
g87
ssg75
g1431
sg68
(lp1438
S'http_user_agent'
p1439
asbag61
(g82
g63
NtRp1440
(dp1441
g66
(dp1442
g93
g94
ssg75
g1431
sg68
(lp1443
S':'
asbag61
(g82
g63
NtRp1444
(dp1445
g66
(dp1446
sg75
g1431
sg68
(lp1447
g61
(g62
g63
NtRp1448
(dp1449
g66
(dp1450
g74
I4
ssg75
g1444
sg68
(lp1451
S'Mozilla/5.0 (Windows NT 6.1) AppleWebKit/537.11 (KHTML, like Gecko) Chrome/23.0.1271.64 Safari/537.11'
p1452
asbasbasbag61
(g77
g63
NtRp1453
(dp1454
g66
(dp1455
sg75
g1095
sg68
(lp1456
g61
(g82
g63
NtRp1457
(dp1458
g66
(dp1459
g86
g87
ssg75
g1453
sg68
(lp1460
S'is_jython'
p1461
asbag61
(g82
g63
NtRp1462
(dp1463
g66
(dp1464
g93
g94
ssg75
g1453
sg68
(lp1465
S':'
asbag61
(g82
g63
NtRp1466
(dp1467
g66
(dp1468
sg75
g1453
sg68
(lp1469
g61
(g62
g63
NtRp1470
(dp1471
g66
(dp1472
g74
I4
ssg75
g1466
sg68
(lp1473
g104
asbasbasbag61
(g77
g63
NtRp1474
(dp1475
g66
(dp1476
sg75
g1095
sg68
(lp1477
g61
(g82
g63
NtRp1478
(dp1479
g66
(dp1480
g86
g87
ssg75
g1474
sg68
(lp1481
S'is_pypy'
p1482
asbag61
(g82
g63
NtRp1483
(dp1484
g66
(dp1485
g93
g94
ssg75
g1474
sg68
(lp1486
S':'
asbag61
(g82
g63
NtRp1487
(dp1488
g66
(dp1489
sg75
g1474
sg68
(lp1490
g61
(g62
g63
NtRp1491
(dp1492
g66
(dp1493
g74
I4
ssg75
g1487
sg68
(lp1494
g104
asbasbasbag61
(g77
g63
NtRp1495
(dp1496
g66
(dp1497
sg75
g1095
sg68
(lp1498
g61
(g82
g63
NtRp1499
(dp1500
g66
(dp1501
g86
g87
ssg75
g1495
sg68
(lp1502
S'path_info'
p1503
asbag61
(g82
g63
NtRp1504
(dp1505
g66
(dp1506
g93
g94
ssg75
g1495
sg68
(lp1507
S':'
asbag61
(g82
g63
NtRp1508
(dp1509
g66
(dp1510
sg75
g1495
sg68
(lp1511
g61
(g62
g63
NtRp1512
(dp1513
g66
(dp1514
g74
I4
ssg75
g1508
sg68
(lp1515
S'/SlugBarter/default/index'
p1516
asbasbasbag61
(g77
g63
NtRp1517
(dp1518
g66
(dp1519
sg75
g1095
sg68
(lp1520
g61
(g82
g63
NtRp1521
(dp1522
g66
(dp1523
g86
g87
ssg75
g1517
sg68
(lp1524
S'query_string'
p1525
asbag61
(g82
g63
NtRp1526
(dp1527
g66
(dp1528
g93
g94
ssg75
g1517
sg68
(lp1529
S':'
asbag61
(g82
g63
NtRp1530
(dp1531
g66
(dp1532
sg75
g1517
sg68
(lp1533
g61
(g62
g63
NtRp1534
(dp1535
g66
(dp1536
g74
I4
ssg75
g1530
sg68
(lp1537
S''
asbasbasbag61
(g77
g63
NtRp1538
(dp1539
g66
(dp1540
sg75
g1095
sg68
(lp1541
g61
(g82
g63
NtRp1542
(dp1543
g66
(dp1544
g86
g87
ssg75
g1538
sg68
(lp1545
S'remote_addr'
p1546
asbag61
(g82
g63
NtRp1547
(dp1548
g66
(dp1549
g93
g94
ssg75
g1538
sg68
(lp1550
S':'
asbag61
(g82
g63
NtRp1551
(dp1552
g66
(dp1553
sg75
g1538
sg68
(lp1554
g61
(g62
g63
NtRp1555
(dp1556
g66
(dp1557
g74
I4
ssg75
g1551
sg68
(lp1558
g194
asbasbasbag61
(g77
g63
NtRp1559
(dp1560
g66
(dp1561
sg75
g1095
sg68
(lp1562
g61
(g82
g63
NtRp1563
(dp1564
g66
(dp1565
g86
g87
ssg75
g1559
sg68
(lp1566
S'remote_port'
p1567
asbag61
(g82
g63
NtRp1568
(dp1569
g66
(dp1570
g93
g94
ssg75
g1559
sg68
(lp1571
S':'
asbag61
(g82
g63
NtRp1572
(dp1573
g66
(dp1574
sg75
g1559
sg68
(lp1575
g61
(g62
g63
NtRp1576
(dp1577
g66
(dp1578
g74
I4
ssg75
g1572
sg68
(lp1579
S'49331'
p1580
asbasbasbag61
(g77
g63
NtRp1581
(dp1582
g66
(dp1583
sg75
g1095
sg68
(lp1584
g61
(g82
g63
NtRp1585
(dp1586
g66
(dp1587
g86
g87
ssg75
g1581
sg68
(lp1588
S'request_method'
p1589
asbag61
(g82
g63
NtRp1590
(dp1591
g66
(dp1592
g93
g94
ssg75
g1581
sg68
(lp1593
S':'
asbag61
(g82
g63
NtRp1594
(dp1595
g66
(dp1596
sg75
g1581
sg68
(lp1597
g61
(g62
g63
NtRp1598
(dp1599
g66
(dp1600
g74
I4
ssg75
g1594
sg68
(lp1601
S'GET'
p1602
asbasbasbag61
(g77
g63
NtRp1603
(dp1604
g66
(dp1605
sg75
g1095
sg68
(lp1606
g61
(g82
g63
NtRp1607
(dp1608
g66
(dp1609
g86
g87
ssg75
g1603
sg68
(lp1610
S'script_name'
p1611
asbag61
(g82
g63
NtRp1612
(dp1613
g66
(dp1614
g93
g94
ssg75
g1603
sg68
(lp1615
S':'
asbag61
(g82
g63
NtRp1616
(dp1617
g66
(dp1618
sg75
g1603
sg68
(lp1619
g61
(g62
g63
NtRp1620
(dp1621
g66
(dp1622
g74
I4
ssg75
g1616
sg68
(lp1623
S''
asbasbasbag61
(g77
g63
NtRp1624
(dp1625
g66
(dp1626
sg75
g1095
sg68
(lp1627
g61
(g82
g63
NtRp1628
(dp1629
g66
(dp1630
g86
g87
ssg75
g1624
sg68
(lp1631
S'server_name'
p1632
asbag61
(g82
g63
NtRp1633
(dp1634
g66
(dp1635
g93
g94
ssg75
g1624
sg68
(lp1636
S':'
asbag61
(g82
g63
NtRp1637
(dp1638
g66
(dp1639
sg75
g1624
sg68
(lp1640
g61
(g62
g63
NtRp1641
(dp1642
g66
(dp1643
g74
I4
ssg75
g1637
sg68
(lp1644
S'omkara-PC'
p1645
asbasbasbag61
(g77
g63
NtRp1646
(dp1647
g66
(dp1648
sg75
g1095
sg68
(lp1649
g61
(g82
g63
NtRp1650
(dp1651
g66
(dp1652
g86
g87
ssg75
g1646
sg68
(lp1653
S'server_port'
p1654
asbag61
(g82
g63
NtRp1655
(dp1656
g66
(dp1657
g93
g94
ssg75
g1646
sg68
(lp1658
S':'
asbag61
(g82
g63
NtRp1659
(dp1660
g66
(dp1661
sg75
g1646
sg68
(lp1662
g61
(g62
g63
NtRp1663
(dp1664
g66
(dp1665
g74
I4
ssg75
g1659
sg68
(lp1666
S'8000'
p1667
asbasbasbag61
(g77
g63
NtRp1668
(dp1669
g66
(dp1670
sg75
g1095
sg68
(lp1671
g61
(g82
g63
NtRp1672
(dp1673
g66
(dp1674
g86
g87
ssg75
g1668
sg68
(lp1675
S'server_protocol'
p1676
asbag61
(g82
g63
NtRp1677
(dp1678
g66
(dp1679
g93
g94
ssg75
g1668
sg68
(lp1680
S':'
asbag61
(g82
g63
NtRp1681
(dp1682
g66
(dp1683
sg75
g1668
sg68
(lp1684
g61
(g62
g63
NtRp1685
(dp1686
g66
(dp1687
g74
I4
ssg75
g1681
sg68
(lp1688
S'HTTP/1.1'
p1689
asbasbasbag61
(g77
g63
NtRp1690
(dp1691
g66
(dp1692
sg75
g1095
sg68
(lp1693
g61
(g82
g63
NtRp1694
(dp1695
g66
(dp1696
g86
g87
ssg75
g1690
sg68
(lp1697
S'server_software'
p1698
asbag61
(g82
g63
NtRp1699
(dp1700
g66
(dp1701
g93
g94
ssg75
g1690
sg68
(lp1702
S':'
asbag61
(g82
g63
NtRp1703
(dp1704
g66
(dp1705
sg75
g1690
sg68
(lp1706
g61
(g62
g63
NtRp1707
(dp1708
g66
(dp1709
g74
I4
ssg75
g1703
sg68
(lp1710
S'Rocket 1.2.4'
p1711
asbasbasbag61
(g77
g63
NtRp1712
(dp1713
g66
(dp1714
sg75
g1095
sg68
(lp1715
g61
(g82
g63
NtRp1716
(dp1717
g66
(dp1718
g86
g87
ssg75
g1712
sg68
(lp1719
S'web2py_crontype'
p1720
asbag61
(g82
g63
NtRp1721
(dp1722
g66
(dp1723
g93
g94
ssg75
g1712
sg68
(lp1724
S':'
asbag61
(g82
g63
NtRp1725
(dp1726
g66
(dp1727
sg75
g1712
sg68
(lp1728
g61
(g62
g63
NtRp1729
(dp1730
g66
(dp1731
g74
I4
ssg75
g1725
sg68
(lp1732
S'hard'
p1733
asbasbasbag61
(g77
g63
NtRp1734
(dp1735
g66
(dp1736
sg75
g1095
sg68
(lp1737
g61
(g82
g63
NtRp1738
(dp1739
g66
(dp1740
g86
g87
ssg75
g1734
sg68
(lp1741
S'web2py_path'
p1742
asbag61
(g82
g63
NtRp1743
(dp1744
g66
(dp1745
g93
g94
ssg75
g1734
sg68
(lp1746
S':'
asbag61
(g82
g63
NtRp1747
(dp1748
g66
(dp1749
sg75
g1734
sg68
(lp1750
g61
(g62
g63
NtRp1751
(dp1752
g66
(dp1753
g74
I4
ssg75
g1747
sg68
(lp1754
g1142
asbasbasbag61
(g77
g63
NtRp1755
(dp1756
g66
(dp1757
sg75
g1095
sg68
(lp1758
g61
(g82
g63
NtRp1759
(dp1760
g66
(dp1761
g86
g87
ssg75
g1755
sg68
(lp1762
S'web2py_version'
p1763
asbag61
(g82
g63
NtRp1764
(dp1765
g66
(dp1766
g93
g94
ssg75
g1755
sg68
(lp1767
S':'
asbag61
(g82
g63
NtRp1768
(dp1769
g66
(dp1770
sg75
g1755
sg68
(lp1771
g61
(g62
g63
NtRp1772
(dp1773
g66
(dp1774
g74
I4
ssg75
g1768
sg68
(lp1775
g61
(g70
g63
NtRp1776
(dp1777
g66
(dp1778
g74
I3
ssg75
Nsg68
(lp1779
g61
(g77
g63
NtRp1780
(dp1781
g66
(dp1782
sg75
g1776
sg68
(lp1783
g61
(g82
g63
NtRp1784
(dp1785
g66
(dp1786
sg75
g1780
sg68
(lp1787
g61
(g62
g63
NtRp1788
(dp1789
g66
(dp1790
g74
I3
ssg75
g1784
sg68
(lp1791
S'1'
asbasbasbag61
(g77
g63
NtRp1792
(dp1793
g66
(dp1794
sg75
g1776
sg68
(lp1795
g61
(g82
g63
NtRp1796
(dp1797
g66
(dp1798
sg75
g1792
sg68
(lp1799
g61
(g62
g63
NtRp1800
(dp1801
g66
(dp1802
g74
I3
ssg75
g1796
sg68
(lp1803
S'99'
p1804
asbasbasbag61
(g77
g63
NtRp1805
(dp1806
g66
(dp1807
sg75
g1776
sg68
(lp1808
g61
(g82
g63
NtRp1809
(dp1810
g66
(dp1811
sg75
g1805
sg68
(lp1812
g61
(g62
g63
NtRp1813
(dp1814
g66
(dp1815
g74
I3
ssg75
g1809
sg68
(lp1816
S'7'
asbasbasbag61
(g77
g63
NtRp1817
(dp1818
g66
(dp1819
sg75
g1776
sg68
(lp1820
g61
(g82
g63
NtRp1821
(dp1822
g66
(dp1823
sg75
g1817
sg68
(lp1824
g61
(g62
g63
NtRp1825
(dp1826
g66
(dp1827
g74
I3
ssg75
g1821
sg68
(lp1828
S'datetime.datetime(2012, 3, 4, 22, 12, 8)'
p1829
asbasbasbag61
(g77
g63
NtRp1830
(dp1831
g66
(dp1832
sg75
g1776
sg68
(lp1833
g61
(g82
g63
NtRp1834
(dp1835
g66
(dp1836
sg75
g1830
sg68
(lp1837
g61
(g62
g63
NtRp1838
(dp1839
g66
(dp1840
g74
I3
ssg75
g1834
sg68
(lp1841
S'stable'
p1842
asbasbasbasbasbasbasbag61
(g77
g63
NtRp1843
(dp1844
g66
(dp1845
sg75
g1095
sg68
(lp1846
g61
(g82
g63
NtRp1847
(dp1848
g66
(dp1849
g86
g87
ssg75
g1843
sg68
(lp1850
S'wsgi_errors'
p1851
asbag61
(g82
g63
NtRp1852
(dp1853
g66
(dp1854
g93
g94
ssg75
g1843
sg68
(lp1855
S':'
asbag61
(g82
g63
NtRp1856
(dp1857
g66
(dp1858
sg75
g1843
sg68
(lp1859
g61
(g62
g63
NtRp1860
(dp1861
g66
(dp1862
g74
I4
ssg75
g1856
sg68
(lp1863
S"<open file '<stderr>', mode 'w' at 0x016000B0>"
p1864
asbasbasbag61
(g77
g63
NtRp1865
(dp1866
g66
(dp1867
sg75
g1095
sg68
(lp1868
g61
(g82
g63
NtRp1869
(dp1870
g66
(dp1871
g86
g87
ssg75
g1865
sg68
(lp1872
S'wsgi_file_wrapper'
p1873
asbag61
(g82
g63
NtRp1874
(dp1875
g66
(dp1876
g93
g94
ssg75
g1865
sg68
(lp1877
S':'
asbag61
(g82
g63
NtRp1878
(dp1879
g66
(dp1880
sg75
g1865
sg68
(lp1881
g61
(g62
g63
NtRp1882
(dp1883
g66
(dp1884
g74
I4
ssg75
g1878
sg68
(lp1885
S'<class wsgiref.util.FileWrapper at 0x025361B0>'
p1886
asbasbasbag61
(g77
g63
NtRp1887
(dp1888
g66
(dp1889
sg75
g1095
sg68
(lp1890
g61
(g82
g63
NtRp1891
(dp1892
g66
(dp1893
g86
g87
ssg75
g1887
sg68
(lp1894
S'wsgi_input'
p1895
asbag61
(g82
g63
NtRp1896
(dp1897
g66
(dp1898
g93
g94
ssg75
g1887
sg68
(lp1899
S':'
asbag61
(g82
g63
NtRp1900
(dp1901
g66
(dp1902
sg75
g1887
sg68
(lp1903
g61
(g62
g63
NtRp1904
(dp1905
g66
(dp1906
g74
I4
ssg75
g1900
sg68
(lp1907
S'<socket._fileobject object at 0x06203C70>'
p1908
asbasbasbag61
(g77
g63
NtRp1909
(dp1910
g66
(dp1911
sg75
g1095
sg68
(lp1912
g61
(g82
g63
NtRp1913
(dp1914
g66
(dp1915
g86
g87
ssg75
g1909
sg68
(lp1916
S'wsgi_multiprocess'
p1917
asbag61
(g82
g63
NtRp1918
(dp1919
g66
(dp1920
g93
g94
ssg75
g1909
sg68
(lp1921
S':'
asbag61
(g82
g63
NtRp1922
(dp1923
g66
(dp1924
sg75
g1909
sg68
(lp1925
g61
(g62
g63
NtRp1926
(dp1927
g66
(dp1928
g74
I4
ssg75
g1922
sg68
(lp1929
g104
asbasbasbag61
(g77
g63
NtRp1930
(dp1931
g66
(dp1932
sg75
g1095
sg68
(lp1933
g61
(g82
g63
NtRp1934
(dp1935
g66
(dp1936
g86
g87
ssg75
g1930
sg68
(lp1937
S'wsgi_multithread'
p1938
asbag61
(g82
g63
NtRp1939
(dp1940
g66
(dp1941
g93
g94
ssg75
g1930
sg68
(lp1942
S':'
asbag61
(g82
g63
NtRp1943
(dp1944
g66
(dp1945
sg75
g1930
sg68
(lp1946
g61
(g62
g63
NtRp1947
(dp1948
g66
(dp1949
g74
I4
ssg75
g1943
sg68
(lp1950
S'True'
p1951
asbasbasbag61
(g77
g63
NtRp1952
(dp1953
g66
(dp1954
sg75
g1095
sg68
(lp1955
g61
(g82
g63
NtRp1956
(dp1957
g66
(dp1958
g86
g87
ssg75
g1952
sg68
(lp1959
S'wsgi_run_once'
p1960
asbag61
(g82
g63
NtRp1961
(dp1962
g66
(dp1963
g93
g94
ssg75
g1952
sg68
(lp1964
S':'
asbag61
(g82
g63
NtRp1965
(dp1966
g66
(dp1967
sg75
g1952
sg68
(lp1968
g61
(g62
g63
NtRp1969
(dp1970
g66
(dp1971
g74
I4
ssg75
g1965
sg68
(lp1972
g104
asbasbasbag61
(g77
g63
NtRp1973
(dp1974
g66
(dp1975
sg75
g1095
sg68
(lp1976
g61
(g82
g63
NtRp1977
(dp1978
g66
(dp1979
g86
g87
ssg75
g1973
sg68
(lp1980
S'wsgi_url_scheme'
p1981
asbag61
(g82
g63
NtRp1982
(dp1983
g66
(dp1984
g93
g94
ssg75
g1973
sg68
(lp1985
S':'
asbag61
(g82
g63
NtRp1986
(dp1987
g66
(dp1988
sg75
g1973
sg68
(lp1989
g61
(g62
g63
NtRp1990
(dp1991
g66
(dp1992
g74
I4
ssg75
g1986
sg68
(lp1993
S'http'
p1994
asbasbasbag61
(g77
g63
NtRp1995
(dp1996
g66
(dp1997
sg75
g1095
sg68
(lp1998
g61
(g82
g63
NtRp1999
(dp2000
g66
(dp2001
g86
g87
ssg75
g1995
sg68
(lp2002
S'wsgi_version'
p2003
asbag61
(g82
g63
NtRp2004
(dp2005
g66
(dp2006
g93
g94
ssg75
g1995
sg68
(lp2007
S':'
asbag61
(g82
g63
NtRp2008
(dp2009
g66
(dp2010
sg75
g1995
sg68
(lp2011
g61
(g62
g63
NtRp2012
(dp2013
g66
(dp2014
g74
I4
ssg75
g2008
sg68
(lp2015
g61
(g70
g63
NtRp2016
(dp2017
g66
(dp2018
g74
I3
ssg75
Nsg68
(lp2019
g61
(g77
g63
NtRp2020
(dp2021
g66
(dp2022
sg75
g2016
sg68
(lp2023
g61
(g82
g63
NtRp2024
(dp2025
g66
(dp2026
sg75
g2020
sg68
(lp2027
g61
(g62
g63
NtRp2028
(dp2029
g66
(dp2030
g74
I3
ssg75
g2024
sg68
(lp2031
S'1'
asbasbasbag61
(g77
g63
NtRp2032
(dp2033
g66
(dp2034
sg75
g2016
sg68
(lp2035
g61
(g82
g63
NtRp2036
(dp2037
g66
(dp2038
sg75
g2032
sg68
(lp2039
g61
(g62
g63
NtRp2040
(dp2041
g66
(dp2042
g74
I3
ssg75
g2036
sg68
(lp2043
S'0'
asbasbasbasbasbasbasbasbasbasbasbag61
(g77
g63
NtRp2044
(dp2045
g66
(dp2046
sg75
g71
sg68
(lp2047
g61
(g82
g63
NtRp2048
(dp2049
g66
(dp2050
g86
g87
ssg75
g2044
sg68
(lp2051
S'extension'
p2052
asbag61
(g82
g63
NtRp2053
(dp2054
g66
(dp2055
g93
g94
ssg75
g2044
sg68
(lp2056
S':'
asbag61
(g82
g63
NtRp2057
(dp2058
g66
(dp2059
sg75
g2044
sg68
(lp2060
g61
(g62
g63
NtRp2061
(dp2062
g66
(dp2063
g74
I5
ssg75
g2057
sg68
(lp2064
S'html'
p2065
asbasbasbag61
(g77
g63
NtRp2066
(dp2067
g66
(dp2068
sg75
g71
sg68
(lp2069
g61
(g82
g63
NtRp2070
(dp2071
g66
(dp2072
g86
g87
ssg75
g2066
sg68
(lp2073
S'folder'
p2074
asbag61
(g82
g63
NtRp2075
(dp2076
g66
(dp2077
g93
g94
ssg75
g2066
sg68
(lp2078
S':'
asbag61
(g82
g63
NtRp2079
(dp2080
g66
(dp2081
sg75
g2066
sg68
(lp2082
g61
(g62
g63
NtRp2083
(dp2084
g66
(dp2085
g74
I5
ssg75
g2079
sg68
(lp2086
S'C:\\Users\\omkara\\Desktop\\web2py\\applications\\SlugBarter\\'
p2087
asbasbasbag61
(g77
g63
NtRp2088
(dp2089
g66
(dp2090
sg75
g71
sg68
(lp2091
g61
(g82
g63
NtRp2092
(dp2093
g66
(dp2094
g86
g87
ssg75
g2088
sg68
(lp2095
S'function'
p2096
asbag61
(g82
g63
NtRp2097
(dp2098
g66
(dp2099
g93
g94
ssg75
g2088
sg68
(lp2100
S':'
asbag61
(g82
g63
NtRp2101
(dp2102
g66
(dp2103
sg75
g2088
sg68
(lp2104
g61
(g62
g63
NtRp2105
(dp2106
g66
(dp2107
g74
I5
ssg75
g2101
sg68
(lp2108
S'index'
p2109
asbasbasbag61
(g77
g63
NtRp2110
(dp2111
g66
(dp2112
sg75
g71
sg68
(lp2113
g61
(g82
g63
NtRp2114
(dp2115
g66
(dp2116
g86
g87
ssg75
g2110
sg68
(lp2117
S'get_vars'
p2118
asbag61
(g82
g63
NtRp2119
(dp2120
g66
(dp2121
g93
g94
ssg75
g2110
sg68
(lp2122
S':'
asbag61
(g82
g63
NtRp2123
(dp2124
g66
(dp2125
sg75
g2110
sg68
(lp2126
g61
(g62
g63
NtRp2127
(dp2128
g66
(dp2129
g74
I5
ssg75
g2123
sg68
(lp2130
g61
(g70
g63
NtRp2131
(dp2132
g66
(dp2133
g74
I4
ssg75
Nsg68
(lp2134
sbasbasbasbag61
(g77
g63
NtRp2135
(dp2136
g66
(dp2137
sg75
g71
sg68
(lp2138
g61
(g82
g63
NtRp2139
(dp2140
g66
(dp2141
g86
g87
ssg75
g2135
sg68
(lp2142
S'global_settings'
p2143
asbag61
(g82
g63
NtRp2144
(dp2145
g66
(dp2146
g93
g94
ssg75
g2135
sg68
(lp2147
S':'
asbag61
(g82
g63
NtRp2148
(dp2149
g66
(dp2150
sg75
g2135
sg68
(lp2151
g61
(g62
g63
NtRp2152
(dp2153
g66
(dp2154
g74
I5
ssg75
g2148
sg68
(lp2155
g61
(g70
g63
NtRp2156
(dp2157
g66
(dp2158
g74
I4
ssg75
Nsg68
(lp2159
g61
(g77
g63
NtRp2160
(dp2161
g66
(dp2162
sg75
g2156
sg68
(lp2163
g61
(g82
g63
NtRp2164
(dp2165
g66
(dp2166
g86
g87
ssg75
g2160
sg68
(lp2167
g1107
asbag61
(g82
g63
NtRp2168
(dp2169
g66
(dp2170
g93
g94
ssg75
g2160
sg68
(lp2171
S':'
asbag61
(g82
g63
NtRp2172
(dp2173
g66
(dp2174
sg75
g2160
sg68
(lp2175
g61
(g62
g63
NtRp2176
(dp2177
g66
(dp2178
g74
I4
ssg75
g2172
sg68
(lp2179
S"set(['C:\\\\Users\\\\omkara\\\\Desktop\\\\web2py\\\\applications\\\\admin\\\\', 'C:\\\\Users\\\\omkara\\\\Desktop\\\\web2py\\\\applications\\\\welcome\\\\', 'C:\\\\Users\\\\omkara\\\\Desktop\\\\web2py\\\\applications\\\\slug_register_page\\\\', 'C:\\\\Users\\\\omkara\\\\Desktop\\\\web2py\\\\applications\\\\SlugBarter\\\\'])"
p2180
asbasbasbag61
(g77
g63
NtRp2181
(dp2182
g66
(dp2183
sg75
g2156
sg68
(lp2184
g61
(g82
g63
NtRp2185
(dp2186
g66
(dp2187
g86
g87
ssg75
g2181
sg68
(lp2188
g1129
asbag61
(g82
g63
NtRp2189
(dp2190
g66
(dp2191
g93
g94
ssg75
g2181
sg68
(lp2192
S':'
asbag61
(g82
g63
NtRp2193
(dp2194
g66
(dp2195
sg75
g2181
sg68
(lp2196
g61
(g62
g63
NtRp2197
(dp2198
g66
(dp2199
g74
I4
ssg75
g2193
sg68
(lp2200
g1142
asbasbasbag61
(g77
g63
NtRp2201
(dp2202
g66
(dp2203
sg75
g2156
sg68
(lp2204
g61
(g82
g63
NtRp2205
(dp2206
g66
(dp2207
g86
g87
ssg75
g2201
sg68
(lp2208
g1151
asbag61
(g82
g63
NtRp2209
(dp2210
g66
(dp2211
g93
g94
ssg75
g2201
sg68
(lp2212
S':'
asbag61
(g82
g63
NtRp2213
(dp2214
g66
(dp2215
sg75
g2201
sg68
(lp2216
g61
(g62
g63
NtRp2217
(dp2218
g66
(dp2219
g74
I4
ssg75
g2213
sg68
(lp2220
g61
(g70
g63
NtRp2221
(dp2222
g66
(dp2223
g74
I3
ssg75
Nsg68
(lp2224
sbasbasbasbag61
(g77
g63
NtRp2225
(dp2226
g66
(dp2227
sg75
g2156
sg68
(lp2228
g61
(g82
g63
NtRp2229
(dp2230
g66
(dp2231
g86
g87
ssg75
g2225
sg68
(lp2232
g1176
asbag61
(g82
g63
NtRp2233
(dp2234
g66
(dp2235
g93
g94
ssg75
g2225
sg68
(lp2236
S':'
asbag61
(g82
g63
NtRp2237
(dp2238
g66
(dp2239
sg75
g2225
sg68
(lp2240
g61
(g62
g63
NtRp2241
(dp2242
g66
(dp2243
g74
I4
ssg75
g2237
sg68
(lp2244
S"<Values at 0x27b1f80: {'verbose': False, 'ip': '127.0.0.1', 'shutdown_timeout': 5, 'taskbar': False, 'nocron': False, 'pid_filename': 'httpserver.pid', 'maxthreads': None, 'softcron': False, 'server_name': 'omkara-PC', 'bpython': False, 'nogui': False, 'port': 8000, 'extcron': False, 'debuglevel': 30, 'test': None, 'folder': 'C:\\\\Users\\\\omkara\\\\Desktop\\\\web2py', 'config': '', 'import_models': False, 'winservice': '', 'shell': None, 'run': '', 'log_filename': 'httpserver.log', 'args': [''], 'socket_timeout': 5, 'ssl_ca_certificate': None, 'scheduler': None, 'profiler_filename': None, 'ssl_private_key': '', 'password': '<ask>', 'request_queue_size': 5, 'ssl_certificate': '', 'cronjob': False, 'numthreads': None, 'quiet': False, 'interfaces': None, 'minthreads': None, 'timeout': 10, 'plain': False, 'nobanner': False}>"
p2245
asbasbasbag61
(g77
g63
NtRp2246
(dp2247
g66
(dp2248
sg75
g2156
sg68
(lp2249
g61
(g82
g63
NtRp2250
(dp2251
g66
(dp2252
g86
g87
ssg75
g2246
sg68
(lp2253
g1198
asbag61
(g82
g63
NtRp2254
(dp2255
g66
(dp2256
g93
g94
ssg75
g2246
sg68
(lp2257
S':'
asbag61
(g82
g63
NtRp2258
(dp2259
g66
(dp2260
sg75
g2246
sg68
(lp2261
g61
(g62
g63
NtRp2262
(dp2263
g66
(dp2264
g74
I4
ssg75
g2258
sg68
(lp2265
S'set([])'
p2266
asbasbasbag61
(g77
g63
NtRp2267
(dp2268
g66
(dp2269
sg75
g2156
sg68
(lp2270
g61
(g82
g63
NtRp2271
(dp2272
g66
(dp2273
g86
g87
ssg75
g2267
sg68
(lp2274
g1220
asbag61
(g82
g63
NtRp2275
(dp2276
g66
(dp2277
g93
g94
ssg75
g2267
sg68
(lp2278
S':'
asbag61
(g82
g63
NtRp2279
(dp2280
g66
(dp2281
sg75
g2267
sg68
(lp2282
g61
(g62
g63
NtRp2283
(dp2284
g66
(dp2285
g74
I4
ssg75
g2279
sg68
(lp2286
g104
asbasbasbag61
(g77
g63
NtRp2287
(dp2288
g66
(dp2289
sg75
g2156
sg68
(lp2290
g61
(g82
g63
NtRp2291
(dp2292
g66
(dp2293
g86
g87
ssg75
g2287
sg68
(lp2294
g1241
asbag61
(g82
g63
NtRp2295
(dp2296
g66
(dp2297
g93
g94
ssg75
g2287
sg68
(lp2298
S':'
asbag61
(g82
g63
NtRp2299
(dp2300
g66
(dp2301
sg75
g2287
sg68
(lp2302
g61
(g62
g63
NtRp2303
(dp2304
g66
(dp2305
g74
I4
ssg75
g2299
sg68
(lp2306
g1254
asbasbasbag61
(g77
g63
NtRp2307
(dp2308
g66
(dp2309
sg75
g2156
sg68
(lp2310
g61
(g82
g63
NtRp2311
(dp2312
g66
(dp2313
g86
g87
ssg75
g2307
sg68
(lp2314
g1461
asbag61
(g82
g63
NtRp2315
(dp2316
g66
(dp2317
g93
g94
ssg75
g2307
sg68
(lp2318
S':'
asbag61
(g82
g63
NtRp2319
(dp2320
g66
(dp2321
sg75
g2307
sg68
(lp2322
g61
(g62
g63
NtRp2323
(dp2324
g66
(dp2325
g74
I4
ssg75
g2319
sg68
(lp2326
g104
asbasbasbag61
(g77
g63
NtRp2327
(dp2328
g66
(dp2329
sg75
g2156
sg68
(lp2330
g61
(g82
g63
NtRp2331
(dp2332
g66
(dp2333
g86
g87
ssg75
g2327
sg68
(lp2334
g1482
asbag61
(g82
g63
NtRp2335
(dp2336
g66
(dp2337
g93
g94
ssg75
g2327
sg68
(lp2338
S':'
asbag61
(g82
g63
NtRp2339
(dp2340
g66
(dp2341
sg75
g2327
sg68
(lp2342
g61
(g62
g63
NtRp2343
(dp2344
g66
(dp2345
g74
I4
ssg75
g2339
sg68
(lp2346
g104
asbasbasbag61
(g77
g63
NtRp2347
(dp2348
g66
(dp2349
sg75
g2156
sg68
(lp2350
g61
(g82
g63
NtRp2351
(dp2352
g66
(dp2353
g86
g87
ssg75
g2347
sg68
(lp2354
g1720
asbag61
(g82
g63
NtRp2355
(dp2356
g66
(dp2357
g93
g94
ssg75
g2347
sg68
(lp2358
S':'
asbag61
(g82
g63
NtRp2359
(dp2360
g66
(dp2361
sg75
g2347
sg68
(lp2362
g61
(g62
g63
NtRp2363
(dp2364
g66
(dp2365
g74
I4
ssg75
g2359
sg68
(lp2366
g1733
asbasbasbag61
(g77
g63
NtRp2367
(dp2368
g66
(dp2369
sg75
g2156
sg68
(lp2370
g61
(g82
g63
NtRp2371
(dp2372
g66
(dp2373
g86
g87
ssg75
g2367
sg68
(lp2374
g1763
asbag61
(g82
g63
NtRp2375
(dp2376
g66
(dp2377
g93
g94
ssg75
g2367
sg68
(lp2378
S':'
asbag61
(g82
g63
NtRp2379
(dp2380
g66
(dp2381
sg75
g2367
sg68
(lp2382
g61
(g62
g63
NtRp2383
(dp2384
g66
(dp2385
g74
I4
ssg75
g2379
sg68
(lp2386
g61
(g70
g63
NtRp2387
(dp2388
g66
(dp2389
g74
I3
ssg75
Nsg68
(lp2390
g61
(g77
g63
NtRp2391
(dp2392
g66
(dp2393
sg75
g2387
sg68
(lp2394
g61
(g82
g63
NtRp2395
(dp2396
g66
(dp2397
sg75
g2391
sg68
(lp2398
g61
(g62
g63
NtRp2399
(dp2400
g66
(dp2401
g74
I3
ssg75
g2395
sg68
(lp2402
S'1'
asbasbasbag61
(g77
g63
NtRp2403
(dp2404
g66
(dp2405
sg75
g2387
sg68
(lp2406
g61
(g82
g63
NtRp2407
(dp2408
g66
(dp2409
sg75
g2403
sg68
(lp2410
g61
(g62
g63
NtRp2411
(dp2412
g66
(dp2413
g74
I3
ssg75
g2407
sg68
(lp2414
S'99'
p2415
asbasbasbag61
(g77
g63
NtRp2416
(dp2417
g66
(dp2418
sg75
g2387
sg68
(lp2419
g61
(g82
g63
NtRp2420
(dp2421
g66
(dp2422
sg75
g2416
sg68
(lp2423
g61
(g62
g63
NtRp2424
(dp2425
g66
(dp2426
g74
I3
ssg75
g2420
sg68
(lp2427
S'7'
asbasbasbag61
(g77
g63
NtRp2428
(dp2429
g66
(dp2430
sg75
g2387
sg68
(lp2431
g61
(g82
g63
NtRp2432
(dp2433
g66
(dp2434
sg75
g2428
sg68
(lp2435
g61
(g62
g63
NtRp2436
(dp2437
g66
(dp2438
g74
I3
ssg75
g2432
sg68
(lp2439
S'datetime.datetime(2012, 3, 4, 22, 12, 8)'
p2440
asbasbasbag61
(g77
g63
NtRp2441
(dp2442
g66
(dp2443
sg75
g2387
sg68
(lp2444
g61
(g82
g63
NtRp2445
(dp2446
g66
(dp2447
sg75
g2441
sg68
(lp2448
g61
(g62
g63
NtRp2449
(dp2450
g66
(dp2451
g74
I3
ssg75
g2445
sg68
(lp2452
g1842
asbasbasbasbasbasbasbasbasbasbasbag61
(g77
g63
NtRp2453
(dp2454
g66
(dp2455
sg75
g71
sg68
(lp2456
g61
(g82
g63
NtRp2457
(dp2458
g66
(dp2459
g86
g87
ssg75
g2453
sg68
(lp2460
S'is_https'
p2461
asbag61
(g82
g63
NtRp2462
(dp2463
g66
(dp2464
g93
g94
ssg75
g2453
sg68
(lp2465
S':'
asbag61
(g82
g63
NtRp2466
(dp2467
g66
(dp2468
sg75
g2453
sg68
(lp2469
g61
(g62
g63
NtRp2470
(dp2471
g66
(dp2472
g74
I5
ssg75
g2466
sg68
(lp2473
g104
asbasbasbag61
(g77
g63
NtRp2474
(dp2475
g66
(dp2476
sg75
g71
sg68
(lp2477
g61
(g82
g63
NtRp2478
(dp2479
g66
(dp2480
g86
g87
ssg75
g2474
sg68
(lp2481
S'is_local'
p2482
asbag61
(g82
g63
NtRp2483
(dp2484
g66
(dp2485
g93
g94
ssg75
g2474
sg68
(lp2486
S':'
asbag61
(g82
g63
NtRp2487
(dp2488
g66
(dp2489
sg75
g2474
sg68
(lp2490
g61
(g62
g63
NtRp2491
(dp2492
g66
(dp2493
g74
I5
ssg75
g2487
sg68
(lp2494
g1951
asbasbasbag61
(g77
g63
NtRp2495
(dp2496
g66
(dp2497
sg75
g71
sg68
(lp2498
g61
(g82
g63
NtRp2499
(dp2500
g66
(dp2501
g86
g87
ssg75
g2495
sg68
(lp2502
S'is_restful'
p2503
asbag61
(g82
g63
NtRp2504
(dp2505
g66
(dp2506
g93
g94
ssg75
g2495
sg68
(lp2507
S':'
asbag61
(g82
g63
NtRp2508
(dp2509
g66
(dp2510
sg75
g2495
sg68
(lp2511
g61
(g62
g63
NtRp2512
(dp2513
g66
(dp2514
g74
I5
ssg75
g2508
sg68
(lp2515
g104
asbasbasbag61
(g77
g63
NtRp2516
(dp2517
g66
(dp2518
sg75
g71
sg68
(lp2519
g61
(g82
g63
NtRp2520
(dp2521
g66
(dp2522
g86
g87
ssg75
g2516
sg68
(lp2523
S'now'
p2524
asbag61
(g82
g63
NtRp2525
(dp2526
g66
(dp2527
g93
g94
ssg75
g2516
sg68
(lp2528
S':'
asbag61
(g82
g63
NtRp2529
(dp2530
g66
(dp2531
sg75
g2516
sg68
(lp2532
g61
(g62
g63
NtRp2533
(dp2534
g66
(dp2535
g74
I5
ssg75
g2529
sg68
(lp2536
S'datetime.datetime(2012, 11, 10, 16, 43, 10, 177000)'
p2537
asbasbasbag61
(g77
g63
NtRp2538
(dp2539
g66
(dp2540
sg75
g71
sg68
(lp2541
g61
(g82
g63
NtRp2542
(dp2543
g66
(dp2544
g86
g87
ssg75
g2538
sg68
(lp2545
S'post_vars'
p2546
asbag61
(g82
g63
NtRp2547
(dp2548
g66
(dp2549
g93
g94
ssg75
g2538
sg68
(lp2550
S':'
asbag61
(g82
g63
NtRp2551
(dp2552
g66
(dp2553
sg75
g2538
sg68
(lp2554
g61
(g62
g63
NtRp2555
(dp2556
g66
(dp2557
g74
I5
ssg75
g2551
sg68
(lp2558
g61
(g70
g63
NtRp2559
(dp2560
g66
(dp2561
g74
I4
ssg75
Nsg68
(lp2562
sbasbasbasbag61
(g77
g63
NtRp2563
(dp2564
g66
(dp2565
sg75
g71
sg68
(lp2566
g61
(g82
g63
NtRp2567
(dp2568
g66
(dp2569
g86
g87
ssg75
g2563
sg68
(lp2570
S'url'
p2571
asbag61
(g82
g63
NtRp2572
(dp2573
g66
(dp2574
g93
g94
ssg75
g2563
sg68
(lp2575
S':'
asbag61
(g82
g63
NtRp2576
(dp2577
g66
(dp2578
sg75
g2563
sg68
(lp2579
g61
(g62
g63
NtRp2580
(dp2581
g66
(dp2582
g74
I5
ssg75
g2576
sg68
(lp2583
S'/SlugBarter/default/index'
p2584
asbasbasbag61
(g77
g63
NtRp2585
(dp2586
g66
(dp2587
sg75
g71
sg68
(lp2588
g61
(g82
g63
NtRp2589
(dp2590
g66
(dp2591
g86
g87
ssg75
g2585
sg68
(lp2592
S'utcnow'
p2593
asbag61
(g82
g63
NtRp2594
(dp2595
g66
(dp2596
g93
g94
ssg75
g2585
sg68
(lp2597
S':'
asbag61
(g82
g63
NtRp2598
(dp2599
g66
(dp2600
sg75
g2585
sg68
(lp2601
g61
(g62
g63
NtRp2602
(dp2603
g66
(dp2604
g74
I5
ssg75
g2598
sg68
(lp2605
S'datetime.datetime(2012, 11, 11, 0, 43, 10, 177000)'
p2606
asbasbasbag61
(g77
g63
NtRp2607
(dp2608
g66
(dp2609
sg75
g71
sg68
(lp2610
g61
(g82
g63
NtRp2611
(dp2612
g66
(dp2613
g86
g87
ssg75
g2607
sg68
(lp2614
S'uuid'
p2615
asbag61
(g82
g63
NtRp2616
(dp2617
g66
(dp2618
g93
g94
ssg75
g2607
sg68
(lp2619
S':'
asbag61
(g82
g63
NtRp2620
(dp2621
g66
(dp2622
sg75
g2607
sg68
(lp2623
g61
(g62
g63
NtRp2624
(dp2625
g66
(dp2626
g74
I5
ssg75
g2620
sg68
(lp2627
S'SlugBarter/127.0.0.1.2012-11-10.16-43-10.3ca6e362-62d9-43cb-8586-c0cebce01085'
p2628
asbasbasbag61
(g77
g63
NtRp2629
(dp2630
g66
(dp2631
sg75
g71
sg68
(lp2632
g61
(g82
g63
NtRp2633
(dp2634
g66
(dp2635
g86
g87
ssg75
g2629
sg68
(lp2636
S'vars'
p2637
asbag61
(g82
g63
NtRp2638
(dp2639
g66
(dp2640
g93
g94
ssg75
g2629
sg68
(lp2641
S':'
asbag61
(g82
g63
NtRp2642
(dp2643
g66
(dp2644
sg75
g2629
sg68
(lp2645
g61
(g62
g63
NtRp2646
(dp2647
g66
(dp2648
g74
I5
ssg75
g2642
sg68
(lp2649
g61
(g70
g63
NtRp2650
(dp2651
g66
(dp2652
g74
I4
ssg75
Nsg68
(lp2653
sbasbasbasbag61
(g77
g63
NtRp2654
(dp2655
g66
(dp2656
sg75
g71
sg68
(lp2657
g61
(g82
g63
NtRp2658
(dp2659
g66
(dp2660
g86
g87
ssg75
g2654
sg68
(lp2661
S'wsgi'
p2662
asbag61
(g82
g63
NtRp2663
(dp2664
g66
(dp2665
g93
g94
ssg75
g2654
sg68
(lp2666
S':'
asbag61
(g82
g63
NtRp2667
(dp2668
g66
(dp2669
sg75
g2654
sg68
(lp2670
g61
(g62
g63
NtRp2671
(dp2672
g66
(dp2673
g74
I5
ssg75
g2667
sg68
(lp2674
g61
(g70
g63
NtRp2675
(dp2676
g66
(dp2677
g74
I4
ssg75
Nsg68
(lp2678
g61
(g77
g63
NtRp2679
(dp2680
g66
(dp2681
sg75
g2675
sg68
(lp2682
g61
(g82
g63
NtRp2683
(dp2684
g66
(dp2685
g86
g87
ssg75
g2679
sg68
(lp2686
S'environ'
p2687
asbag61
(g82
g63
NtRp2688
(dp2689
g66
(dp2690
g93
g94
ssg75
g2679
sg68
(lp2691
S':'
asbag61
(g82
g63
NtRp2692
(dp2693
g66
(dp2694
sg75
g2679
sg68
(lp2695
g61
(g62
g63
NtRp2696
(dp2697
g66
(dp2698
g74
I4
ssg75
g2692
sg68
(lp2699
g61
(g70
g63
NtRp2700
(dp2701
g66
(dp2702
g74
I3
ssg75
Nsg68
(lp2703
g61
(g77
g63
NtRp2704
(dp2705
g66
(dp2706
sg75
g2700
sg68
(lp2707
g61
(g82
g63
NtRp2708
(dp2709
g66
(dp2710
g86
g87
ssg75
g2704
sg68
(lp2711
S'HTTP_ACCEPT'
p2712
asbag61
(g82
g63
NtRp2713
(dp2714
g66
(dp2715
g93
g94
ssg75
g2704
sg68
(lp2716
S':'
asbag61
(g82
g63
NtRp2717
(dp2718
g66
(dp2719
sg75
g2704
sg68
(lp2720
g61
(g62
g63
NtRp2721
(dp2722
g66
(dp2723
g74
I3
ssg75
g2717
sg68
(lp2724
g1276
asbasbasbag61
(g77
g63
NtRp2725
(dp2726
g66
(dp2727
sg75
g2700
sg68
(lp2728
g61
(g82
g63
NtRp2729
(dp2730
g66
(dp2731
g86
g87
ssg75
g2725
sg68
(lp2732
S'HTTP_ACCEPT_CHARSET'
p2733
asbag61
(g82
g63
NtRp2734
(dp2735
g66
(dp2736
g93
g94
ssg75
g2725
sg68
(lp2737
S':'
asbag61
(g82
g63
NtRp2738
(dp2739
g66
(dp2740
sg75
g2725
sg68
(lp2741
g61
(g62
g63
NtRp2742
(dp2743
g66
(dp2744
g74
I3
ssg75
g2738
sg68
(lp2745
g1298
asbasbasbag61
(g77
g63
NtRp2746
(dp2747
g66
(dp2748
sg75
g2700
sg68
(lp2749
g61
(g82
g63
NtRp2750
(dp2751
g66
(dp2752
g86
g87
ssg75
g2746
sg68
(lp2753
S'HTTP_ACCEPT_ENCODING'
p2754
asbag61
(g82
g63
NtRp2755
(dp2756
g66
(dp2757
g93
g94
ssg75
g2746
sg68
(lp2758
S':'
asbag61
(g82
g63
NtRp2759
(dp2760
g66
(dp2761
sg75
g2746
sg68
(lp2762
g61
(g62
g63
NtRp2763
(dp2764
g66
(dp2765
g74
I3
ssg75
g2759
sg68
(lp2766
g1320
asbasbasbag61
(g77
g63
NtRp2767
(dp2768
g66
(dp2769
sg75
g2700
sg68
(lp2770
g61
(g82
g63
NtRp2771
(dp2772
g66
(dp2773
g86
g87
ssg75
g2767
sg68
(lp2774
S'HTTP_ACCEPT_LANGUAGE'
p2775
asbag61
(g82
g63
NtRp2776
(dp2777
g66
(dp2778
g93
g94
ssg75
g2767
sg68
(lp2779
S':'
asbag61
(g82
g63
NtRp2780
(dp2781
g66
(dp2782
sg75
g2767
sg68
(lp2783
g61
(g62
g63
NtRp2784
(dp2785
g66
(dp2786
g74
I3
ssg75
g2780
sg68
(lp2787
g1342
asbasbasbag61
(g77
g63
NtRp2788
(dp2789
g66
(dp2790
sg75
g2700
sg68
(lp2791
g61
(g82
g63
NtRp2792
(dp2793
g66
(dp2794
g86
g87
ssg75
g2788
sg68
(lp2795
S'HTTP_CONNECTION'
p2796
asbag61
(g82
g63
NtRp2797
(dp2798
g66
(dp2799
g93
g94
ssg75
g2788
sg68
(lp2800
S':'
asbag61
(g82
g63
NtRp2801
(dp2802
g66
(dp2803
sg75
g2788
sg68
(lp2804
g61
(g62
g63
NtRp2805
(dp2806
g66
(dp2807
g74
I3
ssg75
g2801
sg68
(lp2808
g1364
asbasbasbag61
(g77
g63
NtRp2809
(dp2810
g66
(dp2811
sg75
g2700
sg68
(lp2812
g61
(g82
g63
NtRp2813
(dp2814
g66
(dp2815
g86
g87
ssg75
g2809
sg68
(lp2816
S'HTTP_COOKIE'
p2817
asbag61
(g82
g63
NtRp2818
(dp2819
g66
(dp2820
g93
g94
ssg75
g2809
sg68
(lp2821
S':'
asbag61
(g82
g63
NtRp2822
(dp2823
g66
(dp2824
sg75
g2809
sg68
(lp2825
g61
(g62
g63
NtRp2826
(dp2827
g66
(dp2828
g74
I3
ssg75
g2822
sg68
(lp2829
g1386
asbasbasbag61
(g77
g63
NtRp2830
(dp2831
g66
(dp2832
sg75
g2700
sg68
(lp2833
g61
(g82
g63
NtRp2834
(dp2835
g66
(dp2836
g86
g87
ssg75
g2830
sg68
(lp2837
S'HTTP_HOST'
p2838
asbag61
(g82
g63
NtRp2839
(dp2840
g66
(dp2841
g93
g94
ssg75
g2830
sg68
(lp2842
S':'
asbag61
(g82
g63
NtRp2843
(dp2844
g66
(dp2845
sg75
g2830
sg68
(lp2846
g61
(g62
g63
NtRp2847
(dp2848
g66
(dp2849
g74
I3
ssg75
g2843
sg68
(lp2850
g1408
asbasbasbag61
(g77
g63
NtRp2851
(dp2852
g66
(dp2853
sg75
g2700
sg68
(lp2854
g61
(g82
g63
NtRp2855
(dp2856
g66
(dp2857
g86
g87
ssg75
g2851
sg68
(lp2858
S'HTTP_REFERER'
p2859
asbag61
(g82
g63
NtRp2860
(dp2861
g66
(dp2862
g93
g94
ssg75
g2851
sg68
(lp2863
S':'
asbag61
(g82
g63
NtRp2864
(dp2865
g66
(dp2866
sg75
g2851
sg68
(lp2867
g61
(g62
g63
NtRp2868
(dp2869
g66
(dp2870
g74
I3
ssg75
g2864
sg68
(lp2871
g1430
asbasbasbag61
(g77
g63
NtRp2872
(dp2873
g66
(dp2874
sg75
g2700
sg68
(lp2875
g61
(g82
g63
NtRp2876
(dp2877
g66
(dp2878
g86
g87
ssg75
g2872
sg68
(lp2879
S'HTTP_USER_AGENT'
p2880
asbag61
(g82
g63
NtRp2881
(dp2882
g66
(dp2883
g93
g94
ssg75
g2872
sg68
(lp2884
S':'
asbag61
(g82
g63
NtRp2885
(dp2886
g66
(dp2887
sg75
g2872
sg68
(lp2888
g61
(g62
g63
NtRp2889
(dp2890
g66
(dp2891
g74
I3
ssg75
g2885
sg68
(lp2892
g1452
asbasbasbag61
(g77
g63
NtRp2893
(dp2894
g66
(dp2895
sg75
g2700
sg68
(lp2896
g61
(g82
g63
NtRp2897
(dp2898
g66
(dp2899
g86
g87
ssg75
g2893
sg68
(lp2900
S'PATH_INFO'
p2901
asbag61
(g82
g63
NtRp2902
(dp2903
g66
(dp2904
g93
g94
ssg75
g2893
sg68
(lp2905
S':'
asbag61
(g82
g63
NtRp2906
(dp2907
g66
(dp2908
sg75
g2893
sg68
(lp2909
g61
(g62
g63
NtRp2910
(dp2911
g66
(dp2912
g74
I3
ssg75
g2906
sg68
(lp2913
g1516
asbasbasbag61
(g77
g63
NtRp2914
(dp2915
g66
(dp2916
sg75
g2700
sg68
(lp2917
g61
(g82
g63
NtRp2918
(dp2919
g66
(dp2920
g86
g87
ssg75
g2914
sg68
(lp2921
S'QUERY_STRING'
p2922
asbag61
(g82
g63
NtRp2923
(dp2924
g66
(dp2925
g93
g94
ssg75
g2914
sg68
(lp2926
S':'
asbag61
(g82
g63
NtRp2927
(dp2928
g66
(dp2929
sg75
g2914
sg68
(lp2930
g61
(g62
g63
NtRp2931
(dp2932
g66
(dp2933
g74
I3
ssg75
g2927
sg68
(lp2934
S''
asbasbasbag61
(g77
g63
NtRp2935
(dp2936
g66
(dp2937
sg75
g2700
sg68
(lp2938
g61
(g82
g63
NtRp2939
(dp2940
g66
(dp2941
g86
g87
ssg75
g2935
sg68
(lp2942
S'REMOTE_ADDR'
p2943
asbag61
(g82
g63
NtRp2944
(dp2945
g66
(dp2946
g93
g94
ssg75
g2935
sg68
(lp2947
S':'
asbag61
(g82
g63
NtRp2948
(dp2949
g66
(dp2950
sg75
g2935
sg68
(lp2951
g61
(g62
g63
NtRp2952
(dp2953
g66
(dp2954
g74
I3
ssg75
g2948
sg68
(lp2955
g194
asbasbasbag61
(g77
g63
NtRp2956
(dp2957
g66
(dp2958
sg75
g2700
sg68
(lp2959
g61
(g82
g63
NtRp2960
(dp2961
g66
(dp2962
g86
g87
ssg75
g2956
sg68
(lp2963
S'REMOTE_PORT'
p2964
asbag61
(g82
g63
NtRp2965
(dp2966
g66
(dp2967
g93
g94
ssg75
g2956
sg68
(lp2968
S':'
asbag61
(g82
g63
NtRp2969
(dp2970
g66
(dp2971
sg75
g2956
sg68
(lp2972
g61
(g62
g63
NtRp2973
(dp2974
g66
(dp2975
g74
I3
ssg75
g2969
sg68
(lp2976
g1580
asbasbasbag61
(g77
g63
NtRp2977
(dp2978
g66
(dp2979
sg75
g2700
sg68
(lp2980
g61
(g82
g63
NtRp2981
(dp2982
g66
(dp2983
g86
g87
ssg75
g2977
sg68
(lp2984
S'REQUEST_METHOD'
p2985
asbag61
(g82
g63
NtRp2986
(dp2987
g66
(dp2988
g93
g94
ssg75
g2977
sg68
(lp2989
S':'
asbag61
(g82
g63
NtRp2990
(dp2991
g66
(dp2992
sg75
g2977
sg68
(lp2993
g61
(g62
g63
NtRp2994
(dp2995
g66
(dp2996
g74
I3
ssg75
g2990
sg68
(lp2997
g1602
asbasbasbag61
(g77
g63
NtRp2998
(dp2999
g66
(dp3000
sg75
g2700
sg68
(lp3001
g61
(g82
g63
NtRp3002
(dp3003
g66
(dp3004
g86
g87
ssg75
g2998
sg68
(lp3005
S'SCRIPT_NAME'
p3006
asbag61
(g82
g63
NtRp3007
(dp3008
g66
(dp3009
g93
g94
ssg75
g2998
sg68
(lp3010
S':'
asbag61
(g82
g63
NtRp3011
(dp3012
g66
(dp3013
sg75
g2998
sg68
(lp3014
g61
(g62
g63
NtRp3015
(dp3016
g66
(dp3017
g74
I3
ssg75
g3011
sg68
(lp3018
S''
asbasbasbag61
(g77
g63
NtRp3019
(dp3020
g66
(dp3021
sg75
g2700
sg68
(lp3022
g61
(g82
g63
NtRp3023
(dp3024
g66
(dp3025
g86
g87
ssg75
g3019
sg68
(lp3026
S'SERVER_NAME'
p3027
asbag61
(g82
g63
NtRp3028
(dp3029
g66
(dp3030
g93
g94
ssg75
g3019
sg68
(lp3031
S':'
asbag61
(g82
g63
NtRp3032
(dp3033
g66
(dp3034
sg75
g3019
sg68
(lp3035
g61
(g62
g63
NtRp3036
(dp3037
g66
(dp3038
g74
I3
ssg75
g3032
sg68
(lp3039
g1645
asbasbasbag61
(g77
g63
NtRp3040
(dp3041
g66
(dp3042
sg75
g2700
sg68
(lp3043
g61
(g82
g63
NtRp3044
(dp3045
g66
(dp3046
g86
g87
ssg75
g3040
sg68
(lp3047
S'SERVER_PORT'
p3048
asbag61
(g82
g63
NtRp3049
(dp3050
g66
(dp3051
g93
g94
ssg75
g3040
sg68
(lp3052
S':'
asbag61
(g82
g63
NtRp3053
(dp3054
g66
(dp3055
sg75
g3040
sg68
(lp3056
g61
(g62
g63
NtRp3057
(dp3058
g66
(dp3059
g74
I3
ssg75
g3053
sg68
(lp3060
g1667
asbasbasbag61
(g77
g63
NtRp3061
(dp3062
g66
(dp3063
sg75
g2700
sg68
(lp3064
g61
(g82
g63
NtRp3065
(dp3066
g66
(dp3067
g86
g87
ssg75
g3061
sg68
(lp3068
S'SERVER_PROTOCOL'
p3069
asbag61
(g82
g63
NtRp3070
(dp3071
g66
(dp3072
g93
g94
ssg75
g3061
sg68
(lp3073
S':'
asbag61
(g82
g63
NtRp3074
(dp3075
g66
(dp3076
sg75
g3061
sg68
(lp3077
g61
(g62
g63
NtRp3078
(dp3079
g66
(dp3080
g74
I3
ssg75
g3074
sg68
(lp3081
g1689
asbasbasbag61
(g77
g63
NtRp3082
(dp3083
g66
(dp3084
sg75
g2700
sg68
(lp3085
g61
(g82
g63
NtRp3086
(dp3087
g66
(dp3088
g86
g87
ssg75
g3082
sg68
(lp3089
S'SERVER_SOFTWARE'
p3090
asbag61
(g82
g63
NtRp3091
(dp3092
g66
(dp3093
g93
g94
ssg75
g3082
sg68
(lp3094
S':'
asbag61
(g82
g63
NtRp3095
(dp3096
g66
(dp3097
sg75
g3082
sg68
(lp3098
g61
(g62
g63
NtRp3099
(dp3100
g66
(dp3101
g74
I3
ssg75
g3095
sg68
(lp3102
g1711
asbasbasbag61
(g77
g63
NtRp3103
(dp3104
g66
(dp3105
sg75
g2700
sg68
(lp3106
g61
(g82
g63
NtRp3107
(dp3108
g66
(dp3109
g86
g87
ssg75
g3103
sg68
(lp3110
S'wsgi.errors'
p3111
asbag61
(g82
g63
NtRp3112
(dp3113
g66
(dp3114
g93
g94
ssg75
g3103
sg68
(lp3115
S':'
asbag61
(g82
g63
NtRp3116
(dp3117
g66
(dp3118
sg75
g3103
sg68
(lp3119
g61
(g62
g63
NtRp3120
(dp3121
g66
(dp3122
g74
I3
ssg75
g3116
sg68
(lp3123
S"<open file '<stderr>', mode 'w' at 0x016000B0>"
p3124
asbasbasbag61
(g77
g63
NtRp3125
(dp3126
g66
(dp3127
sg75
g2700
sg68
(lp3128
g61
(g82
g63
NtRp3129
(dp3130
g66
(dp3131
g86
g87
ssg75
g3125
sg68
(lp3132
S'wsgi.file_wrapper'
p3133
asbag61
(g82
g63
NtRp3134
(dp3135
g66
(dp3136
g93
g94
ssg75
g3125
sg68
(lp3137
S':'
asbag61
(g82
g63
NtRp3138
(dp3139
g66
(dp3140
sg75
g3125
sg68
(lp3141
g61
(g62
g63
NtRp3142
(dp3143
g66
(dp3144
g74
I3
ssg75
g3138
sg68
(lp3145
S'<class wsgiref.util.FileWrapper at 0x025361B0>'
p3146
asbasbasbag61
(g77
g63
NtRp3147
(dp3148
g66
(dp3149
sg75
g2700
sg68
(lp3150
g61
(g82
g63
NtRp3151
(dp3152
g66
(dp3153
g86
g87
ssg75
g3147
sg68
(lp3154
S'wsgi.input'
p3155
asbag61
(g82
g63
NtRp3156
(dp3157
g66
(dp3158
g93
g94
ssg75
g3147
sg68
(lp3159
S':'
asbag61
(g82
g63
NtRp3160
(dp3161
g66
(dp3162
sg75
g3147
sg68
(lp3163
g61
(g62
g63
NtRp3164
(dp3165
g66
(dp3166
g74
I3
ssg75
g3160
sg68
(lp3167
S'<cStringIO.StringO object at 0x05DD7540>'
p3168
asbasbasbag61
(g77
g63
NtRp3169
(dp3170
g66
(dp3171
sg75
g2700
sg68
(lp3172
g61
(g82
g63
NtRp3173
(dp3174
g66
(dp3175
g86
g87
ssg75
g3169
sg68
(lp3176
S'wsgi.multiprocess'
p3177
asbag61
(g82
g63
NtRp3178
(dp3179
g66
(dp3180
g93
g94
ssg75
g3169
sg68
(lp3181
S':'
asbag61
(g82
g63
NtRp3182
(dp3183
g66
(dp3184
sg75
g3169
sg68
(lp3185
g61
(g62
g63
NtRp3186
(dp3187
g66
(dp3188
g74
I3
ssg75
g3182
sg68
(lp3189
g104
asbasbasbag61
(g77
g63
NtRp3190
(dp3191
g66
(dp3192
sg75
g2700
sg68
(lp3193
g61
(g82
g63
NtRp3194
(dp3195
g66
(dp3196
g86
g87
ssg75
g3190
sg68
(lp3197
S'wsgi.multithread'
p3198
asbag61
(g82
g63
NtRp3199
(dp3200
g66
(dp3201
g93
g94
ssg75
g3190
sg68
(lp3202
S':'
asbag61
(g82
g63
NtRp3203
(dp3204
g66
(dp3205
sg75
g3190
sg68
(lp3206
g61
(g62
g63
NtRp3207
(dp3208
g66
(dp3209
g74
I3
ssg75
g3203
sg68
(lp3210
g1951
asbasbasbag61
(g77
g63
NtRp3211
(dp3212
g66
(dp3213
sg75
g2700
sg68
(lp3214
g61
(g82
g63
NtRp3215
(dp3216
g66
(dp3217
g86
g87
ssg75
g3211
sg68
(lp3218
S'wsgi.run_once'
p3219
asbag61
(g82
g63
NtRp3220
(dp3221
g66
(dp3222
g93
g94
ssg75
g3211
sg68
(lp3223
S':'
asbag61
(g82
g63
NtRp3224
(dp3225
g66
(dp3226
sg75
g3211
sg68
(lp3227
g61
(g62
g63
NtRp3228
(dp3229
g66
(dp3230
g74
I3
ssg75
g3224
sg68
(lp3231
g104
asbasbasbag61
(g77
g63
NtRp3232
(dp3233
g66
(dp3234
sg75
g2700
sg68
(lp3235
g61
(g82
g63
NtRp3236
(dp3237
g66
(dp3238
g86
g87
ssg75
g3232
sg68
(lp3239
S'wsgi.url_scheme'
p3240
asbag61
(g82
g63
NtRp3241
(dp3242
g66
(dp3243
g93
g94
ssg75
g3232
sg68
(lp3244
S':'
asbag61
(g82
g63
NtRp3245
(dp3246
g66
(dp3247
sg75
g3232
sg68
(lp3248
g61
(g62
g63
NtRp3249
(dp3250
g66
(dp3251
g74
I3
ssg75
g3245
sg68
(lp3252
g1994
asbasbasbag61
(g77
g63
NtRp3253
(dp3254
g66
(dp3255
sg75
g2700
sg68
(lp3256
g61
(g82
g63
NtRp3257
(dp3258
g66
(dp3259
g86
g87
ssg75
g3253
sg68
(lp3260
S'wsgi.version'
p3261
asbag61
(g82
g63
NtRp3262
(dp3263
g66
(dp3264
g93
g94
ssg75
g3253
sg68
(lp3265
S':'
asbag61
(g82
g63
NtRp3266
(dp3267
g66
(dp3268
sg75
g3253
sg68
(lp3269
g61
(g62
g63
NtRp3270
(dp3271
g66
(dp3272
g74
I3
ssg75
g3266
sg68
(lp3273
S'1'
asbasbasbasbasbasbasbasbasbasbasbasbasbsS'frames'
p3274
(lp3275
(dp3276
S'file'
p3277
S'C:\\Users\\omkara\\Desktop\\web2py\\gluon\\restricted.py'
p3278
sS'dump'
p3279
(dp3280
sS'lnum'
p3281
I205
sS'lines'
p3282
(dp3283
sS'call'
p3284
S"(code='# coding: utf8\\nfrom gluon.tools import Auth\\nfrom...h to use custom_auth_table\\n\\nauth.define_tables()\\n', environment={'A': <class 'gluon.html.A'>, 'Auth': <class 'gluon.tools.Auth'>, 'B': <class 'gluon.html.B'>, 'BEAUTIFY': <class 'gluon.html.BEAUTIFY'>, 'BODY': <class 'gluon.html.BODY'>, 'BR': <class 'gluon.html.BR'>, 'BUTTON': <class 'gluon.html.BUTTON'>, 'CAT': <class 'gluon.html.CAT'>, 'CENTER': <class 'gluon.html.CENTER'>, 'CLEANUP': <class 'gluon.validators.CLEANUP'>, ...}, layer=r'C:\\Users\\omkara\\Desktop\\web2py\\applications\\SlugBarter\\models\\registerForm.py')"
p3285
sS'func'
p3286
S'restricted'
p3287
sa(dp3288
g3277
S'C:\\Users\\omkara\\Desktop\\web2py\\applications\\SlugBarter\\models\\registerForm.py'
p3289
sg3279
(dp3290
sg3281
I22
sg3282
(dp3291
I17
S"    Field('registration_key', length=512,                # required"
p3292
sI18
S"          writable=False, readable=False, default=''),"
p3293
sI19
S"    Field('reset_password_key', length=512,              # required"
p3294
sI20
S"          writable=False, readable=False, default=''),"
p3295
sI21
S"    Field('registration_id', length=512,                 # required"
p3296
sI22
S"          writable=False, readable=False, default=''))"
p3297
sI23
S''
sI24
S'## do not forget validators'
p3298
sI25
S'custom_auth_table = db[auth.settings.table_user_name] # get the custom_auth_table'
p3299
sI26
S'custom_auth_table.first_name.requires = \\'
p3300
ssg3284
S'()'
p3301
sg3286
S'<module>'
p3302
sa(dp3303
g3277
S'C:\\Users\\omkara\\Desktop\\web2py\\gluon\\dal.py'
p3304
sg3279
(dp3305
sg3281
I6292
sg3282
(dp3306
sg3284
S"(self=<DAL {'auth_event': <Table {'origin': <gluon.dal..._key': <gluon.dal.Field object at 0x064C57F0>}>}>, tablename='auth_user', *fields=(<gluon.dal.Field object at 0x0297F810>, <gluon.dal.Field object at 0x02762CB0>, <gluon.dal.Field object at 0x060DE170>, <gluon.dal.Field object at 0x060DEE50>, <gluon.dal.Field object at 0x060DEBD0>, <gluon.dal.Field object at 0x0624C590>, <gluon.dal.Field object at 0x0624CB70>, <gluon.dal.Field object at 0x0624C370>, <gluon.dal.Field object at 0x064442B0>, <gluon.dal.Field object at 0x064449B0>, <gluon.dal.Field object at 0x06444990>), **args={})"
p3307
sg3286
S'define_table'
p3308
sasS'pyver'
p3309
S'Python 2.5.4: C:\\Users\\omkara\\Desktop\\web2py\\web2py.exe'
p3310
sS'session'
p3311
g61
(g62
g63
NtRp3312
(dp3313
g66
(dp3314
sg68
(lp3315
g61
(g70
g63
NtRp3316
(dp3317
g66
(dp3318
g74
I5
ssg75
Nsg68
(lp3319
g61
(g77
g63
NtRp3320
(dp3321
g66
(dp3322
sg75
g3316
sg68
(lp3323
g61
(g82
g63
NtRp3324
(dp3325
g66
(dp3326
g86
g87
ssg75
g3320
sg68
(lp3327
S'auth'
p3328
asbag61
(g82
g63
NtRp3329
(dp3330
g66
(dp3331
g93
g94
ssg75
g3320
sg68
(lp3332
S':'
asbag61
(g82
g63
NtRp3333
(dp3334
g66
(dp3335
sg75
g3320
sg68
(lp3336
g61
(g62
g63
NtRp3337
(dp3338
g66
(dp3339
g74
I5
ssg75
g3333
sg68
(lp3340
g61
(g70
g63
NtRp3341
(dp3342
g66
(dp3343
g74
I4
ssg75
Nsg68
(lp3344
g61
(g77
g63
NtRp3345
(dp3346
g66
(dp3347
sg75
g3341
sg68
(lp3348
g61
(g82
g63
NtRp3349
(dp3350
g66
(dp3351
g86
g87
ssg75
g3345
sg68
(lp3352
S'expiration'
p3353
asbag61
(g82
g63
NtRp3354
(dp3355
g66
(dp3356
g93
g94
ssg75
g3345
sg68
(lp3357
S':'
asbag61
(g82
g63
NtRp3358
(dp3359
g66
(dp3360
sg75
g3345
sg68
(lp3361
g61
(g62
g63
NtRp3362
(dp3363
g66
(dp3364
g74
I4
ssg75
g3358
sg68
(lp3365
S'3600'
p3366
asbasbasbag61
(g77
g63
NtRp3367
(dp3368
g66
(dp3369
sg75
g3341
sg68
(lp3370
g61
(g82
g63
NtRp3371
(dp3372
g66
(dp3373
g86
g87
ssg75
g3367
sg68
(lp3374
S'hmac_key'
p3375
asbag61
(g82
g63
NtRp3376
(dp3377
g66
(dp3378
g93
g94
ssg75
g3367
sg68
(lp3379
S':'
asbag61
(g82
g63
NtRp3380
(dp3381
g66
(dp3382
sg75
g3367
sg68
(lp3383
g61
(g62
g63
NtRp3384
(dp3385
g66
(dp3386
g74
I4
ssg75
g3380
sg68
(lp3387
S'99930829-3682-4c54-bdf1-e6307d06fce7'
p3388
asbasbasbag61
(g77
g63
NtRp3389
(dp3390
g66
(dp3391
sg75
g3341
sg68
(lp3392
g61
(g82
g63
NtRp3393
(dp3394
g66
(dp3395
g86
g87
ssg75
g3389
sg68
(lp3396
S'last_visit'
p3397
asbag61
(g82
g63
NtRp3398
(dp3399
g66
(dp3400
g93
g94
ssg75
g3389
sg68
(lp3401
S':'
asbag61
(g82
g63
NtRp3402
(dp3403
g66
(dp3404
sg75
g3389
sg68
(lp3405
g61
(g62
g63
NtRp3406
(dp3407
g66
(dp3408
g74
I4
ssg75
g3402
sg68
(lp3409
S'datetime.datetime(2012, 11, 10, 16, 43, 10, 177000)'
p3410
asbasbasbag61
(g77
g63
NtRp3411
(dp3412
g66
(dp3413
sg75
g3341
sg68
(lp3414
g61
(g82
g63
NtRp3415
(dp3416
g66
(dp3417
g86
g87
ssg75
g3411
sg68
(lp3418
S'remember'
p3419
asbag61
(g82
g63
NtRp3420
(dp3421
g66
(dp3422
g93
g94
ssg75
g3411
sg68
(lp3423
S':'
asbag61
(g82
g63
NtRp3424
(dp3425
g66
(dp3426
sg75
g3411
sg68
(lp3427
g61
(g62
g63
NtRp3428
(dp3429
g66
(dp3430
g74
I4
ssg75
g3424
sg68
(lp3431
g104
asbasbasbag61
(g77
g63
NtRp3432
(dp3433
g66
(dp3434
sg75
g3341
sg68
(lp3435
g61
(g82
g63
NtRp3436
(dp3437
g66
(dp3438
g86
g87
ssg75
g3432
sg68
(lp3439
S'user'
p3440
asbag61
(g82
g63
NtRp3441
(dp3442
g66
(dp3443
g93
g94
ssg75
g3432
sg68
(lp3444
S':'
asbag61
(g82
g63
NtRp3445
(dp3446
g66
(dp3447
sg75
g3432
sg68
(lp3448
g61
(g62
g63
NtRp3449
(dp3450
g66
(dp3451
g74
I4
ssg75
g3445
sg68
(lp3452
g61
(g70
g63
NtRp3453
(dp3454
g66
(dp3455
g74
I3
ssg75
Nsg68
(lp3456
g61
(g77
g63
NtRp3457
(dp3458
g66
(dp3459
sg75
g3453
sg68
(lp3460
g61
(g82
g63
NtRp3461
(dp3462
g66
(dp3463
g86
g87
ssg75
g3457
sg68
(lp3464
S'email'
p3465
asbag61
(g82
g63
NtRp3466
(dp3467
g66
(dp3468
g93
g94
ssg75
g3457
sg68
(lp3469
S':'
asbag61
(g82
g63
NtRp3470
(dp3471
g66
(dp3472
sg75
g3457
sg68
(lp3473
g61
(g62
g63
NtRp3474
(dp3475
g66
(dp3476
g74
I3
ssg75
g3470
sg68
(lp3477
S'sukha620@yahoo.com'
p3478
asbasbasbag61
(g77
g63
NtRp3479
(dp3480
g66
(dp3481
sg75
g3453
sg68
(lp3482
g61
(g82
g63
NtRp3483
(dp3484
g66
(dp3485
g86
g87
ssg75
g3479
sg68
(lp3486
S'first_name'
p3487
asbag61
(g82
g63
NtRp3488
(dp3489
g66
(dp3490
g93
g94
ssg75
g3479
sg68
(lp3491
S':'
asbag61
(g82
g63
NtRp3492
(dp3493
g66
(dp3494
sg75
g3479
sg68
(lp3495
g61
(g62
g63
NtRp3496
(dp3497
g66
(dp3498
g74
I3
ssg75
g3492
sg68
(lp3499
S'Sukhraj'
p3500
asbasbasbag61
(g77
g63
NtRp3501
(dp3502
g66
(dp3503
sg75
g3453
sg68
(lp3504
g61
(g82
g63
NtRp3505
(dp3506
g66
(dp3507
g86
g87
ssg75
g3501
sg68
(lp3508
S'id'
p3509
asbag61
(g82
g63
NtRp3510
(dp3511
g66
(dp3512
g93
g94
ssg75
g3501
sg68
(lp3513
S':'
asbag61
(g82
g63
NtRp3514
(dp3515
g66
(dp3516
sg75
g3501
sg68
(lp3517
g61
(g62
g63
NtRp3518
(dp3519
g66
(dp3520
g74
I3
ssg75
g3514
sg68
(lp3521
S'1'
asbasbasbag61
(g77
g63
NtRp3522
(dp3523
g66
(dp3524
sg75
g3453
sg68
(lp3525
g61
(g82
g63
NtRp3526
(dp3527
g66
(dp3528
g86
g87
ssg75
g3522
sg68
(lp3529
S'last_name'
p3530
asbag61
(g82
g63
NtRp3531
(dp3532
g66
(dp3533
g93
g94
ssg75
g3522
sg68
(lp3534
S':'
asbag61
(g82
g63
NtRp3535
(dp3536
g66
(dp3537
sg75
g3522
sg68
(lp3538
g61
(g62
g63
NtRp3539
(dp3540
g66
(dp3541
g74
I3
ssg75
g3535
sg68
(lp3542
S'Singh'
p3543
asbasbasbag61
(g77
g63
NtRp3544
(dp3545
g66
(dp3546
sg75
g3453
sg68
(lp3547
g61
(g82
g63
NtRp3548
(dp3549
g66
(dp3550
g86
g87
ssg75
g3544
sg68
(lp3551
S'password'
p3552
asbag61
(g82
g63
NtRp3553
(dp3554
g66
(dp3555
g93
g94
ssg75
g3544
sg68
(lp3556
S':'
asbag61
(g82
g63
NtRp3557
(dp3558
g66
(dp3559
sg75
g3544
sg68
(lp3560
g61
(g62
g63
NtRp3561
(dp3562
g66
(dp3563
g74
I3
ssg75
g3557
sg68
(lp3564
S'a16daa128e0a42538f9e8c372012ceb9'
p3565
asbasbasbag61
(g77
g63
NtRp3566
(dp3567
g66
(dp3568
sg75
g3453
sg68
(lp3569
g61
(g82
g63
NtRp3570
(dp3571
g66
(dp3572
g86
g87
ssg75
g3566
sg68
(lp3573
S'registration_id'
p3574
asbag61
(g82
g63
NtRp3575
(dp3576
g66
(dp3577
g93
g94
ssg75
g3566
sg68
(lp3578
S':'
asbag61
(g82
g63
NtRp3579
(dp3580
g66
(dp3581
sg75
g3566
sg68
(lp3582
g61
(g62
g63
NtRp3583
(dp3584
g66
(dp3585
g74
I3
ssg75
g3579
sg68
(lp3586
S''
asbasbasbag61
(g77
g63
NtRp3587
(dp3588
g66
(dp3589
sg75
g3453
sg68
(lp3590
g61
(g82
g63
NtRp3591
(dp3592
g66
(dp3593
g86
g87
ssg75
g3587
sg68
(lp3594
S'registration_key'
p3595
asbag61
(g82
g63
NtRp3596
(dp3597
g66
(dp3598
g93
g94
ssg75
g3587
sg68
(lp3599
S':'
asbag61
(g82
g63
NtRp3600
(dp3601
g66
(dp3602
sg75
g3587
sg68
(lp3603
g61
(g62
g63
NtRp3604
(dp3605
g66
(dp3606
g74
I3
ssg75
g3600
sg68
(lp3607
S''
asbasbasbag61
(g77
g63
NtRp3608
(dp3609
g66
(dp3610
sg75
g3453
sg68
(lp3611
g61
(g82
g63
NtRp3612
(dp3613
g66
(dp3614
g86
g87
ssg75
g3608
sg68
(lp3615
S'reset_password_key'
p3616
asbag61
(g82
g63
NtRp3617
(dp3618
g66
(dp3619
g93
g94
ssg75
g3608
sg68
(lp3620
S':'
asbag61
(g82
g63
NtRp3621
(dp3622
g66
(dp3623
sg75
g3608
sg68
(lp3624
g61
(g62
g63
NtRp3625
(dp3626
g66
(dp3627
g74
I3
ssg75
g3621
sg68
(lp3628
S''
asbasbasbasbasbasbasbag61
(g77
g63
NtRp3629
(dp3630
g66
(dp3631
sg75
g3341
sg68
(lp3632
g61
(g82
g63
NtRp3633
(dp3634
g66
(dp3635
g86
g87
ssg75
g3629
sg68
(lp3636
S'user_groups'
p3637
asbag61
(g82
g63
NtRp3638
(dp3639
g66
(dp3640
g93
g94
ssg75
g3629
sg68
(lp3641
S':'
asbag61
(g82
g63
NtRp3642
(dp3643
g66
(dp3644
sg75
g3629
sg68
(lp3645
g61
(g62
g63
NtRp3646
(dp3647
g66
(dp3648
g74
I4
ssg75
g3642
sg68
(lp3649
g61
(g70
g63
NtRp3650
(dp3651
g66
(dp3652
g74
I3
ssg75
Nsg68
(lp3653
sbasbasbasbasbasbasbasbag61
(g77
g63
NtRp3654
(dp3655
g66
(dp3656
sg75
g3316
sg68
(lp3657
g61
(g82
g63
NtRp3658
(dp3659
g66
(dp3660
g86
g87
ssg75
g3654
sg68
(lp3661
S'last_query'
p3662
asbag61
(g82
g63
NtRp3663
(dp3664
g66
(dp3665
g93
g94
ssg75
g3654
sg68
(lp3666
S':'
asbag61
(g82
g63
NtRp3667
(dp3668
g66
(dp3669
sg75
g3654
sg68
(lp3670
g61
(g62
g63
NtRp3671
(dp3672
g66
(dp3673
g74
I5
ssg75
g3667
sg68
(lp3674
S'db.auth_user.id>0'
p3675
asbasbasbasbasbsS'etype'
p3676
S"<type 'exceptions.SyntaxError'>"
p3677
sS'date'
p3678
S'Sat Nov 10 16:43:10 2012'
p3679
sS'response'
p3680
g61
(g62
g63
NtRp3681
(dp3682
g66
(dp3683
sg68
(lp3684
g61
(g70
g63
NtRp3685
(dp3686
g66
(dp3687
g74
I5
ssg75
Nsg68
(lp3688
g61
(g77
g63
NtRp3689
(dp3690
g66
(dp3691
sg75
g3685
sg68
(lp3692
g61
(g82
g63
NtRp3693
(dp3694
g66
(dp3695
g86
g87
ssg75
g3689
sg68
(lp3696
g159
asbag61
(g82
g63
NtRp3697
(dp3698
g66
(dp3699
g93
g94
ssg75
g3689
sg68
(lp3700
S':'
asbag61
(g82
g63
NtRp3701
(dp3702
g66
(dp3703
sg75
g3689
sg68
(lp3704
g61
(g62
g63
NtRp3705
(dp3706
g66
(dp3707
g74
I5
ssg75
g3701
sg68
(lp3708
S'<cStringIO.StringO object at 0x05DD7980>'
p3709
asbasbasbag61
(g77
g63
NtRp3710
(dp3711
g66
(dp3712
sg75
g3685
sg68
(lp3713
g61
(g82
g63
NtRp3714
(dp3715
g66
(dp3716
g86
g87
ssg75
g3710
sg68
(lp3717
g225
asbag61
(g82
g63
NtRp3718
(dp3719
g66
(dp3720
g93
g94
ssg75
g3710
sg68
(lp3721
S':'
asbag61
(g82
g63
NtRp3722
(dp3723
g66
(dp3724
sg75
g3710
sg68
(lp3725
g61
(g62
g63
NtRp3726
(dp3727
g66
(dp3728
g74
I5
ssg75
g3722
sg68
(lp3729
g61
(g70
g63
NtRp3730
(dp3731
g66
(dp3732
g74
I4
ssg75
Nsg68
(lp3733
g61
(g77
g63
NtRp3734
(dp3735
g66
(dp3736
sg75
g3730
sg68
(lp3737
g61
(g82
g63
NtRp3738
(dp3739
g66
(dp3740
g86
g87
ssg75
g3734
sg68
(lp3741
S'session_id_slugbarter'
p3742
asbag61
(g82
g63
NtRp3743
(dp3744
g66
(dp3745
g93
g94
ssg75
g3734
sg68
(lp3746
S':'
asbag61
(g82
g63
NtRp3747
(dp3748
g66
(dp3749
sg75
g3734
sg68
(lp3750
g61
(g62
g63
NtRp3751
(dp3752
g66
(dp3753
g74
I4
ssg75
g3747
sg68
(lp3754
g61
(g70
g63
NtRp3755
(dp3756
g66
(dp3757
g74
I3
ssg75
Nsg68
(lp3758
g61
(g77
g63
NtRp3759
(dp3760
g66
(dp3761
sg75
g3755
sg68
(lp3762
g61
(g82
g63
NtRp3763
(dp3764
g66
(dp3765
g86
g87
ssg75
g3759
sg68
(lp3766
g275
asbag61
(g82
g63
NtRp3767
(dp3768
g66
(dp3769
g93
g94
ssg75
g3759
sg68
(lp3770
S':'
asbag61
(g82
g63
NtRp3771
(dp3772
g66
(dp3773
sg75
g3759
sg68
(lp3774
g61
(g62
g63
NtRp3775
(dp3776
g66
(dp3777
g74
I3
ssg75
g3771
sg68
(lp3778
S''
asbasbasbag61
(g77
g63
NtRp3779
(dp3780
g66
(dp3781
sg75
g3755
sg68
(lp3782
g61
(g82
g63
NtRp3783
(dp3784
g66
(dp3785
g86
g87
ssg75
g3779
sg68
(lp3786
g296
asbag61
(g82
g63
NtRp3787
(dp3788
g66
(dp3789
g93
g94
ssg75
g3779
sg68
(lp3790
S':'
asbag61
(g82
g63
NtRp3791
(dp3792
g66
(dp3793
sg75
g3779
sg68
(lp3794
g61
(g62
g63
NtRp3795
(dp3796
g66
(dp3797
g74
I3
ssg75
g3791
sg68
(lp3798
S''
asbasbasbag61
(g77
g63
NtRp3799
(dp3800
g66
(dp3801
sg75
g3755
sg68
(lp3802
g61
(g82
g63
NtRp3803
(dp3804
g66
(dp3805
g86
g87
ssg75
g3799
sg68
(lp3806
g317
asbag61
(g82
g63
NtRp3807
(dp3808
g66
(dp3809
g93
g94
ssg75
g3799
sg68
(lp3810
S':'
asbag61
(g82
g63
NtRp3811
(dp3812
g66
(dp3813
sg75
g3799
sg68
(lp3814
g61
(g62
g63
NtRp3815
(dp3816
g66
(dp3817
g74
I3
ssg75
g3811
sg68
(lp3818
S''
asbasbasbag61
(g77
g63
NtRp3819
(dp3820
g66
(dp3821
sg75
g3755
sg68
(lp3822
g61
(g82
g63
NtRp3823
(dp3824
g66
(dp3825
g86
g87
ssg75
g3819
sg68
(lp3826
g338
asbag61
(g82
g63
NtRp3827
(dp3828
g66
(dp3829
g93
g94
ssg75
g3819
sg68
(lp3830
S':'
asbag61
(g82
g63
NtRp3831
(dp3832
g66
(dp3833
sg75
g3819
sg68
(lp3834
g61
(g62
g63
NtRp3835
(dp3836
g66
(dp3837
g74
I3
ssg75
g3831
sg68
(lp3838
S''
asbasbasbag61
(g77
g63
NtRp3839
(dp3840
g66
(dp3841
sg75
g3755
sg68
(lp3842
g61
(g82
g63
NtRp3843
(dp3844
g66
(dp3845
g86
g87
ssg75
g3839
sg68
(lp3846
g359
asbag61
(g82
g63
NtRp3847
(dp3848
g66
(dp3849
g93
g94
ssg75
g3839
sg68
(lp3850
S':'
asbag61
(g82
g63
NtRp3851
(dp3852
g66
(dp3853
sg75
g3839
sg68
(lp3854
g61
(g62
g63
NtRp3855
(dp3856
g66
(dp3857
g74
I3
ssg75
g3851
sg68
(lp3858
S'/'
asbasbasbag61
(g77
g63
NtRp3859
(dp3860
g66
(dp3861
sg75
g3755
sg68
(lp3862
g61
(g82
g63
NtRp3863
(dp3864
g66
(dp3865
g86
g87
ssg75
g3859
sg68
(lp3866
g380
asbag61
(g82
g63
NtRp3867
(dp3868
g66
(dp3869
g93
g94
ssg75
g3859
sg68
(lp3870
S':'
asbag61
(g82
g63
NtRp3871
(dp3872
g66
(dp3873
sg75
g3859
sg68
(lp3874
g61
(g62
g63
NtRp3875
(dp3876
g66
(dp3877
g74
I3
ssg75
g3871
sg68
(lp3878
S''
asbasbasbag61
(g77
g63
NtRp3879
(dp3880
g66
(dp3881
sg75
g3755
sg68
(lp3882
g61
(g82
g63
NtRp3883
(dp3884
g66
(dp3885
g86
g87
ssg75
g3879
sg68
(lp3886
g401
asbag61
(g82
g63
NtRp3887
(dp3888
g66
(dp3889
g93
g94
ssg75
g3879
sg68
(lp3890
S':'
asbag61
(g82
g63
NtRp3891
(dp3892
g66
(dp3893
sg75
g3879
sg68
(lp3894
g61
(g62
g63
NtRp3895
(dp3896
g66
(dp3897
g74
I3
ssg75
g3891
sg68
(lp3898
S''
asbasbasbasbasbasbasbasbasbasbasbag61
(g77
g63
NtRp3899
(dp3900
g66
(dp3901
sg75
g3685
sg68
(lp3902
g61
(g82
g63
NtRp3903
(dp3904
g66
(dp3905
g86
g87
ssg75
g3899
sg68
(lp3906
S'delimiters'
p3907
asbag61
(g82
g63
NtRp3908
(dp3909
g66
(dp3910
g93
g94
ssg75
g3899
sg68
(lp3911
S':'
asbag61
(g82
g63
NtRp3912
(dp3913
g66
(dp3914
sg75
g3899
sg68
(lp3915
g61
(g62
g63
NtRp3916
(dp3917
g66
(dp3918
g74
I5
ssg75
g3912
sg68
(lp3919
g61
(g70
g63
NtRp3920
(dp3921
g66
(dp3922
g74
I4
ssg75
Nsg68
(lp3923
g61
(g77
g63
NtRp3924
(dp3925
g66
(dp3926
sg75
g3920
sg68
(lp3927
g61
(g82
g63
NtRp3928
(dp3929
g66
(dp3930
sg75
g3924
sg68
(lp3931
g61
(g62
g63
NtRp3932
(dp3933
g66
(dp3934
g74
I4
ssg75
g3928
sg68
(lp3935
S'{{'
p3936
asbasbasbag61
(g77
g63
NtRp3937
(dp3938
g66
(dp3939
sg75
g3920
sg68
(lp3940
g61
(g82
g63
NtRp3941
(dp3942
g66
(dp3943
sg75
g3937
sg68
(lp3944
g61
(g62
g63
NtRp3945
(dp3946
g66
(dp3947
g74
I4
ssg75
g3941
sg68
(lp3948
S'}}'
p3949
asbasbasbasbasbasbasbag61
(g77
g63
NtRp3950
(dp3951
g66
(dp3952
sg75
g3685
sg68
(lp3953
g61
(g82
g63
NtRp3954
(dp3955
g66
(dp3956
g86
g87
ssg75
g3950
sg68
(lp3957
S'files'
p3958
asbag61
(g82
g63
NtRp3959
(dp3960
g66
(dp3961
g93
g94
ssg75
g3950
sg68
(lp3962
S':'
asbag61
(g82
g63
NtRp3963
(dp3964
g66
(dp3965
sg75
g3950
sg68
(lp3966
g61
(g62
g63
NtRp3967
(dp3968
g66
(dp3969
g74
I5
ssg75
g3963
sg68
(lp3970
g61
(g70
g63
NtRp3971
(dp3972
g66
(dp3973
g74
I4
ssg75
Nsg68
(lp3974
sbasbasbasbag61
(g77
g63
NtRp3975
(dp3976
g66
(dp3977
sg75
g3685
sg68
(lp3978
g61
(g82
g63
NtRp3979
(dp3980
g66
(dp3981
g86
g87
ssg75
g3975
sg68
(lp3982
S'flash'
p3983
asbag61
(g82
g63
NtRp3984
(dp3985
g66
(dp3986
g93
g94
ssg75
g3975
sg68
(lp3987
S':'
asbag61
(g82
g63
NtRp3988
(dp3989
g66
(dp3990
sg75
g3975
sg68
(lp3991
g61
(g62
g63
NtRp3992
(dp3993
g66
(dp3994
g74
I5
ssg75
g3988
sg68
(lp3995
S''
asbasbasbag61
(g77
g63
NtRp3996
(dp3997
g66
(dp3998
sg75
g3685
sg68
(lp3999
g61
(g82
g63
NtRp4000
(dp4001
g66
(dp4002
g86
g87
ssg75
g3996
sg68
(lp4003
S'generic_patterns'
p4004
asbag61
(g82
g63
NtRp4005
(dp4006
g66
(dp4007
g93
g94
ssg75
g3996
sg68
(lp4008
S':'
asbag61
(g82
g63
NtRp4009
(dp4010
g66
(dp4011
sg75
g3996
sg68
(lp4012
g61
(g62
g63
NtRp4013
(dp4014
g66
(dp4015
g74
I5
ssg75
g4009
sg68
(lp4016
g61
(g70
g63
NtRp4017
(dp4018
g66
(dp4019
g74
I4
ssg75
Nsg68
(lp4020
g61
(g77
g63
NtRp4021
(dp4022
g66
(dp4023
sg75
g4017
sg68
(lp4024
g61
(g82
g63
NtRp4025
(dp4026
g66
(dp4027
sg75
g4021
sg68
(lp4028
g61
(g62
g63
NtRp4029
(dp4030
g66
(dp4031
g74
I4
ssg75
g4025
sg68
(lp4032
S'*'
asbasbasbasbasbasbasbag61
(g77
g63
NtRp4033
(dp4034
g66
(dp4035
sg75
g3685
sg68
(lp4036
g61
(g82
g63
NtRp4037
(dp4038
g66
(dp4039
g86
g87
ssg75
g4033
sg68
(lp4040
S'headers'
p4041
asbag61
(g82
g63
NtRp4042
(dp4043
g66
(dp4044
g93
g94
ssg75
g4033
sg68
(lp4045
S':'
asbag61
(g82
g63
NtRp4046
(dp4047
g66
(dp4048
sg75
g4033
sg68
(lp4049
g61
(g62
g63
NtRp4050
(dp4051
g66
(dp4052
g74
I5
ssg75
g4046
sg68
(lp4053
g61
(g70
g63
NtRp4054
(dp4055
g66
(dp4056
g74
I4
ssg75
Nsg68
(lp4057
g61
(g77
g63
NtRp4058
(dp4059
g66
(dp4060
sg75
g4054
sg68
(lp4061
g61
(g82
g63
NtRp4062
(dp4063
g66
(dp4064
g86
g87
ssg75
g4058
sg68
(lp4065
S'Cache-Control'
p4066
asbag61
(g82
g63
NtRp4067
(dp4068
g66
(dp4069
g93
g94
ssg75
g4058
sg68
(lp4070
S':'
asbag61
(g82
g63
NtRp4071
(dp4072
g66
(dp4073
sg75
g4058
sg68
(lp4074
g61
(g62
g63
NtRp4075
(dp4076
g66
(dp4077
g74
I4
ssg75
g4071
sg68
(lp4078
S'no-store, no-cache, must-revalidate, post-check=0, pre-check=0'
p4079
asbasbasbag61
(g77
g63
NtRp4080
(dp4081
g66
(dp4082
sg75
g4054
sg68
(lp4083
g61
(g82
g63
NtRp4084
(dp4085
g66
(dp4086
g86
g87
ssg75
g4080
sg68
(lp4087
S'Content-Type'
p4088
asbag61
(g82
g63
NtRp4089
(dp4090
g66
(dp4091
g93
g94
ssg75
g4080
sg68
(lp4092
S':'
asbag61
(g82
g63
NtRp4093
(dp4094
g66
(dp4095
sg75
g4080
sg68
(lp4096
g61
(g62
g63
NtRp4097
(dp4098
g66
(dp4099
g74
I4
ssg75
g4093
sg68
(lp4100
S'text/html; charset=utf-8'
p4101
asbasbasbag61
(g77
g63
NtRp4102
(dp4103
g66
(dp4104
sg75
g4054
sg68
(lp4105
g61
(g82
g63
NtRp4106
(dp4107
g66
(dp4108
g86
g87
ssg75
g4102
sg68
(lp4109
S'Expires'
p4110
asbag61
(g82
g63
NtRp4111
(dp4112
g66
(dp4113
g93
g94
ssg75
g4102
sg68
(lp4114
S':'
asbag61
(g82
g63
NtRp4115
(dp4116
g66
(dp4117
sg75
g4102
sg68
(lp4118
g61
(g62
g63
NtRp4119
(dp4120
g66
(dp4121
g74
I4
ssg75
g4115
sg68
(lp4122
S'Sun, 11 Nov 2012 00:43:10 GMT'
p4123
asbasbasbag61
(g77
g63
NtRp4124
(dp4125
g66
(dp4126
sg75
g4054
sg68
(lp4127
g61
(g82
g63
NtRp4128
(dp4129
g66
(dp4130
g86
g87
ssg75
g4124
sg68
(lp4131
S'Pragma'
p4132
asbag61
(g82
g63
NtRp4133
(dp4134
g66
(dp4135
g93
g94
ssg75
g4124
sg68
(lp4136
S':'
asbag61
(g82
g63
NtRp4137
(dp4138
g66
(dp4139
sg75
g4124
sg68
(lp4140
g61
(g62
g63
NtRp4141
(dp4142
g66
(dp4143
g74
I4
ssg75
g4137
sg68
(lp4144
S'no-cache'
p4145
asbasbasbag61
(g77
g63
NtRp4146
(dp4147
g66
(dp4148
sg75
g4054
sg68
(lp4149
g61
(g82
g63
NtRp4150
(dp4151
g66
(dp4152
g86
g87
ssg75
g4146
sg68
(lp4153
S'X-Powered-By'
p4154
asbag61
(g82
g63
NtRp4155
(dp4156
g66
(dp4157
g93
g94
ssg75
g4146
sg68
(lp4158
S':'
asbag61
(g82
g63
NtRp4159
(dp4160
g66
(dp4161
sg75
g4146
sg68
(lp4162
g61
(g62
g63
NtRp4163
(dp4164
g66
(dp4165
g74
I4
ssg75
g4159
sg68
(lp4166
S'web2py'
p4167
asbasbasbasbasbasbasbag61
(g77
g63
NtRp4168
(dp4169
g66
(dp4170
sg75
g3685
sg68
(lp4171
g61
(g82
g63
NtRp4172
(dp4173
g66
(dp4174
g86
g87
ssg75
g4168
sg68
(lp4175
S'menu'
p4176
asbag61
(g82
g63
NtRp4177
(dp4178
g66
(dp4179
g93
g94
ssg75
g4168
sg68
(lp4180
S':'
asbag61
(g82
g63
NtRp4181
(dp4182
g66
(dp4183
sg75
g4168
sg68
(lp4184
g61
(g62
g63
NtRp4185
(dp4186
g66
(dp4187
g74
I5
ssg75
g4181
sg68
(lp4188
g61
(g70
g63
NtRp4189
(dp4190
g66
(dp4191
g74
I4
ssg75
Nsg68
(lp4192
g61
(g77
g63
NtRp4193
(dp4194
g66
(dp4195
sg75
g4189
sg68
(lp4196
g61
(g82
g63
NtRp4197
(dp4198
g66
(dp4199
sg75
g4193
sg68
(lp4200
g61
(g62
g63
NtRp4201
(dp4202
g66
(dp4203
g74
I4
ssg75
g4197
sg68
(lp4204
g61
(g70
g63
NtRp4205
(dp4206
g66
(dp4207
g74
I3
ssg75
Nsg68
(lp4208
g61
(g77
g63
NtRp4209
(dp4210
g66
(dp4211
sg75
g4205
sg68
(lp4212
g61
(g82
g63
NtRp4213
(dp4214
g66
(dp4215
sg75
g4209
sg68
(lp4216
g61
(g62
g63
NtRp4217
(dp4218
g66
(dp4219
g74
I3
ssg75
g4213
sg68
(lp4220
cgluon.languages
lazyT_unpickle
p4221
(S's\x04\x00\x00\x00Home'
tRp4222
asbasbasbag61
(g77
g63
NtRp4223
(dp4224
g66
(dp4225
sg75
g4205
sg68
(lp4226
g61
(g82
g63
NtRp4227
(dp4228
g66
(dp4229
sg75
g4223
sg68
(lp4230
g61
(g62
g63
NtRp4231
(dp4232
g66
(dp4233
g74
I3
ssg75
g4227
sg68
(lp4234
g104
asbasbasbag61
(g77
g63
NtRp4235
(dp4236
g66
(dp4237
sg75
g4205
sg68
(lp4238
g61
(g82
g63
NtRp4239
(dp4240
g66
(dp4241
sg75
g4235
sg68
(lp4242
g61
(g62
g63
NtRp4243
(dp4244
g66
(dp4245
g74
I3
ssg75
g4239
sg68
(lp4246
S'/SlugBarter/default/index'
p4247
asbasbasbag61
(g77
g63
NtRp4248
(dp4249
g66
(dp4250
sg75
g4205
sg68
(lp4251
g61
(g82
g63
NtRp4252
(dp4253
g66
(dp4254
sg75
g4248
sg68
(lp4255
g61
(g62
g63
NtRp4256
(dp4257
g66
(dp4258
g74
I3
ssg75
g4252
sg68
(lp4259
g61
(g70
g63
NtRp4260
(dp4261
g66
(dp4262
g74
I2
ssg75
Nsg68
(lp4263
sbasbasbasbasbasbasbasbag61
(g77
g63
NtRp4264
(dp4265
g66
(dp4266
sg75
g4189
sg68
(lp4267
g61
(g82
g63
NtRp4268
(dp4269
g66
(dp4270
sg75
g4264
sg68
(lp4271
g61
(g62
g63
NtRp4272
(dp4273
g66
(dp4274
g74
I4
ssg75
g4268
sg68
(lp4275
g61
(g70
g63
NtRp4276
(dp4277
g66
(dp4278
g74
I3
ssg75
Nsg68
(lp4279
g61
(g77
g63
NtRp4280
(dp4281
g66
(dp4282
sg75
g4276
sg68
(lp4283
g61
(g82
g63
NtRp4284
(dp4285
g66
(dp4286
sg75
g4280
sg68
(lp4287
g61
(g62
g63
NtRp4288
(dp4289
g66
(dp4290
g74
I3
ssg75
g4284
sg68
(lp4291
g61
(cgluon.html
SPAN
p4292
g63
NtRp4293
(dp4294
g66
(dp4295
g86
S'color:yellow'
p4296
ssg75
Nsg68
(lp4297
g4167
asbasbasbasbag61
(g77
g63
NtRp4298
(dp4299
g66
(dp4300
sg75
g4276
sg68
(lp4301
g61
(g82
g63
NtRp4302
(dp4303
g66
(dp4304
sg75
g4298
sg68
(lp4305
g61
(g62
g63
NtRp4306
(dp4307
g66
(dp4308
g74
I3
ssg75
g4302
sg68
(lp4309
g104
asbasbasbag61
(g77
g63
NtRp4310
(dp4311
g66
(dp4312
sg75
g4276
sg68
(lp4313
g61
(g82
g63
NtRp4314
(dp4315
g66
(dp4316
sg75
g4310
sg68
(lp4317
g61
(g62
g63
NtRp4318
(dp4319
g66
(dp4320
g74
I3
ssg75
g4314
sg68
(lp4321
S'None'
p4322
asbasbasbag61
(g77
g63
NtRp4323
(dp4324
g66
(dp4325
sg75
g4276
sg68
(lp4326
g61
(g82
g63
NtRp4327
(dp4328
g66
(dp4329
sg75
g4323
sg68
(lp4330
g61
(g62
g63
NtRp4331
(dp4332
g66
(dp4333
g74
I3
ssg75
g4327
sg68
(lp4334
g61
(g70
g63
NtRp4335
(dp4336
g66
(dp4337
g74
I2
ssg75
Nsg68
(lp4338
g61
(g77
g63
NtRp4339
(dp4340
g66
(dp4341
sg75
g4335
sg68
(lp4342
g61
(g82
g63
NtRp4343
(dp4344
g66
(dp4345
sg75
g4339
sg68
(lp4346
g61
(g62
g63
NtRp4347
(dp4348
g66
(dp4349
g74
I2
ssg75
g4343
sg68
(lp4350
g61
(g70
g63
NtRp4351
(dp4352
g66
(dp4353
g74
I1
ssg75
Nsg68
(lp4354
g61
(g77
g63
NtRp4355
(dp4356
g66
(dp4357
sg75
g4351
sg68
(lp4358
g61
(g82
g63
NtRp4359
(dp4360
g66
(dp4361
sg75
g4355
sg68
(lp4362
g61
(g62
g63
NtRp4363
(dp4364
g66
(dp4365
g74
I1
ssg75
g4359
sg68
(lp4366
g4221
(S's\x08\x00\x00\x00My Sites'
tRp4367
asbasbasbag61
(g77
g63
NtRp4368
(dp4369
g66
(dp4370
sg75
g4351
sg68
(lp4371
g61
(g82
g63
NtRp4372
(dp4373
g66
(dp4374
sg75
g4368
sg68
(lp4375
g61
(g62
g63
NtRp4376
(dp4377
g66
(dp4378
g74
I1
ssg75
g4372
sg68
(lp4379
I00
asbasbasbag61
(g77
g63
NtRp4380
(dp4381
g66
(dp4382
sg75
g4351
sg68
(lp4383
g61
(g82
g63
NtRp4384
(dp4385
g66
(dp4386
sg75
g4380
sg68
(lp4387
g61
(g62
g63
NtRp4388
(dp4389
g66
(dp4390
g74
I1
ssg75
g4384
sg68
(lp4391
S'/admin/default/site'
p4392
asbasbasbasbasbasbasbag61
(g77
g63
NtRp4393
(dp4394
g66
(dp4395
sg75
g4335
sg68
(lp4396
g61
(g82
g63
NtRp4397
(dp4398
g66
(dp4399
sg75
g4393
sg68
(lp4400
g61
(g62
g63
NtRp4401
(dp4402
g66
(dp4403
g74
I2
ssg75
g4397
sg68
(lp4404
g61
(g70
g63
NtRp4405
(dp4406
g66
(dp4407
g74
I1
ssg75
Nsg68
(lp4408
g61
(g77
g63
NtRp4409
(dp4410
g66
(dp4411
sg75
g4405
sg68
(lp4412
g61
(g82
g63
NtRp4413
(dp4414
g66
(dp4415
sg75
g4409
sg68
(lp4416
g61
(g62
g63
NtRp4417
(dp4418
g66
(dp4419
g74
I1
ssg75
g4413
sg68
(lp4420
g4221
(S's\x08\x00\x00\x00This App'
tRp4421
asbasbasbag61
(g77
g63
NtRp4422
(dp4423
g66
(dp4424
sg75
g4405
sg68
(lp4425
g61
(g82
g63
NtRp4426
(dp4427
g66
(dp4428
sg75
g4422
sg68
(lp4429
g61
(g62
g63
NtRp4430
(dp4431
g66
(dp4432
g74
I1
ssg75
g4426
sg68
(lp4433
I00
asbasbasbag61
(g77
g63
NtRp4434
(dp4435
g66
(dp4436
sg75
g4405
sg68
(lp4437
g61
(g82
g63
NtRp4438
(dp4439
g66
(dp4440
sg75
g4434
sg68
(lp4441
g61
(g62
g63
NtRp4442
(dp4443
g66
(dp4444
g74
I1
ssg75
g4438
sg68
(lp4445
S'/admin/default/design/SlugBarter'
p4446
asbasbasbag61
(g77
g63
NtRp4447
(dp4448
g66
(dp4449
sg75
g4405
sg68
(lp4450
g61
(g82
g63
NtRp4451
(dp4452
g66
(dp4453
sg75
g4447
sg68
(lp4454
g61
(g62
g63
NtRp4455
(dp4456
g66
(dp4457
g74
I1
ssg75
g4451
sg68
(lp4458
(lp4459
(g4221
(S's\n\x00\x00\x00Controller'
tRp4460
I00
S'/admin/default/edit/SlugBarter/controllers/default.py'
tp4461
a(g4221
(S's\x04\x00\x00\x00View'
tRp4462
I00
S'/admin/default/edit/SlugBarter/views/default/index.html'
tp4463
a(g4221
(S's\x06\x00\x00\x00Layout'
tRp4464
I00
S'/admin/default/edit/SlugBarter/views/layout.html'
tp4465
a(g4221
(S's\n\x00\x00\x00Stylesheet'
tRp4466
I00
S'/admin/default/edit/SlugBarter/static/css/web2py.css'
tp4467
a(g4221
(S's\x08\x00\x00\x00DB Model'
tRp4468
I00
S'/admin/default/edit/SlugBarter/models/db.py'
tp4469
a(g4221
(S's\n\x00\x00\x00Menu Model'
tRp4470
I00
S'/admin/default/edit/SlugBarter/models/menu.py'
tp4471
a(g4221
(S's\x08\x00\x00\x00Database'
tRp4472
I00
S'/SlugBarter/appadmin/index'
tp4473
a(g4221
(S's\x06\x00\x00\x00Errors'
tRp4474
I00
S'/admin/default/errors/SlugBarter'
tp4475
a(g4221
(S's\x05\x00\x00\x00About'
tRp4476
I00
S'/admin/default/about/SlugBarter'
tp4477
aasbasbasbasbasbasbasbag61
(g77
g63
NtRp4478
(dp4479
g66
(dp4480
sg75
g4335
sg68
(lp4481
g61
(g82
g63
NtRp4482
(dp4483
g66
(dp4484
sg75
g4478
sg68
(lp4485
g61
(g62
g63
NtRp4486
(dp4487
g66
(dp4488
g74
I2
ssg75
g4482
sg68
(lp4489
g61
(g70
g63
NtRp4490
(dp4491
g66
(dp4492
g74
I1
ssg75
Nsg68
(lp4493
g61
(g77
g63
NtRp4494
(dp4495
g66
(dp4496
sg75
g4490
sg68
(lp4497
g61
(g82
g63
NtRp4498
(dp4499
g66
(dp4500
sg75
g4494
sg68
(lp4501
g61
(g62
g63
NtRp4502
(dp4503
g66
(dp4504
g74
I1
ssg75
g4498
sg68
(lp4505
S'web2py.com'
p4506
asbasbasbag61
(g77
g63
NtRp4507
(dp4508
g66
(dp4509
sg75
g4490
sg68
(lp4510
g61
(g82
g63
NtRp4511
(dp4512
g66
(dp4513
sg75
g4507
sg68
(lp4514
g61
(g62
g63
NtRp4515
(dp4516
g66
(dp4517
g74
I1
ssg75
g4511
sg68
(lp4518
I00
asbasbasbag61
(g77
g63
NtRp4519
(dp4520
g66
(dp4521
sg75
g4490
sg68
(lp4522
g61
(g82
g63
NtRp4523
(dp4524
g66
(dp4525
sg75
g4519
sg68
(lp4526
g61
(g62
g63
NtRp4527
(dp4528
g66
(dp4529
g74
I1
ssg75
g4523
sg68
(lp4530
S'http://www.web2py.com'
p4531
asbasbasbag61
(g77
g63
NtRp4532
(dp4533
g66
(dp4534
sg75
g4490
sg68
(lp4535
g61
(g82
g63
NtRp4536
(dp4537
g66
(dp4538
sg75
g4532
sg68
(lp4539
g61
(g62
g63
NtRp4540
(dp4541
g66
(dp4542
g74
I1
ssg75
g4536
sg68
(lp4543
(lp4544
(g4221
(S's\x08\x00\x00\x00Download'
tRp4545
I00
S'http://www.web2py.com/examples/default/download'
p4546
tp4547
a(g4221
(S's\x07\x00\x00\x00Support'
tRp4548
I00
S'http://www.web2py.com/examples/default/support'
p4549
tp4550
a(g4221
(S's\x04\x00\x00\x00Demo'
tRp4551
I00
S'http://web2py.com/demo_admin'
p4552
tp4553
a(g4221
(S's\x0e\x00\x00\x00Quick Examples'
tRp4554
I00
S'http://web2py.com/examples/default/examples'
p4555
tp4556
a(g4221
(S's\x03\x00\x00\x00FAQ'
tRp4557
I00
S'http://web2py.com/AlterEgo'
p4558
tp4559
a(g4221
(S's\x06\x00\x00\x00Videos'
tRp4560
I00
S'http://www.web2py.com/examples/default/videos/'
p4561
tp4562
a(g4221
(S's\x11\x00\x00\x00Free Applications'
tRp4563
I00
S'http://web2py.com/appliances'
p4564
tp4565
a(g4221
(S's\x07\x00\x00\x00Plugins'
tRp4566
I00
S'http://web2py.com/plugins'
p4567
tp4568
a(g4221
(S's\x07\x00\x00\x00Layouts'
tRp4569
I00
S'http://web2py.com/layouts'
p4570
tp4571
a(g4221
(S's\x07\x00\x00\x00Recipes'
tRp4572
I00
S'http://web2pyslices.com/'
p4573
tp4574
a(g4221
(S's\x08\x00\x00\x00Semantic'
tRp4575
I00
S'http://web2py.com/semantic'
p4576
tp4577
aasbasbasbasbasbasbasbag61
(g77
g63
NtRp4578
(dp4579
g66
(dp4580
sg75
g4335
sg68
(lp4581
g61
(g82
g63
NtRp4582
(dp4583
g66
(dp4584
sg75
g4578
sg68
(lp4585
g61
(g62
g63
NtRp4586
(dp4587
g66
(dp4588
g74
I2
ssg75
g4582
sg68
(lp4589
g61
(g70
g63
NtRp4590
(dp4591
g66
(dp4592
g74
I1
ssg75
Nsg68
(lp4593
g61
(g77
g63
NtRp4594
(dp4595
g66
(dp4596
sg75
g4590
sg68
(lp4597
g61
(g82
g63
NtRp4598
(dp4599
g66
(dp4600
sg75
g4594
sg68
(lp4601
g61
(g62
g63
NtRp4602
(dp4603
g66
(dp4604
g74
I1
ssg75
g4598
sg68
(lp4605
g4221
(S's\r\x00\x00\x00Documentation'
tRp4606
asbasbasbag61
(g77
g63
NtRp4607
(dp4608
g66
(dp4609
sg75
g4590
sg68
(lp4610
g61
(g82
g63
NtRp4611
(dp4612
g66
(dp4613
sg75
g4607
sg68
(lp4614
g61
(g62
g63
NtRp4615
(dp4616
g66
(dp4617
g74
I1
ssg75
g4611
sg68
(lp4618
I00
asbasbasbag61
(g77
g63
NtRp4619
(dp4620
g66
(dp4621
sg75
g4590
sg68
(lp4622
g61
(g82
g63
NtRp4623
(dp4624
g66
(dp4625
sg75
g4619
sg68
(lp4626
g61
(g62
g63
NtRp4627
(dp4628
g66
(dp4629
g74
I1
ssg75
g4623
sg68
(lp4630
S'http://www.web2py.com/book'
p4631
asbasbasbag61
(g77
g63
NtRp4632
(dp4633
g66
(dp4634
sg75
g4590
sg68
(lp4635
g61
(g82
g63
NtRp4636
(dp4637
g66
(dp4638
sg75
g4632
sg68
(lp4639
g61
(g62
g63
NtRp4640
(dp4641
g66
(dp4642
g74
I1
ssg75
g4636
sg68
(lp4643
(lp4644
(g4221
(S's\x07\x00\x00\x00Preface'
tRp4645
I00
S'http://www.web2py.com/book/default/chapter/00'
p4646
tp4647
a(g4221
(S's\x0c\x00\x00\x00Introduction'
tRp4648
I00
S'http://www.web2py.com/book/default/chapter/01'
p4649
tp4650
a(g4221
(S's\x06\x00\x00\x00Python'
tRp4651
I00
S'http://www.web2py.com/book/default/chapter/02'
p4652
tp4653
a(g4221
(S's\x08\x00\x00\x00Overview'
tRp4654
I00
S'http://www.web2py.com/book/default/chapter/03'
p4655
tp4656
a(g4221
(S's\x08\x00\x00\x00The Core'
tRp4657
I00
S'http://www.web2py.com/book/default/chapter/04'
p4658
tp4659
a(g4221
(S's\t\x00\x00\x00The Views'
tRp4660
I00
S'http://www.web2py.com/book/default/chapter/05'
p4661
tp4662
a(g4221
(S's\x08\x00\x00\x00Database'
tRp4663
I00
S'http://www.web2py.com/book/default/chapter/06'
p4664
tp4665
a(g4221
(S's\x14\x00\x00\x00Forms and Validators'
tRp4666
I00
S'http://www.web2py.com/book/default/chapter/07'
p4667
tp4668
a(g4221
(S's\r\x00\x00\x00Email and SMS'
tRp4669
I00
S'http://www.web2py.com/book/default/chapter/08'
p4670
tp4671
a(g4221
(S's\x0e\x00\x00\x00Access Control'
tRp4672
I00
S'http://www.web2py.com/book/default/chapter/09'
p4673
tp4674
a(g4221
(S's\x08\x00\x00\x00Services'
tRp4675
I00
S'http://www.web2py.com/book/default/chapter/10'
p4676
tp4677
a(g4221
(S's\x0c\x00\x00\x00Ajax Recipes'
tRp4678
I00
S'http://www.web2py.com/book/default/chapter/11'
p4679
tp4680
a(g4221
(S's\x16\x00\x00\x00Components and Plugins'
tRp4681
I00
S'http://www.web2py.com/book/default/chapter/12'
p4682
tp4683
a(g4221
(S's\x12\x00\x00\x00Deployment Recipes'
tRp4684
I00
S'http://www.web2py.com/book/default/chapter/13'
p4685
tp4686
a(g4221
(S's\r\x00\x00\x00Other Recipes'
tRp4687
I00
S'http://www.web2py.com/book/default/chapter/14'
p4688
tp4689
a(g4221
(S's\r\x00\x00\x00Buy this book'
tRp4690
I00
S'http://stores.lulu.com/web2py'
p4691
tp4692
aasbasbasbasbasbasbasbag61
(g77
g63
NtRp4693
(dp4694
g66
(dp4695
sg75
g4335
sg68
(lp4696
g61
(g82
g63
NtRp4697
(dp4698
g66
(dp4699
sg75
g4693
sg68
(lp4700
g61
(g62
g63
NtRp4701
(dp4702
g66
(dp4703
g74
I2
ssg75
g4697
sg68
(lp4704
g61
(g70
g63
NtRp4705
(dp4706
g66
(dp4707
g74
I1
ssg75
Nsg68
(lp4708
g61
(g77
g63
NtRp4709
(dp4710
g66
(dp4711
sg75
g4705
sg68
(lp4712
g61
(g82
g63
NtRp4713
(dp4714
g66
(dp4715
sg75
g4709
sg68
(lp4716
g61
(g62
g63
NtRp4717
(dp4718
g66
(dp4719
g74
I1
ssg75
g4713
sg68
(lp4720
g4221
(S's\t\x00\x00\x00Community'
tRp4721
asbasbasbag61
(g77
g63
NtRp4722
(dp4723
g66
(dp4724
sg75
g4705
sg68
(lp4725
g61
(g82
g63
NtRp4726
(dp4727
g66
(dp4728
sg75
g4722
sg68
(lp4729
g61
(g62
g63
NtRp4730
(dp4731
g66
(dp4732
g74
I1
ssg75
g4726
sg68
(lp4733
I00
asbasbasbag61
(g77
g63
NtRp4734
(dp4735
g66
(dp4736
sg75
g4705
sg68
(lp4737
g61
(g82
g63
NtRp4738
(dp4739
g66
(dp4740
sg75
g4734
sg68
(lp4741
g61
(g62
g63
NtRp4742
(dp4743
g66
(dp4744
g74
I1
ssg75
g4738
sg68
(lp4745
Nasbasbasbag61
(g77
g63
NtRp4746
(dp4747
g66
(dp4748
sg75
g4705
sg68
(lp4749
g61
(g82
g63
NtRp4750
(dp4751
g66
(dp4752
sg75
g4746
sg68
(lp4753
g61
(g62
g63
NtRp4754
(dp4755
g66
(dp4756
g74
I1
ssg75
g4750
sg68
(lp4757
(lp4758
(g4221
(S's\x06\x00\x00\x00Groups'
tRp4759
I00
S'http://www.web2py.com/examples/default/usergroups'
p4760
tp4761
a(g4221
(S's\x07\x00\x00\x00Twitter'
tRp4762
I00
S'http://twitter.com/web2py'
p4763
tp4764
a(g4221
(S's\t\x00\x00\x00Live Chat'
tRp4765
I00
S'http://webchat.freenode.net/?channels=web2py'
p4766
tp4767
aasbasbasbasbasbasbasbag61
(g77
g63
NtRp4768
(dp4769
g66
(dp4770
sg75
g4335
sg68
(lp4771
g61
(g82
g63
NtRp4772
(dp4773
g66
(dp4774
sg75
g4768
sg68
(lp4775
g61
(g62
g63
NtRp4776
(dp4777
g66
(dp4778
g74
I2
ssg75
g4772
sg68
(lp4779
g61
(g70
g63
NtRp4780
(dp4781
g66
(dp4782
g74
I1
ssg75
Nsg68
(lp4783
g61
(g77
g63
NtRp4784
(dp4785
g66
(dp4786
sg75
g4780
sg68
(lp4787
g61
(g82
g63
NtRp4788
(dp4789
g66
(dp4790
sg75
g4784
sg68
(lp4791
g61
(g62
g63
NtRp4792
(dp4793
g66
(dp4794
g74
I1
ssg75
g4788
sg68
(lp4795
g4221
(S's\x07\x00\x00\x00Plugins'
tRp4796
asbasbasbag61
(g77
g63
NtRp4797
(dp4798
g66
(dp4799
sg75
g4780
sg68
(lp4800
g61
(g82
g63
NtRp4801
(dp4802
g66
(dp4803
sg75
g4797
sg68
(lp4804
g61
(g62
g63
NtRp4805
(dp4806
g66
(dp4807
g74
I1
ssg75
g4801
sg68
(lp4808
I00
asbasbasbag61
(g77
g63
NtRp4809
(dp4810
g66
(dp4811
sg75
g4780
sg68
(lp4812
g61
(g82
g63
NtRp4813
(dp4814
g66
(dp4815
sg75
g4809
sg68
(lp4816
g61
(g62
g63
NtRp4817
(dp4818
g66
(dp4819
g74
I1
ssg75
g4813
sg68
(lp4820
Nasbasbasbag61
(g77
g63
NtRp4821
(dp4822
g66
(dp4823
sg75
g4780
sg68
(lp4824
g61
(g82
g63
NtRp4825
(dp4826
g66
(dp4827
sg75
g4821
sg68
(lp4828
g61
(g62
g63
NtRp4829
(dp4830
g66
(dp4831
g74
I1
ssg75
g4825
sg68
(lp4832
(lp4833
(S'plugin_wiki'
p4834
I00
S'http://web2py.com/examples/default/download'
p4835
tp4836
a(g4221
(S's\r\x00\x00\x00Other Plugins'
tRp4837
I00
g4567
tp4838
a(g4221
(S's\x0e\x00\x00\x00Layout Plugins'
tRp4839
I00
g4570
tp4840
aasbasbasbasbasbasbasbasbasbasbasbasbasbasbasbasbasbasbasbag61
(g77
g63
NtRp4841
(dp4842
g66
(dp4843
sg75
g3685
sg68
(lp4844
g61
(g82
g63
NtRp4845
(dp4846
g66
(dp4847
g86
g87
ssg75
g4841
sg68
(lp4848
S'meta'
p4849
asbag61
(g82
g63
NtRp4850
(dp4851
g66
(dp4852
g93
g94
ssg75
g4841
sg68
(lp4853
S':'
asbag61
(g82
g63
NtRp4854
(dp4855
g66
(dp4856
sg75
g4841
sg68
(lp4857
g61
(g62
g63
NtRp4858
(dp4859
g66
(dp4860
g74
I5
ssg75
g4854
sg68
(lp4861
g61
(g70
g63
NtRp4862
(dp4863
g66
(dp4864
g74
I4
ssg75
Nsg68
(lp4865
g61
(g77
g63
NtRp4866
(dp4867
g66
(dp4868
sg75
g4862
sg68
(lp4869
g61
(g82
g63
NtRp4870
(dp4871
g66
(dp4872
g86
g87
ssg75
g4866
sg68
(lp4873
S'author'
p4874
asbag61
(g82
g63
NtRp4875
(dp4876
g66
(dp4877
g93
g94
ssg75
g4866
sg68
(lp4878
S':'
asbag61
(g82
g63
NtRp4879
(dp4880
g66
(dp4881
sg75
g4866
sg68
(lp4882
g61
(g62
g63
NtRp4883
(dp4884
g66
(dp4885
g74
I4
ssg75
g4879
sg68
(lp4886
S'Your Name <you@example.com>'
p4887
asbasbasbag61
(g77
g63
NtRp4888
(dp4889
g66
(dp4890
sg75
g4862
sg68
(lp4891
g61
(g82
g63
NtRp4892
(dp4893
g66
(dp4894
g86
g87
ssg75
g4888
sg68
(lp4895
S'copyright'
p4896
asbag61
(g82
g63
NtRp4897
(dp4898
g66
(dp4899
g93
g94
ssg75
g4888
sg68
(lp4900
S':'
asbag61
(g82
g63
NtRp4901
(dp4902
g66
(dp4903
sg75
g4888
sg68
(lp4904
g61
(g62
g63
NtRp4905
(dp4906
g66
(dp4907
g74
I4
ssg75
g4901
sg68
(lp4908
S'Copyright 2011'
p4909
asbasbasbag61
(g77
g63
NtRp4910
(dp4911
g66
(dp4912
sg75
g4862
sg68
(lp4913
g61
(g82
g63
NtRp4914
(dp4915
g66
(dp4916
g86
g87
ssg75
g4910
sg68
(lp4917
S'description'
p4918
asbag61
(g82
g63
NtRp4919
(dp4920
g66
(dp4921
g93
g94
ssg75
g4910
sg68
(lp4922
S':'
asbag61
(g82
g63
NtRp4923
(dp4924
g66
(dp4925
sg75
g4910
sg68
(lp4926
g61
(g62
g63
NtRp4927
(dp4928
g66
(dp4929
g74
I4
ssg75
g4923
sg68
(lp4930
S'a cool new app'
p4931
asbasbasbag61
(g77
g63
NtRp4932
(dp4933
g66
(dp4934
sg75
g4862
sg68
(lp4935
g61
(g82
g63
NtRp4936
(dp4937
g66
(dp4938
g86
g87
ssg75
g4932
sg68
(lp4939
S'generator'
p4940
asbag61
(g82
g63
NtRp4941
(dp4942
g66
(dp4943
g93
g94
ssg75
g4932
sg68
(lp4944
S':'
asbag61
(g82
g63
NtRp4945
(dp4946
g66
(dp4947
sg75
g4932
sg68
(lp4948
g61
(g62
g63
NtRp4949
(dp4950
g66
(dp4951
g74
I4
ssg75
g4945
sg68
(lp4952
S'Web2py Web Framework'
p4953
asbasbasbag61
(g77
g63
NtRp4954
(dp4955
g66
(dp4956
sg75
g4862
sg68
(lp4957
g61
(g82
g63
NtRp4958
(dp4959
g66
(dp4960
g86
g87
ssg75
g4954
sg68
(lp4961
S'keywords'
p4962
asbag61
(g82
g63
NtRp4963
(dp4964
g66
(dp4965
g93
g94
ssg75
g4954
sg68
(lp4966
S':'
asbag61
(g82
g63
NtRp4967
(dp4968
g66
(dp4969
sg75
g4954
sg68
(lp4970
g61
(g62
g63
NtRp4971
(dp4972
g66
(dp4973
g74
I4
ssg75
g4967
sg68
(lp4974
S'web2py, python, framework'
p4975
asbasbasbasbasbasbasbag61
(g77
g63
NtRp4976
(dp4977
g66
(dp4978
sg75
g3685
sg68
(lp4979
g61
(g82
g63
NtRp4980
(dp4981
g66
(dp4982
g86
g87
ssg75
g4976
sg68
(lp4983
S'postprocessing'
p4984
asbag61
(g82
g63
NtRp4985
(dp4986
g66
(dp4987
g93
g94
ssg75
g4976
sg68
(lp4988
S':'
asbag61
(g82
g63
NtRp4989
(dp4990
g66
(dp4991
sg75
g4976
sg68
(lp4992
g61
(g62
g63
NtRp4993
(dp4994
g66
(dp4995
g74
I5
ssg75
g4989
sg68
(lp4996
g61
(g70
g63
NtRp4997
(dp4998
g66
(dp4999
g74
I4
ssg75
Nsg68
(lp5000
sbasbasbasbag61
(g77
g63
NtRp5001
(dp5002
g66
(dp5003
sg75
g3685
sg68
(lp5004
g61
(g82
g63
NtRp5005
(dp5006
g66
(dp5007
g86
g87
ssg75
g5001
sg68
(lp5008
S'session_file'
p5009
asbag61
(g82
g63
NtRp5010
(dp5011
g66
(dp5012
g93
g94
ssg75
g5001
sg68
(lp5013
S':'
asbag61
(g82
g63
NtRp5014
(dp5015
g66
(dp5016
sg75
g5001
sg68
(lp5017
g61
(g62
g63
NtRp5018
(dp5019
g66
(dp5020
g74
I5
ssg75
g5014
sg68
(lp5021
S"<open file 'C:\\Users\\omkara\\Desktop\\web2py\\applications\\SlugBarter\\sessions\\127.0.0.1-e6ebae72-1bbc-48a5-9458-95dbb65a4e54', mode 'rb+' at 0x060D3890>"
p5022
asbasbasbag61
(g77
g63
NtRp5023
(dp5024
g66
(dp5025
sg75
g3685
sg68
(lp5026
g61
(g82
g63
NtRp5027
(dp5028
g66
(dp5029
g86
g87
ssg75
g5023
sg68
(lp5030
S'session_filename'
p5031
asbag61
(g82
g63
NtRp5032
(dp5033
g66
(dp5034
g93
g94
ssg75
g5023
sg68
(lp5035
S':'
asbag61
(g82
g63
NtRp5036
(dp5037
g66
(dp5038
sg75
g5023
sg68
(lp5039
g61
(g62
g63
NtRp5040
(dp5041
g66
(dp5042
g74
I5
ssg75
g5036
sg68
(lp5043
S'C:\\Users\\omkara\\Desktop\\web2py\\applications\\SlugBarter\\sessions\\127.0.0.1-e6ebae72-1bbc-48a5-9458-95dbb65a4e54'
p5044
asbasbasbag61
(g77
g63
NtRp5045
(dp5046
g66
(dp5047
sg75
g3685
sg68
(lp5048
g61
(g82
g63
NtRp5049
(dp5050
g66
(dp5051
g86
g87
ssg75
g5045
sg68
(lp5052
S'session_id'
p5053
asbag61
(g82
g63
NtRp5054
(dp5055
g66
(dp5056
g93
g94
ssg75
g5045
sg68
(lp5057
S':'
asbag61
(g82
g63
NtRp5058
(dp5059
g66
(dp5060
sg75
g5045
sg68
(lp5061
g61
(g62
g63
NtRp5062
(dp5063
g66
(dp5064
g74
I5
ssg75
g5058
sg68
(lp5065
S'127.0.0.1-e6ebae72-1bbc-48a5-9458-95dbb65a4e54'
p5066
asbasbasbag61
(g77
g63
NtRp5067
(dp5068
g66
(dp5069
sg75
g3685
sg68
(lp5070
g61
(g82
g63
NtRp5071
(dp5072
g66
(dp5073
g86
g87
ssg75
g5067
sg68
(lp5074
S'session_id_name'
p5075
asbag61
(g82
g63
NtRp5076
(dp5077
g66
(dp5078
g93
g94
ssg75
g5067
sg68
(lp5079
S':'
asbag61
(g82
g63
NtRp5080
(dp5081
g66
(dp5082
sg75
g5067
sg68
(lp5083
g61
(g62
g63
NtRp5084
(dp5085
g66
(dp5086
g74
I5
ssg75
g5080
sg68
(lp5087
g3742
asbasbasbag61
(g77
g63
NtRp5088
(dp5089
g66
(dp5090
sg75
g3685
sg68
(lp5091
g61
(g82
g63
NtRp5092
(dp5093
g66
(dp5094
g86
g87
ssg75
g5088
sg68
(lp5095
S'session_locked'
p5096
asbag61
(g82
g63
NtRp5097
(dp5098
g66
(dp5099
g93
g94
ssg75
g5088
sg68
(lp5100
S':'
asbag61
(g82
g63
NtRp5101
(dp5102
g66
(dp5103
sg75
g5088
sg68
(lp5104
g61
(g62
g63
NtRp5105
(dp5106
g66
(dp5107
g74
I5
ssg75
g5101
sg68
(lp5108
g1951
asbasbasbag61
(g77
g63
NtRp5109
(dp5110
g66
(dp5111
sg75
g3685
sg68
(lp5112
g61
(g82
g63
NtRp5113
(dp5114
g66
(dp5115
g86
g87
ssg75
g5109
sg68
(lp5116
S'session_new'
p5117
asbag61
(g82
g63
NtRp5118
(dp5119
g66
(dp5120
g93
g94
ssg75
g5109
sg68
(lp5121
S':'
asbag61
(g82
g63
NtRp5122
(dp5123
g66
(dp5124
sg75
g5109
sg68
(lp5125
g61
(g62
g63
NtRp5126
(dp5127
g66
(dp5128
g74
I5
ssg75
g5122
sg68
(lp5129
g104
asbasbasbag61
(g77
g63
NtRp5130
(dp5131
g66
(dp5132
sg75
g3685
sg68
(lp5133
g61
(g82
g63
NtRp5134
(dp5135
g66
(dp5136
g86
g87
ssg75
g5130
sg68
(lp5137
S'status'
p5138
asbag61
(g82
g63
NtRp5139
(dp5140
g66
(dp5141
g93
g94
ssg75
g5130
sg68
(lp5142
S':'
asbag61
(g82
g63
NtRp5143
(dp5144
g66
(dp5145
sg75
g5130
sg68
(lp5146
g61
(g62
g63
NtRp5147
(dp5148
g66
(dp5149
g74
I5
ssg75
g5143
sg68
(lp5150
S'200'
p5151
asbasbasbag61
(g77
g63
NtRp5152
(dp5153
g66
(dp5154
sg75
g3685
sg68
(lp5155
g61
(g82
g63
NtRp5156
(dp5157
g66
(dp5158
g86
g87
ssg75
g5152
sg68
(lp5159
S'subtitle'
p5160
asbag61
(g82
g63
NtRp5161
(dp5162
g66
(dp5163
g93
g94
ssg75
g5152
sg68
(lp5164
S':'
asbag61
(g82
g63
NtRp5165
(dp5166
g66
(dp5167
sg75
g5152
sg68
(lp5168
g61
(g62
g63
NtRp5169
(dp5170
g66
(dp5171
g74
I5
ssg75
g5165
sg68
(lp5172
g4221
(S's\r\x00\x00\x00customize me!'
tRp5173
asbasbasbag61
(g77
g63
NtRp5174
(dp5175
g66
(dp5176
sg75
g3685
sg68
(lp5177
g61
(g82
g63
NtRp5178
(dp5179
g66
(dp5180
g86
g87
ssg75
g5174
sg68
(lp5181
S'title'
p5182
asbag61
(g82
g63
NtRp5183
(dp5184
g66
(dp5185
g93
g94
ssg75
g5174
sg68
(lp5186
S':'
asbag61
(g82
g63
NtRp5187
(dp5188
g66
(dp5189
sg75
g5174
sg68
(lp5190
g61
(g62
g63
NtRp5191
(dp5192
g66
(dp5193
g74
I5
ssg75
g5187
sg68
(lp5194
S'Slugbarter'
p5195
asbasbasbag61
(g77
g63
NtRp5196
(dp5197
g66
(dp5198
sg75
g3685
sg68
(lp5199
g61
(g82
g63
NtRp5200
(dp5201
g66
(dp5202
g86
g87
ssg75
g5196
sg68
(lp5203
g2615
asbag61
(g82
g63
NtRp5204
(dp5205
g66
(dp5206
g93
g94
ssg75
g5196
sg68
(lp5207
S':'
asbag61
(g82
g63
NtRp5208
(dp5209
g66
(dp5210
sg75
g5196
sg68
(lp5211
g61
(g62
g63
NtRp5212
(dp5213
g66
(dp5214
g74
I5
ssg75
g5208
sg68
(lp5215
g2628
asbasbasbag61
(g77
g63
NtRp5216
(dp5217
g66
(dp5218
sg75
g3685
sg68
(lp5219
g61
(g82
g63
NtRp5220
(dp5221
g66
(dp5222
g86
g87
ssg75
g5216
sg68
(lp5223
S'view'
p5224
asbag61
(g82
g63
NtRp5225
(dp5226
g66
(dp5227
g93
g94
ssg75
g5216
sg68
(lp5228
S':'
asbag61
(g82
g63
NtRp5229
(dp5230
g66
(dp5231
sg75
g5216
sg68
(lp5232
g61
(g62
g63
NtRp5233
(dp5234
g66
(dp5235
g74
I5
ssg75
g5229
sg68
(lp5236
S'default/index.html'
p5237
asbasbasbasbasbsS'locals'
p5238
(dp5239
S'polymodel'
p5240
S'None'
p5241
sS'lowertablename'
p5242
S"'auth_user'"
p5243
sS'singular'
p5244
S"'Auth user'"
p5245
sS'migrate'
p5246
g1951
sS'fields'
p5247
S'(<gluon.dal.Field object at 0x0297F810>, <gluon.dal.Field object at 0x02762CB0>, <gluon.dal.Field object at 0x060DE170>, <gluon.dal.Field object at 0x060DEE50>, <gluon.dal.Field object at 0x060DEBD0>, <gluon.dal.Field object at 0x0624C590>, <gluon.dal.Field object at 0x0624CB70>, <gluon.dal.Field object at 0x0624C370>, <gluon.dal.Field object at 0x064442B0>, <gluon.dal.Field object at 0x064449B0>, <gluon.dal.Field object at 0x06444990>)'
p5248
sS'sequence_name'
p5249
S'None'
p5250
sg48
g21
sS'tablename'
p5251
S"'auth_user'"
p5252
sS'fake_migrate'
p5253
g104
sS'self'
p5254
S"<DAL {'auth_event': <Table {'origin': <gluon.dal..._key': <gluon.dal.Field object at 0x064C57F0>}>}>"
p5255
sS'table_class'
p5256
S"<class 'gluon.dal.Table'>"
p5257
sS'format'
p5258
S'None'
p5259
sS'trigger_name'
p5260
S'None'
p5261
sS'plural'
p5262
S"'Auth users'"
p5263
sS'primarykey'
p5264
S'None'
p5265
sssS'traceback'
p5266
S'Traceback (most recent call last):\n  File "gluon/restricted.py", line 205, in restricted\n  File "C:\\Users\\omkara\\Desktop\\web2py\\applications\\SlugBarter\\models\\registerForm.py", line 22, in <module>\n  File "gluon/dal.py", line 6292, in define_table\nSyntaxError: invalid table name: auth_user\n'
p5267
s.