(dp1
S'output'
p2
S"<type 'exceptions.SyntaxError'> 'return' outside function (controllers/default.py, line 22)"
p3
sS'layer'
p4
S'C:\\Users\\omkara\\Desktop\\web2py\\applications\\SlugBarter\\controllers/default.py'
p5
sS'code'
p6
S'# -*- coding: utf-8 -*-\n# this file is released under public domain and you can use without limitations\n\n#########################################################################\n## This is a samples controller\n## - index is the default action of any application\n## - user is required for authentication and authorization\n## - download is for downloading files uploaded in the db (does streaming)\n## - call exposes all registered services (none by default)\n#########################################################################\n\n#controller for when the user is at index page\ndef index():\n  return dict()\n    \n#controller for when the user registers\ndef register():\n    auth.settings.extra_fields[\'auth_user\']= [\n    Field(\'username\'),\n    Field(\'dateCreated\')\n    ] \nreturn dict(form = auth.register())\n   \n#controller for when the user login\ndef login(): \n  form = auth.login()\n  return dict(form = form)\n    \ndef user():\n    """\n    exposes:\n    http://..../[app]/default/user/login\n    http://..../[app]/default/user/logout\n    http://..../[app]/default/user/register\n    http://..../[app]/default/user/profile\n    http://..../[app]/default/user/retrieve_password\n    http://..../[app]/default/user/change_password\n    use @auth.requires_login()\n        @auth.requires_membership(\'group name\')\n        @auth.requires_permission(\'read\',\'table name\',record_id)\n    to decorate functions that need access control\n    """\n    return dict(form=auth())\n\n\ndef download():\n    """\n    allows downloading of uploaded files\n    http://..../[app]/default/download/[filename]\n    """\n    return response.download(request,db)\n\n\ndef call():\n    """\n    exposes services. for example:\n    http://..../[app]/default/call/jsonrpc\n    decorate with @services.jsonrpc the functions to expose\n    supports xml, json, xmlrpc, jsonrpc, amfrpc, rss, csv\n    """\n    return service()\n\n\n@auth.requires_signature()\ndef data():\n    """\n    http://..../[app]/default/data/tables\n    http://..../[app]/default/data/create/[table]\n    http://..../[app]/default/data/read/[table]/[id]\n    http://..../[app]/default/data/update/[table]/[id]\n    http://..../[app]/default/data/delete/[table]/[id]\n    http://..../[app]/default/data/select/[table]\n    http://..../[app]/default/data/search/[table]\n    but URLs must be signed, i.e. linked with\n      A(\'table\',_href=URL(\'data/tables\',user_signature=True))\n    or with the signed load operator\n      LOAD(\'default\',\'data.load\',args=\'tables\',ajax=True,user_signature=True)\n    """\n    return dict(form=crud())\n\nresponse._vars=response._caller(register)\n'
p7
sS'snapshot'
p8
(dp9
S'exception'
p10
(dp11
S'__getslice__'
p12
S"<method-wrapper '__getslice__' of exceptions.SyntaxError object at 0x06192D30>"
p13
sS'text'
p14
S"'return dict(form = auth.register())\\n'"
p15
sS'__str__'
p16
S"<method-wrapper '__str__' of exceptions.SyntaxError object at 0x06192D30>"
p17
sS'__reduce__'
p18
S'<built-in method __reduce__ of exceptions.SyntaxError object at 0x06192D30>'
p19
sS'__dict__'
p20
S'{}'
p21
sS'__init__'
p22
S"<method-wrapper '__init__' of exceptions.SyntaxError object at 0x06192D30>"
p23
sS'__setattr__'
p24
S"<method-wrapper '__setattr__' of exceptions.SyntaxError object at 0x06192D30>"
p25
sS'__reduce_ex__'
p26
S'<built-in method __reduce_ex__ of exceptions.SyntaxError object at 0x06192D30>'
p27
sS'__new__'
p28
S'<built-in method __new__ of type object at 0x1E1CDBD0>'
p29
sS'__class__'
p30
S"<type 'exceptions.SyntaxError'>"
p31
sS'filename'
p32
S"r'C:\\Users\\omkara\\Desktop\\web2py\\applications\\SlugBarter\\controllers/default.py'"
p33
sS'lineno'
p34
S'22'
p35
sS'msg'
p36
S'"\'return\' outside function"'
p37
sS'__doc__'
p38
S"'Invalid syntax.'"
p39
sS'__getitem__'
p40
S"<method-wrapper '__getitem__' of exceptions.SyntaxError object at 0x06192D30>"
p41
sS'__setstate__'
p42
S'<built-in method __setstate__ of exceptions.SyntaxError object at 0x06192D30>'
p43
sS'__getattribute__'
p44
S"<method-wrapper '__getattribute__' of exceptions.SyntaxError object at 0x06192D30>"
p45
sS'print_file_and_line'
p46
S'None'
p47
sS'args'
p48
S'("\'return\' outside function", (r\'C:\\Users\\omkara\\Desktop\\web2py\\applications\\SlugBarter\\controllers/default.py\', 22, None, \'return dict(form = auth.register())\\n\'))'
p49
sS'offset'
p50
S'None'
p51
sS'__delattr__'
p52
S"<method-wrapper '__delattr__' of exceptions.SyntaxError object at 0x06192D30>"
p53
sS'__repr__'
p54
S"<method-wrapper '__repr__' of exceptions.SyntaxError object at 0x06192D30>"
p55
sS'__hash__'
p56
S"<method-wrapper '__hash__' of exceptions.SyntaxError object at 0x06192D30>"
p57
ssS'evalue'
p58
S"'return' outside function (controllers/default.py, line 22)"
p59
sS'request'
p60
ccopy_reg
_reconstructor
p61
(cgluon.html
BEAUTIFY
p62
c__builtin__
object
p63
NtRp64
(dp65
S'attributes'
p66
(dp67
sS'components'
p68
(lp69
g61
(cgluon.html
TABLE
p70
g63
NtRp71
(dp72
g66
(dp73
S'level'
p74
I5
ssS'parent'
p75
Nsg68
(lp76
g61
(cgluon.html
TR
p77
g63
NtRp78
(dp79
g66
(dp80
sg75
g71
sg68
(lp81
g61
(cgluon.html
TD
p82
g63
NtRp83
(dp84
g66
(dp85
S'_style'
p86
S'font-weight:bold;vertical-align:top'
p87
ssg75
g78
sg68
(lp88
S'ajax'
p89
asbag61
(g82
g63
NtRp90
(dp91
g66
(dp92
S'_valign'
p93
S'top'
p94
ssg75
g78
sg68
(lp95
S':'
asbag61
(g82
g63
NtRp96
(dp97
g66
(dp98
sg75
g78
sg68
(lp99
g61
(g62
g63
NtRp100
(dp101
g66
(dp102
g74
I5
ssg75
g96
sg68
(lp103
S'False'
p104
asbasbasbag61
(g77
g63
NtRp105
(dp106
g66
(dp107
sg75
g71
sg68
(lp108
g61
(g82
g63
NtRp109
(dp110
g66
(dp111
g86
g87
ssg75
g105
sg68
(lp112
S'application'
p113
asbag61
(g82
g63
NtRp114
(dp115
g66
(dp116
g93
g94
ssg75
g105
sg68
(lp117
S':'
asbag61
(g82
g63
NtRp118
(dp119
g66
(dp120
sg75
g105
sg68
(lp121
g61
(g62
g63
NtRp122
(dp123
g66
(dp124
g74
I5
ssg75
g118
sg68
(lp125
S'SlugBarter'
p126
asbasbasbag61
(g77
g63
NtRp127
(dp128
g66
(dp129
sg75
g71
sg68
(lp130
g61
(g82
g63
NtRp131
(dp132
g66
(dp133
g86
g87
ssg75
g127
sg68
(lp134
g48
asbag61
(g82
g63
NtRp135
(dp136
g66
(dp137
g93
g94
ssg75
g127
sg68
(lp138
S':'
asbag61
(g82
g63
NtRp139
(dp140
g66
(dp141
sg75
g127
sg68
(lp142
g61
(g62
g63
NtRp143
(dp144
g66
(dp145
g74
I5
ssg75
g139
sg68
(lp146
g61
(g70
g63
NtRp147
(dp148
g66
(dp149
g74
I4
ssg75
Nsg68
(lp150
sbasbasbasbag61
(g77
g63
NtRp151
(dp152
g66
(dp153
sg75
g71
sg68
(lp154
g61
(g82
g63
NtRp155
(dp156
g66
(dp157
g86
g87
ssg75
g151
sg68
(lp158
S'body'
p159
asbag61
(g82
g63
NtRp160
(dp161
g66
(dp162
g93
g94
ssg75
g151
sg68
(lp163
S':'
asbag61
(g82
g63
NtRp164
(dp165
g66
(dp166
sg75
g151
sg68
(lp167
g61
(g62
g63
NtRp168
(dp169
g66
(dp170
g74
I5
ssg75
g164
sg68
(lp171
S'<cStringIO.StringO object at 0x05FEFFE0>'
p172
asbasbasbag61
(g77
g63
NtRp173
(dp174
g66
(dp175
sg75
g71
sg68
(lp176
g61
(g82
g63
NtRp177
(dp178
g66
(dp179
g86
g87
ssg75
g173
sg68
(lp180
S'client'
p181
asbag61
(g82
g63
NtRp182
(dp183
g66
(dp184
g93
g94
ssg75
g173
sg68
(lp185
S':'
asbag61
(g82
g63
NtRp186
(dp187
g66
(dp188
sg75
g173
sg68
(lp189
g61
(g62
g63
NtRp190
(dp191
g66
(dp192
g74
I5
ssg75
g186
sg68
(lp193
S'127.0.0.1'
p194
asbasbasbag61
(g77
g63
NtRp195
(dp196
g66
(dp197
sg75
g71
sg68
(lp198
g61
(g82
g63
NtRp199
(dp200
g66
(dp201
g86
g87
ssg75
g195
sg68
(lp202
S'controller'
p203
asbag61
(g82
g63
NtRp204
(dp205
g66
(dp206
g93
g94
ssg75
g195
sg68
(lp207
S':'
asbag61
(g82
g63
NtRp208
(dp209
g66
(dp210
sg75
g195
sg68
(lp211
g61
(g62
g63
NtRp212
(dp213
g66
(dp214
g74
I5
ssg75
g208
sg68
(lp215
S'default'
p216
asbasbasbag61
(g77
g63
NtRp217
(dp218
g66
(dp219
sg75
g71
sg68
(lp220
g61
(g82
g63
NtRp221
(dp222
g66
(dp223
g86
g87
ssg75
g217
sg68
(lp224
S'cookies'
p225
asbag61
(g82
g63
NtRp226
(dp227
g66
(dp228
g93
g94
ssg75
g217
sg68
(lp229
S':'
asbag61
(g82
g63
NtRp230
(dp231
g66
(dp232
sg75
g217
sg68
(lp233
g61
(g62
g63
NtRp234
(dp235
g66
(dp236
g74
I5
ssg75
g230
sg68
(lp237
g61
(g70
g63
NtRp238
(dp239
g66
(dp240
g74
I4
ssg75
Nsg68
(lp241
g61
(g77
g63
NtRp242
(dp243
g66
(dp244
sg75
g238
sg68
(lp245
g61
(g82
g63
NtRp246
(dp247
g66
(dp248
g86
g87
ssg75
g242
sg68
(lp249
S'session_id_admin'
p250
asbag61
(g82
g63
NtRp251
(dp252
g66
(dp253
g93
g94
ssg75
g242
sg68
(lp254
S':'
asbag61
(g82
g63
NtRp255
(dp256
g66
(dp257
sg75
g242
sg68
(lp258
g61
(g62
g63
NtRp259
(dp260
g66
(dp261
g74
I4
ssg75
g255
sg68
(lp262
g61
(g70
g63
NtRp263
(dp264
g66
(dp265
g74
I3
ssg75
Nsg68
(lp266
g61
(g77
g63
NtRp267
(dp268
g66
(dp269
sg75
g263
sg68
(lp270
g61
(g82
g63
NtRp271
(dp272
g66
(dp273
g86
g87
ssg75
g267
sg68
(lp274
S'comment'
p275
asbag61
(g82
g63
NtRp276
(dp277
g66
(dp278
g93
g94
ssg75
g267
sg68
(lp279
S':'
asbag61
(g82
g63
NtRp280
(dp281
g66
(dp282
sg75
g267
sg68
(lp283
g61
(g62
g63
NtRp284
(dp285
g66
(dp286
g74
I3
ssg75
g280
sg68
(lp287
S''
asbasbasbag61
(g77
g63
NtRp288
(dp289
g66
(dp290
sg75
g263
sg68
(lp291
g61
(g82
g63
NtRp292
(dp293
g66
(dp294
g86
g87
ssg75
g288
sg68
(lp295
S'domain'
p296
asbag61
(g82
g63
NtRp297
(dp298
g66
(dp299
g93
g94
ssg75
g288
sg68
(lp300
S':'
asbag61
(g82
g63
NtRp301
(dp302
g66
(dp303
sg75
g288
sg68
(lp304
g61
(g62
g63
NtRp305
(dp306
g66
(dp307
g74
I3
ssg75
g301
sg68
(lp308
S''
asbasbasbag61
(g77
g63
NtRp309
(dp310
g66
(dp311
sg75
g263
sg68
(lp312
g61
(g82
g63
NtRp313
(dp314
g66
(dp315
g86
g87
ssg75
g309
sg68
(lp316
S'expires'
p317
asbag61
(g82
g63
NtRp318
(dp319
g66
(dp320
g93
g94
ssg75
g309
sg68
(lp321
S':'
asbag61
(g82
g63
NtRp322
(dp323
g66
(dp324
sg75
g309
sg68
(lp325
g61
(g62
g63
NtRp326
(dp327
g66
(dp328
g74
I3
ssg75
g322
sg68
(lp329
S''
asbasbasbag61
(g77
g63
NtRp330
(dp331
g66
(dp332
sg75
g263
sg68
(lp333
g61
(g82
g63
NtRp334
(dp335
g66
(dp336
g86
g87
ssg75
g330
sg68
(lp337
S'max-age'
p338
asbag61
(g82
g63
NtRp339
(dp340
g66
(dp341
g93
g94
ssg75
g330
sg68
(lp342
S':'
asbag61
(g82
g63
NtRp343
(dp344
g66
(dp345
sg75
g330
sg68
(lp346
g61
(g62
g63
NtRp347
(dp348
g66
(dp349
g74
I3
ssg75
g343
sg68
(lp350
S''
asbasbasbag61
(g77
g63
NtRp351
(dp352
g66
(dp353
sg75
g263
sg68
(lp354
g61
(g82
g63
NtRp355
(dp356
g66
(dp357
g86
g87
ssg75
g351
sg68
(lp358
S'path'
p359
asbag61
(g82
g63
NtRp360
(dp361
g66
(dp362
g93
g94
ssg75
g351
sg68
(lp363
S':'
asbag61
(g82
g63
NtRp364
(dp365
g66
(dp366
sg75
g351
sg68
(lp367
g61
(g62
g63
NtRp368
(dp369
g66
(dp370
g74
I3
ssg75
g364
sg68
(lp371
S''
asbasbasbag61
(g77
g63
NtRp372
(dp373
g66
(dp374
sg75
g263
sg68
(lp375
g61
(g82
g63
NtRp376
(dp377
g66
(dp378
g86
g87
ssg75
g372
sg68
(lp379
S'secure'
p380
asbag61
(g82
g63
NtRp381
(dp382
g66
(dp383
g93
g94
ssg75
g372
sg68
(lp384
S':'
asbag61
(g82
g63
NtRp385
(dp386
g66
(dp387
sg75
g372
sg68
(lp388
g61
(g62
g63
NtRp389
(dp390
g66
(dp391
g74
I3
ssg75
g385
sg68
(lp392
S''
asbasbasbag61
(g77
g63
NtRp393
(dp394
g66
(dp395
sg75
g263
sg68
(lp396
g61
(g82
g63
NtRp397
(dp398
g66
(dp399
g86
g87
ssg75
g393
sg68
(lp400
S'version'
p401
asbag61
(g82
g63
NtRp402
(dp403
g66
(dp404
g93
g94
ssg75
g393
sg68
(lp405
S':'
asbag61
(g82
g63
NtRp406
(dp407
g66
(dp408
sg75
g393
sg68
(lp409
g61
(g62
g63
NtRp410
(dp411
g66
(dp412
g74
I3
ssg75
g406
sg68
(lp413
S''
asbasbasbasbasbasbasbag61
(g77
g63
NtRp414
(dp415
g66
(dp416
sg75
g238
sg68
(lp417
g61
(g82
g63
NtRp418
(dp419
g66
(dp420
g86
g87
ssg75
g414
sg68
(lp421
S'session_id_onlinenotes_p1_'
p422
asbag61
(g82
g63
NtRp423
(dp424
g66
(dp425
g93
g94
ssg75
g414
sg68
(lp426
S':'
asbag61
(g82
g63
NtRp427
(dp428
g66
(dp429
sg75
g414
sg68
(lp430
g61
(g62
g63
NtRp431
(dp432
g66
(dp433
g74
I4
ssg75
g427
sg68
(lp434
g61
(g70
g63
NtRp435
(dp436
g66
(dp437
g74
I3
ssg75
Nsg68
(lp438
g61
(g77
g63
NtRp439
(dp440
g66
(dp441
sg75
g435
sg68
(lp442
g61
(g82
g63
NtRp443
(dp444
g66
(dp445
g86
g87
ssg75
g439
sg68
(lp446
g275
asbag61
(g82
g63
NtRp447
(dp448
g66
(dp449
g93
g94
ssg75
g439
sg68
(lp450
S':'
asbag61
(g82
g63
NtRp451
(dp452
g66
(dp453
sg75
g439
sg68
(lp454
g61
(g62
g63
NtRp455
(dp456
g66
(dp457
g74
I3
ssg75
g451
sg68
(lp458
S''
asbasbasbag61
(g77
g63
NtRp459
(dp460
g66
(dp461
sg75
g435
sg68
(lp462
g61
(g82
g63
NtRp463
(dp464
g66
(dp465
g86
g87
ssg75
g459
sg68
(lp466
g296
asbag61
(g82
g63
NtRp467
(dp468
g66
(dp469
g93
g94
ssg75
g459
sg68
(lp470
S':'
asbag61
(g82
g63
NtRp471
(dp472
g66
(dp473
sg75
g459
sg68
(lp474
g61
(g62
g63
NtRp475
(dp476
g66
(dp477
g74
I3
ssg75
g471
sg68
(lp478
S''
asbasbasbag61
(g77
g63
NtRp479
(dp480
g66
(dp481
sg75
g435
sg68
(lp482
g61
(g82
g63
NtRp483
(dp484
g66
(dp485
g86
g87
ssg75
g479
sg68
(lp486
g317
asbag61
(g82
g63
NtRp487
(dp488
g66
(dp489
g93
g94
ssg75
g479
sg68
(lp490
S':'
asbag61
(g82
g63
NtRp491
(dp492
g66
(dp493
sg75
g479
sg68
(lp494
g61
(g62
g63
NtRp495
(dp496
g66
(dp497
g74
I3
ssg75
g491
sg68
(lp498
S''
asbasbasbag61
(g77
g63
NtRp499
(dp500
g66
(dp501
sg75
g435
sg68
(lp502
g61
(g82
g63
NtRp503
(dp504
g66
(dp505
g86
g87
ssg75
g499
sg68
(lp506
g338
asbag61
(g82
g63
NtRp507
(dp508
g66
(dp509
g93
g94
ssg75
g499
sg68
(lp510
S':'
asbag61
(g82
g63
NtRp511
(dp512
g66
(dp513
sg75
g499
sg68
(lp514
g61
(g62
g63
NtRp515
(dp516
g66
(dp517
g74
I3
ssg75
g511
sg68
(lp518
S''
asbasbasbag61
(g77
g63
NtRp519
(dp520
g66
(dp521
sg75
g435
sg68
(lp522
g61
(g82
g63
NtRp523
(dp524
g66
(dp525
g86
g87
ssg75
g519
sg68
(lp526
g359
asbag61
(g82
g63
NtRp527
(dp528
g66
(dp529
g93
g94
ssg75
g519
sg68
(lp530
S':'
asbag61
(g82
g63
NtRp531
(dp532
g66
(dp533
sg75
g519
sg68
(lp534
g61
(g62
g63
NtRp535
(dp536
g66
(dp537
g74
I3
ssg75
g531
sg68
(lp538
S''
asbasbasbag61
(g77
g63
NtRp539
(dp540
g66
(dp541
sg75
g435
sg68
(lp542
g61
(g82
g63
NtRp543
(dp544
g66
(dp545
g86
g87
ssg75
g539
sg68
(lp546
g380
asbag61
(g82
g63
NtRp547
(dp548
g66
(dp549
g93
g94
ssg75
g539
sg68
(lp550
S':'
asbag61
(g82
g63
NtRp551
(dp552
g66
(dp553
sg75
g539
sg68
(lp554
g61
(g62
g63
NtRp555
(dp556
g66
(dp557
g74
I3
ssg75
g551
sg68
(lp558
S''
asbasbasbag61
(g77
g63
NtRp559
(dp560
g66
(dp561
sg75
g435
sg68
(lp562
g61
(g82
g63
NtRp563
(dp564
g66
(dp565
g86
g87
ssg75
g559
sg68
(lp566
g401
asbag61
(g82
g63
NtRp567
(dp568
g66
(dp569
g93
g94
ssg75
g559
sg68
(lp570
S':'
asbag61
(g82
g63
NtRp571
(dp572
g66
(dp573
sg75
g559
sg68
(lp574
g61
(g62
g63
NtRp575
(dp576
g66
(dp577
g74
I3
ssg75
g571
sg68
(lp578
S''
asbasbasbasbasbasbasbag61
(g77
g63
NtRp579
(dp580
g66
(dp581
sg75
g238
sg68
(lp582
g61
(g82
g63
NtRp583
(dp584
g66
(dp585
g86
g87
ssg75
g579
sg68
(lp586
S'session_id_slugbarter'
p587
asbag61
(g82
g63
NtRp588
(dp589
g66
(dp590
g93
g94
ssg75
g579
sg68
(lp591
S':'
asbag61
(g82
g63
NtRp592
(dp593
g66
(dp594
sg75
g579
sg68
(lp595
g61
(g62
g63
NtRp596
(dp597
g66
(dp598
g74
I4
ssg75
g592
sg68
(lp599
g61
(g70
g63
NtRp600
(dp601
g66
(dp602
g74
I3
ssg75
Nsg68
(lp603
g61
(g77
g63
NtRp604
(dp605
g66
(dp606
sg75
g600
sg68
(lp607
g61
(g82
g63
NtRp608
(dp609
g66
(dp610
g86
g87
ssg75
g604
sg68
(lp611
g275
asbag61
(g82
g63
NtRp612
(dp613
g66
(dp614
g93
g94
ssg75
g604
sg68
(lp615
S':'
asbag61
(g82
g63
NtRp616
(dp617
g66
(dp618
sg75
g604
sg68
(lp619
g61
(g62
g63
NtRp620
(dp621
g66
(dp622
g74
I3
ssg75
g616
sg68
(lp623
S''
asbasbasbag61
(g77
g63
NtRp624
(dp625
g66
(dp626
sg75
g600
sg68
(lp627
g61
(g82
g63
NtRp628
(dp629
g66
(dp630
g86
g87
ssg75
g624
sg68
(lp631
g296
asbag61
(g82
g63
NtRp632
(dp633
g66
(dp634
g93
g94
ssg75
g624
sg68
(lp635
S':'
asbag61
(g82
g63
NtRp636
(dp637
g66
(dp638
sg75
g624
sg68
(lp639
g61
(g62
g63
NtRp640
(dp641
g66
(dp642
g74
I3
ssg75
g636
sg68
(lp643
S''
asbasbasbag61
(g77
g63
NtRp644
(dp645
g66
(dp646
sg75
g600
sg68
(lp647
g61
(g82
g63
NtRp648
(dp649
g66
(dp650
g86
g87
ssg75
g644
sg68
(lp651
g317
asbag61
(g82
g63
NtRp652
(dp653
g66
(dp654
g93
g94
ssg75
g644
sg68
(lp655
S':'
asbag61
(g82
g63
NtRp656
(dp657
g66
(dp658
sg75
g644
sg68
(lp659
g61
(g62
g63
NtRp660
(dp661
g66
(dp662
g74
I3
ssg75
g656
sg68
(lp663
S''
asbasbasbag61
(g77
g63
NtRp664
(dp665
g66
(dp666
sg75
g600
sg68
(lp667
g61
(g82
g63
NtRp668
(dp669
g66
(dp670
g86
g87
ssg75
g664
sg68
(lp671
g338
asbag61
(g82
g63
NtRp672
(dp673
g66
(dp674
g93
g94
ssg75
g664
sg68
(lp675
S':'
asbag61
(g82
g63
NtRp676
(dp677
g66
(dp678
sg75
g664
sg68
(lp679
g61
(g62
g63
NtRp680
(dp681
g66
(dp682
g74
I3
ssg75
g676
sg68
(lp683
S''
asbasbasbag61
(g77
g63
NtRp684
(dp685
g66
(dp686
sg75
g600
sg68
(lp687
g61
(g82
g63
NtRp688
(dp689
g66
(dp690
g86
g87
ssg75
g684
sg68
(lp691
g359
asbag61
(g82
g63
NtRp692
(dp693
g66
(dp694
g93
g94
ssg75
g684
sg68
(lp695
S':'
asbag61
(g82
g63
NtRp696
(dp697
g66
(dp698
sg75
g684
sg68
(lp699
g61
(g62
g63
NtRp700
(dp701
g66
(dp702
g74
I3
ssg75
g696
sg68
(lp703
S''
asbasbasbag61
(g77
g63
NtRp704
(dp705
g66
(dp706
sg75
g600
sg68
(lp707
g61
(g82
g63
NtRp708
(dp709
g66
(dp710
g86
g87
ssg75
g704
sg68
(lp711
g380
asbag61
(g82
g63
NtRp712
(dp713
g66
(dp714
g93
g94
ssg75
g704
sg68
(lp715
S':'
asbag61
(g82
g63
NtRp716
(dp717
g66
(dp718
sg75
g704
sg68
(lp719
g61
(g62
g63
NtRp720
(dp721
g66
(dp722
g74
I3
ssg75
g716
sg68
(lp723
S''
asbasbasbag61
(g77
g63
NtRp724
(dp725
g66
(dp726
sg75
g600
sg68
(lp727
g61
(g82
g63
NtRp728
(dp729
g66
(dp730
g86
g87
ssg75
g724
sg68
(lp731
g401
asbag61
(g82
g63
NtRp732
(dp733
g66
(dp734
g93
g94
ssg75
g724
sg68
(lp735
S':'
asbag61
(g82
g63
NtRp736
(dp737
g66
(dp738
sg75
g724
sg68
(lp739
g61
(g62
g63
NtRp740
(dp741
g66
(dp742
g74
I3
ssg75
g736
sg68
(lp743
S''
asbasbasbasbasbasbasbag61
(g77
g63
NtRp744
(dp745
g66
(dp746
sg75
g238
sg68
(lp747
g61
(g82
g63
NtRp748
(dp749
g66
(dp750
g86
g87
ssg75
g744
sg68
(lp751
S'session_id_welcome'
p752
asbag61
(g82
g63
NtRp753
(dp754
g66
(dp755
g93
g94
ssg75
g744
sg68
(lp756
S':'
asbag61
(g82
g63
NtRp757
(dp758
g66
(dp759
sg75
g744
sg68
(lp760
g61
(g62
g63
NtRp761
(dp762
g66
(dp763
g74
I4
ssg75
g757
sg68
(lp764
g61
(g70
g63
NtRp765
(dp766
g66
(dp767
g74
I3
ssg75
Nsg68
(lp768
g61
(g77
g63
NtRp769
(dp770
g66
(dp771
sg75
g765
sg68
(lp772
g61
(g82
g63
NtRp773
(dp774
g66
(dp775
g86
g87
ssg75
g769
sg68
(lp776
g275
asbag61
(g82
g63
NtRp777
(dp778
g66
(dp779
g93
g94
ssg75
g769
sg68
(lp780
S':'
asbag61
(g82
g63
NtRp781
(dp782
g66
(dp783
sg75
g769
sg68
(lp784
g61
(g62
g63
NtRp785
(dp786
g66
(dp787
g74
I3
ssg75
g781
sg68
(lp788
S''
asbasbasbag61
(g77
g63
NtRp789
(dp790
g66
(dp791
sg75
g765
sg68
(lp792
g61
(g82
g63
NtRp793
(dp794
g66
(dp795
g86
g87
ssg75
g789
sg68
(lp796
g296
asbag61
(g82
g63
NtRp797
(dp798
g66
(dp799
g93
g94
ssg75
g789
sg68
(lp800
S':'
asbag61
(g82
g63
NtRp801
(dp802
g66
(dp803
sg75
g789
sg68
(lp804
g61
(g62
g63
NtRp805
(dp806
g66
(dp807
g74
I3
ssg75
g801
sg68
(lp808
S''
asbasbasbag61
(g77
g63
NtRp809
(dp810
g66
(dp811
sg75
g765
sg68
(lp812
g61
(g82
g63
NtRp813
(dp814
g66
(dp815
g86
g87
ssg75
g809
sg68
(lp816
g317
asbag61
(g82
g63
NtRp817
(dp818
g66
(dp819
g93
g94
ssg75
g809
sg68
(lp820
S':'
asbag61
(g82
g63
NtRp821
(dp822
g66
(dp823
sg75
g809
sg68
(lp824
g61
(g62
g63
NtRp825
(dp826
g66
(dp827
g74
I3
ssg75
g821
sg68
(lp828
S''
asbasbasbag61
(g77
g63
NtRp829
(dp830
g66
(dp831
sg75
g765
sg68
(lp832
g61
(g82
g63
NtRp833
(dp834
g66
(dp835
g86
g87
ssg75
g829
sg68
(lp836
g338
asbag61
(g82
g63
NtRp837
(dp838
g66
(dp839
g93
g94
ssg75
g829
sg68
(lp840
S':'
asbag61
(g82
g63
NtRp841
(dp842
g66
(dp843
sg75
g829
sg68
(lp844
g61
(g62
g63
NtRp845
(dp846
g66
(dp847
g74
I3
ssg75
g841
sg68
(lp848
S''
asbasbasbag61
(g77
g63
NtRp849
(dp850
g66
(dp851
sg75
g765
sg68
(lp852
g61
(g82
g63
NtRp853
(dp854
g66
(dp855
g86
g87
ssg75
g849
sg68
(lp856
g359
asbag61
(g82
g63
NtRp857
(dp858
g66
(dp859
g93
g94
ssg75
g849
sg68
(lp860
S':'
asbag61
(g82
g63
NtRp861
(dp862
g66
(dp863
sg75
g849
sg68
(lp864
g61
(g62
g63
NtRp865
(dp866
g66
(dp867
g74
I3
ssg75
g861
sg68
(lp868
S''
asbasbasbag61
(g77
g63
NtRp869
(dp870
g66
(dp871
sg75
g765
sg68
(lp872
g61
(g82
g63
NtRp873
(dp874
g66
(dp875
g86
g87
ssg75
g869
sg68
(lp876
g380
asbag61
(g82
g63
NtRp877
(dp878
g66
(dp879
g93
g94
ssg75
g869
sg68
(lp880
S':'
asbag61
(g82
g63
NtRp881
(dp882
g66
(dp883
sg75
g869
sg68
(lp884
g61
(g62
g63
NtRp885
(dp886
g66
(dp887
g74
I3
ssg75
g881
sg68
(lp888
S''
asbasbasbag61
(g77
g63
NtRp889
(dp890
g66
(dp891
sg75
g765
sg68
(lp892
g61
(g82
g63
NtRp893
(dp894
g66
(dp895
g86
g87
ssg75
g889
sg68
(lp896
g401
asbag61
(g82
g63
NtRp897
(dp898
g66
(dp899
g93
g94
ssg75
g889
sg68
(lp900
S':'
asbag61
(g82
g63
NtRp901
(dp902
g66
(dp903
sg75
g889
sg68
(lp904
g61
(g62
g63
NtRp905
(dp906
g66
(dp907
g74
I3
ssg75
g901
sg68
(lp908
S''
asbasbasbasbasbasbasbasbasbasbasbag61
(g77
g63
NtRp909
(dp910
g66
(dp911
sg75
g71
sg68
(lp912
g61
(g82
g63
NtRp913
(dp914
g66
(dp915
g86
g87
ssg75
g909
sg68
(lp916
S'env'
p917
asbag61
(g82
g63
NtRp918
(dp919
g66
(dp920
g93
g94
ssg75
g909
sg68
(lp921
S':'
asbag61
(g82
g63
NtRp922
(dp923
g66
(dp924
sg75
g909
sg68
(lp925
g61
(g62
g63
NtRp926
(dp927
g66
(dp928
g74
I5
ssg75
g922
sg68
(lp929
g61
(g70
g63
NtRp930
(dp931
g66
(dp932
g74
I4
ssg75
Nsg68
(lp933
g61
(g77
g63
NtRp934
(dp935
g66
(dp936
sg75
g930
sg68
(lp937
g61
(g82
g63
NtRp938
(dp939
g66
(dp940
g86
g87
ssg75
g934
sg68
(lp941
S'app_folders'
p942
asbag61
(g82
g63
NtRp943
(dp944
g66
(dp945
g93
g94
ssg75
g934
sg68
(lp946
S':'
asbag61
(g82
g63
NtRp947
(dp948
g66
(dp949
sg75
g934
sg68
(lp950
g61
(g62
g63
NtRp951
(dp952
g66
(dp953
g74
I4
ssg75
g947
sg68
(lp954
S"set(['C:\\\\Users\\\\omkara\\\\Desktop\\\\web2py\\\\applications\\\\admin\\\\', 'C:\\\\Users\\\\omkara\\\\Desktop\\\\web2py\\\\applications\\\\welcome\\\\', 'C:\\\\Users\\\\omkara\\\\Desktop\\\\web2py\\\\applications\\\\SlugBarter\\\\'])"
p955
asbasbasbag61
(g77
g63
NtRp956
(dp957
g66
(dp958
sg75
g930
sg68
(lp959
g61
(g82
g63
NtRp960
(dp961
g66
(dp962
g86
g87
ssg75
g956
sg68
(lp963
S'applications_parent'
p964
asbag61
(g82
g63
NtRp965
(dp966
g66
(dp967
g93
g94
ssg75
g956
sg68
(lp968
S':'
asbag61
(g82
g63
NtRp969
(dp970
g66
(dp971
sg75
g956
sg68
(lp972
g61
(g62
g63
NtRp973
(dp974
g66
(dp975
g74
I4
ssg75
g969
sg68
(lp976
S'C:\\Users\\omkara\\Desktop\\web2py'
p977
asbasbasbag61
(g77
g63
NtRp978
(dp979
g66
(dp980
sg75
g930
sg68
(lp981
g61
(g82
g63
NtRp982
(dp983
g66
(dp984
g86
g87
ssg75
g978
sg68
(lp985
S'cmd_args'
p986
asbag61
(g82
g63
NtRp987
(dp988
g66
(dp989
g93
g94
ssg75
g978
sg68
(lp990
S':'
asbag61
(g82
g63
NtRp991
(dp992
g66
(dp993
sg75
g978
sg68
(lp994
g61
(g62
g63
NtRp995
(dp996
g66
(dp997
g74
I4
ssg75
g991
sg68
(lp998
g61
(g70
g63
NtRp999
(dp1000
g66
(dp1001
g74
I3
ssg75
Nsg68
(lp1002
sbasbasbasbag61
(g77
g63
NtRp1003
(dp1004
g66
(dp1005
sg75
g930
sg68
(lp1006
g61
(g82
g63
NtRp1007
(dp1008
g66
(dp1009
g86
g87
ssg75
g1003
sg68
(lp1010
S'cmd_options'
p1011
asbag61
(g82
g63
NtRp1012
(dp1013
g66
(dp1014
g93
g94
ssg75
g1003
sg68
(lp1015
S':'
asbag61
(g82
g63
NtRp1016
(dp1017
g66
(dp1018
sg75
g1003
sg68
(lp1019
g61
(g62
g63
NtRp1020
(dp1021
g66
(dp1022
g74
I4
ssg75
g1016
sg68
(lp1023
S"<Values at 0x27b1f80: {'verbose': False, 'ip': '127.0.0.1', 'shutdown_timeout': 5, 'taskbar': False, 'nocron': False, 'pid_filename': 'httpserver.pid', 'maxthreads': None, 'softcron': False, 'server_name': 'omkara-PC', 'bpython': False, 'nogui': False, 'port': 8000, 'extcron': False, 'debuglevel': 30, 'test': None, 'folder': 'C:\\\\Users\\\\omkara\\\\Desktop\\\\web2py', 'config': '', 'import_models': False, 'winservice': '', 'shell': None, 'run': '', 'log_filename': 'httpserver.log', 'args': [''], 'socket_timeout': 5, 'ssl_ca_certificate': None, 'scheduler': None, 'profiler_filename': None, 'ssl_private_key': '', 'password': '<ask>', 'request_queue_size': 5, 'ssl_certificate': '', 'cronjob': False, 'numthreads': None, 'quiet': False, 'interfaces': None, 'minthreads': None, 'timeout': 10, 'plain': False, 'nobanner': False}>"
p1024
asbasbasbag61
(g77
g63
NtRp1025
(dp1026
g66
(dp1027
sg75
g930
sg68
(lp1028
g61
(g82
g63
NtRp1029
(dp1030
g66
(dp1031
g86
g87
ssg75
g1025
sg68
(lp1032
S'db_sessions'
p1033
asbag61
(g82
g63
NtRp1034
(dp1035
g66
(dp1036
g93
g94
ssg75
g1025
sg68
(lp1037
S':'
asbag61
(g82
g63
NtRp1038
(dp1039
g66
(dp1040
sg75
g1025
sg68
(lp1041
g61
(g62
g63
NtRp1042
(dp1043
g66
(dp1044
g74
I4
ssg75
g1038
sg68
(lp1045
S'set([])'
p1046
asbasbasbag61
(g77
g63
NtRp1047
(dp1048
g66
(dp1049
sg75
g930
sg68
(lp1050
g61
(g82
g63
NtRp1051
(dp1052
g66
(dp1053
g86
g87
ssg75
g1047
sg68
(lp1054
S'debugging'
p1055
asbag61
(g82
g63
NtRp1056
(dp1057
g66
(dp1058
g93
g94
ssg75
g1047
sg68
(lp1059
S':'
asbag61
(g82
g63
NtRp1060
(dp1061
g66
(dp1062
sg75
g1047
sg68
(lp1063
g61
(g62
g63
NtRp1064
(dp1065
g66
(dp1066
g74
I4
ssg75
g1060
sg68
(lp1067
g104
asbasbasbag61
(g77
g63
NtRp1068
(dp1069
g66
(dp1070
sg75
g930
sg68
(lp1071
g61
(g82
g63
NtRp1072
(dp1073
g66
(dp1074
g86
g87
ssg75
g1068
sg68
(lp1075
S'gluon_parent'
p1076
asbag61
(g82
g63
NtRp1077
(dp1078
g66
(dp1079
g93
g94
ssg75
g1068
sg68
(lp1080
S':'
asbag61
(g82
g63
NtRp1081
(dp1082
g66
(dp1083
sg75
g1068
sg68
(lp1084
g61
(g62
g63
NtRp1085
(dp1086
g66
(dp1087
g74
I4
ssg75
g1081
sg68
(lp1088
S'C:\\Users\\omkara\\Desktop\\web2py'
p1089
asbasbasbag61
(g77
g63
NtRp1090
(dp1091
g66
(dp1092
sg75
g930
sg68
(lp1093
g61
(g82
g63
NtRp1094
(dp1095
g66
(dp1096
g86
g87
ssg75
g1090
sg68
(lp1097
S'http_accept'
p1098
asbag61
(g82
g63
NtRp1099
(dp1100
g66
(dp1101
g93
g94
ssg75
g1090
sg68
(lp1102
S':'
asbag61
(g82
g63
NtRp1103
(dp1104
g66
(dp1105
sg75
g1090
sg68
(lp1106
g61
(g62
g63
NtRp1107
(dp1108
g66
(dp1109
g74
I4
ssg75
g1103
sg68
(lp1110
S'text/html,application/xhtml+xml,application/xml;q=0.9,*/*;q=0.8'
p1111
asbasbasbag61
(g77
g63
NtRp1112
(dp1113
g66
(dp1114
sg75
g930
sg68
(lp1115
g61
(g82
g63
NtRp1116
(dp1117
g66
(dp1118
g86
g87
ssg75
g1112
sg68
(lp1119
S'http_accept_charset'
p1120
asbag61
(g82
g63
NtRp1121
(dp1122
g66
(dp1123
g93
g94
ssg75
g1112
sg68
(lp1124
S':'
asbag61
(g82
g63
NtRp1125
(dp1126
g66
(dp1127
sg75
g1112
sg68
(lp1128
g61
(g62
g63
NtRp1129
(dp1130
g66
(dp1131
g74
I4
ssg75
g1125
sg68
(lp1132
S'ISO-8859-1,utf-8;q=0.7,*;q=0.3'
p1133
asbasbasbag61
(g77
g63
NtRp1134
(dp1135
g66
(dp1136
sg75
g930
sg68
(lp1137
g61
(g82
g63
NtRp1138
(dp1139
g66
(dp1140
g86
g87
ssg75
g1134
sg68
(lp1141
S'http_accept_encoding'
p1142
asbag61
(g82
g63
NtRp1143
(dp1144
g66
(dp1145
g93
g94
ssg75
g1134
sg68
(lp1146
S':'
asbag61
(g82
g63
NtRp1147
(dp1148
g66
(dp1149
sg75
g1134
sg68
(lp1150
g61
(g62
g63
NtRp1151
(dp1152
g66
(dp1153
g74
I4
ssg75
g1147
sg68
(lp1154
S'gzip,deflate,sdch'
p1155
asbasbasbag61
(g77
g63
NtRp1156
(dp1157
g66
(dp1158
sg75
g930
sg68
(lp1159
g61
(g82
g63
NtRp1160
(dp1161
g66
(dp1162
g86
g87
ssg75
g1156
sg68
(lp1163
S'http_accept_language'
p1164
asbag61
(g82
g63
NtRp1165
(dp1166
g66
(dp1167
g93
g94
ssg75
g1156
sg68
(lp1168
S':'
asbag61
(g82
g63
NtRp1169
(dp1170
g66
(dp1171
sg75
g1156
sg68
(lp1172
g61
(g62
g63
NtRp1173
(dp1174
g66
(dp1175
g74
I4
ssg75
g1169
sg68
(lp1176
S'en-US,en;q=0.8'
p1177
asbasbasbag61
(g77
g63
NtRp1178
(dp1179
g66
(dp1180
sg75
g930
sg68
(lp1181
g61
(g82
g63
NtRp1182
(dp1183
g66
(dp1184
g86
g87
ssg75
g1178
sg68
(lp1185
S'http_cache_control'
p1186
asbag61
(g82
g63
NtRp1187
(dp1188
g66
(dp1189
g93
g94
ssg75
g1178
sg68
(lp1190
S':'
asbag61
(g82
g63
NtRp1191
(dp1192
g66
(dp1193
sg75
g1178
sg68
(lp1194
g61
(g62
g63
NtRp1195
(dp1196
g66
(dp1197
g74
I4
ssg75
g1191
sg68
(lp1198
S'max-age=0'
p1199
asbasbasbag61
(g77
g63
NtRp1200
(dp1201
g66
(dp1202
sg75
g930
sg68
(lp1203
g61
(g82
g63
NtRp1204
(dp1205
g66
(dp1206
g86
g87
ssg75
g1200
sg68
(lp1207
S'http_connection'
p1208
asbag61
(g82
g63
NtRp1209
(dp1210
g66
(dp1211
g93
g94
ssg75
g1200
sg68
(lp1212
S':'
asbag61
(g82
g63
NtRp1213
(dp1214
g66
(dp1215
sg75
g1200
sg68
(lp1216
g61
(g62
g63
NtRp1217
(dp1218
g66
(dp1219
g74
I4
ssg75
g1213
sg68
(lp1220
S'keep-alive'
p1221
asbasbasbag61
(g77
g63
NtRp1222
(dp1223
g66
(dp1224
sg75
g930
sg68
(lp1225
g61
(g82
g63
NtRp1226
(dp1227
g66
(dp1228
g86
g87
ssg75
g1222
sg68
(lp1229
S'http_cookie'
p1230
asbag61
(g82
g63
NtRp1231
(dp1232
g66
(dp1233
g93
g94
ssg75
g1222
sg68
(lp1234
S':'
asbag61
(g82
g63
NtRp1235
(dp1236
g66
(dp1237
sg75
g1222
sg68
(lp1238
g61
(g62
g63
NtRp1239
(dp1240
g66
(dp1241
g74
I4
ssg75
g1235
sg68
(lp1242
S'session_id_onlinenotes_p1_=127.0.0.1-2b1a349f-aa95-4718-93d5-e7df1c85d951; session_id_welcome=127.0.0.1-a1b3016b-66b8-408b-ae8e-37231f35f16e; session_id_slugbarter=127.0.0.1-e6ebae72-1bbc-48a5-9458-95dbb65a4e54; session_id_admin=127.0.0.1-3b1553ef-7186-4588-80e8-d2bbbaa88c9f'
p1243
asbasbasbag61
(g77
g63
NtRp1244
(dp1245
g66
(dp1246
sg75
g930
sg68
(lp1247
g61
(g82
g63
NtRp1248
(dp1249
g66
(dp1250
g86
g87
ssg75
g1244
sg68
(lp1251
S'http_host'
p1252
asbag61
(g82
g63
NtRp1253
(dp1254
g66
(dp1255
g93
g94
ssg75
g1244
sg68
(lp1256
S':'
asbag61
(g82
g63
NtRp1257
(dp1258
g66
(dp1259
sg75
g1244
sg68
(lp1260
g61
(g62
g63
NtRp1261
(dp1262
g66
(dp1263
g74
I4
ssg75
g1257
sg68
(lp1264
S'127.0.0.1:8000'
p1265
asbasbasbag61
(g77
g63
NtRp1266
(dp1267
g66
(dp1268
sg75
g930
sg68
(lp1269
g61
(g82
g63
NtRp1270
(dp1271
g66
(dp1272
g86
g87
ssg75
g1266
sg68
(lp1273
S'http_referer'
p1274
asbag61
(g82
g63
NtRp1275
(dp1276
g66
(dp1277
g93
g94
ssg75
g1266
sg68
(lp1278
S':'
asbag61
(g82
g63
NtRp1279
(dp1280
g66
(dp1281
sg75
g1266
sg68
(lp1282
g61
(g62
g63
NtRp1283
(dp1284
g66
(dp1285
g74
I4
ssg75
g1279
sg68
(lp1286
S'http://127.0.0.1:8000/SlugBarter/default/index'
p1287
asbasbasbag61
(g77
g63
NtRp1288
(dp1289
g66
(dp1290
sg75
g930
sg68
(lp1291
g61
(g82
g63
NtRp1292
(dp1293
g66
(dp1294
g86
g87
ssg75
g1288
sg68
(lp1295
S'http_user_agent'
p1296
asbag61
(g82
g63
NtRp1297
(dp1298
g66
(dp1299
g93
g94
ssg75
g1288
sg68
(lp1300
S':'
asbag61
(g82
g63
NtRp1301
(dp1302
g66
(dp1303
sg75
g1288
sg68
(lp1304
g61
(g62
g63
NtRp1305
(dp1306
g66
(dp1307
g74
I4
ssg75
g1301
sg68
(lp1308
S'Mozilla/5.0 (Windows NT 6.1) AppleWebKit/537.11 (KHTML, like Gecko) Chrome/23.0.1271.64 Safari/537.11'
p1309
asbasbasbag61
(g77
g63
NtRp1310
(dp1311
g66
(dp1312
sg75
g930
sg68
(lp1313
g61
(g82
g63
NtRp1314
(dp1315
g66
(dp1316
g86
g87
ssg75
g1310
sg68
(lp1317
S'is_jython'
p1318
asbag61
(g82
g63
NtRp1319
(dp1320
g66
(dp1321
g93
g94
ssg75
g1310
sg68
(lp1322
S':'
asbag61
(g82
g63
NtRp1323
(dp1324
g66
(dp1325
sg75
g1310
sg68
(lp1326
g61
(g62
g63
NtRp1327
(dp1328
g66
(dp1329
g74
I4
ssg75
g1323
sg68
(lp1330
g104
asbasbasbag61
(g77
g63
NtRp1331
(dp1332
g66
(dp1333
sg75
g930
sg68
(lp1334
g61
(g82
g63
NtRp1335
(dp1336
g66
(dp1337
g86
g87
ssg75
g1331
sg68
(lp1338
S'is_pypy'
p1339
asbag61
(g82
g63
NtRp1340
(dp1341
g66
(dp1342
g93
g94
ssg75
g1331
sg68
(lp1343
S':'
asbag61
(g82
g63
NtRp1344
(dp1345
g66
(dp1346
sg75
g1331
sg68
(lp1347
g61
(g62
g63
NtRp1348
(dp1349
g66
(dp1350
g74
I4
ssg75
g1344
sg68
(lp1351
g104
asbasbasbag61
(g77
g63
NtRp1352
(dp1353
g66
(dp1354
sg75
g930
sg68
(lp1355
g61
(g82
g63
NtRp1356
(dp1357
g66
(dp1358
g86
g87
ssg75
g1352
sg68
(lp1359
S'path_info'
p1360
asbag61
(g82
g63
NtRp1361
(dp1362
g66
(dp1363
g93
g94
ssg75
g1352
sg68
(lp1364
S':'
asbag61
(g82
g63
NtRp1365
(dp1366
g66
(dp1367
sg75
g1352
sg68
(lp1368
g61
(g62
g63
NtRp1369
(dp1370
g66
(dp1371
g74
I4
ssg75
g1365
sg68
(lp1372
S'/SlugBarter/default/register'
p1373
asbasbasbag61
(g77
g63
NtRp1374
(dp1375
g66
(dp1376
sg75
g930
sg68
(lp1377
g61
(g82
g63
NtRp1378
(dp1379
g66
(dp1380
g86
g87
ssg75
g1374
sg68
(lp1381
S'query_string'
p1382
asbag61
(g82
g63
NtRp1383
(dp1384
g66
(dp1385
g93
g94
ssg75
g1374
sg68
(lp1386
S':'
asbag61
(g82
g63
NtRp1387
(dp1388
g66
(dp1389
sg75
g1374
sg68
(lp1390
g61
(g62
g63
NtRp1391
(dp1392
g66
(dp1393
g74
I4
ssg75
g1387
sg68
(lp1394
S''
asbasbasbag61
(g77
g63
NtRp1395
(dp1396
g66
(dp1397
sg75
g930
sg68
(lp1398
g61
(g82
g63
NtRp1399
(dp1400
g66
(dp1401
g86
g87
ssg75
g1395
sg68
(lp1402
S'remote_addr'
p1403
asbag61
(g82
g63
NtRp1404
(dp1405
g66
(dp1406
g93
g94
ssg75
g1395
sg68
(lp1407
S':'
asbag61
(g82
g63
NtRp1408
(dp1409
g66
(dp1410
sg75
g1395
sg68
(lp1411
g61
(g62
g63
NtRp1412
(dp1413
g66
(dp1414
g74
I4
ssg75
g1408
sg68
(lp1415
g194
asbasbasbag61
(g77
g63
NtRp1416
(dp1417
g66
(dp1418
sg75
g930
sg68
(lp1419
g61
(g82
g63
NtRp1420
(dp1421
g66
(dp1422
g86
g87
ssg75
g1416
sg68
(lp1423
S'remote_port'
p1424
asbag61
(g82
g63
NtRp1425
(dp1426
g66
(dp1427
g93
g94
ssg75
g1416
sg68
(lp1428
S':'
asbag61
(g82
g63
NtRp1429
(dp1430
g66
(dp1431
sg75
g1416
sg68
(lp1432
g61
(g62
g63
NtRp1433
(dp1434
g66
(dp1435
g74
I4
ssg75
g1429
sg68
(lp1436
S'61948'
p1437
asbasbasbag61
(g77
g63
NtRp1438
(dp1439
g66
(dp1440
sg75
g930
sg68
(lp1441
g61
(g82
g63
NtRp1442
(dp1443
g66
(dp1444
g86
g87
ssg75
g1438
sg68
(lp1445
S'request_method'
p1446
asbag61
(g82
g63
NtRp1447
(dp1448
g66
(dp1449
g93
g94
ssg75
g1438
sg68
(lp1450
S':'
asbag61
(g82
g63
NtRp1451
(dp1452
g66
(dp1453
sg75
g1438
sg68
(lp1454
g61
(g62
g63
NtRp1455
(dp1456
g66
(dp1457
g74
I4
ssg75
g1451
sg68
(lp1458
S'GET'
p1459
asbasbasbag61
(g77
g63
NtRp1460
(dp1461
g66
(dp1462
sg75
g930
sg68
(lp1463
g61
(g82
g63
NtRp1464
(dp1465
g66
(dp1466
g86
g87
ssg75
g1460
sg68
(lp1467
S'script_name'
p1468
asbag61
(g82
g63
NtRp1469
(dp1470
g66
(dp1471
g93
g94
ssg75
g1460
sg68
(lp1472
S':'
asbag61
(g82
g63
NtRp1473
(dp1474
g66
(dp1475
sg75
g1460
sg68
(lp1476
g61
(g62
g63
NtRp1477
(dp1478
g66
(dp1479
g74
I4
ssg75
g1473
sg68
(lp1480
S''
asbasbasbag61
(g77
g63
NtRp1481
(dp1482
g66
(dp1483
sg75
g930
sg68
(lp1484
g61
(g82
g63
NtRp1485
(dp1486
g66
(dp1487
g86
g87
ssg75
g1481
sg68
(lp1488
S'server_name'
p1489
asbag61
(g82
g63
NtRp1490
(dp1491
g66
(dp1492
g93
g94
ssg75
g1481
sg68
(lp1493
S':'
asbag61
(g82
g63
NtRp1494
(dp1495
g66
(dp1496
sg75
g1481
sg68
(lp1497
g61
(g62
g63
NtRp1498
(dp1499
g66
(dp1500
g74
I4
ssg75
g1494
sg68
(lp1501
S'omkara-PC'
p1502
asbasbasbag61
(g77
g63
NtRp1503
(dp1504
g66
(dp1505
sg75
g930
sg68
(lp1506
g61
(g82
g63
NtRp1507
(dp1508
g66
(dp1509
g86
g87
ssg75
g1503
sg68
(lp1510
S'server_port'
p1511
asbag61
(g82
g63
NtRp1512
(dp1513
g66
(dp1514
g93
g94
ssg75
g1503
sg68
(lp1515
S':'
asbag61
(g82
g63
NtRp1516
(dp1517
g66
(dp1518
sg75
g1503
sg68
(lp1519
g61
(g62
g63
NtRp1520
(dp1521
g66
(dp1522
g74
I4
ssg75
g1516
sg68
(lp1523
S'8000'
p1524
asbasbasbag61
(g77
g63
NtRp1525
(dp1526
g66
(dp1527
sg75
g930
sg68
(lp1528
g61
(g82
g63
NtRp1529
(dp1530
g66
(dp1531
g86
g87
ssg75
g1525
sg68
(lp1532
S'server_protocol'
p1533
asbag61
(g82
g63
NtRp1534
(dp1535
g66
(dp1536
g93
g94
ssg75
g1525
sg68
(lp1537
S':'
asbag61
(g82
g63
NtRp1538
(dp1539
g66
(dp1540
sg75
g1525
sg68
(lp1541
g61
(g62
g63
NtRp1542
(dp1543
g66
(dp1544
g74
I4
ssg75
g1538
sg68
(lp1545
S'HTTP/1.1'
p1546
asbasbasbag61
(g77
g63
NtRp1547
(dp1548
g66
(dp1549
sg75
g930
sg68
(lp1550
g61
(g82
g63
NtRp1551
(dp1552
g66
(dp1553
g86
g87
ssg75
g1547
sg68
(lp1554
S'server_software'
p1555
asbag61
(g82
g63
NtRp1556
(dp1557
g66
(dp1558
g93
g94
ssg75
g1547
sg68
(lp1559
S':'
asbag61
(g82
g63
NtRp1560
(dp1561
g66
(dp1562
sg75
g1547
sg68
(lp1563
g61
(g62
g63
NtRp1564
(dp1565
g66
(dp1566
g74
I4
ssg75
g1560
sg68
(lp1567
S'Rocket 1.2.4'
p1568
asbasbasbag61
(g77
g63
NtRp1569
(dp1570
g66
(dp1571
sg75
g930
sg68
(lp1572
g61
(g82
g63
NtRp1573
(dp1574
g66
(dp1575
g86
g87
ssg75
g1569
sg68
(lp1576
S'web2py_crontype'
p1577
asbag61
(g82
g63
NtRp1578
(dp1579
g66
(dp1580
g93
g94
ssg75
g1569
sg68
(lp1581
S':'
asbag61
(g82
g63
NtRp1582
(dp1583
g66
(dp1584
sg75
g1569
sg68
(lp1585
g61
(g62
g63
NtRp1586
(dp1587
g66
(dp1588
g74
I4
ssg75
g1582
sg68
(lp1589
S'hard'
p1590
asbasbasbag61
(g77
g63
NtRp1591
(dp1592
g66
(dp1593
sg75
g930
sg68
(lp1594
g61
(g82
g63
NtRp1595
(dp1596
g66
(dp1597
g86
g87
ssg75
g1591
sg68
(lp1598
S'web2py_path'
p1599
asbag61
(g82
g63
NtRp1600
(dp1601
g66
(dp1602
g93
g94
ssg75
g1591
sg68
(lp1603
S':'
asbag61
(g82
g63
NtRp1604
(dp1605
g66
(dp1606
sg75
g1591
sg68
(lp1607
g61
(g62
g63
NtRp1608
(dp1609
g66
(dp1610
g74
I4
ssg75
g1604
sg68
(lp1611
g977
asbasbasbag61
(g77
g63
NtRp1612
(dp1613
g66
(dp1614
sg75
g930
sg68
(lp1615
g61
(g82
g63
NtRp1616
(dp1617
g66
(dp1618
g86
g87
ssg75
g1612
sg68
(lp1619
S'web2py_version'
p1620
asbag61
(g82
g63
NtRp1621
(dp1622
g66
(dp1623
g93
g94
ssg75
g1612
sg68
(lp1624
S':'
asbag61
(g82
g63
NtRp1625
(dp1626
g66
(dp1627
sg75
g1612
sg68
(lp1628
g61
(g62
g63
NtRp1629
(dp1630
g66
(dp1631
g74
I4
ssg75
g1625
sg68
(lp1632
g61
(g70
g63
NtRp1633
(dp1634
g66
(dp1635
g74
I3
ssg75
Nsg68
(lp1636
g61
(g77
g63
NtRp1637
(dp1638
g66
(dp1639
sg75
g1633
sg68
(lp1640
g61
(g82
g63
NtRp1641
(dp1642
g66
(dp1643
sg75
g1637
sg68
(lp1644
g61
(g62
g63
NtRp1645
(dp1646
g66
(dp1647
g74
I3
ssg75
g1641
sg68
(lp1648
S'1'
asbasbasbag61
(g77
g63
NtRp1649
(dp1650
g66
(dp1651
sg75
g1633
sg68
(lp1652
g61
(g82
g63
NtRp1653
(dp1654
g66
(dp1655
sg75
g1649
sg68
(lp1656
g61
(g62
g63
NtRp1657
(dp1658
g66
(dp1659
g74
I3
ssg75
g1653
sg68
(lp1660
S'99'
p1661
asbasbasbag61
(g77
g63
NtRp1662
(dp1663
g66
(dp1664
sg75
g1633
sg68
(lp1665
g61
(g82
g63
NtRp1666
(dp1667
g66
(dp1668
sg75
g1662
sg68
(lp1669
g61
(g62
g63
NtRp1670
(dp1671
g66
(dp1672
g74
I3
ssg75
g1666
sg68
(lp1673
S'7'
asbasbasbag61
(g77
g63
NtRp1674
(dp1675
g66
(dp1676
sg75
g1633
sg68
(lp1677
g61
(g82
g63
NtRp1678
(dp1679
g66
(dp1680
sg75
g1674
sg68
(lp1681
g61
(g62
g63
NtRp1682
(dp1683
g66
(dp1684
g74
I3
ssg75
g1678
sg68
(lp1685
S'datetime.datetime(2012, 3, 4, 22, 12, 8)'
p1686
asbasbasbag61
(g77
g63
NtRp1687
(dp1688
g66
(dp1689
sg75
g1633
sg68
(lp1690
g61
(g82
g63
NtRp1691
(dp1692
g66
(dp1693
sg75
g1687
sg68
(lp1694
g61
(g62
g63
NtRp1695
(dp1696
g66
(dp1697
g74
I3
ssg75
g1691
sg68
(lp1698
S'stable'
p1699
asbasbasbasbasbasbasbag61
(g77
g63
NtRp1700
(dp1701
g66
(dp1702
sg75
g930
sg68
(lp1703
g61
(g82
g63
NtRp1704
(dp1705
g66
(dp1706
g86
g87
ssg75
g1700
sg68
(lp1707
S'wsgi_errors'
p1708
asbag61
(g82
g63
NtRp1709
(dp1710
g66
(dp1711
g93
g94
ssg75
g1700
sg68
(lp1712
S':'
asbag61
(g82
g63
NtRp1713
(dp1714
g66
(dp1715
sg75
g1700
sg68
(lp1716
g61
(g62
g63
NtRp1717
(dp1718
g66
(dp1719
g74
I4
ssg75
g1713
sg68
(lp1720
S"<open file '<stderr>', mode 'w' at 0x016000B0>"
p1721
asbasbasbag61
(g77
g63
NtRp1722
(dp1723
g66
(dp1724
sg75
g930
sg68
(lp1725
g61
(g82
g63
NtRp1726
(dp1727
g66
(dp1728
g86
g87
ssg75
g1722
sg68
(lp1729
S'wsgi_file_wrapper'
p1730
asbag61
(g82
g63
NtRp1731
(dp1732
g66
(dp1733
g93
g94
ssg75
g1722
sg68
(lp1734
S':'
asbag61
(g82
g63
NtRp1735
(dp1736
g66
(dp1737
sg75
g1722
sg68
(lp1738
g61
(g62
g63
NtRp1739
(dp1740
g66
(dp1741
g74
I4
ssg75
g1735
sg68
(lp1742
S'<class wsgiref.util.FileWrapper at 0x025361B0>'
p1743
asbasbasbag61
(g77
g63
NtRp1744
(dp1745
g66
(dp1746
sg75
g930
sg68
(lp1747
g61
(g82
g63
NtRp1748
(dp1749
g66
(dp1750
g86
g87
ssg75
g1744
sg68
(lp1751
S'wsgi_input'
p1752
asbag61
(g82
g63
NtRp1753
(dp1754
g66
(dp1755
g93
g94
ssg75
g1744
sg68
(lp1756
S':'
asbag61
(g82
g63
NtRp1757
(dp1758
g66
(dp1759
sg75
g1744
sg68
(lp1760
g61
(g62
g63
NtRp1761
(dp1762
g66
(dp1763
g74
I4
ssg75
g1757
sg68
(lp1764
S'<socket._fileobject object at 0x05DA76F0>'
p1765
asbasbasbag61
(g77
g63
NtRp1766
(dp1767
g66
(dp1768
sg75
g930
sg68
(lp1769
g61
(g82
g63
NtRp1770
(dp1771
g66
(dp1772
g86
g87
ssg75
g1766
sg68
(lp1773
S'wsgi_multiprocess'
p1774
asbag61
(g82
g63
NtRp1775
(dp1776
g66
(dp1777
g93
g94
ssg75
g1766
sg68
(lp1778
S':'
asbag61
(g82
g63
NtRp1779
(dp1780
g66
(dp1781
sg75
g1766
sg68
(lp1782
g61
(g62
g63
NtRp1783
(dp1784
g66
(dp1785
g74
I4
ssg75
g1779
sg68
(lp1786
g104
asbasbasbag61
(g77
g63
NtRp1787
(dp1788
g66
(dp1789
sg75
g930
sg68
(lp1790
g61
(g82
g63
NtRp1791
(dp1792
g66
(dp1793
g86
g87
ssg75
g1787
sg68
(lp1794
S'wsgi_multithread'
p1795
asbag61
(g82
g63
NtRp1796
(dp1797
g66
(dp1798
g93
g94
ssg75
g1787
sg68
(lp1799
S':'
asbag61
(g82
g63
NtRp1800
(dp1801
g66
(dp1802
sg75
g1787
sg68
(lp1803
g61
(g62
g63
NtRp1804
(dp1805
g66
(dp1806
g74
I4
ssg75
g1800
sg68
(lp1807
S'True'
p1808
asbasbasbag61
(g77
g63
NtRp1809
(dp1810
g66
(dp1811
sg75
g930
sg68
(lp1812
g61
(g82
g63
NtRp1813
(dp1814
g66
(dp1815
g86
g87
ssg75
g1809
sg68
(lp1816
S'wsgi_run_once'
p1817
asbag61
(g82
g63
NtRp1818
(dp1819
g66
(dp1820
g93
g94
ssg75
g1809
sg68
(lp1821
S':'
asbag61
(g82
g63
NtRp1822
(dp1823
g66
(dp1824
sg75
g1809
sg68
(lp1825
g61
(g62
g63
NtRp1826
(dp1827
g66
(dp1828
g74
I4
ssg75
g1822
sg68
(lp1829
g104
asbasbasbag61
(g77
g63
NtRp1830
(dp1831
g66
(dp1832
sg75
g930
sg68
(lp1833
g61
(g82
g63
NtRp1834
(dp1835
g66
(dp1836
g86
g87
ssg75
g1830
sg68
(lp1837
S'wsgi_url_scheme'
p1838
asbag61
(g82
g63
NtRp1839
(dp1840
g66
(dp1841
g93
g94
ssg75
g1830
sg68
(lp1842
S':'
asbag61
(g82
g63
NtRp1843
(dp1844
g66
(dp1845
sg75
g1830
sg68
(lp1846
g61
(g62
g63
NtRp1847
(dp1848
g66
(dp1849
g74
I4
ssg75
g1843
sg68
(lp1850
S'http'
p1851
asbasbasbag61
(g77
g63
NtRp1852
(dp1853
g66
(dp1854
sg75
g930
sg68
(lp1855
g61
(g82
g63
NtRp1856
(dp1857
g66
(dp1858
g86
g87
ssg75
g1852
sg68
(lp1859
S'wsgi_version'
p1860
asbag61
(g82
g63
NtRp1861
(dp1862
g66
(dp1863
g93
g94
ssg75
g1852
sg68
(lp1864
S':'
asbag61
(g82
g63
NtRp1865
(dp1866
g66
(dp1867
sg75
g1852
sg68
(lp1868
g61
(g62
g63
NtRp1869
(dp1870
g66
(dp1871
g74
I4
ssg75
g1865
sg68
(lp1872
g61
(g70
g63
NtRp1873
(dp1874
g66
(dp1875
g74
I3
ssg75
Nsg68
(lp1876
g61
(g77
g63
NtRp1877
(dp1878
g66
(dp1879
sg75
g1873
sg68
(lp1880
g61
(g82
g63
NtRp1881
(dp1882
g66
(dp1883
sg75
g1877
sg68
(lp1884
g61
(g62
g63
NtRp1885
(dp1886
g66
(dp1887
g74
I3
ssg75
g1881
sg68
(lp1888
S'1'
asbasbasbag61
(g77
g63
NtRp1889
(dp1890
g66
(dp1891
sg75
g1873
sg68
(lp1892
g61
(g82
g63
NtRp1893
(dp1894
g66
(dp1895
sg75
g1889
sg68
(lp1896
g61
(g62
g63
NtRp1897
(dp1898
g66
(dp1899
g74
I3
ssg75
g1893
sg68
(lp1900
S'0'
asbasbasbasbasbasbasbasbasbasbasbag61
(g77
g63
NtRp1901
(dp1902
g66
(dp1903
sg75
g71
sg68
(lp1904
g61
(g82
g63
NtRp1905
(dp1906
g66
(dp1907
g86
g87
ssg75
g1901
sg68
(lp1908
S'extension'
p1909
asbag61
(g82
g63
NtRp1910
(dp1911
g66
(dp1912
g93
g94
ssg75
g1901
sg68
(lp1913
S':'
asbag61
(g82
g63
NtRp1914
(dp1915
g66
(dp1916
sg75
g1901
sg68
(lp1917
g61
(g62
g63
NtRp1918
(dp1919
g66
(dp1920
g74
I5
ssg75
g1914
sg68
(lp1921
S'html'
p1922
asbasbasbag61
(g77
g63
NtRp1923
(dp1924
g66
(dp1925
sg75
g71
sg68
(lp1926
g61
(g82
g63
NtRp1927
(dp1928
g66
(dp1929
g86
g87
ssg75
g1923
sg68
(lp1930
S'folder'
p1931
asbag61
(g82
g63
NtRp1932
(dp1933
g66
(dp1934
g93
g94
ssg75
g1923
sg68
(lp1935
S':'
asbag61
(g82
g63
NtRp1936
(dp1937
g66
(dp1938
sg75
g1923
sg68
(lp1939
g61
(g62
g63
NtRp1940
(dp1941
g66
(dp1942
g74
I5
ssg75
g1936
sg68
(lp1943
S'C:\\Users\\omkara\\Desktop\\web2py\\applications\\SlugBarter\\'
p1944
asbasbasbag61
(g77
g63
NtRp1945
(dp1946
g66
(dp1947
sg75
g71
sg68
(lp1948
g61
(g82
g63
NtRp1949
(dp1950
g66
(dp1951
g86
g87
ssg75
g1945
sg68
(lp1952
S'function'
p1953
asbag61
(g82
g63
NtRp1954
(dp1955
g66
(dp1956
g93
g94
ssg75
g1945
sg68
(lp1957
S':'
asbag61
(g82
g63
NtRp1958
(dp1959
g66
(dp1960
sg75
g1945
sg68
(lp1961
g61
(g62
g63
NtRp1962
(dp1963
g66
(dp1964
g74
I5
ssg75
g1958
sg68
(lp1965
S'register'
p1966
asbasbasbag61
(g77
g63
NtRp1967
(dp1968
g66
(dp1969
sg75
g71
sg68
(lp1970
g61
(g82
g63
NtRp1971
(dp1972
g66
(dp1973
g86
g87
ssg75
g1967
sg68
(lp1974
S'get_vars'
p1975
asbag61
(g82
g63
NtRp1976
(dp1977
g66
(dp1978
g93
g94
ssg75
g1967
sg68
(lp1979
S':'
asbag61
(g82
g63
NtRp1980
(dp1981
g66
(dp1982
sg75
g1967
sg68
(lp1983
g61
(g62
g63
NtRp1984
(dp1985
g66
(dp1986
g74
I5
ssg75
g1980
sg68
(lp1987
g61
(g70
g63
NtRp1988
(dp1989
g66
(dp1990
g74
I4
ssg75
Nsg68
(lp1991
sbasbasbasbag61
(g77
g63
NtRp1992
(dp1993
g66
(dp1994
sg75
g71
sg68
(lp1995
g61
(g82
g63
NtRp1996
(dp1997
g66
(dp1998
g86
g87
ssg75
g1992
sg68
(lp1999
S'global_settings'
p2000
asbag61
(g82
g63
NtRp2001
(dp2002
g66
(dp2003
g93
g94
ssg75
g1992
sg68
(lp2004
S':'
asbag61
(g82
g63
NtRp2005
(dp2006
g66
(dp2007
sg75
g1992
sg68
(lp2008
g61
(g62
g63
NtRp2009
(dp2010
g66
(dp2011
g74
I5
ssg75
g2005
sg68
(lp2012
g61
(g70
g63
NtRp2013
(dp2014
g66
(dp2015
g74
I4
ssg75
Nsg68
(lp2016
g61
(g77
g63
NtRp2017
(dp2018
g66
(dp2019
sg75
g2013
sg68
(lp2020
g61
(g82
g63
NtRp2021
(dp2022
g66
(dp2023
g86
g87
ssg75
g2017
sg68
(lp2024
g942
asbag61
(g82
g63
NtRp2025
(dp2026
g66
(dp2027
g93
g94
ssg75
g2017
sg68
(lp2028
S':'
asbag61
(g82
g63
NtRp2029
(dp2030
g66
(dp2031
sg75
g2017
sg68
(lp2032
g61
(g62
g63
NtRp2033
(dp2034
g66
(dp2035
g74
I4
ssg75
g2029
sg68
(lp2036
S"set(['C:\\\\Users\\\\omkara\\\\Desktop\\\\web2py\\\\applications\\\\admin\\\\', 'C:\\\\Users\\\\omkara\\\\Desktop\\\\web2py\\\\applications\\\\welcome\\\\', 'C:\\\\Users\\\\omkara\\\\Desktop\\\\web2py\\\\applications\\\\SlugBarter\\\\'])"
p2037
asbasbasbag61
(g77
g63
NtRp2038
(dp2039
g66
(dp2040
sg75
g2013
sg68
(lp2041
g61
(g82
g63
NtRp2042
(dp2043
g66
(dp2044
g86
g87
ssg75
g2038
sg68
(lp2045
g964
asbag61
(g82
g63
NtRp2046
(dp2047
g66
(dp2048
g93
g94
ssg75
g2038
sg68
(lp2049
S':'
asbag61
(g82
g63
NtRp2050
(dp2051
g66
(dp2052
sg75
g2038
sg68
(lp2053
g61
(g62
g63
NtRp2054
(dp2055
g66
(dp2056
g74
I4
ssg75
g2050
sg68
(lp2057
g977
asbasbasbag61
(g77
g63
NtRp2058
(dp2059
g66
(dp2060
sg75
g2013
sg68
(lp2061
g61
(g82
g63
NtRp2062
(dp2063
g66
(dp2064
g86
g87
ssg75
g2058
sg68
(lp2065
g986
asbag61
(g82
g63
NtRp2066
(dp2067
g66
(dp2068
g93
g94
ssg75
g2058
sg68
(lp2069
S':'
asbag61
(g82
g63
NtRp2070
(dp2071
g66
(dp2072
sg75
g2058
sg68
(lp2073
g61
(g62
g63
NtRp2074
(dp2075
g66
(dp2076
g74
I4
ssg75
g2070
sg68
(lp2077
g61
(g70
g63
NtRp2078
(dp2079
g66
(dp2080
g74
I3
ssg75
Nsg68
(lp2081
sbasbasbasbag61
(g77
g63
NtRp2082
(dp2083
g66
(dp2084
sg75
g2013
sg68
(lp2085
g61
(g82
g63
NtRp2086
(dp2087
g66
(dp2088
g86
g87
ssg75
g2082
sg68
(lp2089
g1011
asbag61
(g82
g63
NtRp2090
(dp2091
g66
(dp2092
g93
g94
ssg75
g2082
sg68
(lp2093
S':'
asbag61
(g82
g63
NtRp2094
(dp2095
g66
(dp2096
sg75
g2082
sg68
(lp2097
g61
(g62
g63
NtRp2098
(dp2099
g66
(dp2100
g74
I4
ssg75
g2094
sg68
(lp2101
S"<Values at 0x27b1f80: {'verbose': False, 'ip': '127.0.0.1', 'shutdown_timeout': 5, 'taskbar': False, 'nocron': False, 'pid_filename': 'httpserver.pid', 'maxthreads': None, 'softcron': False, 'server_name': 'omkara-PC', 'bpython': False, 'nogui': False, 'port': 8000, 'extcron': False, 'debuglevel': 30, 'test': None, 'folder': 'C:\\\\Users\\\\omkara\\\\Desktop\\\\web2py', 'config': '', 'import_models': False, 'winservice': '', 'shell': None, 'run': '', 'log_filename': 'httpserver.log', 'args': [''], 'socket_timeout': 5, 'ssl_ca_certificate': None, 'scheduler': None, 'profiler_filename': None, 'ssl_private_key': '', 'password': '<ask>', 'request_queue_size': 5, 'ssl_certificate': '', 'cronjob': False, 'numthreads': None, 'quiet': False, 'interfaces': None, 'minthreads': None, 'timeout': 10, 'plain': False, 'nobanner': False}>"
p2102
asbasbasbag61
(g77
g63
NtRp2103
(dp2104
g66
(dp2105
sg75
g2013
sg68
(lp2106
g61
(g82
g63
NtRp2107
(dp2108
g66
(dp2109
g86
g87
ssg75
g2103
sg68
(lp2110
g1033
asbag61
(g82
g63
NtRp2111
(dp2112
g66
(dp2113
g93
g94
ssg75
g2103
sg68
(lp2114
S':'
asbag61
(g82
g63
NtRp2115
(dp2116
g66
(dp2117
sg75
g2103
sg68
(lp2118
g61
(g62
g63
NtRp2119
(dp2120
g66
(dp2121
g74
I4
ssg75
g2115
sg68
(lp2122
S'set([])'
p2123
asbasbasbag61
(g77
g63
NtRp2124
(dp2125
g66
(dp2126
sg75
g2013
sg68
(lp2127
g61
(g82
g63
NtRp2128
(dp2129
g66
(dp2130
g86
g87
ssg75
g2124
sg68
(lp2131
g1055
asbag61
(g82
g63
NtRp2132
(dp2133
g66
(dp2134
g93
g94
ssg75
g2124
sg68
(lp2135
S':'
asbag61
(g82
g63
NtRp2136
(dp2137
g66
(dp2138
sg75
g2124
sg68
(lp2139
g61
(g62
g63
NtRp2140
(dp2141
g66
(dp2142
g74
I4
ssg75
g2136
sg68
(lp2143
g104
asbasbasbag61
(g77
g63
NtRp2144
(dp2145
g66
(dp2146
sg75
g2013
sg68
(lp2147
g61
(g82
g63
NtRp2148
(dp2149
g66
(dp2150
g86
g87
ssg75
g2144
sg68
(lp2151
g1076
asbag61
(g82
g63
NtRp2152
(dp2153
g66
(dp2154
g93
g94
ssg75
g2144
sg68
(lp2155
S':'
asbag61
(g82
g63
NtRp2156
(dp2157
g66
(dp2158
sg75
g2144
sg68
(lp2159
g61
(g62
g63
NtRp2160
(dp2161
g66
(dp2162
g74
I4
ssg75
g2156
sg68
(lp2163
g1089
asbasbasbag61
(g77
g63
NtRp2164
(dp2165
g66
(dp2166
sg75
g2013
sg68
(lp2167
g61
(g82
g63
NtRp2168
(dp2169
g66
(dp2170
g86
g87
ssg75
g2164
sg68
(lp2171
g1318
asbag61
(g82
g63
NtRp2172
(dp2173
g66
(dp2174
g93
g94
ssg75
g2164
sg68
(lp2175
S':'
asbag61
(g82
g63
NtRp2176
(dp2177
g66
(dp2178
sg75
g2164
sg68
(lp2179
g61
(g62
g63
NtRp2180
(dp2181
g66
(dp2182
g74
I4
ssg75
g2176
sg68
(lp2183
g104
asbasbasbag61
(g77
g63
NtRp2184
(dp2185
g66
(dp2186
sg75
g2013
sg68
(lp2187
g61
(g82
g63
NtRp2188
(dp2189
g66
(dp2190
g86
g87
ssg75
g2184
sg68
(lp2191
g1339
asbag61
(g82
g63
NtRp2192
(dp2193
g66
(dp2194
g93
g94
ssg75
g2184
sg68
(lp2195
S':'
asbag61
(g82
g63
NtRp2196
(dp2197
g66
(dp2198
sg75
g2184
sg68
(lp2199
g61
(g62
g63
NtRp2200
(dp2201
g66
(dp2202
g74
I4
ssg75
g2196
sg68
(lp2203
g104
asbasbasbag61
(g77
g63
NtRp2204
(dp2205
g66
(dp2206
sg75
g2013
sg68
(lp2207
g61
(g82
g63
NtRp2208
(dp2209
g66
(dp2210
g86
g87
ssg75
g2204
sg68
(lp2211
g1577
asbag61
(g82
g63
NtRp2212
(dp2213
g66
(dp2214
g93
g94
ssg75
g2204
sg68
(lp2215
S':'
asbag61
(g82
g63
NtRp2216
(dp2217
g66
(dp2218
sg75
g2204
sg68
(lp2219
g61
(g62
g63
NtRp2220
(dp2221
g66
(dp2222
g74
I4
ssg75
g2216
sg68
(lp2223
g1590
asbasbasbag61
(g77
g63
NtRp2224
(dp2225
g66
(dp2226
sg75
g2013
sg68
(lp2227
g61
(g82
g63
NtRp2228
(dp2229
g66
(dp2230
g86
g87
ssg75
g2224
sg68
(lp2231
g1620
asbag61
(g82
g63
NtRp2232
(dp2233
g66
(dp2234
g93
g94
ssg75
g2224
sg68
(lp2235
S':'
asbag61
(g82
g63
NtRp2236
(dp2237
g66
(dp2238
sg75
g2224
sg68
(lp2239
g61
(g62
g63
NtRp2240
(dp2241
g66
(dp2242
g74
I4
ssg75
g2236
sg68
(lp2243
g61
(g70
g63
NtRp2244
(dp2245
g66
(dp2246
g74
I3
ssg75
Nsg68
(lp2247
g61
(g77
g63
NtRp2248
(dp2249
g66
(dp2250
sg75
g2244
sg68
(lp2251
g61
(g82
g63
NtRp2252
(dp2253
g66
(dp2254
sg75
g2248
sg68
(lp2255
g61
(g62
g63
NtRp2256
(dp2257
g66
(dp2258
g74
I3
ssg75
g2252
sg68
(lp2259
S'1'
asbasbasbag61
(g77
g63
NtRp2260
(dp2261
g66
(dp2262
sg75
g2244
sg68
(lp2263
g61
(g82
g63
NtRp2264
(dp2265
g66
(dp2266
sg75
g2260
sg68
(lp2267
g61
(g62
g63
NtRp2268
(dp2269
g66
(dp2270
g74
I3
ssg75
g2264
sg68
(lp2271
S'99'
p2272
asbasbasbag61
(g77
g63
NtRp2273
(dp2274
g66
(dp2275
sg75
g2244
sg68
(lp2276
g61
(g82
g63
NtRp2277
(dp2278
g66
(dp2279
sg75
g2273
sg68
(lp2280
g61
(g62
g63
NtRp2281
(dp2282
g66
(dp2283
g74
I3
ssg75
g2277
sg68
(lp2284
S'7'
asbasbasbag61
(g77
g63
NtRp2285
(dp2286
g66
(dp2287
sg75
g2244
sg68
(lp2288
g61
(g82
g63
NtRp2289
(dp2290
g66
(dp2291
sg75
g2285
sg68
(lp2292
g61
(g62
g63
NtRp2293
(dp2294
g66
(dp2295
g74
I3
ssg75
g2289
sg68
(lp2296
S'datetime.datetime(2012, 3, 4, 22, 12, 8)'
p2297
asbasbasbag61
(g77
g63
NtRp2298
(dp2299
g66
(dp2300
sg75
g2244
sg68
(lp2301
g61
(g82
g63
NtRp2302
(dp2303
g66
(dp2304
sg75
g2298
sg68
(lp2305
g61
(g62
g63
NtRp2306
(dp2307
g66
(dp2308
g74
I3
ssg75
g2302
sg68
(lp2309
g1699
asbasbasbasbasbasbasbasbasbasbasbag61
(g77
g63
NtRp2310
(dp2311
g66
(dp2312
sg75
g71
sg68
(lp2313
g61
(g82
g63
NtRp2314
(dp2315
g66
(dp2316
g86
g87
ssg75
g2310
sg68
(lp2317
S'is_https'
p2318
asbag61
(g82
g63
NtRp2319
(dp2320
g66
(dp2321
g93
g94
ssg75
g2310
sg68
(lp2322
S':'
asbag61
(g82
g63
NtRp2323
(dp2324
g66
(dp2325
sg75
g2310
sg68
(lp2326
g61
(g62
g63
NtRp2327
(dp2328
g66
(dp2329
g74
I5
ssg75
g2323
sg68
(lp2330
g104
asbasbasbag61
(g77
g63
NtRp2331
(dp2332
g66
(dp2333
sg75
g71
sg68
(lp2334
g61
(g82
g63
NtRp2335
(dp2336
g66
(dp2337
g86
g87
ssg75
g2331
sg68
(lp2338
S'is_local'
p2339
asbag61
(g82
g63
NtRp2340
(dp2341
g66
(dp2342
g93
g94
ssg75
g2331
sg68
(lp2343
S':'
asbag61
(g82
g63
NtRp2344
(dp2345
g66
(dp2346
sg75
g2331
sg68
(lp2347
g61
(g62
g63
NtRp2348
(dp2349
g66
(dp2350
g74
I5
ssg75
g2344
sg68
(lp2351
g1808
asbasbasbag61
(g77
g63
NtRp2352
(dp2353
g66
(dp2354
sg75
g71
sg68
(lp2355
g61
(g82
g63
NtRp2356
(dp2357
g66
(dp2358
g86
g87
ssg75
g2352
sg68
(lp2359
S'is_restful'
p2360
asbag61
(g82
g63
NtRp2361
(dp2362
g66
(dp2363
g93
g94
ssg75
g2352
sg68
(lp2364
S':'
asbag61
(g82
g63
NtRp2365
(dp2366
g66
(dp2367
sg75
g2352
sg68
(lp2368
g61
(g62
g63
NtRp2369
(dp2370
g66
(dp2371
g74
I5
ssg75
g2365
sg68
(lp2372
g104
asbasbasbag61
(g77
g63
NtRp2373
(dp2374
g66
(dp2375
sg75
g71
sg68
(lp2376
g61
(g82
g63
NtRp2377
(dp2378
g66
(dp2379
g86
g87
ssg75
g2373
sg68
(lp2380
S'now'
p2381
asbag61
(g82
g63
NtRp2382
(dp2383
g66
(dp2384
g93
g94
ssg75
g2373
sg68
(lp2385
S':'
asbag61
(g82
g63
NtRp2386
(dp2387
g66
(dp2388
sg75
g2373
sg68
(lp2389
g61
(g62
g63
NtRp2390
(dp2391
g66
(dp2392
g74
I5
ssg75
g2386
sg68
(lp2393
S'datetime.datetime(2012, 11, 10, 13, 29, 33, 876000)'
p2394
asbasbasbag61
(g77
g63
NtRp2395
(dp2396
g66
(dp2397
sg75
g71
sg68
(lp2398
g61
(g82
g63
NtRp2399
(dp2400
g66
(dp2401
g86
g87
ssg75
g2395
sg68
(lp2402
S'post_vars'
p2403
asbag61
(g82
g63
NtRp2404
(dp2405
g66
(dp2406
g93
g94
ssg75
g2395
sg68
(lp2407
S':'
asbag61
(g82
g63
NtRp2408
(dp2409
g66
(dp2410
sg75
g2395
sg68
(lp2411
g61
(g62
g63
NtRp2412
(dp2413
g66
(dp2414
g74
I5
ssg75
g2408
sg68
(lp2415
g61
(g70
g63
NtRp2416
(dp2417
g66
(dp2418
g74
I4
ssg75
Nsg68
(lp2419
sbasbasbasbag61
(g77
g63
NtRp2420
(dp2421
g66
(dp2422
sg75
g71
sg68
(lp2423
g61
(g82
g63
NtRp2424
(dp2425
g66
(dp2426
g86
g87
ssg75
g2420
sg68
(lp2427
S'url'
p2428
asbag61
(g82
g63
NtRp2429
(dp2430
g66
(dp2431
g93
g94
ssg75
g2420
sg68
(lp2432
S':'
asbag61
(g82
g63
NtRp2433
(dp2434
g66
(dp2435
sg75
g2420
sg68
(lp2436
g61
(g62
g63
NtRp2437
(dp2438
g66
(dp2439
g74
I5
ssg75
g2433
sg68
(lp2440
S'/SlugBarter/default/register'
p2441
asbasbasbag61
(g77
g63
NtRp2442
(dp2443
g66
(dp2444
sg75
g71
sg68
(lp2445
g61
(g82
g63
NtRp2446
(dp2447
g66
(dp2448
g86
g87
ssg75
g2442
sg68
(lp2449
S'utcnow'
p2450
asbag61
(g82
g63
NtRp2451
(dp2452
g66
(dp2453
g93
g94
ssg75
g2442
sg68
(lp2454
S':'
asbag61
(g82
g63
NtRp2455
(dp2456
g66
(dp2457
sg75
g2442
sg68
(lp2458
g61
(g62
g63
NtRp2459
(dp2460
g66
(dp2461
g74
I5
ssg75
g2455
sg68
(lp2462
S'datetime.datetime(2012, 11, 10, 21, 29, 33, 877000)'
p2463
asbasbasbag61
(g77
g63
NtRp2464
(dp2465
g66
(dp2466
sg75
g71
sg68
(lp2467
g61
(g82
g63
NtRp2468
(dp2469
g66
(dp2470
g86
g87
ssg75
g2464
sg68
(lp2471
S'uuid'
p2472
asbag61
(g82
g63
NtRp2473
(dp2474
g66
(dp2475
g93
g94
ssg75
g2464
sg68
(lp2476
S':'
asbag61
(g82
g63
NtRp2477
(dp2478
g66
(dp2479
sg75
g2464
sg68
(lp2480
g61
(g62
g63
NtRp2481
(dp2482
g66
(dp2483
g74
I5
ssg75
g2477
sg68
(lp2484
S'SlugBarter/127.0.0.1.2012-11-10.13-29-33.907bf5ca-f086-4964-b8bb-4e1de2bee1a6'
p2485
asbasbasbag61
(g77
g63
NtRp2486
(dp2487
g66
(dp2488
sg75
g71
sg68
(lp2489
g61
(g82
g63
NtRp2490
(dp2491
g66
(dp2492
g86
g87
ssg75
g2486
sg68
(lp2493
S'vars'
p2494
asbag61
(g82
g63
NtRp2495
(dp2496
g66
(dp2497
g93
g94
ssg75
g2486
sg68
(lp2498
S':'
asbag61
(g82
g63
NtRp2499
(dp2500
g66
(dp2501
sg75
g2486
sg68
(lp2502
g61
(g62
g63
NtRp2503
(dp2504
g66
(dp2505
g74
I5
ssg75
g2499
sg68
(lp2506
g61
(g70
g63
NtRp2507
(dp2508
g66
(dp2509
g74
I4
ssg75
Nsg68
(lp2510
sbasbasbasbag61
(g77
g63
NtRp2511
(dp2512
g66
(dp2513
sg75
g71
sg68
(lp2514
g61
(g82
g63
NtRp2515
(dp2516
g66
(dp2517
g86
g87
ssg75
g2511
sg68
(lp2518
S'wsgi'
p2519
asbag61
(g82
g63
NtRp2520
(dp2521
g66
(dp2522
g93
g94
ssg75
g2511
sg68
(lp2523
S':'
asbag61
(g82
g63
NtRp2524
(dp2525
g66
(dp2526
sg75
g2511
sg68
(lp2527
g61
(g62
g63
NtRp2528
(dp2529
g66
(dp2530
g74
I5
ssg75
g2524
sg68
(lp2531
g61
(g70
g63
NtRp2532
(dp2533
g66
(dp2534
g74
I4
ssg75
Nsg68
(lp2535
g61
(g77
g63
NtRp2536
(dp2537
g66
(dp2538
sg75
g2532
sg68
(lp2539
g61
(g82
g63
NtRp2540
(dp2541
g66
(dp2542
g86
g87
ssg75
g2536
sg68
(lp2543
S'environ'
p2544
asbag61
(g82
g63
NtRp2545
(dp2546
g66
(dp2547
g93
g94
ssg75
g2536
sg68
(lp2548
S':'
asbag61
(g82
g63
NtRp2549
(dp2550
g66
(dp2551
sg75
g2536
sg68
(lp2552
g61
(g62
g63
NtRp2553
(dp2554
g66
(dp2555
g74
I4
ssg75
g2549
sg68
(lp2556
g61
(g70
g63
NtRp2557
(dp2558
g66
(dp2559
g74
I3
ssg75
Nsg68
(lp2560
g61
(g77
g63
NtRp2561
(dp2562
g66
(dp2563
sg75
g2557
sg68
(lp2564
g61
(g82
g63
NtRp2565
(dp2566
g66
(dp2567
g86
g87
ssg75
g2561
sg68
(lp2568
S'HTTP_ACCEPT'
p2569
asbag61
(g82
g63
NtRp2570
(dp2571
g66
(dp2572
g93
g94
ssg75
g2561
sg68
(lp2573
S':'
asbag61
(g82
g63
NtRp2574
(dp2575
g66
(dp2576
sg75
g2561
sg68
(lp2577
g61
(g62
g63
NtRp2578
(dp2579
g66
(dp2580
g74
I3
ssg75
g2574
sg68
(lp2581
g1111
asbasbasbag61
(g77
g63
NtRp2582
(dp2583
g66
(dp2584
sg75
g2557
sg68
(lp2585
g61
(g82
g63
NtRp2586
(dp2587
g66
(dp2588
g86
g87
ssg75
g2582
sg68
(lp2589
S'HTTP_ACCEPT_CHARSET'
p2590
asbag61
(g82
g63
NtRp2591
(dp2592
g66
(dp2593
g93
g94
ssg75
g2582
sg68
(lp2594
S':'
asbag61
(g82
g63
NtRp2595
(dp2596
g66
(dp2597
sg75
g2582
sg68
(lp2598
g61
(g62
g63
NtRp2599
(dp2600
g66
(dp2601
g74
I3
ssg75
g2595
sg68
(lp2602
g1133
asbasbasbag61
(g77
g63
NtRp2603
(dp2604
g66
(dp2605
sg75
g2557
sg68
(lp2606
g61
(g82
g63
NtRp2607
(dp2608
g66
(dp2609
g86
g87
ssg75
g2603
sg68
(lp2610
S'HTTP_ACCEPT_ENCODING'
p2611
asbag61
(g82
g63
NtRp2612
(dp2613
g66
(dp2614
g93
g94
ssg75
g2603
sg68
(lp2615
S':'
asbag61
(g82
g63
NtRp2616
(dp2617
g66
(dp2618
sg75
g2603
sg68
(lp2619
g61
(g62
g63
NtRp2620
(dp2621
g66
(dp2622
g74
I3
ssg75
g2616
sg68
(lp2623
g1155
asbasbasbag61
(g77
g63
NtRp2624
(dp2625
g66
(dp2626
sg75
g2557
sg68
(lp2627
g61
(g82
g63
NtRp2628
(dp2629
g66
(dp2630
g86
g87
ssg75
g2624
sg68
(lp2631
S'HTTP_ACCEPT_LANGUAGE'
p2632
asbag61
(g82
g63
NtRp2633
(dp2634
g66
(dp2635
g93
g94
ssg75
g2624
sg68
(lp2636
S':'
asbag61
(g82
g63
NtRp2637
(dp2638
g66
(dp2639
sg75
g2624
sg68
(lp2640
g61
(g62
g63
NtRp2641
(dp2642
g66
(dp2643
g74
I3
ssg75
g2637
sg68
(lp2644
g1177
asbasbasbag61
(g77
g63
NtRp2645
(dp2646
g66
(dp2647
sg75
g2557
sg68
(lp2648
g61
(g82
g63
NtRp2649
(dp2650
g66
(dp2651
g86
g87
ssg75
g2645
sg68
(lp2652
S'HTTP_CACHE_CONTROL'
p2653
asbag61
(g82
g63
NtRp2654
(dp2655
g66
(dp2656
g93
g94
ssg75
g2645
sg68
(lp2657
S':'
asbag61
(g82
g63
NtRp2658
(dp2659
g66
(dp2660
sg75
g2645
sg68
(lp2661
g61
(g62
g63
NtRp2662
(dp2663
g66
(dp2664
g74
I3
ssg75
g2658
sg68
(lp2665
g1199
asbasbasbag61
(g77
g63
NtRp2666
(dp2667
g66
(dp2668
sg75
g2557
sg68
(lp2669
g61
(g82
g63
NtRp2670
(dp2671
g66
(dp2672
g86
g87
ssg75
g2666
sg68
(lp2673
S'HTTP_CONNECTION'
p2674
asbag61
(g82
g63
NtRp2675
(dp2676
g66
(dp2677
g93
g94
ssg75
g2666
sg68
(lp2678
S':'
asbag61
(g82
g63
NtRp2679
(dp2680
g66
(dp2681
sg75
g2666
sg68
(lp2682
g61
(g62
g63
NtRp2683
(dp2684
g66
(dp2685
g74
I3
ssg75
g2679
sg68
(lp2686
g1221
asbasbasbag61
(g77
g63
NtRp2687
(dp2688
g66
(dp2689
sg75
g2557
sg68
(lp2690
g61
(g82
g63
NtRp2691
(dp2692
g66
(dp2693
g86
g87
ssg75
g2687
sg68
(lp2694
S'HTTP_COOKIE'
p2695
asbag61
(g82
g63
NtRp2696
(dp2697
g66
(dp2698
g93
g94
ssg75
g2687
sg68
(lp2699
S':'
asbag61
(g82
g63
NtRp2700
(dp2701
g66
(dp2702
sg75
g2687
sg68
(lp2703
g61
(g62
g63
NtRp2704
(dp2705
g66
(dp2706
g74
I3
ssg75
g2700
sg68
(lp2707
g1243
asbasbasbag61
(g77
g63
NtRp2708
(dp2709
g66
(dp2710
sg75
g2557
sg68
(lp2711
g61
(g82
g63
NtRp2712
(dp2713
g66
(dp2714
g86
g87
ssg75
g2708
sg68
(lp2715
S'HTTP_HOST'
p2716
asbag61
(g82
g63
NtRp2717
(dp2718
g66
(dp2719
g93
g94
ssg75
g2708
sg68
(lp2720
S':'
asbag61
(g82
g63
NtRp2721
(dp2722
g66
(dp2723
sg75
g2708
sg68
(lp2724
g61
(g62
g63
NtRp2725
(dp2726
g66
(dp2727
g74
I3
ssg75
g2721
sg68
(lp2728
g1265
asbasbasbag61
(g77
g63
NtRp2729
(dp2730
g66
(dp2731
sg75
g2557
sg68
(lp2732
g61
(g82
g63
NtRp2733
(dp2734
g66
(dp2735
g86
g87
ssg75
g2729
sg68
(lp2736
S'HTTP_REFERER'
p2737
asbag61
(g82
g63
NtRp2738
(dp2739
g66
(dp2740
g93
g94
ssg75
g2729
sg68
(lp2741
S':'
asbag61
(g82
g63
NtRp2742
(dp2743
g66
(dp2744
sg75
g2729
sg68
(lp2745
g61
(g62
g63
NtRp2746
(dp2747
g66
(dp2748
g74
I3
ssg75
g2742
sg68
(lp2749
g1287
asbasbasbag61
(g77
g63
NtRp2750
(dp2751
g66
(dp2752
sg75
g2557
sg68
(lp2753
g61
(g82
g63
NtRp2754
(dp2755
g66
(dp2756
g86
g87
ssg75
g2750
sg68
(lp2757
S'HTTP_USER_AGENT'
p2758
asbag61
(g82
g63
NtRp2759
(dp2760
g66
(dp2761
g93
g94
ssg75
g2750
sg68
(lp2762
S':'
asbag61
(g82
g63
NtRp2763
(dp2764
g66
(dp2765
sg75
g2750
sg68
(lp2766
g61
(g62
g63
NtRp2767
(dp2768
g66
(dp2769
g74
I3
ssg75
g2763
sg68
(lp2770
g1309
asbasbasbag61
(g77
g63
NtRp2771
(dp2772
g66
(dp2773
sg75
g2557
sg68
(lp2774
g61
(g82
g63
NtRp2775
(dp2776
g66
(dp2777
g86
g87
ssg75
g2771
sg68
(lp2778
S'PATH_INFO'
p2779
asbag61
(g82
g63
NtRp2780
(dp2781
g66
(dp2782
g93
g94
ssg75
g2771
sg68
(lp2783
S':'
asbag61
(g82
g63
NtRp2784
(dp2785
g66
(dp2786
sg75
g2771
sg68
(lp2787
g61
(g62
g63
NtRp2788
(dp2789
g66
(dp2790
g74
I3
ssg75
g2784
sg68
(lp2791
g1373
asbasbasbag61
(g77
g63
NtRp2792
(dp2793
g66
(dp2794
sg75
g2557
sg68
(lp2795
g61
(g82
g63
NtRp2796
(dp2797
g66
(dp2798
g86
g87
ssg75
g2792
sg68
(lp2799
S'QUERY_STRING'
p2800
asbag61
(g82
g63
NtRp2801
(dp2802
g66
(dp2803
g93
g94
ssg75
g2792
sg68
(lp2804
S':'
asbag61
(g82
g63
NtRp2805
(dp2806
g66
(dp2807
sg75
g2792
sg68
(lp2808
g61
(g62
g63
NtRp2809
(dp2810
g66
(dp2811
g74
I3
ssg75
g2805
sg68
(lp2812
S''
asbasbasbag61
(g77
g63
NtRp2813
(dp2814
g66
(dp2815
sg75
g2557
sg68
(lp2816
g61
(g82
g63
NtRp2817
(dp2818
g66
(dp2819
g86
g87
ssg75
g2813
sg68
(lp2820
S'REMOTE_ADDR'
p2821
asbag61
(g82
g63
NtRp2822
(dp2823
g66
(dp2824
g93
g94
ssg75
g2813
sg68
(lp2825
S':'
asbag61
(g82
g63
NtRp2826
(dp2827
g66
(dp2828
sg75
g2813
sg68
(lp2829
g61
(g62
g63
NtRp2830
(dp2831
g66
(dp2832
g74
I3
ssg75
g2826
sg68
(lp2833
g194
asbasbasbag61
(g77
g63
NtRp2834
(dp2835
g66
(dp2836
sg75
g2557
sg68
(lp2837
g61
(g82
g63
NtRp2838
(dp2839
g66
(dp2840
g86
g87
ssg75
g2834
sg68
(lp2841
S'REMOTE_PORT'
p2842
asbag61
(g82
g63
NtRp2843
(dp2844
g66
(dp2845
g93
g94
ssg75
g2834
sg68
(lp2846
S':'
asbag61
(g82
g63
NtRp2847
(dp2848
g66
(dp2849
sg75
g2834
sg68
(lp2850
g61
(g62
g63
NtRp2851
(dp2852
g66
(dp2853
g74
I3
ssg75
g2847
sg68
(lp2854
g1437
asbasbasbag61
(g77
g63
NtRp2855
(dp2856
g66
(dp2857
sg75
g2557
sg68
(lp2858
g61
(g82
g63
NtRp2859
(dp2860
g66
(dp2861
g86
g87
ssg75
g2855
sg68
(lp2862
S'REQUEST_METHOD'
p2863
asbag61
(g82
g63
NtRp2864
(dp2865
g66
(dp2866
g93
g94
ssg75
g2855
sg68
(lp2867
S':'
asbag61
(g82
g63
NtRp2868
(dp2869
g66
(dp2870
sg75
g2855
sg68
(lp2871
g61
(g62
g63
NtRp2872
(dp2873
g66
(dp2874
g74
I3
ssg75
g2868
sg68
(lp2875
g1459
asbasbasbag61
(g77
g63
NtRp2876
(dp2877
g66
(dp2878
sg75
g2557
sg68
(lp2879
g61
(g82
g63
NtRp2880
(dp2881
g66
(dp2882
g86
g87
ssg75
g2876
sg68
(lp2883
S'SCRIPT_NAME'
p2884
asbag61
(g82
g63
NtRp2885
(dp2886
g66
(dp2887
g93
g94
ssg75
g2876
sg68
(lp2888
S':'
asbag61
(g82
g63
NtRp2889
(dp2890
g66
(dp2891
sg75
g2876
sg68
(lp2892
g61
(g62
g63
NtRp2893
(dp2894
g66
(dp2895
g74
I3
ssg75
g2889
sg68
(lp2896
S''
asbasbasbag61
(g77
g63
NtRp2897
(dp2898
g66
(dp2899
sg75
g2557
sg68
(lp2900
g61
(g82
g63
NtRp2901
(dp2902
g66
(dp2903
g86
g87
ssg75
g2897
sg68
(lp2904
S'SERVER_NAME'
p2905
asbag61
(g82
g63
NtRp2906
(dp2907
g66
(dp2908
g93
g94
ssg75
g2897
sg68
(lp2909
S':'
asbag61
(g82
g63
NtRp2910
(dp2911
g66
(dp2912
sg75
g2897
sg68
(lp2913
g61
(g62
g63
NtRp2914
(dp2915
g66
(dp2916
g74
I3
ssg75
g2910
sg68
(lp2917
g1502
asbasbasbag61
(g77
g63
NtRp2918
(dp2919
g66
(dp2920
sg75
g2557
sg68
(lp2921
g61
(g82
g63
NtRp2922
(dp2923
g66
(dp2924
g86
g87
ssg75
g2918
sg68
(lp2925
S'SERVER_PORT'
p2926
asbag61
(g82
g63
NtRp2927
(dp2928
g66
(dp2929
g93
g94
ssg75
g2918
sg68
(lp2930
S':'
asbag61
(g82
g63
NtRp2931
(dp2932
g66
(dp2933
sg75
g2918
sg68
(lp2934
g61
(g62
g63
NtRp2935
(dp2936
g66
(dp2937
g74
I3
ssg75
g2931
sg68
(lp2938
g1524
asbasbasbag61
(g77
g63
NtRp2939
(dp2940
g66
(dp2941
sg75
g2557
sg68
(lp2942
g61
(g82
g63
NtRp2943
(dp2944
g66
(dp2945
g86
g87
ssg75
g2939
sg68
(lp2946
S'SERVER_PROTOCOL'
p2947
asbag61
(g82
g63
NtRp2948
(dp2949
g66
(dp2950
g93
g94
ssg75
g2939
sg68
(lp2951
S':'
asbag61
(g82
g63
NtRp2952
(dp2953
g66
(dp2954
sg75
g2939
sg68
(lp2955
g61
(g62
g63
NtRp2956
(dp2957
g66
(dp2958
g74
I3
ssg75
g2952
sg68
(lp2959
g1546
asbasbasbag61
(g77
g63
NtRp2960
(dp2961
g66
(dp2962
sg75
g2557
sg68
(lp2963
g61
(g82
g63
NtRp2964
(dp2965
g66
(dp2966
g86
g87
ssg75
g2960
sg68
(lp2967
S'SERVER_SOFTWARE'
p2968
asbag61
(g82
g63
NtRp2969
(dp2970
g66
(dp2971
g93
g94
ssg75
g2960
sg68
(lp2972
S':'
asbag61
(g82
g63
NtRp2973
(dp2974
g66
(dp2975
sg75
g2960
sg68
(lp2976
g61
(g62
g63
NtRp2977
(dp2978
g66
(dp2979
g74
I3
ssg75
g2973
sg68
(lp2980
g1568
asbasbasbag61
(g77
g63
NtRp2981
(dp2982
g66
(dp2983
sg75
g2557
sg68
(lp2984
g61
(g82
g63
NtRp2985
(dp2986
g66
(dp2987
g86
g87
ssg75
g2981
sg68
(lp2988
S'wsgi.errors'
p2989
asbag61
(g82
g63
NtRp2990
(dp2991
g66
(dp2992
g93
g94
ssg75
g2981
sg68
(lp2993
S':'
asbag61
(g82
g63
NtRp2994
(dp2995
g66
(dp2996
sg75
g2981
sg68
(lp2997
g61
(g62
g63
NtRp2998
(dp2999
g66
(dp3000
g74
I3
ssg75
g2994
sg68
(lp3001
S"<open file '<stderr>', mode 'w' at 0x016000B0>"
p3002
asbasbasbag61
(g77
g63
NtRp3003
(dp3004
g66
(dp3005
sg75
g2557
sg68
(lp3006
g61
(g82
g63
NtRp3007
(dp3008
g66
(dp3009
g86
g87
ssg75
g3003
sg68
(lp3010
S'wsgi.file_wrapper'
p3011
asbag61
(g82
g63
NtRp3012
(dp3013
g66
(dp3014
g93
g94
ssg75
g3003
sg68
(lp3015
S':'
asbag61
(g82
g63
NtRp3016
(dp3017
g66
(dp3018
sg75
g3003
sg68
(lp3019
g61
(g62
g63
NtRp3020
(dp3021
g66
(dp3022
g74
I3
ssg75
g3016
sg68
(lp3023
S'<class wsgiref.util.FileWrapper at 0x025361B0>'
p3024
asbasbasbag61
(g77
g63
NtRp3025
(dp3026
g66
(dp3027
sg75
g2557
sg68
(lp3028
g61
(g82
g63
NtRp3029
(dp3030
g66
(dp3031
g86
g87
ssg75
g3025
sg68
(lp3032
S'wsgi.input'
p3033
asbag61
(g82
g63
NtRp3034
(dp3035
g66
(dp3036
g93
g94
ssg75
g3025
sg68
(lp3037
S':'
asbag61
(g82
g63
NtRp3038
(dp3039
g66
(dp3040
sg75
g3025
sg68
(lp3041
g61
(g62
g63
NtRp3042
(dp3043
g66
(dp3044
g74
I3
ssg75
g3038
sg68
(lp3045
S'<cStringIO.StringO object at 0x05FEFFE0>'
p3046
asbasbasbag61
(g77
g63
NtRp3047
(dp3048
g66
(dp3049
sg75
g2557
sg68
(lp3050
g61
(g82
g63
NtRp3051
(dp3052
g66
(dp3053
g86
g87
ssg75
g3047
sg68
(lp3054
S'wsgi.multiprocess'
p3055
asbag61
(g82
g63
NtRp3056
(dp3057
g66
(dp3058
g93
g94
ssg75
g3047
sg68
(lp3059
S':'
asbag61
(g82
g63
NtRp3060
(dp3061
g66
(dp3062
sg75
g3047
sg68
(lp3063
g61
(g62
g63
NtRp3064
(dp3065
g66
(dp3066
g74
I3
ssg75
g3060
sg68
(lp3067
g104
asbasbasbag61
(g77
g63
NtRp3068
(dp3069
g66
(dp3070
sg75
g2557
sg68
(lp3071
g61
(g82
g63
NtRp3072
(dp3073
g66
(dp3074
g86
g87
ssg75
g3068
sg68
(lp3075
S'wsgi.multithread'
p3076
asbag61
(g82
g63
NtRp3077
(dp3078
g66
(dp3079
g93
g94
ssg75
g3068
sg68
(lp3080
S':'
asbag61
(g82
g63
NtRp3081
(dp3082
g66
(dp3083
sg75
g3068
sg68
(lp3084
g61
(g62
g63
NtRp3085
(dp3086
g66
(dp3087
g74
I3
ssg75
g3081
sg68
(lp3088
g1808
asbasbasbag61
(g77
g63
NtRp3089
(dp3090
g66
(dp3091
sg75
g2557
sg68
(lp3092
g61
(g82
g63
NtRp3093
(dp3094
g66
(dp3095
g86
g87
ssg75
g3089
sg68
(lp3096
S'wsgi.run_once'
p3097
asbag61
(g82
g63
NtRp3098
(dp3099
g66
(dp3100
g93
g94
ssg75
g3089
sg68
(lp3101
S':'
asbag61
(g82
g63
NtRp3102
(dp3103
g66
(dp3104
sg75
g3089
sg68
(lp3105
g61
(g62
g63
NtRp3106
(dp3107
g66
(dp3108
g74
I3
ssg75
g3102
sg68
(lp3109
g104
asbasbasbag61
(g77
g63
NtRp3110
(dp3111
g66
(dp3112
sg75
g2557
sg68
(lp3113
g61
(g82
g63
NtRp3114
(dp3115
g66
(dp3116
g86
g87
ssg75
g3110
sg68
(lp3117
S'wsgi.url_scheme'
p3118
asbag61
(g82
g63
NtRp3119
(dp3120
g66
(dp3121
g93
g94
ssg75
g3110
sg68
(lp3122
S':'
asbag61
(g82
g63
NtRp3123
(dp3124
g66
(dp3125
sg75
g3110
sg68
(lp3126
g61
(g62
g63
NtRp3127
(dp3128
g66
(dp3129
g74
I3
ssg75
g3123
sg68
(lp3130
g1851
asbasbasbag61
(g77
g63
NtRp3131
(dp3132
g66
(dp3133
sg75
g2557
sg68
(lp3134
g61
(g82
g63
NtRp3135
(dp3136
g66
(dp3137
g86
g87
ssg75
g3131
sg68
(lp3138
S'wsgi.version'
p3139
asbag61
(g82
g63
NtRp3140
(dp3141
g66
(dp3142
g93
g94
ssg75
g3131
sg68
(lp3143
S':'
asbag61
(g82
g63
NtRp3144
(dp3145
g66
(dp3146
sg75
g3131
sg68
(lp3147
g61
(g62
g63
NtRp3148
(dp3149
g66
(dp3150
g74
I3
ssg75
g3144
sg68
(lp3151
S'1'
asbasbasbasbasbasbasbasbasbasbasbasbasbsS'frames'
p3152
(lp3153
(dp3154
S'file'
p3155
S'C:\\Users\\omkara\\Desktop\\web2py\\gluon\\restricted.py'
p3156
sS'dump'
p3157
(dp3158
sS'lnum'
p3159
I204
sS'lines'
p3160
(dp3161
sS'call'
p3162
S"(code='# -*- coding: utf-8 -*-\\n# this file is released ...ud())\\n\\nresponse._vars=response._caller(register)\\n', environment={'A': <class 'gluon.html.A'>, 'Auth': <class 'gluon.tools.Auth'>, 'B': <class 'gluon.html.B'>, 'BEAUTIFY': <class 'gluon.html.BEAUTIFY'>, 'BODY': <class 'gluon.html.BODY'>, 'BR': <class 'gluon.html.BR'>, 'BUTTON': <class 'gluon.html.BUTTON'>, 'CAT': <class 'gluon.html.CAT'>, 'CENTER': <class 'gluon.html.CENTER'>, 'CLEANUP': <class 'gluon.validators.CLEANUP'>, ...}, layer=r'C:\\Users\\omkara\\Desktop\\web2py\\applications\\SlugBarter\\controllers/default.py')"
p3163
sS'func'
p3164
S'restricted'
p3165
sa(dp3166
g3155
S'C:\\Users\\omkara\\Desktop\\web2py\\gluon\\restricted.py'
p3167
sg3157
(dp3168
sg3159
I189
sg3160
(dp3169
sg3162
S"(code='# -*- coding: utf-8 -*-\\n# this file is released ...ud())\\n\\nresponse._vars=response._caller(register)\\n', layer=r'C:\\Users\\omkara\\Desktop\\web2py\\applications\\SlugBarter\\controllers/default.py')"
p3170
sg3164
S'compile2'
p3171
sasS'pyver'
p3172
S'Python 2.5.4: C:\\Users\\omkara\\Desktop\\web2py\\web2py.exe'
p3173
sS'session'
p3174
g61
(g62
g63
NtRp3175
(dp3176
g66
(dp3177
sg68
(lp3178
g61
(g70
g63
NtRp3179
(dp3180
g66
(dp3181
g74
I5
ssg75
Nsg68
(lp3182
g61
(g77
g63
NtRp3183
(dp3184
g66
(dp3185
sg75
g3179
sg68
(lp3186
g61
(g82
g63
NtRp3187
(dp3188
g66
(dp3189
g86
g87
ssg75
g3183
sg68
(lp3190
S'last_query'
p3191
asbag61
(g82
g63
NtRp3192
(dp3193
g66
(dp3194
g93
g94
ssg75
g3183
sg68
(lp3195
S':'
asbag61
(g82
g63
NtRp3196
(dp3197
g66
(dp3198
sg75
g3183
sg68
(lp3199
g61
(g62
g63
NtRp3200
(dp3201
g66
(dp3202
g74
I5
ssg75
g3196
sg68
(lp3203
S'db.auth_user.id>0'
p3204
asbasbasbasbasbsS'etype'
p3205
S"<type 'exceptions.SyntaxError'>"
p3206
sS'date'
p3207
S'Sat Nov 10 13:29:33 2012'
p3208
sS'response'
p3209
g61
(g62
g63
NtRp3210
(dp3211
g66
(dp3212
sg68
(lp3213
g61
(g70
g63
NtRp3214
(dp3215
g66
(dp3216
g74
I5
ssg75
Nsg68
(lp3217
g61
(g77
g63
NtRp3218
(dp3219
g66
(dp3220
sg75
g3214
sg68
(lp3221
g61
(g82
g63
NtRp3222
(dp3223
g66
(dp3224
g86
g87
ssg75
g3218
sg68
(lp3225
g159
asbag61
(g82
g63
NtRp3226
(dp3227
g66
(dp3228
g93
g94
ssg75
g3218
sg68
(lp3229
S':'
asbag61
(g82
g63
NtRp3230
(dp3231
g66
(dp3232
sg75
g3218
sg68
(lp3233
g61
(g62
g63
NtRp3234
(dp3235
g66
(dp3236
g74
I5
ssg75
g3230
sg68
(lp3237
S'<cStringIO.StringO object at 0x05FEEF60>'
p3238
asbasbasbag61
(g77
g63
NtRp3239
(dp3240
g66
(dp3241
sg75
g3214
sg68
(lp3242
g61
(g82
g63
NtRp3243
(dp3244
g66
(dp3245
g86
g87
ssg75
g3239
sg68
(lp3246
g225
asbag61
(g82
g63
NtRp3247
(dp3248
g66
(dp3249
g93
g94
ssg75
g3239
sg68
(lp3250
S':'
asbag61
(g82
g63
NtRp3251
(dp3252
g66
(dp3253
sg75
g3239
sg68
(lp3254
g61
(g62
g63
NtRp3255
(dp3256
g66
(dp3257
g74
I5
ssg75
g3251
sg68
(lp3258
g61
(g70
g63
NtRp3259
(dp3260
g66
(dp3261
g74
I4
ssg75
Nsg68
(lp3262
g61
(g77
g63
NtRp3263
(dp3264
g66
(dp3265
sg75
g3259
sg68
(lp3266
g61
(g82
g63
NtRp3267
(dp3268
g66
(dp3269
g86
g87
ssg75
g3263
sg68
(lp3270
S'session_id_slugbarter'
p3271
asbag61
(g82
g63
NtRp3272
(dp3273
g66
(dp3274
g93
g94
ssg75
g3263
sg68
(lp3275
S':'
asbag61
(g82
g63
NtRp3276
(dp3277
g66
(dp3278
sg75
g3263
sg68
(lp3279
g61
(g62
g63
NtRp3280
(dp3281
g66
(dp3282
g74
I4
ssg75
g3276
sg68
(lp3283
g61
(g70
g63
NtRp3284
(dp3285
g66
(dp3286
g74
I3
ssg75
Nsg68
(lp3287
g61
(g77
g63
NtRp3288
(dp3289
g66
(dp3290
sg75
g3284
sg68
(lp3291
g61
(g82
g63
NtRp3292
(dp3293
g66
(dp3294
g86
g87
ssg75
g3288
sg68
(lp3295
g275
asbag61
(g82
g63
NtRp3296
(dp3297
g66
(dp3298
g93
g94
ssg75
g3288
sg68
(lp3299
S':'
asbag61
(g82
g63
NtRp3300
(dp3301
g66
(dp3302
sg75
g3288
sg68
(lp3303
g61
(g62
g63
NtRp3304
(dp3305
g66
(dp3306
g74
I3
ssg75
g3300
sg68
(lp3307
S''
asbasbasbag61
(g77
g63
NtRp3308
(dp3309
g66
(dp3310
sg75
g3284
sg68
(lp3311
g61
(g82
g63
NtRp3312
(dp3313
g66
(dp3314
g86
g87
ssg75
g3308
sg68
(lp3315
g296
asbag61
(g82
g63
NtRp3316
(dp3317
g66
(dp3318
g93
g94
ssg75
g3308
sg68
(lp3319
S':'
asbag61
(g82
g63
NtRp3320
(dp3321
g66
(dp3322
sg75
g3308
sg68
(lp3323
g61
(g62
g63
NtRp3324
(dp3325
g66
(dp3326
g74
I3
ssg75
g3320
sg68
(lp3327
S''
asbasbasbag61
(g77
g63
NtRp3328
(dp3329
g66
(dp3330
sg75
g3284
sg68
(lp3331
g61
(g82
g63
NtRp3332
(dp3333
g66
(dp3334
g86
g87
ssg75
g3328
sg68
(lp3335
g317
asbag61
(g82
g63
NtRp3336
(dp3337
g66
(dp3338
g93
g94
ssg75
g3328
sg68
(lp3339
S':'
asbag61
(g82
g63
NtRp3340
(dp3341
g66
(dp3342
sg75
g3328
sg68
(lp3343
g61
(g62
g63
NtRp3344
(dp3345
g66
(dp3346
g74
I3
ssg75
g3340
sg68
(lp3347
S''
asbasbasbag61
(g77
g63
NtRp3348
(dp3349
g66
(dp3350
sg75
g3284
sg68
(lp3351
g61
(g82
g63
NtRp3352
(dp3353
g66
(dp3354
g86
g87
ssg75
g3348
sg68
(lp3355
g338
asbag61
(g82
g63
NtRp3356
(dp3357
g66
(dp3358
g93
g94
ssg75
g3348
sg68
(lp3359
S':'
asbag61
(g82
g63
NtRp3360
(dp3361
g66
(dp3362
sg75
g3348
sg68
(lp3363
g61
(g62
g63
NtRp3364
(dp3365
g66
(dp3366
g74
I3
ssg75
g3360
sg68
(lp3367
S''
asbasbasbag61
(g77
g63
NtRp3368
(dp3369
g66
(dp3370
sg75
g3284
sg68
(lp3371
g61
(g82
g63
NtRp3372
(dp3373
g66
(dp3374
g86
g87
ssg75
g3368
sg68
(lp3375
g359
asbag61
(g82
g63
NtRp3376
(dp3377
g66
(dp3378
g93
g94
ssg75
g3368
sg68
(lp3379
S':'
asbag61
(g82
g63
NtRp3380
(dp3381
g66
(dp3382
sg75
g3368
sg68
(lp3383
g61
(g62
g63
NtRp3384
(dp3385
g66
(dp3386
g74
I3
ssg75
g3380
sg68
(lp3387
S'/'
asbasbasbag61
(g77
g63
NtRp3388
(dp3389
g66
(dp3390
sg75
g3284
sg68
(lp3391
g61
(g82
g63
NtRp3392
(dp3393
g66
(dp3394
g86
g87
ssg75
g3388
sg68
(lp3395
g380
asbag61
(g82
g63
NtRp3396
(dp3397
g66
(dp3398
g93
g94
ssg75
g3388
sg68
(lp3399
S':'
asbag61
(g82
g63
NtRp3400
(dp3401
g66
(dp3402
sg75
g3388
sg68
(lp3403
g61
(g62
g63
NtRp3404
(dp3405
g66
(dp3406
g74
I3
ssg75
g3400
sg68
(lp3407
S''
asbasbasbag61
(g77
g63
NtRp3408
(dp3409
g66
(dp3410
sg75
g3284
sg68
(lp3411
g61
(g82
g63
NtRp3412
(dp3413
g66
(dp3414
g86
g87
ssg75
g3408
sg68
(lp3415
g401
asbag61
(g82
g63
NtRp3416
(dp3417
g66
(dp3418
g93
g94
ssg75
g3408
sg68
(lp3419
S':'
asbag61
(g82
g63
NtRp3420
(dp3421
g66
(dp3422
sg75
g3408
sg68
(lp3423
g61
(g62
g63
NtRp3424
(dp3425
g66
(dp3426
g74
I3
ssg75
g3420
sg68
(lp3427
S''
asbasbasbasbasbasbasbasbasbasbasbag61
(g77
g63
NtRp3428
(dp3429
g66
(dp3430
sg75
g3214
sg68
(lp3431
g61
(g82
g63
NtRp3432
(dp3433
g66
(dp3434
g86
g87
ssg75
g3428
sg68
(lp3435
S'delimiters'
p3436
asbag61
(g82
g63
NtRp3437
(dp3438
g66
(dp3439
g93
g94
ssg75
g3428
sg68
(lp3440
S':'
asbag61
(g82
g63
NtRp3441
(dp3442
g66
(dp3443
sg75
g3428
sg68
(lp3444
g61
(g62
g63
NtRp3445
(dp3446
g66
(dp3447
g74
I5
ssg75
g3441
sg68
(lp3448
g61
(g70
g63
NtRp3449
(dp3450
g66
(dp3451
g74
I4
ssg75
Nsg68
(lp3452
g61
(g77
g63
NtRp3453
(dp3454
g66
(dp3455
sg75
g3449
sg68
(lp3456
g61
(g82
g63
NtRp3457
(dp3458
g66
(dp3459
sg75
g3453
sg68
(lp3460
g61
(g62
g63
NtRp3461
(dp3462
g66
(dp3463
g74
I4
ssg75
g3457
sg68
(lp3464
S'{{'
p3465
asbasbasbag61
(g77
g63
NtRp3466
(dp3467
g66
(dp3468
sg75
g3449
sg68
(lp3469
g61
(g82
g63
NtRp3470
(dp3471
g66
(dp3472
sg75
g3466
sg68
(lp3473
g61
(g62
g63
NtRp3474
(dp3475
g66
(dp3476
g74
I4
ssg75
g3470
sg68
(lp3477
S'}}'
p3478
asbasbasbasbasbasbasbag61
(g77
g63
NtRp3479
(dp3480
g66
(dp3481
sg75
g3214
sg68
(lp3482
g61
(g82
g63
NtRp3483
(dp3484
g66
(dp3485
g86
g87
ssg75
g3479
sg68
(lp3486
S'files'
p3487
asbag61
(g82
g63
NtRp3488
(dp3489
g66
(dp3490
g93
g94
ssg75
g3479
sg68
(lp3491
S':'
asbag61
(g82
g63
NtRp3492
(dp3493
g66
(dp3494
sg75
g3479
sg68
(lp3495
g61
(g62
g63
NtRp3496
(dp3497
g66
(dp3498
g74
I5
ssg75
g3492
sg68
(lp3499
g61
(g70
g63
NtRp3500
(dp3501
g66
(dp3502
g74
I4
ssg75
Nsg68
(lp3503
sbasbasbasbag61
(g77
g63
NtRp3504
(dp3505
g66
(dp3506
sg75
g3214
sg68
(lp3507
g61
(g82
g63
NtRp3508
(dp3509
g66
(dp3510
g86
g87
ssg75
g3504
sg68
(lp3511
S'flash'
p3512
asbag61
(g82
g63
NtRp3513
(dp3514
g66
(dp3515
g93
g94
ssg75
g3504
sg68
(lp3516
S':'
asbag61
(g82
g63
NtRp3517
(dp3518
g66
(dp3519
sg75
g3504
sg68
(lp3520
g61
(g62
g63
NtRp3521
(dp3522
g66
(dp3523
g74
I5
ssg75
g3517
sg68
(lp3524
S''
asbasbasbag61
(g77
g63
NtRp3525
(dp3526
g66
(dp3527
sg75
g3214
sg68
(lp3528
g61
(g82
g63
NtRp3529
(dp3530
g66
(dp3531
g86
g87
ssg75
g3525
sg68
(lp3532
S'generic_patterns'
p3533
asbag61
(g82
g63
NtRp3534
(dp3535
g66
(dp3536
g93
g94
ssg75
g3525
sg68
(lp3537
S':'
asbag61
(g82
g63
NtRp3538
(dp3539
g66
(dp3540
sg75
g3525
sg68
(lp3541
g61
(g62
g63
NtRp3542
(dp3543
g66
(dp3544
g74
I5
ssg75
g3538
sg68
(lp3545
g61
(g70
g63
NtRp3546
(dp3547
g66
(dp3548
g74
I4
ssg75
Nsg68
(lp3549
g61
(g77
g63
NtRp3550
(dp3551
g66
(dp3552
sg75
g3546
sg68
(lp3553
g61
(g82
g63
NtRp3554
(dp3555
g66
(dp3556
sg75
g3550
sg68
(lp3557
g61
(g62
g63
NtRp3558
(dp3559
g66
(dp3560
g74
I4
ssg75
g3554
sg68
(lp3561
S'*'
asbasbasbasbasbasbasbag61
(g77
g63
NtRp3562
(dp3563
g66
(dp3564
sg75
g3214
sg68
(lp3565
g61
(g82
g63
NtRp3566
(dp3567
g66
(dp3568
g86
g87
ssg75
g3562
sg68
(lp3569
S'headers'
p3570
asbag61
(g82
g63
NtRp3571
(dp3572
g66
(dp3573
g93
g94
ssg75
g3562
sg68
(lp3574
S':'
asbag61
(g82
g63
NtRp3575
(dp3576
g66
(dp3577
sg75
g3562
sg68
(lp3578
g61
(g62
g63
NtRp3579
(dp3580
g66
(dp3581
g74
I5
ssg75
g3575
sg68
(lp3582
g61
(g70
g63
NtRp3583
(dp3584
g66
(dp3585
g74
I4
ssg75
Nsg68
(lp3586
g61
(g77
g63
NtRp3587
(dp3588
g66
(dp3589
sg75
g3583
sg68
(lp3590
g61
(g82
g63
NtRp3591
(dp3592
g66
(dp3593
g86
g87
ssg75
g3587
sg68
(lp3594
S'Cache-Control'
p3595
asbag61
(g82
g63
NtRp3596
(dp3597
g66
(dp3598
g93
g94
ssg75
g3587
sg68
(lp3599
S':'
asbag61
(g82
g63
NtRp3600
(dp3601
g66
(dp3602
sg75
g3587
sg68
(lp3603
g61
(g62
g63
NtRp3604
(dp3605
g66
(dp3606
g74
I4
ssg75
g3600
sg68
(lp3607
S'no-store, no-cache, must-revalidate, post-check=0, pre-check=0'
p3608
asbasbasbag61
(g77
g63
NtRp3609
(dp3610
g66
(dp3611
sg75
g3583
sg68
(lp3612
g61
(g82
g63
NtRp3613
(dp3614
g66
(dp3615
g86
g87
ssg75
g3609
sg68
(lp3616
S'Content-Type'
p3617
asbag61
(g82
g63
NtRp3618
(dp3619
g66
(dp3620
g93
g94
ssg75
g3609
sg68
(lp3621
S':'
asbag61
(g82
g63
NtRp3622
(dp3623
g66
(dp3624
sg75
g3609
sg68
(lp3625
g61
(g62
g63
NtRp3626
(dp3627
g66
(dp3628
g74
I4
ssg75
g3622
sg68
(lp3629
S'text/html; charset=utf-8'
p3630
asbasbasbag61
(g77
g63
NtRp3631
(dp3632
g66
(dp3633
sg75
g3583
sg68
(lp3634
g61
(g82
g63
NtRp3635
(dp3636
g66
(dp3637
g86
g87
ssg75
g3631
sg68
(lp3638
S'Expires'
p3639
asbag61
(g82
g63
NtRp3640
(dp3641
g66
(dp3642
g93
g94
ssg75
g3631
sg68
(lp3643
S':'
asbag61
(g82
g63
NtRp3644
(dp3645
g66
(dp3646
sg75
g3631
sg68
(lp3647
g61
(g62
g63
NtRp3648
(dp3649
g66
(dp3650
g74
I4
ssg75
g3644
sg68
(lp3651
S'Sat, 10 Nov 2012 21:29:33 GMT'
p3652
asbasbasbag61
(g77
g63
NtRp3653
(dp3654
g66
(dp3655
sg75
g3583
sg68
(lp3656
g61
(g82
g63
NtRp3657
(dp3658
g66
(dp3659
g86
g87
ssg75
g3653
sg68
(lp3660
S'Pragma'
p3661
asbag61
(g82
g63
NtRp3662
(dp3663
g66
(dp3664
g93
g94
ssg75
g3653
sg68
(lp3665
S':'
asbag61
(g82
g63
NtRp3666
(dp3667
g66
(dp3668
sg75
g3653
sg68
(lp3669
g61
(g62
g63
NtRp3670
(dp3671
g66
(dp3672
g74
I4
ssg75
g3666
sg68
(lp3673
S'no-cache'
p3674
asbasbasbag61
(g77
g63
NtRp3675
(dp3676
g66
(dp3677
sg75
g3583
sg68
(lp3678
g61
(g82
g63
NtRp3679
(dp3680
g66
(dp3681
g86
g87
ssg75
g3675
sg68
(lp3682
S'X-Powered-By'
p3683
asbag61
(g82
g63
NtRp3684
(dp3685
g66
(dp3686
g93
g94
ssg75
g3675
sg68
(lp3687
S':'
asbag61
(g82
g63
NtRp3688
(dp3689
g66
(dp3690
sg75
g3675
sg68
(lp3691
g61
(g62
g63
NtRp3692
(dp3693
g66
(dp3694
g74
I4
ssg75
g3688
sg68
(lp3695
S'web2py'
p3696
asbasbasbasbasbasbasbag61
(g77
g63
NtRp3697
(dp3698
g66
(dp3699
sg75
g3214
sg68
(lp3700
g61
(g82
g63
NtRp3701
(dp3702
g66
(dp3703
g86
g87
ssg75
g3697
sg68
(lp3704
S'menu'
p3705
asbag61
(g82
g63
NtRp3706
(dp3707
g66
(dp3708
g93
g94
ssg75
g3697
sg68
(lp3709
S':'
asbag61
(g82
g63
NtRp3710
(dp3711
g66
(dp3712
sg75
g3697
sg68
(lp3713
g61
(g62
g63
NtRp3714
(dp3715
g66
(dp3716
g74
I5
ssg75
g3710
sg68
(lp3717
g61
(g70
g63
NtRp3718
(dp3719
g66
(dp3720
g74
I4
ssg75
Nsg68
(lp3721
g61
(g77
g63
NtRp3722
(dp3723
g66
(dp3724
sg75
g3718
sg68
(lp3725
g61
(g82
g63
NtRp3726
(dp3727
g66
(dp3728
sg75
g3722
sg68
(lp3729
g61
(g62
g63
NtRp3730
(dp3731
g66
(dp3732
g74
I4
ssg75
g3726
sg68
(lp3733
g61
(g70
g63
NtRp3734
(dp3735
g66
(dp3736
g74
I3
ssg75
Nsg68
(lp3737
g61
(g77
g63
NtRp3738
(dp3739
g66
(dp3740
sg75
g3734
sg68
(lp3741
g61
(g82
g63
NtRp3742
(dp3743
g66
(dp3744
sg75
g3738
sg68
(lp3745
g61
(g62
g63
NtRp3746
(dp3747
g66
(dp3748
g74
I3
ssg75
g3742
sg68
(lp3749
cgluon.languages
lazyT_unpickle
p3750
(S's\x04\x00\x00\x00Home'
tRp3751
asbasbasbag61
(g77
g63
NtRp3752
(dp3753
g66
(dp3754
sg75
g3734
sg68
(lp3755
g61
(g82
g63
NtRp3756
(dp3757
g66
(dp3758
sg75
g3752
sg68
(lp3759
g61
(g62
g63
NtRp3760
(dp3761
g66
(dp3762
g74
I3
ssg75
g3756
sg68
(lp3763
g104
asbasbasbag61
(g77
g63
NtRp3764
(dp3765
g66
(dp3766
sg75
g3734
sg68
(lp3767
g61
(g82
g63
NtRp3768
(dp3769
g66
(dp3770
sg75
g3764
sg68
(lp3771
g61
(g62
g63
NtRp3772
(dp3773
g66
(dp3774
g74
I3
ssg75
g3768
sg68
(lp3775
S'/SlugBarter/default/index'
p3776
asbasbasbag61
(g77
g63
NtRp3777
(dp3778
g66
(dp3779
sg75
g3734
sg68
(lp3780
g61
(g82
g63
NtRp3781
(dp3782
g66
(dp3783
sg75
g3777
sg68
(lp3784
g61
(g62
g63
NtRp3785
(dp3786
g66
(dp3787
g74
I3
ssg75
g3781
sg68
(lp3788
g61
(g70
g63
NtRp3789
(dp3790
g66
(dp3791
g74
I2
ssg75
Nsg68
(lp3792
sbasbasbasbasbasbasbasbag61
(g77
g63
NtRp3793
(dp3794
g66
(dp3795
sg75
g3718
sg68
(lp3796
g61
(g82
g63
NtRp3797
(dp3798
g66
(dp3799
sg75
g3793
sg68
(lp3800
g61
(g62
g63
NtRp3801
(dp3802
g66
(dp3803
g74
I4
ssg75
g3797
sg68
(lp3804
g61
(g70
g63
NtRp3805
(dp3806
g66
(dp3807
g74
I3
ssg75
Nsg68
(lp3808
g61
(g77
g63
NtRp3809
(dp3810
g66
(dp3811
sg75
g3805
sg68
(lp3812
g61
(g82
g63
NtRp3813
(dp3814
g66
(dp3815
sg75
g3809
sg68
(lp3816
g61
(g62
g63
NtRp3817
(dp3818
g66
(dp3819
g74
I3
ssg75
g3813
sg68
(lp3820
g61
(cgluon.html
SPAN
p3821
g63
NtRp3822
(dp3823
g66
(dp3824
g86
S'color:yellow'
p3825
ssg75
Nsg68
(lp3826
g3696
asbasbasbasbag61
(g77
g63
NtRp3827
(dp3828
g66
(dp3829
sg75
g3805
sg68
(lp3830
g61
(g82
g63
NtRp3831
(dp3832
g66
(dp3833
sg75
g3827
sg68
(lp3834
g61
(g62
g63
NtRp3835
(dp3836
g66
(dp3837
g74
I3
ssg75
g3831
sg68
(lp3838
g104
asbasbasbag61
(g77
g63
NtRp3839
(dp3840
g66
(dp3841
sg75
g3805
sg68
(lp3842
g61
(g82
g63
NtRp3843
(dp3844
g66
(dp3845
sg75
g3839
sg68
(lp3846
g61
(g62
g63
NtRp3847
(dp3848
g66
(dp3849
g74
I3
ssg75
g3843
sg68
(lp3850
S'None'
p3851
asbasbasbag61
(g77
g63
NtRp3852
(dp3853
g66
(dp3854
sg75
g3805
sg68
(lp3855
g61
(g82
g63
NtRp3856
(dp3857
g66
(dp3858
sg75
g3852
sg68
(lp3859
g61
(g62
g63
NtRp3860
(dp3861
g66
(dp3862
g74
I3
ssg75
g3856
sg68
(lp3863
g61
(g70
g63
NtRp3864
(dp3865
g66
(dp3866
g74
I2
ssg75
Nsg68
(lp3867
g61
(g77
g63
NtRp3868
(dp3869
g66
(dp3870
sg75
g3864
sg68
(lp3871
g61
(g82
g63
NtRp3872
(dp3873
g66
(dp3874
sg75
g3868
sg68
(lp3875
g61
(g62
g63
NtRp3876
(dp3877
g66
(dp3878
g74
I2
ssg75
g3872
sg68
(lp3879
g61
(g70
g63
NtRp3880
(dp3881
g66
(dp3882
g74
I1
ssg75
Nsg68
(lp3883
g61
(g77
g63
NtRp3884
(dp3885
g66
(dp3886
sg75
g3880
sg68
(lp3887
g61
(g82
g63
NtRp3888
(dp3889
g66
(dp3890
sg75
g3884
sg68
(lp3891
g61
(g62
g63
NtRp3892
(dp3893
g66
(dp3894
g74
I1
ssg75
g3888
sg68
(lp3895
g3750
(S's\x08\x00\x00\x00My Sites'
tRp3896
asbasbasbag61
(g77
g63
NtRp3897
(dp3898
g66
(dp3899
sg75
g3880
sg68
(lp3900
g61
(g82
g63
NtRp3901
(dp3902
g66
(dp3903
sg75
g3897
sg68
(lp3904
g61
(g62
g63
NtRp3905
(dp3906
g66
(dp3907
g74
I1
ssg75
g3901
sg68
(lp3908
I00
asbasbasbag61
(g77
g63
NtRp3909
(dp3910
g66
(dp3911
sg75
g3880
sg68
(lp3912
g61
(g82
g63
NtRp3913
(dp3914
g66
(dp3915
sg75
g3909
sg68
(lp3916
g61
(g62
g63
NtRp3917
(dp3918
g66
(dp3919
g74
I1
ssg75
g3913
sg68
(lp3920
S'/admin/default/site'
p3921
asbasbasbasbasbasbasbag61
(g77
g63
NtRp3922
(dp3923
g66
(dp3924
sg75
g3864
sg68
(lp3925
g61
(g82
g63
NtRp3926
(dp3927
g66
(dp3928
sg75
g3922
sg68
(lp3929
g61
(g62
g63
NtRp3930
(dp3931
g66
(dp3932
g74
I2
ssg75
g3926
sg68
(lp3933
g61
(g70
g63
NtRp3934
(dp3935
g66
(dp3936
g74
I1
ssg75
Nsg68
(lp3937
g61
(g77
g63
NtRp3938
(dp3939
g66
(dp3940
sg75
g3934
sg68
(lp3941
g61
(g82
g63
NtRp3942
(dp3943
g66
(dp3944
sg75
g3938
sg68
(lp3945
g61
(g62
g63
NtRp3946
(dp3947
g66
(dp3948
g74
I1
ssg75
g3942
sg68
(lp3949
g3750
(S's\x08\x00\x00\x00This App'
tRp3950
asbasbasbag61
(g77
g63
NtRp3951
(dp3952
g66
(dp3953
sg75
g3934
sg68
(lp3954
g61
(g82
g63
NtRp3955
(dp3956
g66
(dp3957
sg75
g3951
sg68
(lp3958
g61
(g62
g63
NtRp3959
(dp3960
g66
(dp3961
g74
I1
ssg75
g3955
sg68
(lp3962
I00
asbasbasbag61
(g77
g63
NtRp3963
(dp3964
g66
(dp3965
sg75
g3934
sg68
(lp3966
g61
(g82
g63
NtRp3967
(dp3968
g66
(dp3969
sg75
g3963
sg68
(lp3970
g61
(g62
g63
NtRp3971
(dp3972
g66
(dp3973
g74
I1
ssg75
g3967
sg68
(lp3974
S'/admin/default/design/SlugBarter'
p3975
asbasbasbag61
(g77
g63
NtRp3976
(dp3977
g66
(dp3978
sg75
g3934
sg68
(lp3979
g61
(g82
g63
NtRp3980
(dp3981
g66
(dp3982
sg75
g3976
sg68
(lp3983
g61
(g62
g63
NtRp3984
(dp3985
g66
(dp3986
g74
I1
ssg75
g3980
sg68
(lp3987
(lp3988
(g3750
(S's\n\x00\x00\x00Controller'
tRp3989
I00
S'/admin/default/edit/SlugBarter/controllers/default.py'
tp3990
a(g3750
(S's\x04\x00\x00\x00View'
tRp3991
I00
S'/admin/default/edit/SlugBarter/views/default/register.html'
tp3992
a(g3750
(S's\x06\x00\x00\x00Layout'
tRp3993
I00
S'/admin/default/edit/SlugBarter/views/layout.html'
tp3994
a(g3750
(S's\n\x00\x00\x00Stylesheet'
tRp3995
I00
S'/admin/default/edit/SlugBarter/static/css/web2py.css'
tp3996
a(g3750
(S's\x08\x00\x00\x00DB Model'
tRp3997
I00
S'/admin/default/edit/SlugBarter/models/db.py'
tp3998
a(g3750
(S's\n\x00\x00\x00Menu Model'
tRp3999
I00
S'/admin/default/edit/SlugBarter/models/menu.py'
tp4000
a(g3750
(S's\x08\x00\x00\x00Database'
tRp4001
I00
S'/SlugBarter/appadmin/index'
tp4002
a(g3750
(S's\x06\x00\x00\x00Errors'
tRp4003
I00
S'/admin/default/errors/SlugBarter'
tp4004
a(g3750
(S's\x05\x00\x00\x00About'
tRp4005
I00
S'/admin/default/about/SlugBarter'
tp4006
aasbasbasbasbasbasbasbag61
(g77
g63
NtRp4007
(dp4008
g66
(dp4009
sg75
g3864
sg68
(lp4010
g61
(g82
g63
NtRp4011
(dp4012
g66
(dp4013
sg75
g4007
sg68
(lp4014
g61
(g62
g63
NtRp4015
(dp4016
g66
(dp4017
g74
I2
ssg75
g4011
sg68
(lp4018
g61
(g70
g63
NtRp4019
(dp4020
g66
(dp4021
g74
I1
ssg75
Nsg68
(lp4022
g61
(g77
g63
NtRp4023
(dp4024
g66
(dp4025
sg75
g4019
sg68
(lp4026
g61
(g82
g63
NtRp4027
(dp4028
g66
(dp4029
sg75
g4023
sg68
(lp4030
g61
(g62
g63
NtRp4031
(dp4032
g66
(dp4033
g74
I1
ssg75
g4027
sg68
(lp4034
S'web2py.com'
p4035
asbasbasbag61
(g77
g63
NtRp4036
(dp4037
g66
(dp4038
sg75
g4019
sg68
(lp4039
g61
(g82
g63
NtRp4040
(dp4041
g66
(dp4042
sg75
g4036
sg68
(lp4043
g61
(g62
g63
NtRp4044
(dp4045
g66
(dp4046
g74
I1
ssg75
g4040
sg68
(lp4047
I00
asbasbasbag61
(g77
g63
NtRp4048
(dp4049
g66
(dp4050
sg75
g4019
sg68
(lp4051
g61
(g82
g63
NtRp4052
(dp4053
g66
(dp4054
sg75
g4048
sg68
(lp4055
g61
(g62
g63
NtRp4056
(dp4057
g66
(dp4058
g74
I1
ssg75
g4052
sg68
(lp4059
S'http://www.web2py.com'
p4060
asbasbasbag61
(g77
g63
NtRp4061
(dp4062
g66
(dp4063
sg75
g4019
sg68
(lp4064
g61
(g82
g63
NtRp4065
(dp4066
g66
(dp4067
sg75
g4061
sg68
(lp4068
g61
(g62
g63
NtRp4069
(dp4070
g66
(dp4071
g74
I1
ssg75
g4065
sg68
(lp4072
(lp4073
(g3750
(S's\x08\x00\x00\x00Download'
tRp4074
I00
S'http://www.web2py.com/examples/default/download'
p4075
tp4076
a(g3750
(S's\x07\x00\x00\x00Support'
tRp4077
I00
S'http://www.web2py.com/examples/default/support'
p4078
tp4079
a(g3750
(S's\x04\x00\x00\x00Demo'
tRp4080
I00
S'http://web2py.com/demo_admin'
p4081
tp4082
a(g3750
(S's\x0e\x00\x00\x00Quick Examples'
tRp4083
I00
S'http://web2py.com/examples/default/examples'
p4084
tp4085
a(g3750
(S's\x03\x00\x00\x00FAQ'
tRp4086
I00
S'http://web2py.com/AlterEgo'
p4087
tp4088
a(g3750
(S's\x06\x00\x00\x00Videos'
tRp4089
I00
S'http://www.web2py.com/examples/default/videos/'
p4090
tp4091
a(g3750
(S's\x11\x00\x00\x00Free Applications'
tRp4092
I00
S'http://web2py.com/appliances'
p4093
tp4094
a(g3750
(S's\x07\x00\x00\x00Plugins'
tRp4095
I00
S'http://web2py.com/plugins'
p4096
tp4097
a(g3750
(S's\x07\x00\x00\x00Layouts'
tRp4098
I00
S'http://web2py.com/layouts'
p4099
tp4100
a(g3750
(S's\x07\x00\x00\x00Recipes'
tRp4101
I00
S'http://web2pyslices.com/'
p4102
tp4103
a(g3750
(S's\x08\x00\x00\x00Semantic'
tRp4104
I00
S'http://web2py.com/semantic'
p4105
tp4106
aasbasbasbasbasbasbasbag61
(g77
g63
NtRp4107
(dp4108
g66
(dp4109
sg75
g3864
sg68
(lp4110
g61
(g82
g63
NtRp4111
(dp4112
g66
(dp4113
sg75
g4107
sg68
(lp4114
g61
(g62
g63
NtRp4115
(dp4116
g66
(dp4117
g74
I2
ssg75
g4111
sg68
(lp4118
g61
(g70
g63
NtRp4119
(dp4120
g66
(dp4121
g74
I1
ssg75
Nsg68
(lp4122
g61
(g77
g63
NtRp4123
(dp4124
g66
(dp4125
sg75
g4119
sg68
(lp4126
g61
(g82
g63
NtRp4127
(dp4128
g66
(dp4129
sg75
g4123
sg68
(lp4130
g61
(g62
g63
NtRp4131
(dp4132
g66
(dp4133
g74
I1
ssg75
g4127
sg68
(lp4134
g3750
(S's\r\x00\x00\x00Documentation'
tRp4135
asbasbasbag61
(g77
g63
NtRp4136
(dp4137
g66
(dp4138
sg75
g4119
sg68
(lp4139
g61
(g82
g63
NtRp4140
(dp4141
g66
(dp4142
sg75
g4136
sg68
(lp4143
g61
(g62
g63
NtRp4144
(dp4145
g66
(dp4146
g74
I1
ssg75
g4140
sg68
(lp4147
I00
asbasbasbag61
(g77
g63
NtRp4148
(dp4149
g66
(dp4150
sg75
g4119
sg68
(lp4151
g61
(g82
g63
NtRp4152
(dp4153
g66
(dp4154
sg75
g4148
sg68
(lp4155
g61
(g62
g63
NtRp4156
(dp4157
g66
(dp4158
g74
I1
ssg75
g4152
sg68
(lp4159
S'http://www.web2py.com/book'
p4160
asbasbasbag61
(g77
g63
NtRp4161
(dp4162
g66
(dp4163
sg75
g4119
sg68
(lp4164
g61
(g82
g63
NtRp4165
(dp4166
g66
(dp4167
sg75
g4161
sg68
(lp4168
g61
(g62
g63
NtRp4169
(dp4170
g66
(dp4171
g74
I1
ssg75
g4165
sg68
(lp4172
(lp4173
(g3750
(S's\x07\x00\x00\x00Preface'
tRp4174
I00
S'http://www.web2py.com/book/default/chapter/00'
p4175
tp4176
a(g3750
(S's\x0c\x00\x00\x00Introduction'
tRp4177
I00
S'http://www.web2py.com/book/default/chapter/01'
p4178
tp4179
a(g3750
(S's\x06\x00\x00\x00Python'
tRp4180
I00
S'http://www.web2py.com/book/default/chapter/02'
p4181
tp4182
a(g3750
(S's\x08\x00\x00\x00Overview'
tRp4183
I00
S'http://www.web2py.com/book/default/chapter/03'
p4184
tp4185
a(g3750
(S's\x08\x00\x00\x00The Core'
tRp4186
I00
S'http://www.web2py.com/book/default/chapter/04'
p4187
tp4188
a(g3750
(S's\t\x00\x00\x00The Views'
tRp4189
I00
S'http://www.web2py.com/book/default/chapter/05'
p4190
tp4191
a(g3750
(S's\x08\x00\x00\x00Database'
tRp4192
I00
S'http://www.web2py.com/book/default/chapter/06'
p4193
tp4194
a(g3750
(S's\x14\x00\x00\x00Forms and Validators'
tRp4195
I00
S'http://www.web2py.com/book/default/chapter/07'
p4196
tp4197
a(g3750
(S's\r\x00\x00\x00Email and SMS'
tRp4198
I00
S'http://www.web2py.com/book/default/chapter/08'
p4199
tp4200
a(g3750
(S's\x0e\x00\x00\x00Access Control'
tRp4201
I00
S'http://www.web2py.com/book/default/chapter/09'
p4202
tp4203
a(g3750
(S's\x08\x00\x00\x00Services'
tRp4204
I00
S'http://www.web2py.com/book/default/chapter/10'
p4205
tp4206
a(g3750
(S's\x0c\x00\x00\x00Ajax Recipes'
tRp4207
I00
S'http://www.web2py.com/book/default/chapter/11'
p4208
tp4209
a(g3750
(S's\x16\x00\x00\x00Components and Plugins'
tRp4210
I00
S'http://www.web2py.com/book/default/chapter/12'
p4211
tp4212
a(g3750
(S's\x12\x00\x00\x00Deployment Recipes'
tRp4213
I00
S'http://www.web2py.com/book/default/chapter/13'
p4214
tp4215
a(g3750
(S's\r\x00\x00\x00Other Recipes'
tRp4216
I00
S'http://www.web2py.com/book/default/chapter/14'
p4217
tp4218
a(g3750
(S's\r\x00\x00\x00Buy this book'
tRp4219
I00
S'http://stores.lulu.com/web2py'
p4220
tp4221
aasbasbasbasbasbasbasbag61
(g77
g63
NtRp4222
(dp4223
g66
(dp4224
sg75
g3864
sg68
(lp4225
g61
(g82
g63
NtRp4226
(dp4227
g66
(dp4228
sg75
g4222
sg68
(lp4229
g61
(g62
g63
NtRp4230
(dp4231
g66
(dp4232
g74
I2
ssg75
g4226
sg68
(lp4233
g61
(g70
g63
NtRp4234
(dp4235
g66
(dp4236
g74
I1
ssg75
Nsg68
(lp4237
g61
(g77
g63
NtRp4238
(dp4239
g66
(dp4240
sg75
g4234
sg68
(lp4241
g61
(g82
g63
NtRp4242
(dp4243
g66
(dp4244
sg75
g4238
sg68
(lp4245
g61
(g62
g63
NtRp4246
(dp4247
g66
(dp4248
g74
I1
ssg75
g4242
sg68
(lp4249
g3750
(S's\t\x00\x00\x00Community'
tRp4250
asbasbasbag61
(g77
g63
NtRp4251
(dp4252
g66
(dp4253
sg75
g4234
sg68
(lp4254
g61
(g82
g63
NtRp4255
(dp4256
g66
(dp4257
sg75
g4251
sg68
(lp4258
g61
(g62
g63
NtRp4259
(dp4260
g66
(dp4261
g74
I1
ssg75
g4255
sg68
(lp4262
I00
asbasbasbag61
(g77
g63
NtRp4263
(dp4264
g66
(dp4265
sg75
g4234
sg68
(lp4266
g61
(g82
g63
NtRp4267
(dp4268
g66
(dp4269
sg75
g4263
sg68
(lp4270
g61
(g62
g63
NtRp4271
(dp4272
g66
(dp4273
g74
I1
ssg75
g4267
sg68
(lp4274
Nasbasbasbag61
(g77
g63
NtRp4275
(dp4276
g66
(dp4277
sg75
g4234
sg68
(lp4278
g61
(g82
g63
NtRp4279
(dp4280
g66
(dp4281
sg75
g4275
sg68
(lp4282
g61
(g62
g63
NtRp4283
(dp4284
g66
(dp4285
g74
I1
ssg75
g4279
sg68
(lp4286
(lp4287
(g3750
(S's\x06\x00\x00\x00Groups'
tRp4288
I00
S'http://www.web2py.com/examples/default/usergroups'
p4289
tp4290
a(g3750
(S's\x07\x00\x00\x00Twitter'
tRp4291
I00
S'http://twitter.com/web2py'
p4292
tp4293
a(g3750
(S's\t\x00\x00\x00Live Chat'
tRp4294
I00
S'http://webchat.freenode.net/?channels=web2py'
p4295
tp4296
aasbasbasbasbasbasbasbag61
(g77
g63
NtRp4297
(dp4298
g66
(dp4299
sg75
g3864
sg68
(lp4300
g61
(g82
g63
NtRp4301
(dp4302
g66
(dp4303
sg75
g4297
sg68
(lp4304
g61
(g62
g63
NtRp4305
(dp4306
g66
(dp4307
g74
I2
ssg75
g4301
sg68
(lp4308
g61
(g70
g63
NtRp4309
(dp4310
g66
(dp4311
g74
I1
ssg75
Nsg68
(lp4312
g61
(g77
g63
NtRp4313
(dp4314
g66
(dp4315
sg75
g4309
sg68
(lp4316
g61
(g82
g63
NtRp4317
(dp4318
g66
(dp4319
sg75
g4313
sg68
(lp4320
g61
(g62
g63
NtRp4321
(dp4322
g66
(dp4323
g74
I1
ssg75
g4317
sg68
(lp4324
g3750
(S's\x07\x00\x00\x00Plugins'
tRp4325
asbasbasbag61
(g77
g63
NtRp4326
(dp4327
g66
(dp4328
sg75
g4309
sg68
(lp4329
g61
(g82
g63
NtRp4330
(dp4331
g66
(dp4332
sg75
g4326
sg68
(lp4333
g61
(g62
g63
NtRp4334
(dp4335
g66
(dp4336
g74
I1
ssg75
g4330
sg68
(lp4337
I00
asbasbasbag61
(g77
g63
NtRp4338
(dp4339
g66
(dp4340
sg75
g4309
sg68
(lp4341
g61
(g82
g63
NtRp4342
(dp4343
g66
(dp4344
sg75
g4338
sg68
(lp4345
g61
(g62
g63
NtRp4346
(dp4347
g66
(dp4348
g74
I1
ssg75
g4342
sg68
(lp4349
Nasbasbasbag61
(g77
g63
NtRp4350
(dp4351
g66
(dp4352
sg75
g4309
sg68
(lp4353
g61
(g82
g63
NtRp4354
(dp4355
g66
(dp4356
sg75
g4350
sg68
(lp4357
g61
(g62
g63
NtRp4358
(dp4359
g66
(dp4360
g74
I1
ssg75
g4354
sg68
(lp4361
(lp4362
(S'plugin_wiki'
p4363
I00
S'http://web2py.com/examples/default/download'
p4364
tp4365
a(g3750
(S's\r\x00\x00\x00Other Plugins'
tRp4366
I00
g4096
tp4367
a(g3750
(S's\x0e\x00\x00\x00Layout Plugins'
tRp4368
I00
g4099
tp4369
aasbasbasbasbasbasbasbasbasbasbasbasbasbasbasbasbasbasbasbag61
(g77
g63
NtRp4370
(dp4371
g66
(dp4372
sg75
g3214
sg68
(lp4373
g61
(g82
g63
NtRp4374
(dp4375
g66
(dp4376
g86
g87
ssg75
g4370
sg68
(lp4377
S'meta'
p4378
asbag61
(g82
g63
NtRp4379
(dp4380
g66
(dp4381
g93
g94
ssg75
g4370
sg68
(lp4382
S':'
asbag61
(g82
g63
NtRp4383
(dp4384
g66
(dp4385
sg75
g4370
sg68
(lp4386
g61
(g62
g63
NtRp4387
(dp4388
g66
(dp4389
g74
I5
ssg75
g4383
sg68
(lp4390
g61
(g70
g63
NtRp4391
(dp4392
g66
(dp4393
g74
I4
ssg75
Nsg68
(lp4394
g61
(g77
g63
NtRp4395
(dp4396
g66
(dp4397
sg75
g4391
sg68
(lp4398
g61
(g82
g63
NtRp4399
(dp4400
g66
(dp4401
g86
g87
ssg75
g4395
sg68
(lp4402
S'author'
p4403
asbag61
(g82
g63
NtRp4404
(dp4405
g66
(dp4406
g93
g94
ssg75
g4395
sg68
(lp4407
S':'
asbag61
(g82
g63
NtRp4408
(dp4409
g66
(dp4410
sg75
g4395
sg68
(lp4411
g61
(g62
g63
NtRp4412
(dp4413
g66
(dp4414
g74
I4
ssg75
g4408
sg68
(lp4415
S'Your Name <you@example.com>'
p4416
asbasbasbag61
(g77
g63
NtRp4417
(dp4418
g66
(dp4419
sg75
g4391
sg68
(lp4420
g61
(g82
g63
NtRp4421
(dp4422
g66
(dp4423
g86
g87
ssg75
g4417
sg68
(lp4424
S'copyright'
p4425
asbag61
(g82
g63
NtRp4426
(dp4427
g66
(dp4428
g93
g94
ssg75
g4417
sg68
(lp4429
S':'
asbag61
(g82
g63
NtRp4430
(dp4431
g66
(dp4432
sg75
g4417
sg68
(lp4433
g61
(g62
g63
NtRp4434
(dp4435
g66
(dp4436
g74
I4
ssg75
g4430
sg68
(lp4437
S'Copyright 2011'
p4438
asbasbasbag61
(g77
g63
NtRp4439
(dp4440
g66
(dp4441
sg75
g4391
sg68
(lp4442
g61
(g82
g63
NtRp4443
(dp4444
g66
(dp4445
g86
g87
ssg75
g4439
sg68
(lp4446
S'description'
p4447
asbag61
(g82
g63
NtRp4448
(dp4449
g66
(dp4450
g93
g94
ssg75
g4439
sg68
(lp4451
S':'
asbag61
(g82
g63
NtRp4452
(dp4453
g66
(dp4454
sg75
g4439
sg68
(lp4455
g61
(g62
g63
NtRp4456
(dp4457
g66
(dp4458
g74
I4
ssg75
g4452
sg68
(lp4459
S'a cool new app'
p4460
asbasbasbag61
(g77
g63
NtRp4461
(dp4462
g66
(dp4463
sg75
g4391
sg68
(lp4464
g61
(g82
g63
NtRp4465
(dp4466
g66
(dp4467
g86
g87
ssg75
g4461
sg68
(lp4468
S'generator'
p4469
asbag61
(g82
g63
NtRp4470
(dp4471
g66
(dp4472
g93
g94
ssg75
g4461
sg68
(lp4473
S':'
asbag61
(g82
g63
NtRp4474
(dp4475
g66
(dp4476
sg75
g4461
sg68
(lp4477
g61
(g62
g63
NtRp4478
(dp4479
g66
(dp4480
g74
I4
ssg75
g4474
sg68
(lp4481
S'Web2py Web Framework'
p4482
asbasbasbag61
(g77
g63
NtRp4483
(dp4484
g66
(dp4485
sg75
g4391
sg68
(lp4486
g61
(g82
g63
NtRp4487
(dp4488
g66
(dp4489
g86
g87
ssg75
g4483
sg68
(lp4490
S'keywords'
p4491
asbag61
(g82
g63
NtRp4492
(dp4493
g66
(dp4494
g93
g94
ssg75
g4483
sg68
(lp4495
S':'
asbag61
(g82
g63
NtRp4496
(dp4497
g66
(dp4498
sg75
g4483
sg68
(lp4499
g61
(g62
g63
NtRp4500
(dp4501
g66
(dp4502
g74
I4
ssg75
g4496
sg68
(lp4503
S'web2py, python, framework'
p4504
asbasbasbasbasbasbasbag61
(g77
g63
NtRp4505
(dp4506
g66
(dp4507
sg75
g3214
sg68
(lp4508
g61
(g82
g63
NtRp4509
(dp4510
g66
(dp4511
g86
g87
ssg75
g4505
sg68
(lp4512
S'postprocessing'
p4513
asbag61
(g82
g63
NtRp4514
(dp4515
g66
(dp4516
g93
g94
ssg75
g4505
sg68
(lp4517
S':'
asbag61
(g82
g63
NtRp4518
(dp4519
g66
(dp4520
sg75
g4505
sg68
(lp4521
g61
(g62
g63
NtRp4522
(dp4523
g66
(dp4524
g74
I5
ssg75
g4518
sg68
(lp4525
g61
(g70
g63
NtRp4526
(dp4527
g66
(dp4528
g74
I4
ssg75
Nsg68
(lp4529
sbasbasbasbag61
(g77
g63
NtRp4530
(dp4531
g66
(dp4532
sg75
g3214
sg68
(lp4533
g61
(g82
g63
NtRp4534
(dp4535
g66
(dp4536
g86
g87
ssg75
g4530
sg68
(lp4537
S'session_file'
p4538
asbag61
(g82
g63
NtRp4539
(dp4540
g66
(dp4541
g93
g94
ssg75
g4530
sg68
(lp4542
S':'
asbag61
(g82
g63
NtRp4543
(dp4544
g66
(dp4545
sg75
g4530
sg68
(lp4546
g61
(g62
g63
NtRp4547
(dp4548
g66
(dp4549
g74
I5
ssg75
g4543
sg68
(lp4550
S"<open file 'C:\\Users\\omkara\\Desktop\\web2py\\applications\\SlugBarter\\sessions\\127.0.0.1-e6ebae72-1bbc-48a5-9458-95dbb65a4e54', mode 'rb+' at 0x05DA4188>"
p4551
asbasbasbag61
(g77
g63
NtRp4552
(dp4553
g66
(dp4554
sg75
g3214
sg68
(lp4555
g61
(g82
g63
NtRp4556
(dp4557
g66
(dp4558
g86
g87
ssg75
g4552
sg68
(lp4559
S'session_filename'
p4560
asbag61
(g82
g63
NtRp4561
(dp4562
g66
(dp4563
g93
g94
ssg75
g4552
sg68
(lp4564
S':'
asbag61
(g82
g63
NtRp4565
(dp4566
g66
(dp4567
sg75
g4552
sg68
(lp4568
g61
(g62
g63
NtRp4569
(dp4570
g66
(dp4571
g74
I5
ssg75
g4565
sg68
(lp4572
S'C:\\Users\\omkara\\Desktop\\web2py\\applications\\SlugBarter\\sessions\\127.0.0.1-e6ebae72-1bbc-48a5-9458-95dbb65a4e54'
p4573
asbasbasbag61
(g77
g63
NtRp4574
(dp4575
g66
(dp4576
sg75
g3214
sg68
(lp4577
g61
(g82
g63
NtRp4578
(dp4579
g66
(dp4580
g86
g87
ssg75
g4574
sg68
(lp4581
S'session_id'
p4582
asbag61
(g82
g63
NtRp4583
(dp4584
g66
(dp4585
g93
g94
ssg75
g4574
sg68
(lp4586
S':'
asbag61
(g82
g63
NtRp4587
(dp4588
g66
(dp4589
sg75
g4574
sg68
(lp4590
g61
(g62
g63
NtRp4591
(dp4592
g66
(dp4593
g74
I5
ssg75
g4587
sg68
(lp4594
S'127.0.0.1-e6ebae72-1bbc-48a5-9458-95dbb65a4e54'
p4595
asbasbasbag61
(g77
g63
NtRp4596
(dp4597
g66
(dp4598
sg75
g3214
sg68
(lp4599
g61
(g82
g63
NtRp4600
(dp4601
g66
(dp4602
g86
g87
ssg75
g4596
sg68
(lp4603
S'session_id_name'
p4604
asbag61
(g82
g63
NtRp4605
(dp4606
g66
(dp4607
g93
g94
ssg75
g4596
sg68
(lp4608
S':'
asbag61
(g82
g63
NtRp4609
(dp4610
g66
(dp4611
sg75
g4596
sg68
(lp4612
g61
(g62
g63
NtRp4613
(dp4614
g66
(dp4615
g74
I5
ssg75
g4609
sg68
(lp4616
g3271
asbasbasbag61
(g77
g63
NtRp4617
(dp4618
g66
(dp4619
sg75
g3214
sg68
(lp4620
g61
(g82
g63
NtRp4621
(dp4622
g66
(dp4623
g86
g87
ssg75
g4617
sg68
(lp4624
S'session_locked'
p4625
asbag61
(g82
g63
NtRp4626
(dp4627
g66
(dp4628
g93
g94
ssg75
g4617
sg68
(lp4629
S':'
asbag61
(g82
g63
NtRp4630
(dp4631
g66
(dp4632
sg75
g4617
sg68
(lp4633
g61
(g62
g63
NtRp4634
(dp4635
g66
(dp4636
g74
I5
ssg75
g4630
sg68
(lp4637
g1808
asbasbasbag61
(g77
g63
NtRp4638
(dp4639
g66
(dp4640
sg75
g3214
sg68
(lp4641
g61
(g82
g63
NtRp4642
(dp4643
g66
(dp4644
g86
g87
ssg75
g4638
sg68
(lp4645
S'session_new'
p4646
asbag61
(g82
g63
NtRp4647
(dp4648
g66
(dp4649
g93
g94
ssg75
g4638
sg68
(lp4650
S':'
asbag61
(g82
g63
NtRp4651
(dp4652
g66
(dp4653
sg75
g4638
sg68
(lp4654
g61
(g62
g63
NtRp4655
(dp4656
g66
(dp4657
g74
I5
ssg75
g4651
sg68
(lp4658
g104
asbasbasbag61
(g77
g63
NtRp4659
(dp4660
g66
(dp4661
sg75
g3214
sg68
(lp4662
g61
(g82
g63
NtRp4663
(dp4664
g66
(dp4665
g86
g87
ssg75
g4659
sg68
(lp4666
S'status'
p4667
asbag61
(g82
g63
NtRp4668
(dp4669
g66
(dp4670
g93
g94
ssg75
g4659
sg68
(lp4671
S':'
asbag61
(g82
g63
NtRp4672
(dp4673
g66
(dp4674
sg75
g4659
sg68
(lp4675
g61
(g62
g63
NtRp4676
(dp4677
g66
(dp4678
g74
I5
ssg75
g4672
sg68
(lp4679
S'200'
p4680
asbasbasbag61
(g77
g63
NtRp4681
(dp4682
g66
(dp4683
sg75
g3214
sg68
(lp4684
g61
(g82
g63
NtRp4685
(dp4686
g66
(dp4687
g86
g87
ssg75
g4681
sg68
(lp4688
S'subtitle'
p4689
asbag61
(g82
g63
NtRp4690
(dp4691
g66
(dp4692
g93
g94
ssg75
g4681
sg68
(lp4693
S':'
asbag61
(g82
g63
NtRp4694
(dp4695
g66
(dp4696
sg75
g4681
sg68
(lp4697
g61
(g62
g63
NtRp4698
(dp4699
g66
(dp4700
g74
I5
ssg75
g4694
sg68
(lp4701
g3750
(S's\r\x00\x00\x00customize me!'
tRp4702
asbasbasbag61
(g77
g63
NtRp4703
(dp4704
g66
(dp4705
sg75
g3214
sg68
(lp4706
g61
(g82
g63
NtRp4707
(dp4708
g66
(dp4709
g86
g87
ssg75
g4703
sg68
(lp4710
S'title'
p4711
asbag61
(g82
g63
NtRp4712
(dp4713
g66
(dp4714
g93
g94
ssg75
g4703
sg68
(lp4715
S':'
asbag61
(g82
g63
NtRp4716
(dp4717
g66
(dp4718
sg75
g4703
sg68
(lp4719
g61
(g62
g63
NtRp4720
(dp4721
g66
(dp4722
g74
I5
ssg75
g4716
sg68
(lp4723
S'Slugbarter'
p4724
asbasbasbag61
(g77
g63
NtRp4725
(dp4726
g66
(dp4727
sg75
g3214
sg68
(lp4728
g61
(g82
g63
NtRp4729
(dp4730
g66
(dp4731
g86
g87
ssg75
g4725
sg68
(lp4732
g2472
asbag61
(g82
g63
NtRp4733
(dp4734
g66
(dp4735
g93
g94
ssg75
g4725
sg68
(lp4736
S':'
asbag61
(g82
g63
NtRp4737
(dp4738
g66
(dp4739
sg75
g4725
sg68
(lp4740
g61
(g62
g63
NtRp4741
(dp4742
g66
(dp4743
g74
I5
ssg75
g4737
sg68
(lp4744
g2485
asbasbasbag61
(g77
g63
NtRp4745
(dp4746
g66
(dp4747
sg75
g3214
sg68
(lp4748
g61
(g82
g63
NtRp4749
(dp4750
g66
(dp4751
g86
g87
ssg75
g4745
sg68
(lp4752
S'view'
p4753
asbag61
(g82
g63
NtRp4754
(dp4755
g66
(dp4756
g93
g94
ssg75
g4745
sg68
(lp4757
S':'
asbag61
(g82
g63
NtRp4758
(dp4759
g66
(dp4760
sg75
g4745
sg68
(lp4761
g61
(g62
g63
NtRp4762
(dp4763
g66
(dp4764
g74
I5
ssg75
g4758
sg68
(lp4765
S'default/register.html'
p4766
asbasbasbasbasbsS'locals'
p4767
(dp4768
g4
S"r'C:\\Users\\omkara\\Desktop\\web2py\\applications\\SlugBarter\\controllers/default.py'"
p4769
sg6
S"'# -*- coding: utf-8 -*-\\n# this file is released ...ud())\\n\\nresponse._vars=response._caller(register)\\n'"
p4770
sssS'traceback'
p4771
S'Traceback (most recent call last):\n  File "gluon/restricted.py", line 204, in restricted\n  File "gluon/restricted.py", line 189, in compile2\n  File "C:\\Users\\omkara\\Desktop\\web2py\\applications\\SlugBarter\\controllers/default.py", line 22\n    return dict(form = auth.register())\nSyntaxError: \'return\' outside function\n'
p4772
s.