(dp1
S'output'
p2
S"<type 'exceptions.TypeError'> __init__() got an unexpected keyword argument 'writeable'"
p3
sS'layer'
p4
S'C:\\Users\\omkara\\Desktop\\web2py\\applications\\SlugBarter\\models\\registerForm.py'
p5
sS'code'
p6
S"# coding: utf8\ndb = DAL('sqlite://storage.sqlite')\nfrom gluon.tools import Auth\nfrom datetime import datetime\nauth = Auth(db)\nauth.settings.extra_fields['auth_user']= [\n  Field('username', 'string', requires = IS_NOT_EMPTY(error_message = 'Cannot be empty')),\n  Field('dateCreated', 'datetime', default=datetime.utcnow(), readable=False, writable =False )\n  ]\nauth.settings.login_next=URL('mypage') \nauth.define_tables()\n\ndb.define_table('listing',\n    Field('owner', db.auth_user, default = auth.user_id, readable = False, writeable =False, requires = IS_NOT_EMPTY()),\n    Field('title','string', length = 128, label = 'Title', requires=IS_NOT_EMPTY(error_message='Must not be empty')),\n    Field('description','text', label = 'Description', requires = IS_NOT_EMPTY(error_message='Must not be empty')),\n    Field('services',label='Services', requires = IS_IN_SET(['Repair Services', 'Entertainment','Books','VideoGames', 'Handyman Services']))\n)\n"
p7
sS'snapshot'
p8
(dp9
S'exception'
p10
(dp11
S'__hash__'
p12
S"<method-wrapper '__hash__' of exceptions.TypeError object at 0x064EBE40>"
p13
sS'__setattr__'
p14
S"<method-wrapper '__setattr__' of exceptions.TypeError object at 0x064EBE40>"
p15
sS'__reduce_ex__'
p16
S'<built-in method __reduce_ex__ of exceptions.TypeError object at 0x064EBE40>'
p17
sS'__getslice__'
p18
S"<method-wrapper '__getslice__' of exceptions.TypeError object at 0x064EBE40>"
p19
sS'__getitem__'
p20
S"<method-wrapper '__getitem__' of exceptions.TypeError object at 0x064EBE40>"
p21
sS'__setstate__'
p22
S'<built-in method __setstate__ of exceptions.TypeError object at 0x064EBE40>'
p23
sS'__reduce__'
p24
S'<built-in method __reduce__ of exceptions.TypeError object at 0x064EBE40>'
p25
sS'__str__'
p26
S"<method-wrapper '__str__' of exceptions.TypeError object at 0x064EBE40>"
p27
sS'args'
p28
S'("__init__() got an unexpected keyword argument \'writeable\'",)'
p29
sS'__getattribute__'
p30
S"<method-wrapper '__getattribute__' of exceptions.TypeError object at 0x064EBE40>"
p31
sS'__class__'
p32
S"<type 'exceptions.TypeError'>"
p33
sS'__delattr__'
p34
S"<method-wrapper '__delattr__' of exceptions.TypeError object at 0x064EBE40>"
p35
sS'__repr__'
p36
S"<method-wrapper '__repr__' of exceptions.TypeError object at 0x064EBE40>"
p37
sS'__dict__'
p38
S'{}'
p39
sS'__doc__'
p40
S"'Inappropriate argument type.'"
p41
sS'__init__'
p42
S"<method-wrapper '__init__' of exceptions.TypeError object at 0x064EBE40>"
p43
sS'__new__'
p44
S'<built-in method __new__ of type object at 0x1E1CCD78>'
p45
ssS'evalue'
p46
S"__init__() got an unexpected keyword argument 'writeable'"
p47
sS'request'
p48
ccopy_reg
_reconstructor
p49
(cgluon.html
BEAUTIFY
p50
c__builtin__
object
p51
NtRp52
(dp53
S'attributes'
p54
(dp55
sS'components'
p56
(lp57
g49
(cgluon.html
TABLE
p58
g51
NtRp59
(dp60
g54
(dp61
S'level'
p62
I5
ssS'parent'
p63
Nsg56
(lp64
g49
(cgluon.html
TR
p65
g51
NtRp66
(dp67
g54
(dp68
sg63
g59
sg56
(lp69
g49
(cgluon.html
TD
p70
g51
NtRp71
(dp72
g54
(dp73
S'_style'
p74
S'font-weight:bold;vertical-align:top'
p75
ssg63
g66
sg56
(lp76
S'ajax'
p77
asbag49
(g70
g51
NtRp78
(dp79
g54
(dp80
S'_valign'
p81
S'top'
p82
ssg63
g66
sg56
(lp83
S':'
asbag49
(g70
g51
NtRp84
(dp85
g54
(dp86
sg63
g66
sg56
(lp87
g49
(g50
g51
NtRp88
(dp89
g54
(dp90
g62
I5
ssg63
g84
sg56
(lp91
S'False'
p92
asbasbasbag49
(g65
g51
NtRp93
(dp94
g54
(dp95
sg63
g59
sg56
(lp96
g49
(g70
g51
NtRp97
(dp98
g54
(dp99
g74
g75
ssg63
g93
sg56
(lp100
S'application'
p101
asbag49
(g70
g51
NtRp102
(dp103
g54
(dp104
g81
g82
ssg63
g93
sg56
(lp105
S':'
asbag49
(g70
g51
NtRp106
(dp107
g54
(dp108
sg63
g93
sg56
(lp109
g49
(g50
g51
NtRp110
(dp111
g54
(dp112
g62
I5
ssg63
g106
sg56
(lp113
S'SlugBarter'
p114
asbasbasbag49
(g65
g51
NtRp115
(dp116
g54
(dp117
sg63
g59
sg56
(lp118
g49
(g70
g51
NtRp119
(dp120
g54
(dp121
g74
g75
ssg63
g115
sg56
(lp122
g28
asbag49
(g70
g51
NtRp123
(dp124
g54
(dp125
g81
g82
ssg63
g115
sg56
(lp126
S':'
asbag49
(g70
g51
NtRp127
(dp128
g54
(dp129
sg63
g115
sg56
(lp130
g49
(g50
g51
NtRp131
(dp132
g54
(dp133
g62
I5
ssg63
g127
sg56
(lp134
g49
(g58
g51
NtRp135
(dp136
g54
(dp137
g62
I4
ssg63
Nsg56
(lp138
sbasbasbasbag49
(g65
g51
NtRp139
(dp140
g54
(dp141
sg63
g59
sg56
(lp142
g49
(g70
g51
NtRp143
(dp144
g54
(dp145
g74
g75
ssg63
g139
sg56
(lp146
S'body'
p147
asbag49
(g70
g51
NtRp148
(dp149
g54
(dp150
g81
g82
ssg63
g139
sg56
(lp151
S':'
asbag49
(g70
g51
NtRp152
(dp153
g54
(dp154
sg63
g139
sg56
(lp155
g49
(g50
g51
NtRp156
(dp157
g54
(dp158
g62
I5
ssg63
g152
sg56
(lp159
S"<open file '<fdopen>', mode 'w+b' at 0x05EEC650>"
p160
asbasbasbag49
(g65
g51
NtRp161
(dp162
g54
(dp163
sg63
g59
sg56
(lp164
g49
(g70
g51
NtRp165
(dp166
g54
(dp167
g74
g75
ssg63
g161
sg56
(lp168
S'client'
p169
asbag49
(g70
g51
NtRp170
(dp171
g54
(dp172
g81
g82
ssg63
g161
sg56
(lp173
S':'
asbag49
(g70
g51
NtRp174
(dp175
g54
(dp176
sg63
g161
sg56
(lp177
g49
(g50
g51
NtRp178
(dp179
g54
(dp180
g62
I5
ssg63
g174
sg56
(lp181
S'127.0.0.1'
p182
asbasbasbag49
(g65
g51
NtRp183
(dp184
g54
(dp185
sg63
g59
sg56
(lp186
g49
(g70
g51
NtRp187
(dp188
g54
(dp189
g74
g75
ssg63
g183
sg56
(lp190
S'controller'
p191
asbag49
(g70
g51
NtRp192
(dp193
g54
(dp194
g81
g82
ssg63
g183
sg56
(lp195
S':'
asbag49
(g70
g51
NtRp196
(dp197
g54
(dp198
sg63
g183
sg56
(lp199
g49
(g50
g51
NtRp200
(dp201
g54
(dp202
g62
I5
ssg63
g196
sg56
(lp203
S'default'
p204
asbasbasbag49
(g65
g51
NtRp205
(dp206
g54
(dp207
sg63
g59
sg56
(lp208
g49
(g70
g51
NtRp209
(dp210
g54
(dp211
g74
g75
ssg63
g205
sg56
(lp212
S'cookies'
p213
asbag49
(g70
g51
NtRp214
(dp215
g54
(dp216
g81
g82
ssg63
g205
sg56
(lp217
S':'
asbag49
(g70
g51
NtRp218
(dp219
g54
(dp220
sg63
g205
sg56
(lp221
g49
(g50
g51
NtRp222
(dp223
g54
(dp224
g62
I5
ssg63
g218
sg56
(lp225
g49
(g58
g51
NtRp226
(dp227
g54
(dp228
g62
I4
ssg63
Nsg56
(lp229
g49
(g65
g51
NtRp230
(dp231
g54
(dp232
sg63
g226
sg56
(lp233
g49
(g70
g51
NtRp234
(dp235
g54
(dp236
g74
g75
ssg63
g230
sg56
(lp237
S'session_id_admin'
p238
asbag49
(g70
g51
NtRp239
(dp240
g54
(dp241
g81
g82
ssg63
g230
sg56
(lp242
S':'
asbag49
(g70
g51
NtRp243
(dp244
g54
(dp245
sg63
g230
sg56
(lp246
g49
(g50
g51
NtRp247
(dp248
g54
(dp249
g62
I4
ssg63
g243
sg56
(lp250
g49
(g58
g51
NtRp251
(dp252
g54
(dp253
g62
I3
ssg63
Nsg56
(lp254
g49
(g65
g51
NtRp255
(dp256
g54
(dp257
sg63
g251
sg56
(lp258
g49
(g70
g51
NtRp259
(dp260
g54
(dp261
g74
g75
ssg63
g255
sg56
(lp262
S'comment'
p263
asbag49
(g70
g51
NtRp264
(dp265
g54
(dp266
g81
g82
ssg63
g255
sg56
(lp267
S':'
asbag49
(g70
g51
NtRp268
(dp269
g54
(dp270
sg63
g255
sg56
(lp271
g49
(g50
g51
NtRp272
(dp273
g54
(dp274
g62
I3
ssg63
g268
sg56
(lp275
S''
asbasbasbag49
(g65
g51
NtRp276
(dp277
g54
(dp278
sg63
g251
sg56
(lp279
g49
(g70
g51
NtRp280
(dp281
g54
(dp282
g74
g75
ssg63
g276
sg56
(lp283
S'domain'
p284
asbag49
(g70
g51
NtRp285
(dp286
g54
(dp287
g81
g82
ssg63
g276
sg56
(lp288
S':'
asbag49
(g70
g51
NtRp289
(dp290
g54
(dp291
sg63
g276
sg56
(lp292
g49
(g50
g51
NtRp293
(dp294
g54
(dp295
g62
I3
ssg63
g289
sg56
(lp296
S''
asbasbasbag49
(g65
g51
NtRp297
(dp298
g54
(dp299
sg63
g251
sg56
(lp300
g49
(g70
g51
NtRp301
(dp302
g54
(dp303
g74
g75
ssg63
g297
sg56
(lp304
S'expires'
p305
asbag49
(g70
g51
NtRp306
(dp307
g54
(dp308
g81
g82
ssg63
g297
sg56
(lp309
S':'
asbag49
(g70
g51
NtRp310
(dp311
g54
(dp312
sg63
g297
sg56
(lp313
g49
(g50
g51
NtRp314
(dp315
g54
(dp316
g62
I3
ssg63
g310
sg56
(lp317
S''
asbasbasbag49
(g65
g51
NtRp318
(dp319
g54
(dp320
sg63
g251
sg56
(lp321
g49
(g70
g51
NtRp322
(dp323
g54
(dp324
g74
g75
ssg63
g318
sg56
(lp325
S'max-age'
p326
asbag49
(g70
g51
NtRp327
(dp328
g54
(dp329
g81
g82
ssg63
g318
sg56
(lp330
S':'
asbag49
(g70
g51
NtRp331
(dp332
g54
(dp333
sg63
g318
sg56
(lp334
g49
(g50
g51
NtRp335
(dp336
g54
(dp337
g62
I3
ssg63
g331
sg56
(lp338
S''
asbasbasbag49
(g65
g51
NtRp339
(dp340
g54
(dp341
sg63
g251
sg56
(lp342
g49
(g70
g51
NtRp343
(dp344
g54
(dp345
g74
g75
ssg63
g339
sg56
(lp346
S'path'
p347
asbag49
(g70
g51
NtRp348
(dp349
g54
(dp350
g81
g82
ssg63
g339
sg56
(lp351
S':'
asbag49
(g70
g51
NtRp352
(dp353
g54
(dp354
sg63
g339
sg56
(lp355
g49
(g50
g51
NtRp356
(dp357
g54
(dp358
g62
I3
ssg63
g352
sg56
(lp359
S''
asbasbasbag49
(g65
g51
NtRp360
(dp361
g54
(dp362
sg63
g251
sg56
(lp363
g49
(g70
g51
NtRp364
(dp365
g54
(dp366
g74
g75
ssg63
g360
sg56
(lp367
S'secure'
p368
asbag49
(g70
g51
NtRp369
(dp370
g54
(dp371
g81
g82
ssg63
g360
sg56
(lp372
S':'
asbag49
(g70
g51
NtRp373
(dp374
g54
(dp375
sg63
g360
sg56
(lp376
g49
(g50
g51
NtRp377
(dp378
g54
(dp379
g62
I3
ssg63
g373
sg56
(lp380
S''
asbasbasbag49
(g65
g51
NtRp381
(dp382
g54
(dp383
sg63
g251
sg56
(lp384
g49
(g70
g51
NtRp385
(dp386
g54
(dp387
g74
g75
ssg63
g381
sg56
(lp388
S'version'
p389
asbag49
(g70
g51
NtRp390
(dp391
g54
(dp392
g81
g82
ssg63
g381
sg56
(lp393
S':'
asbag49
(g70
g51
NtRp394
(dp395
g54
(dp396
sg63
g381
sg56
(lp397
g49
(g50
g51
NtRp398
(dp399
g54
(dp400
g62
I3
ssg63
g394
sg56
(lp401
S''
asbasbasbasbasbasbasbag49
(g65
g51
NtRp402
(dp403
g54
(dp404
sg63
g226
sg56
(lp405
g49
(g70
g51
NtRp406
(dp407
g54
(dp408
g74
g75
ssg63
g402
sg56
(lp409
S'session_id_onlinenotes_p1_'
p410
asbag49
(g70
g51
NtRp411
(dp412
g54
(dp413
g81
g82
ssg63
g402
sg56
(lp414
S':'
asbag49
(g70
g51
NtRp415
(dp416
g54
(dp417
sg63
g402
sg56
(lp418
g49
(g50
g51
NtRp419
(dp420
g54
(dp421
g62
I4
ssg63
g415
sg56
(lp422
g49
(g58
g51
NtRp423
(dp424
g54
(dp425
g62
I3
ssg63
Nsg56
(lp426
g49
(g65
g51
NtRp427
(dp428
g54
(dp429
sg63
g423
sg56
(lp430
g49
(g70
g51
NtRp431
(dp432
g54
(dp433
g74
g75
ssg63
g427
sg56
(lp434
g263
asbag49
(g70
g51
NtRp435
(dp436
g54
(dp437
g81
g82
ssg63
g427
sg56
(lp438
S':'
asbag49
(g70
g51
NtRp439
(dp440
g54
(dp441
sg63
g427
sg56
(lp442
g49
(g50
g51
NtRp443
(dp444
g54
(dp445
g62
I3
ssg63
g439
sg56
(lp446
S''
asbasbasbag49
(g65
g51
NtRp447
(dp448
g54
(dp449
sg63
g423
sg56
(lp450
g49
(g70
g51
NtRp451
(dp452
g54
(dp453
g74
g75
ssg63
g447
sg56
(lp454
g284
asbag49
(g70
g51
NtRp455
(dp456
g54
(dp457
g81
g82
ssg63
g447
sg56
(lp458
S':'
asbag49
(g70
g51
NtRp459
(dp460
g54
(dp461
sg63
g447
sg56
(lp462
g49
(g50
g51
NtRp463
(dp464
g54
(dp465
g62
I3
ssg63
g459
sg56
(lp466
S''
asbasbasbag49
(g65
g51
NtRp467
(dp468
g54
(dp469
sg63
g423
sg56
(lp470
g49
(g70
g51
NtRp471
(dp472
g54
(dp473
g74
g75
ssg63
g467
sg56
(lp474
g305
asbag49
(g70
g51
NtRp475
(dp476
g54
(dp477
g81
g82
ssg63
g467
sg56
(lp478
S':'
asbag49
(g70
g51
NtRp479
(dp480
g54
(dp481
sg63
g467
sg56
(lp482
g49
(g50
g51
NtRp483
(dp484
g54
(dp485
g62
I3
ssg63
g479
sg56
(lp486
S''
asbasbasbag49
(g65
g51
NtRp487
(dp488
g54
(dp489
sg63
g423
sg56
(lp490
g49
(g70
g51
NtRp491
(dp492
g54
(dp493
g74
g75
ssg63
g487
sg56
(lp494
g326
asbag49
(g70
g51
NtRp495
(dp496
g54
(dp497
g81
g82
ssg63
g487
sg56
(lp498
S':'
asbag49
(g70
g51
NtRp499
(dp500
g54
(dp501
sg63
g487
sg56
(lp502
g49
(g50
g51
NtRp503
(dp504
g54
(dp505
g62
I3
ssg63
g499
sg56
(lp506
S''
asbasbasbag49
(g65
g51
NtRp507
(dp508
g54
(dp509
sg63
g423
sg56
(lp510
g49
(g70
g51
NtRp511
(dp512
g54
(dp513
g74
g75
ssg63
g507
sg56
(lp514
g347
asbag49
(g70
g51
NtRp515
(dp516
g54
(dp517
g81
g82
ssg63
g507
sg56
(lp518
S':'
asbag49
(g70
g51
NtRp519
(dp520
g54
(dp521
sg63
g507
sg56
(lp522
g49
(g50
g51
NtRp523
(dp524
g54
(dp525
g62
I3
ssg63
g519
sg56
(lp526
S''
asbasbasbag49
(g65
g51
NtRp527
(dp528
g54
(dp529
sg63
g423
sg56
(lp530
g49
(g70
g51
NtRp531
(dp532
g54
(dp533
g74
g75
ssg63
g527
sg56
(lp534
g368
asbag49
(g70
g51
NtRp535
(dp536
g54
(dp537
g81
g82
ssg63
g527
sg56
(lp538
S':'
asbag49
(g70
g51
NtRp539
(dp540
g54
(dp541
sg63
g527
sg56
(lp542
g49
(g50
g51
NtRp543
(dp544
g54
(dp545
g62
I3
ssg63
g539
sg56
(lp546
S''
asbasbasbag49
(g65
g51
NtRp547
(dp548
g54
(dp549
sg63
g423
sg56
(lp550
g49
(g70
g51
NtRp551
(dp552
g54
(dp553
g74
g75
ssg63
g547
sg56
(lp554
g389
asbag49
(g70
g51
NtRp555
(dp556
g54
(dp557
g81
g82
ssg63
g547
sg56
(lp558
S':'
asbag49
(g70
g51
NtRp559
(dp560
g54
(dp561
sg63
g547
sg56
(lp562
g49
(g50
g51
NtRp563
(dp564
g54
(dp565
g62
I3
ssg63
g559
sg56
(lp566
S''
asbasbasbasbasbasbasbag49
(g65
g51
NtRp567
(dp568
g54
(dp569
sg63
g226
sg56
(lp570
g49
(g70
g51
NtRp571
(dp572
g54
(dp573
g74
g75
ssg63
g567
sg56
(lp574
S'session_id_slug_register_page'
p575
asbag49
(g70
g51
NtRp576
(dp577
g54
(dp578
g81
g82
ssg63
g567
sg56
(lp579
S':'
asbag49
(g70
g51
NtRp580
(dp581
g54
(dp582
sg63
g567
sg56
(lp583
g49
(g50
g51
NtRp584
(dp585
g54
(dp586
g62
I4
ssg63
g580
sg56
(lp587
g49
(g58
g51
NtRp588
(dp589
g54
(dp590
g62
I3
ssg63
Nsg56
(lp591
g49
(g65
g51
NtRp592
(dp593
g54
(dp594
sg63
g588
sg56
(lp595
g49
(g70
g51
NtRp596
(dp597
g54
(dp598
g74
g75
ssg63
g592
sg56
(lp599
g263
asbag49
(g70
g51
NtRp600
(dp601
g54
(dp602
g81
g82
ssg63
g592
sg56
(lp603
S':'
asbag49
(g70
g51
NtRp604
(dp605
g54
(dp606
sg63
g592
sg56
(lp607
g49
(g50
g51
NtRp608
(dp609
g54
(dp610
g62
I3
ssg63
g604
sg56
(lp611
S''
asbasbasbag49
(g65
g51
NtRp612
(dp613
g54
(dp614
sg63
g588
sg56
(lp615
g49
(g70
g51
NtRp616
(dp617
g54
(dp618
g74
g75
ssg63
g612
sg56
(lp619
g284
asbag49
(g70
g51
NtRp620
(dp621
g54
(dp622
g81
g82
ssg63
g612
sg56
(lp623
S':'
asbag49
(g70
g51
NtRp624
(dp625
g54
(dp626
sg63
g612
sg56
(lp627
g49
(g50
g51
NtRp628
(dp629
g54
(dp630
g62
I3
ssg63
g624
sg56
(lp631
S''
asbasbasbag49
(g65
g51
NtRp632
(dp633
g54
(dp634
sg63
g588
sg56
(lp635
g49
(g70
g51
NtRp636
(dp637
g54
(dp638
g74
g75
ssg63
g632
sg56
(lp639
g305
asbag49
(g70
g51
NtRp640
(dp641
g54
(dp642
g81
g82
ssg63
g632
sg56
(lp643
S':'
asbag49
(g70
g51
NtRp644
(dp645
g54
(dp646
sg63
g632
sg56
(lp647
g49
(g50
g51
NtRp648
(dp649
g54
(dp650
g62
I3
ssg63
g644
sg56
(lp651
S''
asbasbasbag49
(g65
g51
NtRp652
(dp653
g54
(dp654
sg63
g588
sg56
(lp655
g49
(g70
g51
NtRp656
(dp657
g54
(dp658
g74
g75
ssg63
g652
sg56
(lp659
g326
asbag49
(g70
g51
NtRp660
(dp661
g54
(dp662
g81
g82
ssg63
g652
sg56
(lp663
S':'
asbag49
(g70
g51
NtRp664
(dp665
g54
(dp666
sg63
g652
sg56
(lp667
g49
(g50
g51
NtRp668
(dp669
g54
(dp670
g62
I3
ssg63
g664
sg56
(lp671
S''
asbasbasbag49
(g65
g51
NtRp672
(dp673
g54
(dp674
sg63
g588
sg56
(lp675
g49
(g70
g51
NtRp676
(dp677
g54
(dp678
g74
g75
ssg63
g672
sg56
(lp679
g347
asbag49
(g70
g51
NtRp680
(dp681
g54
(dp682
g81
g82
ssg63
g672
sg56
(lp683
S':'
asbag49
(g70
g51
NtRp684
(dp685
g54
(dp686
sg63
g672
sg56
(lp687
g49
(g50
g51
NtRp688
(dp689
g54
(dp690
g62
I3
ssg63
g684
sg56
(lp691
S''
asbasbasbag49
(g65
g51
NtRp692
(dp693
g54
(dp694
sg63
g588
sg56
(lp695
g49
(g70
g51
NtRp696
(dp697
g54
(dp698
g74
g75
ssg63
g692
sg56
(lp699
g368
asbag49
(g70
g51
NtRp700
(dp701
g54
(dp702
g81
g82
ssg63
g692
sg56
(lp703
S':'
asbag49
(g70
g51
NtRp704
(dp705
g54
(dp706
sg63
g692
sg56
(lp707
g49
(g50
g51
NtRp708
(dp709
g54
(dp710
g62
I3
ssg63
g704
sg56
(lp711
S''
asbasbasbag49
(g65
g51
NtRp712
(dp713
g54
(dp714
sg63
g588
sg56
(lp715
g49
(g70
g51
NtRp716
(dp717
g54
(dp718
g74
g75
ssg63
g712
sg56
(lp719
g389
asbag49
(g70
g51
NtRp720
(dp721
g54
(dp722
g81
g82
ssg63
g712
sg56
(lp723
S':'
asbag49
(g70
g51
NtRp724
(dp725
g54
(dp726
sg63
g712
sg56
(lp727
g49
(g50
g51
NtRp728
(dp729
g54
(dp730
g62
I3
ssg63
g724
sg56
(lp731
S''
asbasbasbasbasbasbasbag49
(g65
g51
NtRp732
(dp733
g54
(dp734
sg63
g226
sg56
(lp735
g49
(g70
g51
NtRp736
(dp737
g54
(dp738
g74
g75
ssg63
g732
sg56
(lp739
S'session_id_slugbarter'
p740
asbag49
(g70
g51
NtRp741
(dp742
g54
(dp743
g81
g82
ssg63
g732
sg56
(lp744
S':'
asbag49
(g70
g51
NtRp745
(dp746
g54
(dp747
sg63
g732
sg56
(lp748
g49
(g50
g51
NtRp749
(dp750
g54
(dp751
g62
I4
ssg63
g745
sg56
(lp752
g49
(g58
g51
NtRp753
(dp754
g54
(dp755
g62
I3
ssg63
Nsg56
(lp756
g49
(g65
g51
NtRp757
(dp758
g54
(dp759
sg63
g753
sg56
(lp760
g49
(g70
g51
NtRp761
(dp762
g54
(dp763
g74
g75
ssg63
g757
sg56
(lp764
g263
asbag49
(g70
g51
NtRp765
(dp766
g54
(dp767
g81
g82
ssg63
g757
sg56
(lp768
S':'
asbag49
(g70
g51
NtRp769
(dp770
g54
(dp771
sg63
g757
sg56
(lp772
g49
(g50
g51
NtRp773
(dp774
g54
(dp775
g62
I3
ssg63
g769
sg56
(lp776
S''
asbasbasbag49
(g65
g51
NtRp777
(dp778
g54
(dp779
sg63
g753
sg56
(lp780
g49
(g70
g51
NtRp781
(dp782
g54
(dp783
g74
g75
ssg63
g777
sg56
(lp784
g284
asbag49
(g70
g51
NtRp785
(dp786
g54
(dp787
g81
g82
ssg63
g777
sg56
(lp788
S':'
asbag49
(g70
g51
NtRp789
(dp790
g54
(dp791
sg63
g777
sg56
(lp792
g49
(g50
g51
NtRp793
(dp794
g54
(dp795
g62
I3
ssg63
g789
sg56
(lp796
S''
asbasbasbag49
(g65
g51
NtRp797
(dp798
g54
(dp799
sg63
g753
sg56
(lp800
g49
(g70
g51
NtRp801
(dp802
g54
(dp803
g74
g75
ssg63
g797
sg56
(lp804
g305
asbag49
(g70
g51
NtRp805
(dp806
g54
(dp807
g81
g82
ssg63
g797
sg56
(lp808
S':'
asbag49
(g70
g51
NtRp809
(dp810
g54
(dp811
sg63
g797
sg56
(lp812
g49
(g50
g51
NtRp813
(dp814
g54
(dp815
g62
I3
ssg63
g809
sg56
(lp816
S''
asbasbasbag49
(g65
g51
NtRp817
(dp818
g54
(dp819
sg63
g753
sg56
(lp820
g49
(g70
g51
NtRp821
(dp822
g54
(dp823
g74
g75
ssg63
g817
sg56
(lp824
g326
asbag49
(g70
g51
NtRp825
(dp826
g54
(dp827
g81
g82
ssg63
g817
sg56
(lp828
S':'
asbag49
(g70
g51
NtRp829
(dp830
g54
(dp831
sg63
g817
sg56
(lp832
g49
(g50
g51
NtRp833
(dp834
g54
(dp835
g62
I3
ssg63
g829
sg56
(lp836
S''
asbasbasbag49
(g65
g51
NtRp837
(dp838
g54
(dp839
sg63
g753
sg56
(lp840
g49
(g70
g51
NtRp841
(dp842
g54
(dp843
g74
g75
ssg63
g837
sg56
(lp844
g347
asbag49
(g70
g51
NtRp845
(dp846
g54
(dp847
g81
g82
ssg63
g837
sg56
(lp848
S':'
asbag49
(g70
g51
NtRp849
(dp850
g54
(dp851
sg63
g837
sg56
(lp852
g49
(g50
g51
NtRp853
(dp854
g54
(dp855
g62
I3
ssg63
g849
sg56
(lp856
S''
asbasbasbag49
(g65
g51
NtRp857
(dp858
g54
(dp859
sg63
g753
sg56
(lp860
g49
(g70
g51
NtRp861
(dp862
g54
(dp863
g74
g75
ssg63
g857
sg56
(lp864
g368
asbag49
(g70
g51
NtRp865
(dp866
g54
(dp867
g81
g82
ssg63
g857
sg56
(lp868
S':'
asbag49
(g70
g51
NtRp869
(dp870
g54
(dp871
sg63
g857
sg56
(lp872
g49
(g50
g51
NtRp873
(dp874
g54
(dp875
g62
I3
ssg63
g869
sg56
(lp876
S''
asbasbasbag49
(g65
g51
NtRp877
(dp878
g54
(dp879
sg63
g753
sg56
(lp880
g49
(g70
g51
NtRp881
(dp882
g54
(dp883
g74
g75
ssg63
g877
sg56
(lp884
g389
asbag49
(g70
g51
NtRp885
(dp886
g54
(dp887
g81
g82
ssg63
g877
sg56
(lp888
S':'
asbag49
(g70
g51
NtRp889
(dp890
g54
(dp891
sg63
g877
sg56
(lp892
g49
(g50
g51
NtRp893
(dp894
g54
(dp895
g62
I3
ssg63
g889
sg56
(lp896
S''
asbasbasbasbasbasbasbag49
(g65
g51
NtRp897
(dp898
g54
(dp899
sg63
g226
sg56
(lp900
g49
(g70
g51
NtRp901
(dp902
g54
(dp903
g74
g75
ssg63
g897
sg56
(lp904
S'session_id_testapp'
p905
asbag49
(g70
g51
NtRp906
(dp907
g54
(dp908
g81
g82
ssg63
g897
sg56
(lp909
S':'
asbag49
(g70
g51
NtRp910
(dp911
g54
(dp912
sg63
g897
sg56
(lp913
g49
(g50
g51
NtRp914
(dp915
g54
(dp916
g62
I4
ssg63
g910
sg56
(lp917
g49
(g58
g51
NtRp918
(dp919
g54
(dp920
g62
I3
ssg63
Nsg56
(lp921
g49
(g65
g51
NtRp922
(dp923
g54
(dp924
sg63
g918
sg56
(lp925
g49
(g70
g51
NtRp926
(dp927
g54
(dp928
g74
g75
ssg63
g922
sg56
(lp929
g263
asbag49
(g70
g51
NtRp930
(dp931
g54
(dp932
g81
g82
ssg63
g922
sg56
(lp933
S':'
asbag49
(g70
g51
NtRp934
(dp935
g54
(dp936
sg63
g922
sg56
(lp937
g49
(g50
g51
NtRp938
(dp939
g54
(dp940
g62
I3
ssg63
g934
sg56
(lp941
S''
asbasbasbag49
(g65
g51
NtRp942
(dp943
g54
(dp944
sg63
g918
sg56
(lp945
g49
(g70
g51
NtRp946
(dp947
g54
(dp948
g74
g75
ssg63
g942
sg56
(lp949
g284
asbag49
(g70
g51
NtRp950
(dp951
g54
(dp952
g81
g82
ssg63
g942
sg56
(lp953
S':'
asbag49
(g70
g51
NtRp954
(dp955
g54
(dp956
sg63
g942
sg56
(lp957
g49
(g50
g51
NtRp958
(dp959
g54
(dp960
g62
I3
ssg63
g954
sg56
(lp961
S''
asbasbasbag49
(g65
g51
NtRp962
(dp963
g54
(dp964
sg63
g918
sg56
(lp965
g49
(g70
g51
NtRp966
(dp967
g54
(dp968
g74
g75
ssg63
g962
sg56
(lp969
g305
asbag49
(g70
g51
NtRp970
(dp971
g54
(dp972
g81
g82
ssg63
g962
sg56
(lp973
S':'
asbag49
(g70
g51
NtRp974
(dp975
g54
(dp976
sg63
g962
sg56
(lp977
g49
(g50
g51
NtRp978
(dp979
g54
(dp980
g62
I3
ssg63
g974
sg56
(lp981
S''
asbasbasbag49
(g65
g51
NtRp982
(dp983
g54
(dp984
sg63
g918
sg56
(lp985
g49
(g70
g51
NtRp986
(dp987
g54
(dp988
g74
g75
ssg63
g982
sg56
(lp989
g326
asbag49
(g70
g51
NtRp990
(dp991
g54
(dp992
g81
g82
ssg63
g982
sg56
(lp993
S':'
asbag49
(g70
g51
NtRp994
(dp995
g54
(dp996
sg63
g982
sg56
(lp997
g49
(g50
g51
NtRp998
(dp999
g54
(dp1000
g62
I3
ssg63
g994
sg56
(lp1001
S''
asbasbasbag49
(g65
g51
NtRp1002
(dp1003
g54
(dp1004
sg63
g918
sg56
(lp1005
g49
(g70
g51
NtRp1006
(dp1007
g54
(dp1008
g74
g75
ssg63
g1002
sg56
(lp1009
g347
asbag49
(g70
g51
NtRp1010
(dp1011
g54
(dp1012
g81
g82
ssg63
g1002
sg56
(lp1013
S':'
asbag49
(g70
g51
NtRp1014
(dp1015
g54
(dp1016
sg63
g1002
sg56
(lp1017
g49
(g50
g51
NtRp1018
(dp1019
g54
(dp1020
g62
I3
ssg63
g1014
sg56
(lp1021
S''
asbasbasbag49
(g65
g51
NtRp1022
(dp1023
g54
(dp1024
sg63
g918
sg56
(lp1025
g49
(g70
g51
NtRp1026
(dp1027
g54
(dp1028
g74
g75
ssg63
g1022
sg56
(lp1029
g368
asbag49
(g70
g51
NtRp1030
(dp1031
g54
(dp1032
g81
g82
ssg63
g1022
sg56
(lp1033
S':'
asbag49
(g70
g51
NtRp1034
(dp1035
g54
(dp1036
sg63
g1022
sg56
(lp1037
g49
(g50
g51
NtRp1038
(dp1039
g54
(dp1040
g62
I3
ssg63
g1034
sg56
(lp1041
S''
asbasbasbag49
(g65
g51
NtRp1042
(dp1043
g54
(dp1044
sg63
g918
sg56
(lp1045
g49
(g70
g51
NtRp1046
(dp1047
g54
(dp1048
g74
g75
ssg63
g1042
sg56
(lp1049
g389
asbag49
(g70
g51
NtRp1050
(dp1051
g54
(dp1052
g81
g82
ssg63
g1042
sg56
(lp1053
S':'
asbag49
(g70
g51
NtRp1054
(dp1055
g54
(dp1056
sg63
g1042
sg56
(lp1057
g49
(g50
g51
NtRp1058
(dp1059
g54
(dp1060
g62
I3
ssg63
g1054
sg56
(lp1061
S''
asbasbasbasbasbasbasbag49
(g65
g51
NtRp1062
(dp1063
g54
(dp1064
sg63
g226
sg56
(lp1065
g49
(g70
g51
NtRp1066
(dp1067
g54
(dp1068
g74
g75
ssg63
g1062
sg56
(lp1069
S'session_id_welcome'
p1070
asbag49
(g70
g51
NtRp1071
(dp1072
g54
(dp1073
g81
g82
ssg63
g1062
sg56
(lp1074
S':'
asbag49
(g70
g51
NtRp1075
(dp1076
g54
(dp1077
sg63
g1062
sg56
(lp1078
g49
(g50
g51
NtRp1079
(dp1080
g54
(dp1081
g62
I4
ssg63
g1075
sg56
(lp1082
g49
(g58
g51
NtRp1083
(dp1084
g54
(dp1085
g62
I3
ssg63
Nsg56
(lp1086
g49
(g65
g51
NtRp1087
(dp1088
g54
(dp1089
sg63
g1083
sg56
(lp1090
g49
(g70
g51
NtRp1091
(dp1092
g54
(dp1093
g74
g75
ssg63
g1087
sg56
(lp1094
g263
asbag49
(g70
g51
NtRp1095
(dp1096
g54
(dp1097
g81
g82
ssg63
g1087
sg56
(lp1098
S':'
asbag49
(g70
g51
NtRp1099
(dp1100
g54
(dp1101
sg63
g1087
sg56
(lp1102
g49
(g50
g51
NtRp1103
(dp1104
g54
(dp1105
g62
I3
ssg63
g1099
sg56
(lp1106
S''
asbasbasbag49
(g65
g51
NtRp1107
(dp1108
g54
(dp1109
sg63
g1083
sg56
(lp1110
g49
(g70
g51
NtRp1111
(dp1112
g54
(dp1113
g74
g75
ssg63
g1107
sg56
(lp1114
g284
asbag49
(g70
g51
NtRp1115
(dp1116
g54
(dp1117
g81
g82
ssg63
g1107
sg56
(lp1118
S':'
asbag49
(g70
g51
NtRp1119
(dp1120
g54
(dp1121
sg63
g1107
sg56
(lp1122
g49
(g50
g51
NtRp1123
(dp1124
g54
(dp1125
g62
I3
ssg63
g1119
sg56
(lp1126
S''
asbasbasbag49
(g65
g51
NtRp1127
(dp1128
g54
(dp1129
sg63
g1083
sg56
(lp1130
g49
(g70
g51
NtRp1131
(dp1132
g54
(dp1133
g74
g75
ssg63
g1127
sg56
(lp1134
g305
asbag49
(g70
g51
NtRp1135
(dp1136
g54
(dp1137
g81
g82
ssg63
g1127
sg56
(lp1138
S':'
asbag49
(g70
g51
NtRp1139
(dp1140
g54
(dp1141
sg63
g1127
sg56
(lp1142
g49
(g50
g51
NtRp1143
(dp1144
g54
(dp1145
g62
I3
ssg63
g1139
sg56
(lp1146
S''
asbasbasbag49
(g65
g51
NtRp1147
(dp1148
g54
(dp1149
sg63
g1083
sg56
(lp1150
g49
(g70
g51
NtRp1151
(dp1152
g54
(dp1153
g74
g75
ssg63
g1147
sg56
(lp1154
g326
asbag49
(g70
g51
NtRp1155
(dp1156
g54
(dp1157
g81
g82
ssg63
g1147
sg56
(lp1158
S':'
asbag49
(g70
g51
NtRp1159
(dp1160
g54
(dp1161
sg63
g1147
sg56
(lp1162
g49
(g50
g51
NtRp1163
(dp1164
g54
(dp1165
g62
I3
ssg63
g1159
sg56
(lp1166
S''
asbasbasbag49
(g65
g51
NtRp1167
(dp1168
g54
(dp1169
sg63
g1083
sg56
(lp1170
g49
(g70
g51
NtRp1171
(dp1172
g54
(dp1173
g74
g75
ssg63
g1167
sg56
(lp1174
g347
asbag49
(g70
g51
NtRp1175
(dp1176
g54
(dp1177
g81
g82
ssg63
g1167
sg56
(lp1178
S':'
asbag49
(g70
g51
NtRp1179
(dp1180
g54
(dp1181
sg63
g1167
sg56
(lp1182
g49
(g50
g51
NtRp1183
(dp1184
g54
(dp1185
g62
I3
ssg63
g1179
sg56
(lp1186
S''
asbasbasbag49
(g65
g51
NtRp1187
(dp1188
g54
(dp1189
sg63
g1083
sg56
(lp1190
g49
(g70
g51
NtRp1191
(dp1192
g54
(dp1193
g74
g75
ssg63
g1187
sg56
(lp1194
g368
asbag49
(g70
g51
NtRp1195
(dp1196
g54
(dp1197
g81
g82
ssg63
g1187
sg56
(lp1198
S':'
asbag49
(g70
g51
NtRp1199
(dp1200
g54
(dp1201
sg63
g1187
sg56
(lp1202
g49
(g50
g51
NtRp1203
(dp1204
g54
(dp1205
g62
I3
ssg63
g1199
sg56
(lp1206
S''
asbasbasbag49
(g65
g51
NtRp1207
(dp1208
g54
(dp1209
sg63
g1083
sg56
(lp1210
g49
(g70
g51
NtRp1211
(dp1212
g54
(dp1213
g74
g75
ssg63
g1207
sg56
(lp1214
g389
asbag49
(g70
g51
NtRp1215
(dp1216
g54
(dp1217
g81
g82
ssg63
g1207
sg56
(lp1218
S':'
asbag49
(g70
g51
NtRp1219
(dp1220
g54
(dp1221
sg63
g1207
sg56
(lp1222
g49
(g50
g51
NtRp1223
(dp1224
g54
(dp1225
g62
I3
ssg63
g1219
sg56
(lp1226
S''
asbasbasbasbasbasbasbasbasbasbasbag49
(g65
g51
NtRp1227
(dp1228
g54
(dp1229
sg63
g59
sg56
(lp1230
g49
(g70
g51
NtRp1231
(dp1232
g54
(dp1233
g74
g75
ssg63
g1227
sg56
(lp1234
S'env'
p1235
asbag49
(g70
g51
NtRp1236
(dp1237
g54
(dp1238
g81
g82
ssg63
g1227
sg56
(lp1239
S':'
asbag49
(g70
g51
NtRp1240
(dp1241
g54
(dp1242
sg63
g1227
sg56
(lp1243
g49
(g50
g51
NtRp1244
(dp1245
g54
(dp1246
g62
I5
ssg63
g1240
sg56
(lp1247
g49
(g58
g51
NtRp1248
(dp1249
g54
(dp1250
g62
I4
ssg63
Nsg56
(lp1251
g49
(g65
g51
NtRp1252
(dp1253
g54
(dp1254
sg63
g1248
sg56
(lp1255
g49
(g70
g51
NtRp1256
(dp1257
g54
(dp1258
g74
g75
ssg63
g1252
sg56
(lp1259
S'app_folders'
p1260
asbag49
(g70
g51
NtRp1261
(dp1262
g54
(dp1263
g81
g82
ssg63
g1252
sg56
(lp1264
S':'
asbag49
(g70
g51
NtRp1265
(dp1266
g54
(dp1267
sg63
g1252
sg56
(lp1268
g49
(g50
g51
NtRp1269
(dp1270
g54
(dp1271
g62
I4
ssg63
g1265
sg56
(lp1272
S"set(['C:\\\\Users\\\\omkara\\\\Desktop\\\\web2py\\\\applications\\\\newA\\\\', 'C:\\\\Users\\\\omkara\\\\Desktop\\\\web2py\\\\applications\\\\slug_register_page\\\\', 'C:\\\\Users\\\\omkara\\\\Desktop\\\\web2py\\\\applications\\\\admin\\\\', 'C:\\\\Users\\\\omkara\\\\Desktop\\\\web2py\\\\applications\\\\welcome\\\\', 'C:\\\\Users\\\\omkara\\\\Desktop\\\\web2py\\\\applications\\\\slug_register\\\\', 'C:\\\\Users\\\\omkara\\\\Desktop\\\\web2py\\\\applications\\\\SlugBarter\\\\', 'C:\\\\Users\\\\omkara\\\\Desktop\\\\web2py\\\\applications\\\\testApp\\\\'])"
p1273
asbasbasbag49
(g65
g51
NtRp1274
(dp1275
g54
(dp1276
sg63
g1248
sg56
(lp1277
g49
(g70
g51
NtRp1278
(dp1279
g54
(dp1280
g74
g75
ssg63
g1274
sg56
(lp1281
S'applications_parent'
p1282
asbag49
(g70
g51
NtRp1283
(dp1284
g54
(dp1285
g81
g82
ssg63
g1274
sg56
(lp1286
S':'
asbag49
(g70
g51
NtRp1287
(dp1288
g54
(dp1289
sg63
g1274
sg56
(lp1290
g49
(g50
g51
NtRp1291
(dp1292
g54
(dp1293
g62
I4
ssg63
g1287
sg56
(lp1294
S'C:\\Users\\omkara\\Desktop\\web2py'
p1295
asbasbasbag49
(g65
g51
NtRp1296
(dp1297
g54
(dp1298
sg63
g1248
sg56
(lp1299
g49
(g70
g51
NtRp1300
(dp1301
g54
(dp1302
g74
g75
ssg63
g1296
sg56
(lp1303
S'cmd_args'
p1304
asbag49
(g70
g51
NtRp1305
(dp1306
g54
(dp1307
g81
g82
ssg63
g1296
sg56
(lp1308
S':'
asbag49
(g70
g51
NtRp1309
(dp1310
g54
(dp1311
sg63
g1296
sg56
(lp1312
g49
(g50
g51
NtRp1313
(dp1314
g54
(dp1315
g62
I4
ssg63
g1309
sg56
(lp1316
g49
(g58
g51
NtRp1317
(dp1318
g54
(dp1319
g62
I3
ssg63
Nsg56
(lp1320
sbasbasbasbag49
(g65
g51
NtRp1321
(dp1322
g54
(dp1323
sg63
g1248
sg56
(lp1324
g49
(g70
g51
NtRp1325
(dp1326
g54
(dp1327
g74
g75
ssg63
g1321
sg56
(lp1328
S'cmd_options'
p1329
asbag49
(g70
g51
NtRp1330
(dp1331
g54
(dp1332
g81
g82
ssg63
g1321
sg56
(lp1333
S':'
asbag49
(g70
g51
NtRp1334
(dp1335
g54
(dp1336
sg63
g1321
sg56
(lp1337
g49
(g50
g51
NtRp1338
(dp1339
g54
(dp1340
g62
I4
ssg63
g1334
sg56
(lp1341
S"<Values at 0x27b1f80: {'verbose': False, 'ip': '127.0.0.1', 'shutdown_timeout': 5, 'taskbar': False, 'nocron': False, 'pid_filename': 'httpserver.pid', 'maxthreads': None, 'softcron': False, 'server_name': 'omkara-PC', 'bpython': False, 'nogui': False, 'port': 8000, 'extcron': False, 'debuglevel': 30, 'test': None, 'folder': 'C:\\\\Users\\\\omkara\\\\Desktop\\\\web2py', 'config': '', 'import_models': False, 'winservice': '', 'shell': None, 'run': '', 'log_filename': 'httpserver.log', 'args': [''], 'socket_timeout': 5, 'ssl_ca_certificate': None, 'scheduler': None, 'profiler_filename': None, 'ssl_private_key': '', 'password': '<ask>', 'request_queue_size': 5, 'ssl_certificate': '', 'cronjob': False, 'numthreads': None, 'quiet': False, 'interfaces': None, 'minthreads': None, 'timeout': 10, 'plain': False, 'nobanner': False}>"
p1342
asbasbasbag49
(g65
g51
NtRp1343
(dp1344
g54
(dp1345
sg63
g1248
sg56
(lp1346
g49
(g70
g51
NtRp1347
(dp1348
g54
(dp1349
g74
g75
ssg63
g1343
sg56
(lp1350
S'content_length'
p1351
asbag49
(g70
g51
NtRp1352
(dp1353
g54
(dp1354
g81
g82
ssg63
g1343
sg56
(lp1355
S':'
asbag49
(g70
g51
NtRp1356
(dp1357
g54
(dp1358
sg63
g1343
sg56
(lp1359
g49
(g50
g51
NtRp1360
(dp1361
g54
(dp1362
g62
I4
ssg63
g1356
sg56
(lp1363
S'698'
p1364
asbasbasbag49
(g65
g51
NtRp1365
(dp1366
g54
(dp1367
sg63
g1248
sg56
(lp1368
g49
(g70
g51
NtRp1369
(dp1370
g54
(dp1371
g74
g75
ssg63
g1365
sg56
(lp1372
S'content_type'
p1373
asbag49
(g70
g51
NtRp1374
(dp1375
g54
(dp1376
g81
g82
ssg63
g1365
sg56
(lp1377
S':'
asbag49
(g70
g51
NtRp1378
(dp1379
g54
(dp1380
sg63
g1365
sg56
(lp1381
g49
(g50
g51
NtRp1382
(dp1383
g54
(dp1384
g62
I4
ssg63
g1378
sg56
(lp1385
S'multipart/form-data; boundary=----WebKitFormBoundaryInAsOJY1pAxHasrM'
p1386
asbasbasbag49
(g65
g51
NtRp1387
(dp1388
g54
(dp1389
sg63
g1248
sg56
(lp1390
g49
(g70
g51
NtRp1391
(dp1392
g54
(dp1393
g74
g75
ssg63
g1387
sg56
(lp1394
S'db_sessions'
p1395
asbag49
(g70
g51
NtRp1396
(dp1397
g54
(dp1398
g81
g82
ssg63
g1387
sg56
(lp1399
S':'
asbag49
(g70
g51
NtRp1400
(dp1401
g54
(dp1402
sg63
g1387
sg56
(lp1403
g49
(g50
g51
NtRp1404
(dp1405
g54
(dp1406
g62
I4
ssg63
g1400
sg56
(lp1407
S'set([])'
p1408
asbasbasbag49
(g65
g51
NtRp1409
(dp1410
g54
(dp1411
sg63
g1248
sg56
(lp1412
g49
(g70
g51
NtRp1413
(dp1414
g54
(dp1415
g74
g75
ssg63
g1409
sg56
(lp1416
S'debugging'
p1417
asbag49
(g70
g51
NtRp1418
(dp1419
g54
(dp1420
g81
g82
ssg63
g1409
sg56
(lp1421
S':'
asbag49
(g70
g51
NtRp1422
(dp1423
g54
(dp1424
sg63
g1409
sg56
(lp1425
g49
(g50
g51
NtRp1426
(dp1427
g54
(dp1428
g62
I4
ssg63
g1422
sg56
(lp1429
g92
asbasbasbag49
(g65
g51
NtRp1430
(dp1431
g54
(dp1432
sg63
g1248
sg56
(lp1433
g49
(g70
g51
NtRp1434
(dp1435
g54
(dp1436
g74
g75
ssg63
g1430
sg56
(lp1437
S'gluon_parent'
p1438
asbag49
(g70
g51
NtRp1439
(dp1440
g54
(dp1441
g81
g82
ssg63
g1430
sg56
(lp1442
S':'
asbag49
(g70
g51
NtRp1443
(dp1444
g54
(dp1445
sg63
g1430
sg56
(lp1446
g49
(g50
g51
NtRp1447
(dp1448
g54
(dp1449
g62
I4
ssg63
g1443
sg56
(lp1450
S'C:\\Users\\omkara\\Desktop\\web2py'
p1451
asbasbasbag49
(g65
g51
NtRp1452
(dp1453
g54
(dp1454
sg63
g1248
sg56
(lp1455
g49
(g70
g51
NtRp1456
(dp1457
g54
(dp1458
g74
g75
ssg63
g1452
sg56
(lp1459
S'http_accept'
p1460
asbag49
(g70
g51
NtRp1461
(dp1462
g54
(dp1463
g81
g82
ssg63
g1452
sg56
(lp1464
S':'
asbag49
(g70
g51
NtRp1465
(dp1466
g54
(dp1467
sg63
g1452
sg56
(lp1468
g49
(g50
g51
NtRp1469
(dp1470
g54
(dp1471
g62
I4
ssg63
g1465
sg56
(lp1472
S'text/html,application/xhtml+xml,application/xml;q=0.9,*/*;q=0.8'
p1473
asbasbasbag49
(g65
g51
NtRp1474
(dp1475
g54
(dp1476
sg63
g1248
sg56
(lp1477
g49
(g70
g51
NtRp1478
(dp1479
g54
(dp1480
g74
g75
ssg63
g1474
sg56
(lp1481
S'http_accept_charset'
p1482
asbag49
(g70
g51
NtRp1483
(dp1484
g54
(dp1485
g81
g82
ssg63
g1474
sg56
(lp1486
S':'
asbag49
(g70
g51
NtRp1487
(dp1488
g54
(dp1489
sg63
g1474
sg56
(lp1490
g49
(g50
g51
NtRp1491
(dp1492
g54
(dp1493
g62
I4
ssg63
g1487
sg56
(lp1494
S'ISO-8859-1,utf-8;q=0.7,*;q=0.3'
p1495
asbasbasbag49
(g65
g51
NtRp1496
(dp1497
g54
(dp1498
sg63
g1248
sg56
(lp1499
g49
(g70
g51
NtRp1500
(dp1501
g54
(dp1502
g74
g75
ssg63
g1496
sg56
(lp1503
S'http_accept_encoding'
p1504
asbag49
(g70
g51
NtRp1505
(dp1506
g54
(dp1507
g81
g82
ssg63
g1496
sg56
(lp1508
S':'
asbag49
(g70
g51
NtRp1509
(dp1510
g54
(dp1511
sg63
g1496
sg56
(lp1512
g49
(g50
g51
NtRp1513
(dp1514
g54
(dp1515
g62
I4
ssg63
g1509
sg56
(lp1516
S'gzip,deflate,sdch'
p1517
asbasbasbag49
(g65
g51
NtRp1518
(dp1519
g54
(dp1520
sg63
g1248
sg56
(lp1521
g49
(g70
g51
NtRp1522
(dp1523
g54
(dp1524
g74
g75
ssg63
g1518
sg56
(lp1525
S'http_accept_language'
p1526
asbag49
(g70
g51
NtRp1527
(dp1528
g54
(dp1529
g81
g82
ssg63
g1518
sg56
(lp1530
S':'
asbag49
(g70
g51
NtRp1531
(dp1532
g54
(dp1533
sg63
g1518
sg56
(lp1534
g49
(g50
g51
NtRp1535
(dp1536
g54
(dp1537
g62
I4
ssg63
g1531
sg56
(lp1538
S'en-US,en;q=0.8'
p1539
asbasbasbag49
(g65
g51
NtRp1540
(dp1541
g54
(dp1542
sg63
g1248
sg56
(lp1543
g49
(g70
g51
NtRp1544
(dp1545
g54
(dp1546
g74
g75
ssg63
g1540
sg56
(lp1547
S'http_cache_control'
p1548
asbag49
(g70
g51
NtRp1549
(dp1550
g54
(dp1551
g81
g82
ssg63
g1540
sg56
(lp1552
S':'
asbag49
(g70
g51
NtRp1553
(dp1554
g54
(dp1555
sg63
g1540
sg56
(lp1556
g49
(g50
g51
NtRp1557
(dp1558
g54
(dp1559
g62
I4
ssg63
g1553
sg56
(lp1560
S'max-age=0'
p1561
asbasbasbag49
(g65
g51
NtRp1562
(dp1563
g54
(dp1564
sg63
g1248
sg56
(lp1565
g49
(g70
g51
NtRp1566
(dp1567
g54
(dp1568
g74
g75
ssg63
g1562
sg56
(lp1569
S'http_connection'
p1570
asbag49
(g70
g51
NtRp1571
(dp1572
g54
(dp1573
g81
g82
ssg63
g1562
sg56
(lp1574
S':'
asbag49
(g70
g51
NtRp1575
(dp1576
g54
(dp1577
sg63
g1562
sg56
(lp1578
g49
(g50
g51
NtRp1579
(dp1580
g54
(dp1581
g62
I4
ssg63
g1575
sg56
(lp1582
S'keep-alive'
p1583
asbasbasbag49
(g65
g51
NtRp1584
(dp1585
g54
(dp1586
sg63
g1248
sg56
(lp1587
g49
(g70
g51
NtRp1588
(dp1589
g54
(dp1590
g74
g75
ssg63
g1584
sg56
(lp1591
S'http_content_length'
p1592
asbag49
(g70
g51
NtRp1593
(dp1594
g54
(dp1595
g81
g82
ssg63
g1584
sg56
(lp1596
S':'
asbag49
(g70
g51
NtRp1597
(dp1598
g54
(dp1599
sg63
g1584
sg56
(lp1600
g49
(g50
g51
NtRp1601
(dp1602
g54
(dp1603
g62
I4
ssg63
g1597
sg56
(lp1604
g1364
asbasbasbag49
(g65
g51
NtRp1605
(dp1606
g54
(dp1607
sg63
g1248
sg56
(lp1608
g49
(g70
g51
NtRp1609
(dp1610
g54
(dp1611
g74
g75
ssg63
g1605
sg56
(lp1612
S'http_content_type'
p1613
asbag49
(g70
g51
NtRp1614
(dp1615
g54
(dp1616
g81
g82
ssg63
g1605
sg56
(lp1617
S':'
asbag49
(g70
g51
NtRp1618
(dp1619
g54
(dp1620
sg63
g1605
sg56
(lp1621
g49
(g50
g51
NtRp1622
(dp1623
g54
(dp1624
g62
I4
ssg63
g1618
sg56
(lp1625
g1386
asbasbasbag49
(g65
g51
NtRp1626
(dp1627
g54
(dp1628
sg63
g1248
sg56
(lp1629
g49
(g70
g51
NtRp1630
(dp1631
g54
(dp1632
g74
g75
ssg63
g1626
sg56
(lp1633
S'http_cookie'
p1634
asbag49
(g70
g51
NtRp1635
(dp1636
g54
(dp1637
g81
g82
ssg63
g1626
sg56
(lp1638
S':'
asbag49
(g70
g51
NtRp1639
(dp1640
g54
(dp1641
sg63
g1626
sg56
(lp1642
g49
(g50
g51
NtRp1643
(dp1644
g54
(dp1645
g62
I4
ssg63
g1639
sg56
(lp1646
S'session_id_onlinenotes_p1_=127.0.0.1-2b1a349f-aa95-4718-93d5-e7df1c85d951; session_id_slug_register_page=127.0.0.1-c2775933-22a4-419d-80e2-4c993aff45c7; session_id_welcome=127.0.0.1-a1b3016b-66b8-408b-ae8e-37231f35f16e; session_id_testapp=127.0.0.1-07eafbbd-d252-4b2b-84dc-0b0d16c3c06d; session_id_slugbarter=127.0.0.1-e6ebae72-1bbc-48a5-9458-95dbb65a4e54; session_id_admin=127.0.0.1-dcf0163e-0560-4f31-a592-e577714771db'
p1647
asbasbasbag49
(g65
g51
NtRp1648
(dp1649
g54
(dp1650
sg63
g1248
sg56
(lp1651
g49
(g70
g51
NtRp1652
(dp1653
g54
(dp1654
g74
g75
ssg63
g1648
sg56
(lp1655
S'http_host'
p1656
asbag49
(g70
g51
NtRp1657
(dp1658
g54
(dp1659
g81
g82
ssg63
g1648
sg56
(lp1660
S':'
asbag49
(g70
g51
NtRp1661
(dp1662
g54
(dp1663
sg63
g1648
sg56
(lp1664
g49
(g50
g51
NtRp1665
(dp1666
g54
(dp1667
g62
I4
ssg63
g1661
sg56
(lp1668
S'127.0.0.1:8000'
p1669
asbasbasbag49
(g65
g51
NtRp1670
(dp1671
g54
(dp1672
sg63
g1248
sg56
(lp1673
g49
(g70
g51
NtRp1674
(dp1675
g54
(dp1676
g74
g75
ssg63
g1670
sg56
(lp1677
S'http_origin'
p1678
asbag49
(g70
g51
NtRp1679
(dp1680
g54
(dp1681
g81
g82
ssg63
g1670
sg56
(lp1682
S':'
asbag49
(g70
g51
NtRp1683
(dp1684
g54
(dp1685
sg63
g1670
sg56
(lp1686
g49
(g50
g51
NtRp1687
(dp1688
g54
(dp1689
g62
I4
ssg63
g1683
sg56
(lp1690
S'http://127.0.0.1:8000'
p1691
asbasbasbag49
(g65
g51
NtRp1692
(dp1693
g54
(dp1694
sg63
g1248
sg56
(lp1695
g49
(g70
g51
NtRp1696
(dp1697
g54
(dp1698
g74
g75
ssg63
g1692
sg56
(lp1699
S'http_referer'
p1700
asbag49
(g70
g51
NtRp1701
(dp1702
g54
(dp1703
g81
g82
ssg63
g1692
sg56
(lp1704
S':'
asbag49
(g70
g51
NtRp1705
(dp1706
g54
(dp1707
sg63
g1692
sg56
(lp1708
g49
(g50
g51
NtRp1709
(dp1710
g54
(dp1711
g62
I4
ssg63
g1705
sg56
(lp1712
S'http://127.0.0.1:8000/SlugBarter/default/postlisting.html'
p1713
asbasbasbag49
(g65
g51
NtRp1714
(dp1715
g54
(dp1716
sg63
g1248
sg56
(lp1717
g49
(g70
g51
NtRp1718
(dp1719
g54
(dp1720
g74
g75
ssg63
g1714
sg56
(lp1721
S'http_user_agent'
p1722
asbag49
(g70
g51
NtRp1723
(dp1724
g54
(dp1725
g81
g82
ssg63
g1714
sg56
(lp1726
S':'
asbag49
(g70
g51
NtRp1727
(dp1728
g54
(dp1729
sg63
g1714
sg56
(lp1730
g49
(g50
g51
NtRp1731
(dp1732
g54
(dp1733
g62
I4
ssg63
g1727
sg56
(lp1734
S'Mozilla/5.0 (Windows NT 6.1) AppleWebKit/537.11 (KHTML, like Gecko) Chrome/23.0.1271.64 Safari/537.11'
p1735
asbasbasbag49
(g65
g51
NtRp1736
(dp1737
g54
(dp1738
sg63
g1248
sg56
(lp1739
g49
(g70
g51
NtRp1740
(dp1741
g54
(dp1742
g74
g75
ssg63
g1736
sg56
(lp1743
S'is_jython'
p1744
asbag49
(g70
g51
NtRp1745
(dp1746
g54
(dp1747
g81
g82
ssg63
g1736
sg56
(lp1748
S':'
asbag49
(g70
g51
NtRp1749
(dp1750
g54
(dp1751
sg63
g1736
sg56
(lp1752
g49
(g50
g51
NtRp1753
(dp1754
g54
(dp1755
g62
I4
ssg63
g1749
sg56
(lp1756
g92
asbasbasbag49
(g65
g51
NtRp1757
(dp1758
g54
(dp1759
sg63
g1248
sg56
(lp1760
g49
(g70
g51
NtRp1761
(dp1762
g54
(dp1763
g74
g75
ssg63
g1757
sg56
(lp1764
S'is_pypy'
p1765
asbag49
(g70
g51
NtRp1766
(dp1767
g54
(dp1768
g81
g82
ssg63
g1757
sg56
(lp1769
S':'
asbag49
(g70
g51
NtRp1770
(dp1771
g54
(dp1772
sg63
g1757
sg56
(lp1773
g49
(g50
g51
NtRp1774
(dp1775
g54
(dp1776
g62
I4
ssg63
g1770
sg56
(lp1777
g92
asbasbasbag49
(g65
g51
NtRp1778
(dp1779
g54
(dp1780
sg63
g1248
sg56
(lp1781
g49
(g70
g51
NtRp1782
(dp1783
g54
(dp1784
g74
g75
ssg63
g1778
sg56
(lp1785
S'path_info'
p1786
asbag49
(g70
g51
NtRp1787
(dp1788
g54
(dp1789
g81
g82
ssg63
g1778
sg56
(lp1790
S':'
asbag49
(g70
g51
NtRp1791
(dp1792
g54
(dp1793
sg63
g1778
sg56
(lp1794
g49
(g50
g51
NtRp1795
(dp1796
g54
(dp1797
g62
I4
ssg63
g1791
sg56
(lp1798
S'/SlugBarter/default/postlisting.html'
p1799
asbasbasbag49
(g65
g51
NtRp1800
(dp1801
g54
(dp1802
sg63
g1248
sg56
(lp1803
g49
(g70
g51
NtRp1804
(dp1805
g54
(dp1806
g74
g75
ssg63
g1800
sg56
(lp1807
S'query_string'
p1808
asbag49
(g70
g51
NtRp1809
(dp1810
g54
(dp1811
g81
g82
ssg63
g1800
sg56
(lp1812
S':'
asbag49
(g70
g51
NtRp1813
(dp1814
g54
(dp1815
sg63
g1800
sg56
(lp1816
g49
(g50
g51
NtRp1817
(dp1818
g54
(dp1819
g62
I4
ssg63
g1813
sg56
(lp1820
S''
asbasbasbag49
(g65
g51
NtRp1821
(dp1822
g54
(dp1823
sg63
g1248
sg56
(lp1824
g49
(g70
g51
NtRp1825
(dp1826
g54
(dp1827
g74
g75
ssg63
g1821
sg56
(lp1828
S'remote_addr'
p1829
asbag49
(g70
g51
NtRp1830
(dp1831
g54
(dp1832
g81
g82
ssg63
g1821
sg56
(lp1833
S':'
asbag49
(g70
g51
NtRp1834
(dp1835
g54
(dp1836
sg63
g1821
sg56
(lp1837
g49
(g50
g51
NtRp1838
(dp1839
g54
(dp1840
g62
I4
ssg63
g1834
sg56
(lp1841
g182
asbasbasbag49
(g65
g51
NtRp1842
(dp1843
g54
(dp1844
sg63
g1248
sg56
(lp1845
g49
(g70
g51
NtRp1846
(dp1847
g54
(dp1848
g74
g75
ssg63
g1842
sg56
(lp1849
S'remote_port'
p1850
asbag49
(g70
g51
NtRp1851
(dp1852
g54
(dp1853
g81
g82
ssg63
g1842
sg56
(lp1854
S':'
asbag49
(g70
g51
NtRp1855
(dp1856
g54
(dp1857
sg63
g1842
sg56
(lp1858
g49
(g50
g51
NtRp1859
(dp1860
g54
(dp1861
g62
I4
ssg63
g1855
sg56
(lp1862
S'49483'
p1863
asbasbasbag49
(g65
g51
NtRp1864
(dp1865
g54
(dp1866
sg63
g1248
sg56
(lp1867
g49
(g70
g51
NtRp1868
(dp1869
g54
(dp1870
g74
g75
ssg63
g1864
sg56
(lp1871
S'request_method'
p1872
asbag49
(g70
g51
NtRp1873
(dp1874
g54
(dp1875
g81
g82
ssg63
g1864
sg56
(lp1876
S':'
asbag49
(g70
g51
NtRp1877
(dp1878
g54
(dp1879
sg63
g1864
sg56
(lp1880
g49
(g50
g51
NtRp1881
(dp1882
g54
(dp1883
g62
I4
ssg63
g1877
sg56
(lp1884
S'POST'
p1885
asbasbasbag49
(g65
g51
NtRp1886
(dp1887
g54
(dp1888
sg63
g1248
sg56
(lp1889
g49
(g70
g51
NtRp1890
(dp1891
g54
(dp1892
g74
g75
ssg63
g1886
sg56
(lp1893
S'script_name'
p1894
asbag49
(g70
g51
NtRp1895
(dp1896
g54
(dp1897
g81
g82
ssg63
g1886
sg56
(lp1898
S':'
asbag49
(g70
g51
NtRp1899
(dp1900
g54
(dp1901
sg63
g1886
sg56
(lp1902
g49
(g50
g51
NtRp1903
(dp1904
g54
(dp1905
g62
I4
ssg63
g1899
sg56
(lp1906
S''
asbasbasbag49
(g65
g51
NtRp1907
(dp1908
g54
(dp1909
sg63
g1248
sg56
(lp1910
g49
(g70
g51
NtRp1911
(dp1912
g54
(dp1913
g74
g75
ssg63
g1907
sg56
(lp1914
S'server_name'
p1915
asbag49
(g70
g51
NtRp1916
(dp1917
g54
(dp1918
g81
g82
ssg63
g1907
sg56
(lp1919
S':'
asbag49
(g70
g51
NtRp1920
(dp1921
g54
(dp1922
sg63
g1907
sg56
(lp1923
g49
(g50
g51
NtRp1924
(dp1925
g54
(dp1926
g62
I4
ssg63
g1920
sg56
(lp1927
S'omkara-PC'
p1928
asbasbasbag49
(g65
g51
NtRp1929
(dp1930
g54
(dp1931
sg63
g1248
sg56
(lp1932
g49
(g70
g51
NtRp1933
(dp1934
g54
(dp1935
g74
g75
ssg63
g1929
sg56
(lp1936
S'server_port'
p1937
asbag49
(g70
g51
NtRp1938
(dp1939
g54
(dp1940
g81
g82
ssg63
g1929
sg56
(lp1941
S':'
asbag49
(g70
g51
NtRp1942
(dp1943
g54
(dp1944
sg63
g1929
sg56
(lp1945
g49
(g50
g51
NtRp1946
(dp1947
g54
(dp1948
g62
I4
ssg63
g1942
sg56
(lp1949
S'8000'
p1950
asbasbasbag49
(g65
g51
NtRp1951
(dp1952
g54
(dp1953
sg63
g1248
sg56
(lp1954
g49
(g70
g51
NtRp1955
(dp1956
g54
(dp1957
g74
g75
ssg63
g1951
sg56
(lp1958
S'server_protocol'
p1959
asbag49
(g70
g51
NtRp1960
(dp1961
g54
(dp1962
g81
g82
ssg63
g1951
sg56
(lp1963
S':'
asbag49
(g70
g51
NtRp1964
(dp1965
g54
(dp1966
sg63
g1951
sg56
(lp1967
g49
(g50
g51
NtRp1968
(dp1969
g54
(dp1970
g62
I4
ssg63
g1964
sg56
(lp1971
S'HTTP/1.1'
p1972
asbasbasbag49
(g65
g51
NtRp1973
(dp1974
g54
(dp1975
sg63
g1248
sg56
(lp1976
g49
(g70
g51
NtRp1977
(dp1978
g54
(dp1979
g74
g75
ssg63
g1973
sg56
(lp1980
S'server_software'
p1981
asbag49
(g70
g51
NtRp1982
(dp1983
g54
(dp1984
g81
g82
ssg63
g1973
sg56
(lp1985
S':'
asbag49
(g70
g51
NtRp1986
(dp1987
g54
(dp1988
sg63
g1973
sg56
(lp1989
g49
(g50
g51
NtRp1990
(dp1991
g54
(dp1992
g62
I4
ssg63
g1986
sg56
(lp1993
S'Rocket 1.2.4'
p1994
asbasbasbag49
(g65
g51
NtRp1995
(dp1996
g54
(dp1997
sg63
g1248
sg56
(lp1998
g49
(g70
g51
NtRp1999
(dp2000
g54
(dp2001
g74
g75
ssg63
g1995
sg56
(lp2002
S'web2py_crontype'
p2003
asbag49
(g70
g51
NtRp2004
(dp2005
g54
(dp2006
g81
g82
ssg63
g1995
sg56
(lp2007
S':'
asbag49
(g70
g51
NtRp2008
(dp2009
g54
(dp2010
sg63
g1995
sg56
(lp2011
g49
(g50
g51
NtRp2012
(dp2013
g54
(dp2014
g62
I4
ssg63
g2008
sg56
(lp2015
S'hard'
p2016
asbasbasbag49
(g65
g51
NtRp2017
(dp2018
g54
(dp2019
sg63
g1248
sg56
(lp2020
g49
(g70
g51
NtRp2021
(dp2022
g54
(dp2023
g74
g75
ssg63
g2017
sg56
(lp2024
S'web2py_path'
p2025
asbag49
(g70
g51
NtRp2026
(dp2027
g54
(dp2028
g81
g82
ssg63
g2017
sg56
(lp2029
S':'
asbag49
(g70
g51
NtRp2030
(dp2031
g54
(dp2032
sg63
g2017
sg56
(lp2033
g49
(g50
g51
NtRp2034
(dp2035
g54
(dp2036
g62
I4
ssg63
g2030
sg56
(lp2037
g1295
asbasbasbag49
(g65
g51
NtRp2038
(dp2039
g54
(dp2040
sg63
g1248
sg56
(lp2041
g49
(g70
g51
NtRp2042
(dp2043
g54
(dp2044
g74
g75
ssg63
g2038
sg56
(lp2045
S'web2py_version'
p2046
asbag49
(g70
g51
NtRp2047
(dp2048
g54
(dp2049
g81
g82
ssg63
g2038
sg56
(lp2050
S':'
asbag49
(g70
g51
NtRp2051
(dp2052
g54
(dp2053
sg63
g2038
sg56
(lp2054
g49
(g50
g51
NtRp2055
(dp2056
g54
(dp2057
g62
I4
ssg63
g2051
sg56
(lp2058
g49
(g58
g51
NtRp2059
(dp2060
g54
(dp2061
g62
I3
ssg63
Nsg56
(lp2062
g49
(g65
g51
NtRp2063
(dp2064
g54
(dp2065
sg63
g2059
sg56
(lp2066
g49
(g70
g51
NtRp2067
(dp2068
g54
(dp2069
sg63
g2063
sg56
(lp2070
g49
(g50
g51
NtRp2071
(dp2072
g54
(dp2073
g62
I3
ssg63
g2067
sg56
(lp2074
S'1'
asbasbasbag49
(g65
g51
NtRp2075
(dp2076
g54
(dp2077
sg63
g2059
sg56
(lp2078
g49
(g70
g51
NtRp2079
(dp2080
g54
(dp2081
sg63
g2075
sg56
(lp2082
g49
(g50
g51
NtRp2083
(dp2084
g54
(dp2085
g62
I3
ssg63
g2079
sg56
(lp2086
S'99'
p2087
asbasbasbag49
(g65
g51
NtRp2088
(dp2089
g54
(dp2090
sg63
g2059
sg56
(lp2091
g49
(g70
g51
NtRp2092
(dp2093
g54
(dp2094
sg63
g2088
sg56
(lp2095
g49
(g50
g51
NtRp2096
(dp2097
g54
(dp2098
g62
I3
ssg63
g2092
sg56
(lp2099
S'7'
asbasbasbag49
(g65
g51
NtRp2100
(dp2101
g54
(dp2102
sg63
g2059
sg56
(lp2103
g49
(g70
g51
NtRp2104
(dp2105
g54
(dp2106
sg63
g2100
sg56
(lp2107
g49
(g50
g51
NtRp2108
(dp2109
g54
(dp2110
g62
I3
ssg63
g2104
sg56
(lp2111
S'datetime.datetime(2012, 3, 4, 22, 12, 8)'
p2112
asbasbasbag49
(g65
g51
NtRp2113
(dp2114
g54
(dp2115
sg63
g2059
sg56
(lp2116
g49
(g70
g51
NtRp2117
(dp2118
g54
(dp2119
sg63
g2113
sg56
(lp2120
g49
(g50
g51
NtRp2121
(dp2122
g54
(dp2123
g62
I3
ssg63
g2117
sg56
(lp2124
S'stable'
p2125
asbasbasbasbasbasbasbag49
(g65
g51
NtRp2126
(dp2127
g54
(dp2128
sg63
g1248
sg56
(lp2129
g49
(g70
g51
NtRp2130
(dp2131
g54
(dp2132
g74
g75
ssg63
g2126
sg56
(lp2133
S'wsgi_errors'
p2134
asbag49
(g70
g51
NtRp2135
(dp2136
g54
(dp2137
g81
g82
ssg63
g2126
sg56
(lp2138
S':'
asbag49
(g70
g51
NtRp2139
(dp2140
g54
(dp2141
sg63
g2126
sg56
(lp2142
g49
(g50
g51
NtRp2143
(dp2144
g54
(dp2145
g62
I4
ssg63
g2139
sg56
(lp2146
S"<open file '<stderr>', mode 'w' at 0x016000B0>"
p2147
asbasbasbag49
(g65
g51
NtRp2148
(dp2149
g54
(dp2150
sg63
g1248
sg56
(lp2151
g49
(g70
g51
NtRp2152
(dp2153
g54
(dp2154
g74
g75
ssg63
g2148
sg56
(lp2155
S'wsgi_file_wrapper'
p2156
asbag49
(g70
g51
NtRp2157
(dp2158
g54
(dp2159
g81
g82
ssg63
g2148
sg56
(lp2160
S':'
asbag49
(g70
g51
NtRp2161
(dp2162
g54
(dp2163
sg63
g2148
sg56
(lp2164
g49
(g50
g51
NtRp2165
(dp2166
g54
(dp2167
g62
I4
ssg63
g2161
sg56
(lp2168
S'<class wsgiref.util.FileWrapper at 0x025361B0>'
p2169
asbasbasbag49
(g65
g51
NtRp2170
(dp2171
g54
(dp2172
sg63
g1248
sg56
(lp2173
g49
(g70
g51
NtRp2174
(dp2175
g54
(dp2176
g74
g75
ssg63
g2170
sg56
(lp2177
S'wsgi_input'
p2178
asbag49
(g70
g51
NtRp2179
(dp2180
g54
(dp2181
g81
g82
ssg63
g2170
sg56
(lp2182
S':'
asbag49
(g70
g51
NtRp2183
(dp2184
g54
(dp2185
sg63
g2170
sg56
(lp2186
g49
(g50
g51
NtRp2187
(dp2188
g54
(dp2189
g62
I4
ssg63
g2183
sg56
(lp2190
S'<socket._fileobject object at 0x0609A830>'
p2191
asbasbasbag49
(g65
g51
NtRp2192
(dp2193
g54
(dp2194
sg63
g1248
sg56
(lp2195
g49
(g70
g51
NtRp2196
(dp2197
g54
(dp2198
g74
g75
ssg63
g2192
sg56
(lp2199
S'wsgi_multiprocess'
p2200
asbag49
(g70
g51
NtRp2201
(dp2202
g54
(dp2203
g81
g82
ssg63
g2192
sg56
(lp2204
S':'
asbag49
(g70
g51
NtRp2205
(dp2206
g54
(dp2207
sg63
g2192
sg56
(lp2208
g49
(g50
g51
NtRp2209
(dp2210
g54
(dp2211
g62
I4
ssg63
g2205
sg56
(lp2212
g92
asbasbasbag49
(g65
g51
NtRp2213
(dp2214
g54
(dp2215
sg63
g1248
sg56
(lp2216
g49
(g70
g51
NtRp2217
(dp2218
g54
(dp2219
g74
g75
ssg63
g2213
sg56
(lp2220
S'wsgi_multithread'
p2221
asbag49
(g70
g51
NtRp2222
(dp2223
g54
(dp2224
g81
g82
ssg63
g2213
sg56
(lp2225
S':'
asbag49
(g70
g51
NtRp2226
(dp2227
g54
(dp2228
sg63
g2213
sg56
(lp2229
g49
(g50
g51
NtRp2230
(dp2231
g54
(dp2232
g62
I4
ssg63
g2226
sg56
(lp2233
S'True'
p2234
asbasbasbag49
(g65
g51
NtRp2235
(dp2236
g54
(dp2237
sg63
g1248
sg56
(lp2238
g49
(g70
g51
NtRp2239
(dp2240
g54
(dp2241
g74
g75
ssg63
g2235
sg56
(lp2242
S'wsgi_run_once'
p2243
asbag49
(g70
g51
NtRp2244
(dp2245
g54
(dp2246
g81
g82
ssg63
g2235
sg56
(lp2247
S':'
asbag49
(g70
g51
NtRp2248
(dp2249
g54
(dp2250
sg63
g2235
sg56
(lp2251
g49
(g50
g51
NtRp2252
(dp2253
g54
(dp2254
g62
I4
ssg63
g2248
sg56
(lp2255
g92
asbasbasbag49
(g65
g51
NtRp2256
(dp2257
g54
(dp2258
sg63
g1248
sg56
(lp2259
g49
(g70
g51
NtRp2260
(dp2261
g54
(dp2262
g74
g75
ssg63
g2256
sg56
(lp2263
S'wsgi_url_scheme'
p2264
asbag49
(g70
g51
NtRp2265
(dp2266
g54
(dp2267
g81
g82
ssg63
g2256
sg56
(lp2268
S':'
asbag49
(g70
g51
NtRp2269
(dp2270
g54
(dp2271
sg63
g2256
sg56
(lp2272
g49
(g50
g51
NtRp2273
(dp2274
g54
(dp2275
g62
I4
ssg63
g2269
sg56
(lp2276
S'http'
p2277
asbasbasbag49
(g65
g51
NtRp2278
(dp2279
g54
(dp2280
sg63
g1248
sg56
(lp2281
g49
(g70
g51
NtRp2282
(dp2283
g54
(dp2284
g74
g75
ssg63
g2278
sg56
(lp2285
S'wsgi_version'
p2286
asbag49
(g70
g51
NtRp2287
(dp2288
g54
(dp2289
g81
g82
ssg63
g2278
sg56
(lp2290
S':'
asbag49
(g70
g51
NtRp2291
(dp2292
g54
(dp2293
sg63
g2278
sg56
(lp2294
g49
(g50
g51
NtRp2295
(dp2296
g54
(dp2297
g62
I4
ssg63
g2291
sg56
(lp2298
g49
(g58
g51
NtRp2299
(dp2300
g54
(dp2301
g62
I3
ssg63
Nsg56
(lp2302
g49
(g65
g51
NtRp2303
(dp2304
g54
(dp2305
sg63
g2299
sg56
(lp2306
g49
(g70
g51
NtRp2307
(dp2308
g54
(dp2309
sg63
g2303
sg56
(lp2310
g49
(g50
g51
NtRp2311
(dp2312
g54
(dp2313
g62
I3
ssg63
g2307
sg56
(lp2314
S'1'
asbasbasbag49
(g65
g51
NtRp2315
(dp2316
g54
(dp2317
sg63
g2299
sg56
(lp2318
g49
(g70
g51
NtRp2319
(dp2320
g54
(dp2321
sg63
g2315
sg56
(lp2322
g49
(g50
g51
NtRp2323
(dp2324
g54
(dp2325
g62
I3
ssg63
g2319
sg56
(lp2326
S'0'
asbasbasbasbasbasbasbasbasbasbasbag49
(g65
g51
NtRp2327
(dp2328
g54
(dp2329
sg63
g59
sg56
(lp2330
g49
(g70
g51
NtRp2331
(dp2332
g54
(dp2333
g74
g75
ssg63
g2327
sg56
(lp2334
S'extension'
p2335
asbag49
(g70
g51
NtRp2336
(dp2337
g54
(dp2338
g81
g82
ssg63
g2327
sg56
(lp2339
S':'
asbag49
(g70
g51
NtRp2340
(dp2341
g54
(dp2342
sg63
g2327
sg56
(lp2343
g49
(g50
g51
NtRp2344
(dp2345
g54
(dp2346
g62
I5
ssg63
g2340
sg56
(lp2347
S'html'
p2348
asbasbasbag49
(g65
g51
NtRp2349
(dp2350
g54
(dp2351
sg63
g59
sg56
(lp2352
g49
(g70
g51
NtRp2353
(dp2354
g54
(dp2355
g74
g75
ssg63
g2349
sg56
(lp2356
S'folder'
p2357
asbag49
(g70
g51
NtRp2358
(dp2359
g54
(dp2360
g81
g82
ssg63
g2349
sg56
(lp2361
S':'
asbag49
(g70
g51
NtRp2362
(dp2363
g54
(dp2364
sg63
g2349
sg56
(lp2365
g49
(g50
g51
NtRp2366
(dp2367
g54
(dp2368
g62
I5
ssg63
g2362
sg56
(lp2369
S'C:\\Users\\omkara\\Desktop\\web2py\\applications\\SlugBarter\\'
p2370
asbasbasbag49
(g65
g51
NtRp2371
(dp2372
g54
(dp2373
sg63
g59
sg56
(lp2374
g49
(g70
g51
NtRp2375
(dp2376
g54
(dp2377
g74
g75
ssg63
g2371
sg56
(lp2378
S'function'
p2379
asbag49
(g70
g51
NtRp2380
(dp2381
g54
(dp2382
g81
g82
ssg63
g2371
sg56
(lp2383
S':'
asbag49
(g70
g51
NtRp2384
(dp2385
g54
(dp2386
sg63
g2371
sg56
(lp2387
g49
(g50
g51
NtRp2388
(dp2389
g54
(dp2390
g62
I5
ssg63
g2384
sg56
(lp2391
S'postlisting'
p2392
asbasbasbag49
(g65
g51
NtRp2393
(dp2394
g54
(dp2395
sg63
g59
sg56
(lp2396
g49
(g70
g51
NtRp2397
(dp2398
g54
(dp2399
g74
g75
ssg63
g2393
sg56
(lp2400
S'get_vars'
p2401
asbag49
(g70
g51
NtRp2402
(dp2403
g54
(dp2404
g81
g82
ssg63
g2393
sg56
(lp2405
S':'
asbag49
(g70
g51
NtRp2406
(dp2407
g54
(dp2408
sg63
g2393
sg56
(lp2409
g49
(g50
g51
NtRp2410
(dp2411
g54
(dp2412
g62
I5
ssg63
g2406
sg56
(lp2413
g49
(g58
g51
NtRp2414
(dp2415
g54
(dp2416
g62
I4
ssg63
Nsg56
(lp2417
sbasbasbasbag49
(g65
g51
NtRp2418
(dp2419
g54
(dp2420
sg63
g59
sg56
(lp2421
g49
(g70
g51
NtRp2422
(dp2423
g54
(dp2424
g74
g75
ssg63
g2418
sg56
(lp2425
S'global_settings'
p2426
asbag49
(g70
g51
NtRp2427
(dp2428
g54
(dp2429
g81
g82
ssg63
g2418
sg56
(lp2430
S':'
asbag49
(g70
g51
NtRp2431
(dp2432
g54
(dp2433
sg63
g2418
sg56
(lp2434
g49
(g50
g51
NtRp2435
(dp2436
g54
(dp2437
g62
I5
ssg63
g2431
sg56
(lp2438
g49
(g58
g51
NtRp2439
(dp2440
g54
(dp2441
g62
I4
ssg63
Nsg56
(lp2442
g49
(g65
g51
NtRp2443
(dp2444
g54
(dp2445
sg63
g2439
sg56
(lp2446
g49
(g70
g51
NtRp2447
(dp2448
g54
(dp2449
g74
g75
ssg63
g2443
sg56
(lp2450
g1260
asbag49
(g70
g51
NtRp2451
(dp2452
g54
(dp2453
g81
g82
ssg63
g2443
sg56
(lp2454
S':'
asbag49
(g70
g51
NtRp2455
(dp2456
g54
(dp2457
sg63
g2443
sg56
(lp2458
g49
(g50
g51
NtRp2459
(dp2460
g54
(dp2461
g62
I4
ssg63
g2455
sg56
(lp2462
S"set(['C:\\\\Users\\\\omkara\\\\Desktop\\\\web2py\\\\applications\\\\newA\\\\', 'C:\\\\Users\\\\omkara\\\\Desktop\\\\web2py\\\\applications\\\\slug_register_page\\\\', 'C:\\\\Users\\\\omkara\\\\Desktop\\\\web2py\\\\applications\\\\admin\\\\', 'C:\\\\Users\\\\omkara\\\\Desktop\\\\web2py\\\\applications\\\\welcome\\\\', 'C:\\\\Users\\\\omkara\\\\Desktop\\\\web2py\\\\applications\\\\slug_register\\\\', 'C:\\\\Users\\\\omkara\\\\Desktop\\\\web2py\\\\applications\\\\SlugBarter\\\\', 'C:\\\\Users\\\\omkara\\\\Desktop\\\\web2py\\\\applications\\\\testApp\\\\'])"
p2463
asbasbasbag49
(g65
g51
NtRp2464
(dp2465
g54
(dp2466
sg63
g2439
sg56
(lp2467
g49
(g70
g51
NtRp2468
(dp2469
g54
(dp2470
g74
g75
ssg63
g2464
sg56
(lp2471
g1282
asbag49
(g70
g51
NtRp2472
(dp2473
g54
(dp2474
g81
g82
ssg63
g2464
sg56
(lp2475
S':'
asbag49
(g70
g51
NtRp2476
(dp2477
g54
(dp2478
sg63
g2464
sg56
(lp2479
g49
(g50
g51
NtRp2480
(dp2481
g54
(dp2482
g62
I4
ssg63
g2476
sg56
(lp2483
g1295
asbasbasbag49
(g65
g51
NtRp2484
(dp2485
g54
(dp2486
sg63
g2439
sg56
(lp2487
g49
(g70
g51
NtRp2488
(dp2489
g54
(dp2490
g74
g75
ssg63
g2484
sg56
(lp2491
g1304
asbag49
(g70
g51
NtRp2492
(dp2493
g54
(dp2494
g81
g82
ssg63
g2484
sg56
(lp2495
S':'
asbag49
(g70
g51
NtRp2496
(dp2497
g54
(dp2498
sg63
g2484
sg56
(lp2499
g49
(g50
g51
NtRp2500
(dp2501
g54
(dp2502
g62
I4
ssg63
g2496
sg56
(lp2503
g49
(g58
g51
NtRp2504
(dp2505
g54
(dp2506
g62
I3
ssg63
Nsg56
(lp2507
sbasbasbasbag49
(g65
g51
NtRp2508
(dp2509
g54
(dp2510
sg63
g2439
sg56
(lp2511
g49
(g70
g51
NtRp2512
(dp2513
g54
(dp2514
g74
g75
ssg63
g2508
sg56
(lp2515
g1329
asbag49
(g70
g51
NtRp2516
(dp2517
g54
(dp2518
g81
g82
ssg63
g2508
sg56
(lp2519
S':'
asbag49
(g70
g51
NtRp2520
(dp2521
g54
(dp2522
sg63
g2508
sg56
(lp2523
g49
(g50
g51
NtRp2524
(dp2525
g54
(dp2526
g62
I4
ssg63
g2520
sg56
(lp2527
S"<Values at 0x27b1f80: {'verbose': False, 'ip': '127.0.0.1', 'shutdown_timeout': 5, 'taskbar': False, 'nocron': False, 'pid_filename': 'httpserver.pid', 'maxthreads': None, 'softcron': False, 'server_name': 'omkara-PC', 'bpython': False, 'nogui': False, 'port': 8000, 'extcron': False, 'debuglevel': 30, 'test': None, 'folder': 'C:\\\\Users\\\\omkara\\\\Desktop\\\\web2py', 'config': '', 'import_models': False, 'winservice': '', 'shell': None, 'run': '', 'log_filename': 'httpserver.log', 'args': [''], 'socket_timeout': 5, 'ssl_ca_certificate': None, 'scheduler': None, 'profiler_filename': None, 'ssl_private_key': '', 'password': '<ask>', 'request_queue_size': 5, 'ssl_certificate': '', 'cronjob': False, 'numthreads': None, 'quiet': False, 'interfaces': None, 'minthreads': None, 'timeout': 10, 'plain': False, 'nobanner': False}>"
p2528
asbasbasbag49
(g65
g51
NtRp2529
(dp2530
g54
(dp2531
sg63
g2439
sg56
(lp2532
g49
(g70
g51
NtRp2533
(dp2534
g54
(dp2535
g74
g75
ssg63
g2529
sg56
(lp2536
g1395
asbag49
(g70
g51
NtRp2537
(dp2538
g54
(dp2539
g81
g82
ssg63
g2529
sg56
(lp2540
S':'
asbag49
(g70
g51
NtRp2541
(dp2542
g54
(dp2543
sg63
g2529
sg56
(lp2544
g49
(g50
g51
NtRp2545
(dp2546
g54
(dp2547
g62
I4
ssg63
g2541
sg56
(lp2548
S'set([])'
p2549
asbasbasbag49
(g65
g51
NtRp2550
(dp2551
g54
(dp2552
sg63
g2439
sg56
(lp2553
g49
(g70
g51
NtRp2554
(dp2555
g54
(dp2556
g74
g75
ssg63
g2550
sg56
(lp2557
g1417
asbag49
(g70
g51
NtRp2558
(dp2559
g54
(dp2560
g81
g82
ssg63
g2550
sg56
(lp2561
S':'
asbag49
(g70
g51
NtRp2562
(dp2563
g54
(dp2564
sg63
g2550
sg56
(lp2565
g49
(g50
g51
NtRp2566
(dp2567
g54
(dp2568
g62
I4
ssg63
g2562
sg56
(lp2569
g92
asbasbasbag49
(g65
g51
NtRp2570
(dp2571
g54
(dp2572
sg63
g2439
sg56
(lp2573
g49
(g70
g51
NtRp2574
(dp2575
g54
(dp2576
g74
g75
ssg63
g2570
sg56
(lp2577
g1438
asbag49
(g70
g51
NtRp2578
(dp2579
g54
(dp2580
g81
g82
ssg63
g2570
sg56
(lp2581
S':'
asbag49
(g70
g51
NtRp2582
(dp2583
g54
(dp2584
sg63
g2570
sg56
(lp2585
g49
(g50
g51
NtRp2586
(dp2587
g54
(dp2588
g62
I4
ssg63
g2582
sg56
(lp2589
g1451
asbasbasbag49
(g65
g51
NtRp2590
(dp2591
g54
(dp2592
sg63
g2439
sg56
(lp2593
g49
(g70
g51
NtRp2594
(dp2595
g54
(dp2596
g74
g75
ssg63
g2590
sg56
(lp2597
g1744
asbag49
(g70
g51
NtRp2598
(dp2599
g54
(dp2600
g81
g82
ssg63
g2590
sg56
(lp2601
S':'
asbag49
(g70
g51
NtRp2602
(dp2603
g54
(dp2604
sg63
g2590
sg56
(lp2605
g49
(g50
g51
NtRp2606
(dp2607
g54
(dp2608
g62
I4
ssg63
g2602
sg56
(lp2609
g92
asbasbasbag49
(g65
g51
NtRp2610
(dp2611
g54
(dp2612
sg63
g2439
sg56
(lp2613
g49
(g70
g51
NtRp2614
(dp2615
g54
(dp2616
g74
g75
ssg63
g2610
sg56
(lp2617
g1765
asbag49
(g70
g51
NtRp2618
(dp2619
g54
(dp2620
g81
g82
ssg63
g2610
sg56
(lp2621
S':'
asbag49
(g70
g51
NtRp2622
(dp2623
g54
(dp2624
sg63
g2610
sg56
(lp2625
g49
(g50
g51
NtRp2626
(dp2627
g54
(dp2628
g62
I4
ssg63
g2622
sg56
(lp2629
g92
asbasbasbag49
(g65
g51
NtRp2630
(dp2631
g54
(dp2632
sg63
g2439
sg56
(lp2633
g49
(g70
g51
NtRp2634
(dp2635
g54
(dp2636
g74
g75
ssg63
g2630
sg56
(lp2637
g2003
asbag49
(g70
g51
NtRp2638
(dp2639
g54
(dp2640
g81
g82
ssg63
g2630
sg56
(lp2641
S':'
asbag49
(g70
g51
NtRp2642
(dp2643
g54
(dp2644
sg63
g2630
sg56
(lp2645
g49
(g50
g51
NtRp2646
(dp2647
g54
(dp2648
g62
I4
ssg63
g2642
sg56
(lp2649
g2016
asbasbasbag49
(g65
g51
NtRp2650
(dp2651
g54
(dp2652
sg63
g2439
sg56
(lp2653
g49
(g70
g51
NtRp2654
(dp2655
g54
(dp2656
g74
g75
ssg63
g2650
sg56
(lp2657
g2046
asbag49
(g70
g51
NtRp2658
(dp2659
g54
(dp2660
g81
g82
ssg63
g2650
sg56
(lp2661
S':'
asbag49
(g70
g51
NtRp2662
(dp2663
g54
(dp2664
sg63
g2650
sg56
(lp2665
g49
(g50
g51
NtRp2666
(dp2667
g54
(dp2668
g62
I4
ssg63
g2662
sg56
(lp2669
g49
(g58
g51
NtRp2670
(dp2671
g54
(dp2672
g62
I3
ssg63
Nsg56
(lp2673
g49
(g65
g51
NtRp2674
(dp2675
g54
(dp2676
sg63
g2670
sg56
(lp2677
g49
(g70
g51
NtRp2678
(dp2679
g54
(dp2680
sg63
g2674
sg56
(lp2681
g49
(g50
g51
NtRp2682
(dp2683
g54
(dp2684
g62
I3
ssg63
g2678
sg56
(lp2685
S'1'
asbasbasbag49
(g65
g51
NtRp2686
(dp2687
g54
(dp2688
sg63
g2670
sg56
(lp2689
g49
(g70
g51
NtRp2690
(dp2691
g54
(dp2692
sg63
g2686
sg56
(lp2693
g49
(g50
g51
NtRp2694
(dp2695
g54
(dp2696
g62
I3
ssg63
g2690
sg56
(lp2697
S'99'
p2698
asbasbasbag49
(g65
g51
NtRp2699
(dp2700
g54
(dp2701
sg63
g2670
sg56
(lp2702
g49
(g70
g51
NtRp2703
(dp2704
g54
(dp2705
sg63
g2699
sg56
(lp2706
g49
(g50
g51
NtRp2707
(dp2708
g54
(dp2709
g62
I3
ssg63
g2703
sg56
(lp2710
S'7'
asbasbasbag49
(g65
g51
NtRp2711
(dp2712
g54
(dp2713
sg63
g2670
sg56
(lp2714
g49
(g70
g51
NtRp2715
(dp2716
g54
(dp2717
sg63
g2711
sg56
(lp2718
g49
(g50
g51
NtRp2719
(dp2720
g54
(dp2721
g62
I3
ssg63
g2715
sg56
(lp2722
S'datetime.datetime(2012, 3, 4, 22, 12, 8)'
p2723
asbasbasbag49
(g65
g51
NtRp2724
(dp2725
g54
(dp2726
sg63
g2670
sg56
(lp2727
g49
(g70
g51
NtRp2728
(dp2729
g54
(dp2730
sg63
g2724
sg56
(lp2731
g49
(g50
g51
NtRp2732
(dp2733
g54
(dp2734
g62
I3
ssg63
g2728
sg56
(lp2735
g2125
asbasbasbasbasbasbasbasbasbasbasbag49
(g65
g51
NtRp2736
(dp2737
g54
(dp2738
sg63
g59
sg56
(lp2739
g49
(g70
g51
NtRp2740
(dp2741
g54
(dp2742
g74
g75
ssg63
g2736
sg56
(lp2743
S'is_https'
p2744
asbag49
(g70
g51
NtRp2745
(dp2746
g54
(dp2747
g81
g82
ssg63
g2736
sg56
(lp2748
S':'
asbag49
(g70
g51
NtRp2749
(dp2750
g54
(dp2751
sg63
g2736
sg56
(lp2752
g49
(g50
g51
NtRp2753
(dp2754
g54
(dp2755
g62
I5
ssg63
g2749
sg56
(lp2756
g92
asbasbasbag49
(g65
g51
NtRp2757
(dp2758
g54
(dp2759
sg63
g59
sg56
(lp2760
g49
(g70
g51
NtRp2761
(dp2762
g54
(dp2763
g74
g75
ssg63
g2757
sg56
(lp2764
S'is_local'
p2765
asbag49
(g70
g51
NtRp2766
(dp2767
g54
(dp2768
g81
g82
ssg63
g2757
sg56
(lp2769
S':'
asbag49
(g70
g51
NtRp2770
(dp2771
g54
(dp2772
sg63
g2757
sg56
(lp2773
g49
(g50
g51
NtRp2774
(dp2775
g54
(dp2776
g62
I5
ssg63
g2770
sg56
(lp2777
g2234
asbasbasbag49
(g65
g51
NtRp2778
(dp2779
g54
(dp2780
sg63
g59
sg56
(lp2781
g49
(g70
g51
NtRp2782
(dp2783
g54
(dp2784
g74
g75
ssg63
g2778
sg56
(lp2785
S'is_restful'
p2786
asbag49
(g70
g51
NtRp2787
(dp2788
g54
(dp2789
g81
g82
ssg63
g2778
sg56
(lp2790
S':'
asbag49
(g70
g51
NtRp2791
(dp2792
g54
(dp2793
sg63
g2778
sg56
(lp2794
g49
(g50
g51
NtRp2795
(dp2796
g54
(dp2797
g62
I5
ssg63
g2791
sg56
(lp2798
g92
asbasbasbag49
(g65
g51
NtRp2799
(dp2800
g54
(dp2801
sg63
g59
sg56
(lp2802
g49
(g70
g51
NtRp2803
(dp2804
g54
(dp2805
g74
g75
ssg63
g2799
sg56
(lp2806
S'now'
p2807
asbag49
(g70
g51
NtRp2808
(dp2809
g54
(dp2810
g81
g82
ssg63
g2799
sg56
(lp2811
S':'
asbag49
(g70
g51
NtRp2812
(dp2813
g54
(dp2814
sg63
g2799
sg56
(lp2815
g49
(g50
g51
NtRp2816
(dp2817
g54
(dp2818
g62
I5
ssg63
g2812
sg56
(lp2819
S'datetime.datetime(2012, 11, 11, 18, 39, 0, 42000)'
p2820
asbasbasbag49
(g65
g51
NtRp2821
(dp2822
g54
(dp2823
sg63
g59
sg56
(lp2824
g49
(g70
g51
NtRp2825
(dp2826
g54
(dp2827
g74
g75
ssg63
g2821
sg56
(lp2828
S'post_vars'
p2829
asbag49
(g70
g51
NtRp2830
(dp2831
g54
(dp2832
g81
g82
ssg63
g2821
sg56
(lp2833
S':'
asbag49
(g70
g51
NtRp2834
(dp2835
g54
(dp2836
sg63
g2821
sg56
(lp2837
g49
(g50
g51
NtRp2838
(dp2839
g54
(dp2840
g62
I5
ssg63
g2834
sg56
(lp2841
g49
(g58
g51
NtRp2842
(dp2843
g54
(dp2844
g62
I4
ssg63
Nsg56
(lp2845
g49
(g65
g51
NtRp2846
(dp2847
g54
(dp2848
sg63
g2842
sg56
(lp2849
g49
(g70
g51
NtRp2850
(dp2851
g54
(dp2852
g74
g75
ssg63
g2846
sg56
(lp2853
S'description'
p2854
asbag49
(g70
g51
NtRp2855
(dp2856
g54
(dp2857
g81
g82
ssg63
g2846
sg56
(lp2858
S':'
asbag49
(g70
g51
NtRp2859
(dp2860
g54
(dp2861
sg63
g2846
sg56
(lp2862
g49
(g50
g51
NtRp2863
(dp2864
g54
(dp2865
g62
I4
ssg63
g2859
sg56
(lp2866
S'oil change'
p2867
asbasbasbag49
(g65
g51
NtRp2868
(dp2869
g54
(dp2870
sg63
g2842
sg56
(lp2871
g49
(g70
g51
NtRp2872
(dp2873
g54
(dp2874
g74
g75
ssg63
g2868
sg56
(lp2875
S'owner'
p2876
asbag49
(g70
g51
NtRp2877
(dp2878
g54
(dp2879
g81
g82
ssg63
g2868
sg56
(lp2880
S':'
asbag49
(g70
g51
NtRp2881
(dp2882
g54
(dp2883
sg63
g2868
sg56
(lp2884
g49
(g50
g51
NtRp2885
(dp2886
g54
(dp2887
g62
I4
ssg63
g2881
sg56
(lp2888
S'2'
asbasbasbag49
(g65
g51
NtRp2889
(dp2890
g54
(dp2891
sg63
g2842
sg56
(lp2892
g49
(g70
g51
NtRp2893
(dp2894
g54
(dp2895
g74
g75
ssg63
g2889
sg56
(lp2896
S'services'
p2897
asbag49
(g70
g51
NtRp2898
(dp2899
g54
(dp2900
g81
g82
ssg63
g2889
sg56
(lp2901
S':'
asbag49
(g70
g51
NtRp2902
(dp2903
g54
(dp2904
sg63
g2889
sg56
(lp2905
g49
(g50
g51
NtRp2906
(dp2907
g54
(dp2908
g62
I4
ssg63
g2902
sg56
(lp2909
S'Repair Services'
p2910
asbasbasbag49
(g65
g51
NtRp2911
(dp2912
g54
(dp2913
sg63
g2842
sg56
(lp2914
g49
(g70
g51
NtRp2915
(dp2916
g54
(dp2917
g74
g75
ssg63
g2911
sg56
(lp2918
S'title'
p2919
asbag49
(g70
g51
NtRp2920
(dp2921
g54
(dp2922
g81
g82
ssg63
g2911
sg56
(lp2923
S':'
asbag49
(g70
g51
NtRp2924
(dp2925
g54
(dp2926
sg63
g2911
sg56
(lp2927
g49
(g50
g51
NtRp2928
(dp2929
g54
(dp2930
g62
I4
ssg63
g2924
sg56
(lp2931
S'car repair'
p2932
asbasbasbasbasbasbasbag49
(g65
g51
NtRp2933
(dp2934
g54
(dp2935
sg63
g59
sg56
(lp2936
g49
(g70
g51
NtRp2937
(dp2938
g54
(dp2939
g74
g75
ssg63
g2933
sg56
(lp2940
S'raw_extension'
p2941
asbag49
(g70
g51
NtRp2942
(dp2943
g54
(dp2944
g81
g82
ssg63
g2933
sg56
(lp2945
S':'
asbag49
(g70
g51
NtRp2946
(dp2947
g54
(dp2948
sg63
g2933
sg56
(lp2949
g49
(g50
g51
NtRp2950
(dp2951
g54
(dp2952
g62
I5
ssg63
g2946
sg56
(lp2953
g2348
asbasbasbag49
(g65
g51
NtRp2954
(dp2955
g54
(dp2956
sg63
g59
sg56
(lp2957
g49
(g70
g51
NtRp2958
(dp2959
g54
(dp2960
g74
g75
ssg63
g2954
sg56
(lp2961
S'url'
p2962
asbag49
(g70
g51
NtRp2963
(dp2964
g54
(dp2965
g81
g82
ssg63
g2954
sg56
(lp2966
S':'
asbag49
(g70
g51
NtRp2967
(dp2968
g54
(dp2969
sg63
g2954
sg56
(lp2970
g49
(g50
g51
NtRp2971
(dp2972
g54
(dp2973
g62
I5
ssg63
g2967
sg56
(lp2974
S'/SlugBarter/default/postlisting.html'
p2975
asbasbasbag49
(g65
g51
NtRp2976
(dp2977
g54
(dp2978
sg63
g59
sg56
(lp2979
g49
(g70
g51
NtRp2980
(dp2981
g54
(dp2982
g74
g75
ssg63
g2976
sg56
(lp2983
S'utcnow'
p2984
asbag49
(g70
g51
NtRp2985
(dp2986
g54
(dp2987
g81
g82
ssg63
g2976
sg56
(lp2988
S':'
asbag49
(g70
g51
NtRp2989
(dp2990
g54
(dp2991
sg63
g2976
sg56
(lp2992
g49
(g50
g51
NtRp2993
(dp2994
g54
(dp2995
g62
I5
ssg63
g2989
sg56
(lp2996
S'datetime.datetime(2012, 11, 12, 2, 39, 0, 42000)'
p2997
asbasbasbag49
(g65
g51
NtRp2998
(dp2999
g54
(dp3000
sg63
g59
sg56
(lp3001
g49
(g70
g51
NtRp3002
(dp3003
g54
(dp3004
g74
g75
ssg63
g2998
sg56
(lp3005
S'uuid'
p3006
asbag49
(g70
g51
NtRp3007
(dp3008
g54
(dp3009
g81
g82
ssg63
g2998
sg56
(lp3010
S':'
asbag49
(g70
g51
NtRp3011
(dp3012
g54
(dp3013
sg63
g2998
sg56
(lp3014
g49
(g50
g51
NtRp3015
(dp3016
g54
(dp3017
g62
I5
ssg63
g3011
sg56
(lp3018
S'SlugBarter/127.0.0.1.2012-11-11.18-39-00.99e6e3f1-4c3c-44a4-97ad-e01d7444ebab'
p3019
asbasbasbag49
(g65
g51
NtRp3020
(dp3021
g54
(dp3022
sg63
g59
sg56
(lp3023
g49
(g70
g51
NtRp3024
(dp3025
g54
(dp3026
g74
g75
ssg63
g3020
sg56
(lp3027
S'vars'
p3028
asbag49
(g70
g51
NtRp3029
(dp3030
g54
(dp3031
g81
g82
ssg63
g3020
sg56
(lp3032
S':'
asbag49
(g70
g51
NtRp3033
(dp3034
g54
(dp3035
sg63
g3020
sg56
(lp3036
g49
(g50
g51
NtRp3037
(dp3038
g54
(dp3039
g62
I5
ssg63
g3033
sg56
(lp3040
g49
(g58
g51
NtRp3041
(dp3042
g54
(dp3043
g62
I4
ssg63
Nsg56
(lp3044
g49
(g65
g51
NtRp3045
(dp3046
g54
(dp3047
sg63
g3041
sg56
(lp3048
g49
(g70
g51
NtRp3049
(dp3050
g54
(dp3051
g74
g75
ssg63
g3045
sg56
(lp3052
g2854
asbag49
(g70
g51
NtRp3053
(dp3054
g54
(dp3055
g81
g82
ssg63
g3045
sg56
(lp3056
S':'
asbag49
(g70
g51
NtRp3057
(dp3058
g54
(dp3059
sg63
g3045
sg56
(lp3060
g49
(g50
g51
NtRp3061
(dp3062
g54
(dp3063
g62
I4
ssg63
g3057
sg56
(lp3064
g2867
asbasbasbag49
(g65
g51
NtRp3065
(dp3066
g54
(dp3067
sg63
g3041
sg56
(lp3068
g49
(g70
g51
NtRp3069
(dp3070
g54
(dp3071
g74
g75
ssg63
g3065
sg56
(lp3072
g2876
asbag49
(g70
g51
NtRp3073
(dp3074
g54
(dp3075
g81
g82
ssg63
g3065
sg56
(lp3076
S':'
asbag49
(g70
g51
NtRp3077
(dp3078
g54
(dp3079
sg63
g3065
sg56
(lp3080
g49
(g50
g51
NtRp3081
(dp3082
g54
(dp3083
g62
I4
ssg63
g3077
sg56
(lp3084
S'2'
asbasbasbag49
(g65
g51
NtRp3085
(dp3086
g54
(dp3087
sg63
g3041
sg56
(lp3088
g49
(g70
g51
NtRp3089
(dp3090
g54
(dp3091
g74
g75
ssg63
g3085
sg56
(lp3092
g2897
asbag49
(g70
g51
NtRp3093
(dp3094
g54
(dp3095
g81
g82
ssg63
g3085
sg56
(lp3096
S':'
asbag49
(g70
g51
NtRp3097
(dp3098
g54
(dp3099
sg63
g3085
sg56
(lp3100
g49
(g50
g51
NtRp3101
(dp3102
g54
(dp3103
g62
I4
ssg63
g3097
sg56
(lp3104
g2910
asbasbasbag49
(g65
g51
NtRp3105
(dp3106
g54
(dp3107
sg63
g3041
sg56
(lp3108
g49
(g70
g51
NtRp3109
(dp3110
g54
(dp3111
g74
g75
ssg63
g3105
sg56
(lp3112
g2919
asbag49
(g70
g51
NtRp3113
(dp3114
g54
(dp3115
g81
g82
ssg63
g3105
sg56
(lp3116
S':'
asbag49
(g70
g51
NtRp3117
(dp3118
g54
(dp3119
sg63
g3105
sg56
(lp3120
g49
(g50
g51
NtRp3121
(dp3122
g54
(dp3123
g62
I4
ssg63
g3117
sg56
(lp3124
g2932
asbasbasbasbasbasbasbag49
(g65
g51
NtRp3125
(dp3126
g54
(dp3127
sg63
g59
sg56
(lp3128
g49
(g70
g51
NtRp3129
(dp3130
g54
(dp3131
g74
g75
ssg63
g3125
sg56
(lp3132
S'wsgi'
p3133
asbag49
(g70
g51
NtRp3134
(dp3135
g54
(dp3136
g81
g82
ssg63
g3125
sg56
(lp3137
S':'
asbag49
(g70
g51
NtRp3138
(dp3139
g54
(dp3140
sg63
g3125
sg56
(lp3141
g49
(g50
g51
NtRp3142
(dp3143
g54
(dp3144
g62
I5
ssg63
g3138
sg56
(lp3145
g49
(g58
g51
NtRp3146
(dp3147
g54
(dp3148
g62
I4
ssg63
Nsg56
(lp3149
g49
(g65
g51
NtRp3150
(dp3151
g54
(dp3152
sg63
g3146
sg56
(lp3153
g49
(g70
g51
NtRp3154
(dp3155
g54
(dp3156
g74
g75
ssg63
g3150
sg56
(lp3157
S'environ'
p3158
asbag49
(g70
g51
NtRp3159
(dp3160
g54
(dp3161
g81
g82
ssg63
g3150
sg56
(lp3162
S':'
asbag49
(g70
g51
NtRp3163
(dp3164
g54
(dp3165
sg63
g3150
sg56
(lp3166
g49
(g50
g51
NtRp3167
(dp3168
g54
(dp3169
g62
I4
ssg63
g3163
sg56
(lp3170
g49
(g58
g51
NtRp3171
(dp3172
g54
(dp3173
g62
I3
ssg63
Nsg56
(lp3174
g49
(g65
g51
NtRp3175
(dp3176
g54
(dp3177
sg63
g3171
sg56
(lp3178
g49
(g70
g51
NtRp3179
(dp3180
g54
(dp3181
g74
g75
ssg63
g3175
sg56
(lp3182
S'CONTENT_LENGTH'
p3183
asbag49
(g70
g51
NtRp3184
(dp3185
g54
(dp3186
g81
g82
ssg63
g3175
sg56
(lp3187
S':'
asbag49
(g70
g51
NtRp3188
(dp3189
g54
(dp3190
sg63
g3175
sg56
(lp3191
g49
(g50
g51
NtRp3192
(dp3193
g54
(dp3194
g62
I3
ssg63
g3188
sg56
(lp3195
g1364
asbasbasbag49
(g65
g51
NtRp3196
(dp3197
g54
(dp3198
sg63
g3171
sg56
(lp3199
g49
(g70
g51
NtRp3200
(dp3201
g54
(dp3202
g74
g75
ssg63
g3196
sg56
(lp3203
S'CONTENT_TYPE'
p3204
asbag49
(g70
g51
NtRp3205
(dp3206
g54
(dp3207
g81
g82
ssg63
g3196
sg56
(lp3208
S':'
asbag49
(g70
g51
NtRp3209
(dp3210
g54
(dp3211
sg63
g3196
sg56
(lp3212
g49
(g50
g51
NtRp3213
(dp3214
g54
(dp3215
g62
I3
ssg63
g3209
sg56
(lp3216
g1386
asbasbasbag49
(g65
g51
NtRp3217
(dp3218
g54
(dp3219
sg63
g3171
sg56
(lp3220
g49
(g70
g51
NtRp3221
(dp3222
g54
(dp3223
g74
g75
ssg63
g3217
sg56
(lp3224
S'HTTP_ACCEPT'
p3225
asbag49
(g70
g51
NtRp3226
(dp3227
g54
(dp3228
g81
g82
ssg63
g3217
sg56
(lp3229
S':'
asbag49
(g70
g51
NtRp3230
(dp3231
g54
(dp3232
sg63
g3217
sg56
(lp3233
g49
(g50
g51
NtRp3234
(dp3235
g54
(dp3236
g62
I3
ssg63
g3230
sg56
(lp3237
g1473
asbasbasbag49
(g65
g51
NtRp3238
(dp3239
g54
(dp3240
sg63
g3171
sg56
(lp3241
g49
(g70
g51
NtRp3242
(dp3243
g54
(dp3244
g74
g75
ssg63
g3238
sg56
(lp3245
S'HTTP_ACCEPT_CHARSET'
p3246
asbag49
(g70
g51
NtRp3247
(dp3248
g54
(dp3249
g81
g82
ssg63
g3238
sg56
(lp3250
S':'
asbag49
(g70
g51
NtRp3251
(dp3252
g54
(dp3253
sg63
g3238
sg56
(lp3254
g49
(g50
g51
NtRp3255
(dp3256
g54
(dp3257
g62
I3
ssg63
g3251
sg56
(lp3258
g1495
asbasbasbag49
(g65
g51
NtRp3259
(dp3260
g54
(dp3261
sg63
g3171
sg56
(lp3262
g49
(g70
g51
NtRp3263
(dp3264
g54
(dp3265
g74
g75
ssg63
g3259
sg56
(lp3266
S'HTTP_ACCEPT_ENCODING'
p3267
asbag49
(g70
g51
NtRp3268
(dp3269
g54
(dp3270
g81
g82
ssg63
g3259
sg56
(lp3271
S':'
asbag49
(g70
g51
NtRp3272
(dp3273
g54
(dp3274
sg63
g3259
sg56
(lp3275
g49
(g50
g51
NtRp3276
(dp3277
g54
(dp3278
g62
I3
ssg63
g3272
sg56
(lp3279
g1517
asbasbasbag49
(g65
g51
NtRp3280
(dp3281
g54
(dp3282
sg63
g3171
sg56
(lp3283
g49
(g70
g51
NtRp3284
(dp3285
g54
(dp3286
g74
g75
ssg63
g3280
sg56
(lp3287
S'HTTP_ACCEPT_LANGUAGE'
p3288
asbag49
(g70
g51
NtRp3289
(dp3290
g54
(dp3291
g81
g82
ssg63
g3280
sg56
(lp3292
S':'
asbag49
(g70
g51
NtRp3293
(dp3294
g54
(dp3295
sg63
g3280
sg56
(lp3296
g49
(g50
g51
NtRp3297
(dp3298
g54
(dp3299
g62
I3
ssg63
g3293
sg56
(lp3300
g1539
asbasbasbag49
(g65
g51
NtRp3301
(dp3302
g54
(dp3303
sg63
g3171
sg56
(lp3304
g49
(g70
g51
NtRp3305
(dp3306
g54
(dp3307
g74
g75
ssg63
g3301
sg56
(lp3308
S'HTTP_CACHE_CONTROL'
p3309
asbag49
(g70
g51
NtRp3310
(dp3311
g54
(dp3312
g81
g82
ssg63
g3301
sg56
(lp3313
S':'
asbag49
(g70
g51
NtRp3314
(dp3315
g54
(dp3316
sg63
g3301
sg56
(lp3317
g49
(g50
g51
NtRp3318
(dp3319
g54
(dp3320
g62
I3
ssg63
g3314
sg56
(lp3321
g1561
asbasbasbag49
(g65
g51
NtRp3322
(dp3323
g54
(dp3324
sg63
g3171
sg56
(lp3325
g49
(g70
g51
NtRp3326
(dp3327
g54
(dp3328
g74
g75
ssg63
g3322
sg56
(lp3329
S'HTTP_CONNECTION'
p3330
asbag49
(g70
g51
NtRp3331
(dp3332
g54
(dp3333
g81
g82
ssg63
g3322
sg56
(lp3334
S':'
asbag49
(g70
g51
NtRp3335
(dp3336
g54
(dp3337
sg63
g3322
sg56
(lp3338
g49
(g50
g51
NtRp3339
(dp3340
g54
(dp3341
g62
I3
ssg63
g3335
sg56
(lp3342
g1583
asbasbasbag49
(g65
g51
NtRp3343
(dp3344
g54
(dp3345
sg63
g3171
sg56
(lp3346
g49
(g70
g51
NtRp3347
(dp3348
g54
(dp3349
g74
g75
ssg63
g3343
sg56
(lp3350
S'HTTP_CONTENT_LENGTH'
p3351
asbag49
(g70
g51
NtRp3352
(dp3353
g54
(dp3354
g81
g82
ssg63
g3343
sg56
(lp3355
S':'
asbag49
(g70
g51
NtRp3356
(dp3357
g54
(dp3358
sg63
g3343
sg56
(lp3359
g49
(g50
g51
NtRp3360
(dp3361
g54
(dp3362
g62
I3
ssg63
g3356
sg56
(lp3363
g1364
asbasbasbag49
(g65
g51
NtRp3364
(dp3365
g54
(dp3366
sg63
g3171
sg56
(lp3367
g49
(g70
g51
NtRp3368
(dp3369
g54
(dp3370
g74
g75
ssg63
g3364
sg56
(lp3371
S'HTTP_CONTENT_TYPE'
p3372
asbag49
(g70
g51
NtRp3373
(dp3374
g54
(dp3375
g81
g82
ssg63
g3364
sg56
(lp3376
S':'
asbag49
(g70
g51
NtRp3377
(dp3378
g54
(dp3379
sg63
g3364
sg56
(lp3380
g49
(g50
g51
NtRp3381
(dp3382
g54
(dp3383
g62
I3
ssg63
g3377
sg56
(lp3384
g1386
asbasbasbag49
(g65
g51
NtRp3385
(dp3386
g54
(dp3387
sg63
g3171
sg56
(lp3388
g49
(g70
g51
NtRp3389
(dp3390
g54
(dp3391
g74
g75
ssg63
g3385
sg56
(lp3392
S'HTTP_COOKIE'
p3393
asbag49
(g70
g51
NtRp3394
(dp3395
g54
(dp3396
g81
g82
ssg63
g3385
sg56
(lp3397
S':'
asbag49
(g70
g51
NtRp3398
(dp3399
g54
(dp3400
sg63
g3385
sg56
(lp3401
g49
(g50
g51
NtRp3402
(dp3403
g54
(dp3404
g62
I3
ssg63
g3398
sg56
(lp3405
g1647
asbasbasbag49
(g65
g51
NtRp3406
(dp3407
g54
(dp3408
sg63
g3171
sg56
(lp3409
g49
(g70
g51
NtRp3410
(dp3411
g54
(dp3412
g74
g75
ssg63
g3406
sg56
(lp3413
S'HTTP_HOST'
p3414
asbag49
(g70
g51
NtRp3415
(dp3416
g54
(dp3417
g81
g82
ssg63
g3406
sg56
(lp3418
S':'
asbag49
(g70
g51
NtRp3419
(dp3420
g54
(dp3421
sg63
g3406
sg56
(lp3422
g49
(g50
g51
NtRp3423
(dp3424
g54
(dp3425
g62
I3
ssg63
g3419
sg56
(lp3426
g1669
asbasbasbag49
(g65
g51
NtRp3427
(dp3428
g54
(dp3429
sg63
g3171
sg56
(lp3430
g49
(g70
g51
NtRp3431
(dp3432
g54
(dp3433
g74
g75
ssg63
g3427
sg56
(lp3434
S'HTTP_ORIGIN'
p3435
asbag49
(g70
g51
NtRp3436
(dp3437
g54
(dp3438
g81
g82
ssg63
g3427
sg56
(lp3439
S':'
asbag49
(g70
g51
NtRp3440
(dp3441
g54
(dp3442
sg63
g3427
sg56
(lp3443
g49
(g50
g51
NtRp3444
(dp3445
g54
(dp3446
g62
I3
ssg63
g3440
sg56
(lp3447
g1691
asbasbasbag49
(g65
g51
NtRp3448
(dp3449
g54
(dp3450
sg63
g3171
sg56
(lp3451
g49
(g70
g51
NtRp3452
(dp3453
g54
(dp3454
g74
g75
ssg63
g3448
sg56
(lp3455
S'HTTP_REFERER'
p3456
asbag49
(g70
g51
NtRp3457
(dp3458
g54
(dp3459
g81
g82
ssg63
g3448
sg56
(lp3460
S':'
asbag49
(g70
g51
NtRp3461
(dp3462
g54
(dp3463
sg63
g3448
sg56
(lp3464
g49
(g50
g51
NtRp3465
(dp3466
g54
(dp3467
g62
I3
ssg63
g3461
sg56
(lp3468
g1713
asbasbasbag49
(g65
g51
NtRp3469
(dp3470
g54
(dp3471
sg63
g3171
sg56
(lp3472
g49
(g70
g51
NtRp3473
(dp3474
g54
(dp3475
g74
g75
ssg63
g3469
sg56
(lp3476
S'HTTP_USER_AGENT'
p3477
asbag49
(g70
g51
NtRp3478
(dp3479
g54
(dp3480
g81
g82
ssg63
g3469
sg56
(lp3481
S':'
asbag49
(g70
g51
NtRp3482
(dp3483
g54
(dp3484
sg63
g3469
sg56
(lp3485
g49
(g50
g51
NtRp3486
(dp3487
g54
(dp3488
g62
I3
ssg63
g3482
sg56
(lp3489
g1735
asbasbasbag49
(g65
g51
NtRp3490
(dp3491
g54
(dp3492
sg63
g3171
sg56
(lp3493
g49
(g70
g51
NtRp3494
(dp3495
g54
(dp3496
g74
g75
ssg63
g3490
sg56
(lp3497
S'PATH_INFO'
p3498
asbag49
(g70
g51
NtRp3499
(dp3500
g54
(dp3501
g81
g82
ssg63
g3490
sg56
(lp3502
S':'
asbag49
(g70
g51
NtRp3503
(dp3504
g54
(dp3505
sg63
g3490
sg56
(lp3506
g49
(g50
g51
NtRp3507
(dp3508
g54
(dp3509
g62
I3
ssg63
g3503
sg56
(lp3510
g1799
asbasbasbag49
(g65
g51
NtRp3511
(dp3512
g54
(dp3513
sg63
g3171
sg56
(lp3514
g49
(g70
g51
NtRp3515
(dp3516
g54
(dp3517
g74
g75
ssg63
g3511
sg56
(lp3518
S'QUERY_STRING'
p3519
asbag49
(g70
g51
NtRp3520
(dp3521
g54
(dp3522
g81
g82
ssg63
g3511
sg56
(lp3523
S':'
asbag49
(g70
g51
NtRp3524
(dp3525
g54
(dp3526
sg63
g3511
sg56
(lp3527
g49
(g50
g51
NtRp3528
(dp3529
g54
(dp3530
g62
I3
ssg63
g3524
sg56
(lp3531
S''
asbasbasbag49
(g65
g51
NtRp3532
(dp3533
g54
(dp3534
sg63
g3171
sg56
(lp3535
g49
(g70
g51
NtRp3536
(dp3537
g54
(dp3538
g74
g75
ssg63
g3532
sg56
(lp3539
S'REMOTE_ADDR'
p3540
asbag49
(g70
g51
NtRp3541
(dp3542
g54
(dp3543
g81
g82
ssg63
g3532
sg56
(lp3544
S':'
asbag49
(g70
g51
NtRp3545
(dp3546
g54
(dp3547
sg63
g3532
sg56
(lp3548
g49
(g50
g51
NtRp3549
(dp3550
g54
(dp3551
g62
I3
ssg63
g3545
sg56
(lp3552
g182
asbasbasbag49
(g65
g51
NtRp3553
(dp3554
g54
(dp3555
sg63
g3171
sg56
(lp3556
g49
(g70
g51
NtRp3557
(dp3558
g54
(dp3559
g74
g75
ssg63
g3553
sg56
(lp3560
S'REMOTE_PORT'
p3561
asbag49
(g70
g51
NtRp3562
(dp3563
g54
(dp3564
g81
g82
ssg63
g3553
sg56
(lp3565
S':'
asbag49
(g70
g51
NtRp3566
(dp3567
g54
(dp3568
sg63
g3553
sg56
(lp3569
g49
(g50
g51
NtRp3570
(dp3571
g54
(dp3572
g62
I3
ssg63
g3566
sg56
(lp3573
g1863
asbasbasbag49
(g65
g51
NtRp3574
(dp3575
g54
(dp3576
sg63
g3171
sg56
(lp3577
g49
(g70
g51
NtRp3578
(dp3579
g54
(dp3580
g74
g75
ssg63
g3574
sg56
(lp3581
S'REQUEST_METHOD'
p3582
asbag49
(g70
g51
NtRp3583
(dp3584
g54
(dp3585
g81
g82
ssg63
g3574
sg56
(lp3586
S':'
asbag49
(g70
g51
NtRp3587
(dp3588
g54
(dp3589
sg63
g3574
sg56
(lp3590
g49
(g50
g51
NtRp3591
(dp3592
g54
(dp3593
g62
I3
ssg63
g3587
sg56
(lp3594
g1885
asbasbasbag49
(g65
g51
NtRp3595
(dp3596
g54
(dp3597
sg63
g3171
sg56
(lp3598
g49
(g70
g51
NtRp3599
(dp3600
g54
(dp3601
g74
g75
ssg63
g3595
sg56
(lp3602
S'SCRIPT_NAME'
p3603
asbag49
(g70
g51
NtRp3604
(dp3605
g54
(dp3606
g81
g82
ssg63
g3595
sg56
(lp3607
S':'
asbag49
(g70
g51
NtRp3608
(dp3609
g54
(dp3610
sg63
g3595
sg56
(lp3611
g49
(g50
g51
NtRp3612
(dp3613
g54
(dp3614
g62
I3
ssg63
g3608
sg56
(lp3615
S''
asbasbasbag49
(g65
g51
NtRp3616
(dp3617
g54
(dp3618
sg63
g3171
sg56
(lp3619
g49
(g70
g51
NtRp3620
(dp3621
g54
(dp3622
g74
g75
ssg63
g3616
sg56
(lp3623
S'SERVER_NAME'
p3624
asbag49
(g70
g51
NtRp3625
(dp3626
g54
(dp3627
g81
g82
ssg63
g3616
sg56
(lp3628
S':'
asbag49
(g70
g51
NtRp3629
(dp3630
g54
(dp3631
sg63
g3616
sg56
(lp3632
g49
(g50
g51
NtRp3633
(dp3634
g54
(dp3635
g62
I3
ssg63
g3629
sg56
(lp3636
g1928
asbasbasbag49
(g65
g51
NtRp3637
(dp3638
g54
(dp3639
sg63
g3171
sg56
(lp3640
g49
(g70
g51
NtRp3641
(dp3642
g54
(dp3643
g74
g75
ssg63
g3637
sg56
(lp3644
S'SERVER_PORT'
p3645
asbag49
(g70
g51
NtRp3646
(dp3647
g54
(dp3648
g81
g82
ssg63
g3637
sg56
(lp3649
S':'
asbag49
(g70
g51
NtRp3650
(dp3651
g54
(dp3652
sg63
g3637
sg56
(lp3653
g49
(g50
g51
NtRp3654
(dp3655
g54
(dp3656
g62
I3
ssg63
g3650
sg56
(lp3657
g1950
asbasbasbag49
(g65
g51
NtRp3658
(dp3659
g54
(dp3660
sg63
g3171
sg56
(lp3661
g49
(g70
g51
NtRp3662
(dp3663
g54
(dp3664
g74
g75
ssg63
g3658
sg56
(lp3665
S'SERVER_PROTOCOL'
p3666
asbag49
(g70
g51
NtRp3667
(dp3668
g54
(dp3669
g81
g82
ssg63
g3658
sg56
(lp3670
S':'
asbag49
(g70
g51
NtRp3671
(dp3672
g54
(dp3673
sg63
g3658
sg56
(lp3674
g49
(g50
g51
NtRp3675
(dp3676
g54
(dp3677
g62
I3
ssg63
g3671
sg56
(lp3678
g1972
asbasbasbag49
(g65
g51
NtRp3679
(dp3680
g54
(dp3681
sg63
g3171
sg56
(lp3682
g49
(g70
g51
NtRp3683
(dp3684
g54
(dp3685
g74
g75
ssg63
g3679
sg56
(lp3686
S'SERVER_SOFTWARE'
p3687
asbag49
(g70
g51
NtRp3688
(dp3689
g54
(dp3690
g81
g82
ssg63
g3679
sg56
(lp3691
S':'
asbag49
(g70
g51
NtRp3692
(dp3693
g54
(dp3694
sg63
g3679
sg56
(lp3695
g49
(g50
g51
NtRp3696
(dp3697
g54
(dp3698
g62
I3
ssg63
g3692
sg56
(lp3699
g1994
asbasbasbag49
(g65
g51
NtRp3700
(dp3701
g54
(dp3702
sg63
g3171
sg56
(lp3703
g49
(g70
g51
NtRp3704
(dp3705
g54
(dp3706
g74
g75
ssg63
g3700
sg56
(lp3707
S'wsgi.errors'
p3708
asbag49
(g70
g51
NtRp3709
(dp3710
g54
(dp3711
g81
g82
ssg63
g3700
sg56
(lp3712
S':'
asbag49
(g70
g51
NtRp3713
(dp3714
g54
(dp3715
sg63
g3700
sg56
(lp3716
g49
(g50
g51
NtRp3717
(dp3718
g54
(dp3719
g62
I3
ssg63
g3713
sg56
(lp3720
S"<open file '<stderr>', mode 'w' at 0x016000B0>"
p3721
asbasbasbag49
(g65
g51
NtRp3722
(dp3723
g54
(dp3724
sg63
g3171
sg56
(lp3725
g49
(g70
g51
NtRp3726
(dp3727
g54
(dp3728
g74
g75
ssg63
g3722
sg56
(lp3729
S'wsgi.file_wrapper'
p3730
asbag49
(g70
g51
NtRp3731
(dp3732
g54
(dp3733
g81
g82
ssg63
g3722
sg56
(lp3734
S':'
asbag49
(g70
g51
NtRp3735
(dp3736
g54
(dp3737
sg63
g3722
sg56
(lp3738
g49
(g50
g51
NtRp3739
(dp3740
g54
(dp3741
g62
I3
ssg63
g3735
sg56
(lp3742
S'<class wsgiref.util.FileWrapper at 0x025361B0>'
p3743
asbasbasbag49
(g65
g51
NtRp3744
(dp3745
g54
(dp3746
sg63
g3171
sg56
(lp3747
g49
(g70
g51
NtRp3748
(dp3749
g54
(dp3750
g74
g75
ssg63
g3744
sg56
(lp3751
S'wsgi.input'
p3752
asbag49
(g70
g51
NtRp3753
(dp3754
g54
(dp3755
g81
g82
ssg63
g3744
sg56
(lp3756
S':'
asbag49
(g70
g51
NtRp3757
(dp3758
g54
(dp3759
sg63
g3744
sg56
(lp3760
g49
(g50
g51
NtRp3761
(dp3762
g54
(dp3763
g62
I3
ssg63
g3757
sg56
(lp3764
S"<open file '<fdopen>', mode 'w+b' at 0x05EEC650>"
p3765
asbasbasbag49
(g65
g51
NtRp3766
(dp3767
g54
(dp3768
sg63
g3171
sg56
(lp3769
g49
(g70
g51
NtRp3770
(dp3771
g54
(dp3772
g74
g75
ssg63
g3766
sg56
(lp3773
S'wsgi.multiprocess'
p3774
asbag49
(g70
g51
NtRp3775
(dp3776
g54
(dp3777
g81
g82
ssg63
g3766
sg56
(lp3778
S':'
asbag49
(g70
g51
NtRp3779
(dp3780
g54
(dp3781
sg63
g3766
sg56
(lp3782
g49
(g50
g51
NtRp3783
(dp3784
g54
(dp3785
g62
I3
ssg63
g3779
sg56
(lp3786
g92
asbasbasbag49
(g65
g51
NtRp3787
(dp3788
g54
(dp3789
sg63
g3171
sg56
(lp3790
g49
(g70
g51
NtRp3791
(dp3792
g54
(dp3793
g74
g75
ssg63
g3787
sg56
(lp3794
S'wsgi.multithread'
p3795
asbag49
(g70
g51
NtRp3796
(dp3797
g54
(dp3798
g81
g82
ssg63
g3787
sg56
(lp3799
S':'
asbag49
(g70
g51
NtRp3800
(dp3801
g54
(dp3802
sg63
g3787
sg56
(lp3803
g49
(g50
g51
NtRp3804
(dp3805
g54
(dp3806
g62
I3
ssg63
g3800
sg56
(lp3807
g2234
asbasbasbag49
(g65
g51
NtRp3808
(dp3809
g54
(dp3810
sg63
g3171
sg56
(lp3811
g49
(g70
g51
NtRp3812
(dp3813
g54
(dp3814
g74
g75
ssg63
g3808
sg56
(lp3815
S'wsgi.run_once'
p3816
asbag49
(g70
g51
NtRp3817
(dp3818
g54
(dp3819
g81
g82
ssg63
g3808
sg56
(lp3820
S':'
asbag49
(g70
g51
NtRp3821
(dp3822
g54
(dp3823
sg63
g3808
sg56
(lp3824
g49
(g50
g51
NtRp3825
(dp3826
g54
(dp3827
g62
I3
ssg63
g3821
sg56
(lp3828
g92
asbasbasbag49
(g65
g51
NtRp3829
(dp3830
g54
(dp3831
sg63
g3171
sg56
(lp3832
g49
(g70
g51
NtRp3833
(dp3834
g54
(dp3835
g74
g75
ssg63
g3829
sg56
(lp3836
S'wsgi.url_scheme'
p3837
asbag49
(g70
g51
NtRp3838
(dp3839
g54
(dp3840
g81
g82
ssg63
g3829
sg56
(lp3841
S':'
asbag49
(g70
g51
NtRp3842
(dp3843
g54
(dp3844
sg63
g3829
sg56
(lp3845
g49
(g50
g51
NtRp3846
(dp3847
g54
(dp3848
g62
I3
ssg63
g3842
sg56
(lp3849
g2277
asbasbasbag49
(g65
g51
NtRp3850
(dp3851
g54
(dp3852
sg63
g3171
sg56
(lp3853
g49
(g70
g51
NtRp3854
(dp3855
g54
(dp3856
g74
g75
ssg63
g3850
sg56
(lp3857
S'wsgi.version'
p3858
asbag49
(g70
g51
NtRp3859
(dp3860
g54
(dp3861
g81
g82
ssg63
g3850
sg56
(lp3862
S':'
asbag49
(g70
g51
NtRp3863
(dp3864
g54
(dp3865
sg63
g3850
sg56
(lp3866
g49
(g50
g51
NtRp3867
(dp3868
g54
(dp3869
g62
I3
ssg63
g3863
sg56
(lp3870
S'1'
asbasbasbasbasbasbasbasbasbasbasbasbasbsS'frames'
p3871
(lp3872
(dp3873
S'file'
p3874
S'C:\\Users\\omkara\\Desktop\\web2py\\gluon\\restricted.py'
p3875
sS'dump'
p3876
(dp3877
sS'lnum'
p3878
I205
sS'lines'
p3879
(dp3880
sS'call'
p3881
S'(code="# coding: utf8\\ndb = DAL(\'sqlite://storage.sqlite...\',\'Books\',\'VideoGames\', \'Handyman Services\']))\\n)\\n", environment={\'A\': <class \'gluon.html.A\'>, \'Auth\': <class \'gluon.tools.Auth\'>, \'B\': <class \'gluon.html.B\'>, \'BEAUTIFY\': <class \'gluon.html.BEAUTIFY\'>, \'BODY\': <class \'gluon.html.BODY\'>, \'BR\': <class \'gluon.html.BR\'>, \'BUTTON\': <class \'gluon.html.BUTTON\'>, \'CAT\': <class \'gluon.html.CAT\'>, \'CENTER\': <class \'gluon.html.CENTER\'>, \'CLEANUP\': <class \'gluon.validators.CLEANUP\'>, ...}, layer=r\'C:\\Users\\omkara\\Desktop\\web2py\\applications\\SlugBarter\\models\\registerForm.py\')'
p3882
sS'func'
p3883
S'restricted'
p3884
sa(dp3885
g3874
S'C:\\Users\\omkara\\Desktop\\web2py\\applications\\SlugBarter\\models\\registerForm.py'
p3886
sg3876
(dp3887
sg3878
I14
sg3879
(dp3888
I9
S'  ]'
p3889
sI10
S"auth.settings.login_next=URL('mypage')"
p3890
sI11
S'auth.define_tables()'
p3891
sI12
S''
sI13
S"db.define_table('listing',"
p3892
sI14
S"    Field('owner', db.auth_user, default = auth.user_id, readable = False, writeable =False, requires = IS_NOT_EMPTY()),"
p3893
sI15
S"    Field('title','string', length = 128, label = 'Title', requires=IS_NOT_EMPTY(error_message='Must not be empty')),"
p3894
sI16
S"    Field('description','text', label = 'Description', requires = IS_NOT_EMPTY(error_message='Must not be empty')),"
p3895
sI17
S"    Field('services',label='Services', requires = IS_IN_SET(['Repair Services', 'Entertainment','Books','VideoGames', 'Handyman Services']))"
p3896
sI18
S')'
ssg3881
S'()'
p3897
sg3883
S'<module>'
p3898
sasS'pyver'
p3899
S'Python 2.5.4: C:\\Users\\omkara\\Desktop\\web2py\\web2py.exe'
p3900
sS'session'
p3901
g49
(g50
g51
NtRp3902
(dp3903
g54
(dp3904
sg56
(lp3905
g49
(g58
g51
NtRp3906
(dp3907
g54
(dp3908
g62
I5
ssg63
Nsg56
(lp3909
g49
(g65
g51
NtRp3910
(dp3911
g54
(dp3912
sg63
g3906
sg56
(lp3913
g49
(g70
g51
NtRp3914
(dp3915
g54
(dp3916
g74
g75
ssg63
g3910
sg56
(lp3917
S'last_query'
p3918
asbag49
(g70
g51
NtRp3919
(dp3920
g54
(dp3921
g81
g82
ssg63
g3910
sg56
(lp3922
S':'
asbag49
(g70
g51
NtRp3923
(dp3924
g54
(dp3925
sg63
g3910
sg56
(lp3926
g49
(g50
g51
NtRp3927
(dp3928
g54
(dp3929
g62
I5
ssg63
g3923
sg56
(lp3930
S'db.listing.id>0'
p3931
asbasbasbasbasbsS'etype'
p3932
S"<type 'exceptions.TypeError'>"
p3933
sS'date'
p3934
S'Sun Nov 11 18:39:00 2012'
p3935
sS'response'
p3936
g49
(g50
g51
NtRp3937
(dp3938
g54
(dp3939
sg56
(lp3940
g49
(g58
g51
NtRp3941
(dp3942
g54
(dp3943
g62
I5
ssg63
Nsg56
(lp3944
g49
(g65
g51
NtRp3945
(dp3946
g54
(dp3947
sg63
g3941
sg56
(lp3948
g49
(g70
g51
NtRp3949
(dp3950
g54
(dp3951
g74
g75
ssg63
g3945
sg56
(lp3952
g147
asbag49
(g70
g51
NtRp3953
(dp3954
g54
(dp3955
g81
g82
ssg63
g3945
sg56
(lp3956
S':'
asbag49
(g70
g51
NtRp3957
(dp3958
g54
(dp3959
sg63
g3945
sg56
(lp3960
g49
(g50
g51
NtRp3961
(dp3962
g54
(dp3963
g62
I5
ssg63
g3957
sg56
(lp3964
S'<cStringIO.StringO object at 0x061F0B20>'
p3965
asbasbasbag49
(g65
g51
NtRp3966
(dp3967
g54
(dp3968
sg63
g3941
sg56
(lp3969
g49
(g70
g51
NtRp3970
(dp3971
g54
(dp3972
g74
g75
ssg63
g3966
sg56
(lp3973
g213
asbag49
(g70
g51
NtRp3974
(dp3975
g54
(dp3976
g81
g82
ssg63
g3966
sg56
(lp3977
S':'
asbag49
(g70
g51
NtRp3978
(dp3979
g54
(dp3980
sg63
g3966
sg56
(lp3981
g49
(g50
g51
NtRp3982
(dp3983
g54
(dp3984
g62
I5
ssg63
g3978
sg56
(lp3985
g49
(g58
g51
NtRp3986
(dp3987
g54
(dp3988
g62
I4
ssg63
Nsg56
(lp3989
g49
(g65
g51
NtRp3990
(dp3991
g54
(dp3992
sg63
g3986
sg56
(lp3993
g49
(g70
g51
NtRp3994
(dp3995
g54
(dp3996
g74
g75
ssg63
g3990
sg56
(lp3997
S'session_id_slugbarter'
p3998
asbag49
(g70
g51
NtRp3999
(dp4000
g54
(dp4001
g81
g82
ssg63
g3990
sg56
(lp4002
S':'
asbag49
(g70
g51
NtRp4003
(dp4004
g54
(dp4005
sg63
g3990
sg56
(lp4006
g49
(g50
g51
NtRp4007
(dp4008
g54
(dp4009
g62
I4
ssg63
g4003
sg56
(lp4010
g49
(g58
g51
NtRp4011
(dp4012
g54
(dp4013
g62
I3
ssg63
Nsg56
(lp4014
g49
(g65
g51
NtRp4015
(dp4016
g54
(dp4017
sg63
g4011
sg56
(lp4018
g49
(g70
g51
NtRp4019
(dp4020
g54
(dp4021
g74
g75
ssg63
g4015
sg56
(lp4022
g263
asbag49
(g70
g51
NtRp4023
(dp4024
g54
(dp4025
g81
g82
ssg63
g4015
sg56
(lp4026
S':'
asbag49
(g70
g51
NtRp4027
(dp4028
g54
(dp4029
sg63
g4015
sg56
(lp4030
g49
(g50
g51
NtRp4031
(dp4032
g54
(dp4033
g62
I3
ssg63
g4027
sg56
(lp4034
S''
asbasbasbag49
(g65
g51
NtRp4035
(dp4036
g54
(dp4037
sg63
g4011
sg56
(lp4038
g49
(g70
g51
NtRp4039
(dp4040
g54
(dp4041
g74
g75
ssg63
g4035
sg56
(lp4042
g284
asbag49
(g70
g51
NtRp4043
(dp4044
g54
(dp4045
g81
g82
ssg63
g4035
sg56
(lp4046
S':'
asbag49
(g70
g51
NtRp4047
(dp4048
g54
(dp4049
sg63
g4035
sg56
(lp4050
g49
(g50
g51
NtRp4051
(dp4052
g54
(dp4053
g62
I3
ssg63
g4047
sg56
(lp4054
S''
asbasbasbag49
(g65
g51
NtRp4055
(dp4056
g54
(dp4057
sg63
g4011
sg56
(lp4058
g49
(g70
g51
NtRp4059
(dp4060
g54
(dp4061
g74
g75
ssg63
g4055
sg56
(lp4062
g305
asbag49
(g70
g51
NtRp4063
(dp4064
g54
(dp4065
g81
g82
ssg63
g4055
sg56
(lp4066
S':'
asbag49
(g70
g51
NtRp4067
(dp4068
g54
(dp4069
sg63
g4055
sg56
(lp4070
g49
(g50
g51
NtRp4071
(dp4072
g54
(dp4073
g62
I3
ssg63
g4067
sg56
(lp4074
S''
asbasbasbag49
(g65
g51
NtRp4075
(dp4076
g54
(dp4077
sg63
g4011
sg56
(lp4078
g49
(g70
g51
NtRp4079
(dp4080
g54
(dp4081
g74
g75
ssg63
g4075
sg56
(lp4082
g326
asbag49
(g70
g51
NtRp4083
(dp4084
g54
(dp4085
g81
g82
ssg63
g4075
sg56
(lp4086
S':'
asbag49
(g70
g51
NtRp4087
(dp4088
g54
(dp4089
sg63
g4075
sg56
(lp4090
g49
(g50
g51
NtRp4091
(dp4092
g54
(dp4093
g62
I3
ssg63
g4087
sg56
(lp4094
S''
asbasbasbag49
(g65
g51
NtRp4095
(dp4096
g54
(dp4097
sg63
g4011
sg56
(lp4098
g49
(g70
g51
NtRp4099
(dp4100
g54
(dp4101
g74
g75
ssg63
g4095
sg56
(lp4102
g347
asbag49
(g70
g51
NtRp4103
(dp4104
g54
(dp4105
g81
g82
ssg63
g4095
sg56
(lp4106
S':'
asbag49
(g70
g51
NtRp4107
(dp4108
g54
(dp4109
sg63
g4095
sg56
(lp4110
g49
(g50
g51
NtRp4111
(dp4112
g54
(dp4113
g62
I3
ssg63
g4107
sg56
(lp4114
S'/'
asbasbasbag49
(g65
g51
NtRp4115
(dp4116
g54
(dp4117
sg63
g4011
sg56
(lp4118
g49
(g70
g51
NtRp4119
(dp4120
g54
(dp4121
g74
g75
ssg63
g4115
sg56
(lp4122
g368
asbag49
(g70
g51
NtRp4123
(dp4124
g54
(dp4125
g81
g82
ssg63
g4115
sg56
(lp4126
S':'
asbag49
(g70
g51
NtRp4127
(dp4128
g54
(dp4129
sg63
g4115
sg56
(lp4130
g49
(g50
g51
NtRp4131
(dp4132
g54
(dp4133
g62
I3
ssg63
g4127
sg56
(lp4134
S''
asbasbasbag49
(g65
g51
NtRp4135
(dp4136
g54
(dp4137
sg63
g4011
sg56
(lp4138
g49
(g70
g51
NtRp4139
(dp4140
g54
(dp4141
g74
g75
ssg63
g4135
sg56
(lp4142
g389
asbag49
(g70
g51
NtRp4143
(dp4144
g54
(dp4145
g81
g82
ssg63
g4135
sg56
(lp4146
S':'
asbag49
(g70
g51
NtRp4147
(dp4148
g54
(dp4149
sg63
g4135
sg56
(lp4150
g49
(g50
g51
NtRp4151
(dp4152
g54
(dp4153
g62
I3
ssg63
g4147
sg56
(lp4154
S''
asbasbasbasbasbasbasbasbasbasbasbag49
(g65
g51
NtRp4155
(dp4156
g54
(dp4157
sg63
g3941
sg56
(lp4158
g49
(g70
g51
NtRp4159
(dp4160
g54
(dp4161
g74
g75
ssg63
g4155
sg56
(lp4162
S'delimiters'
p4163
asbag49
(g70
g51
NtRp4164
(dp4165
g54
(dp4166
g81
g82
ssg63
g4155
sg56
(lp4167
S':'
asbag49
(g70
g51
NtRp4168
(dp4169
g54
(dp4170
sg63
g4155
sg56
(lp4171
g49
(g50
g51
NtRp4172
(dp4173
g54
(dp4174
g62
I5
ssg63
g4168
sg56
(lp4175
g49
(g58
g51
NtRp4176
(dp4177
g54
(dp4178
g62
I4
ssg63
Nsg56
(lp4179
g49
(g65
g51
NtRp4180
(dp4181
g54
(dp4182
sg63
g4176
sg56
(lp4183
g49
(g70
g51
NtRp4184
(dp4185
g54
(dp4186
sg63
g4180
sg56
(lp4187
g49
(g50
g51
NtRp4188
(dp4189
g54
(dp4190
g62
I4
ssg63
g4184
sg56
(lp4191
S'{{'
p4192
asbasbasbag49
(g65
g51
NtRp4193
(dp4194
g54
(dp4195
sg63
g4176
sg56
(lp4196
g49
(g70
g51
NtRp4197
(dp4198
g54
(dp4199
sg63
g4193
sg56
(lp4200
g49
(g50
g51
NtRp4201
(dp4202
g54
(dp4203
g62
I4
ssg63
g4197
sg56
(lp4204
S'}}'
p4205
asbasbasbasbasbasbasbag49
(g65
g51
NtRp4206
(dp4207
g54
(dp4208
sg63
g3941
sg56
(lp4209
g49
(g70
g51
NtRp4210
(dp4211
g54
(dp4212
g74
g75
ssg63
g4206
sg56
(lp4213
S'files'
p4214
asbag49
(g70
g51
NtRp4215
(dp4216
g54
(dp4217
g81
g82
ssg63
g4206
sg56
(lp4218
S':'
asbag49
(g70
g51
NtRp4219
(dp4220
g54
(dp4221
sg63
g4206
sg56
(lp4222
g49
(g50
g51
NtRp4223
(dp4224
g54
(dp4225
g62
I5
ssg63
g4219
sg56
(lp4226
g49
(g58
g51
NtRp4227
(dp4228
g54
(dp4229
g62
I4
ssg63
Nsg56
(lp4230
sbasbasbasbag49
(g65
g51
NtRp4231
(dp4232
g54
(dp4233
sg63
g3941
sg56
(lp4234
g49
(g70
g51
NtRp4235
(dp4236
g54
(dp4237
g74
g75
ssg63
g4231
sg56
(lp4238
S'flash'
p4239
asbag49
(g70
g51
NtRp4240
(dp4241
g54
(dp4242
g81
g82
ssg63
g4231
sg56
(lp4243
S':'
asbag49
(g70
g51
NtRp4244
(dp4245
g54
(dp4246
sg63
g4231
sg56
(lp4247
g49
(g50
g51
NtRp4248
(dp4249
g54
(dp4250
g62
I5
ssg63
g4244
sg56
(lp4251
S'Please complete all the information in the form'
p4252
asbasbasbag49
(g65
g51
NtRp4253
(dp4254
g54
(dp4255
sg63
g3941
sg56
(lp4256
g49
(g70
g51
NtRp4257
(dp4258
g54
(dp4259
g74
g75
ssg63
g4253
sg56
(lp4260
S'generic_patterns'
p4261
asbag49
(g70
g51
NtRp4262
(dp4263
g54
(dp4264
g81
g82
ssg63
g4253
sg56
(lp4265
S':'
asbag49
(g70
g51
NtRp4266
(dp4267
g54
(dp4268
sg63
g4253
sg56
(lp4269
g49
(g50
g51
NtRp4270
(dp4271
g54
(dp4272
g62
I5
ssg63
g4266
sg56
(lp4273
g49
(g58
g51
NtRp4274
(dp4275
g54
(dp4276
g62
I4
ssg63
Nsg56
(lp4277
g49
(g65
g51
NtRp4278
(dp4279
g54
(dp4280
sg63
g4274
sg56
(lp4281
g49
(g70
g51
NtRp4282
(dp4283
g54
(dp4284
sg63
g4278
sg56
(lp4285
g49
(g50
g51
NtRp4286
(dp4287
g54
(dp4288
g62
I4
ssg63
g4282
sg56
(lp4289
S'*'
asbasbasbasbasbasbasbag49
(g65
g51
NtRp4290
(dp4291
g54
(dp4292
sg63
g3941
sg56
(lp4293
g49
(g70
g51
NtRp4294
(dp4295
g54
(dp4296
g74
g75
ssg63
g4290
sg56
(lp4297
S'headers'
p4298
asbag49
(g70
g51
NtRp4299
(dp4300
g54
(dp4301
g81
g82
ssg63
g4290
sg56
(lp4302
S':'
asbag49
(g70
g51
NtRp4303
(dp4304
g54
(dp4305
sg63
g4290
sg56
(lp4306
g49
(g50
g51
NtRp4307
(dp4308
g54
(dp4309
g62
I5
ssg63
g4303
sg56
(lp4310
g49
(g58
g51
NtRp4311
(dp4312
g54
(dp4313
g62
I4
ssg63
Nsg56
(lp4314
g49
(g65
g51
NtRp4315
(dp4316
g54
(dp4317
sg63
g4311
sg56
(lp4318
g49
(g70
g51
NtRp4319
(dp4320
g54
(dp4321
g74
g75
ssg63
g4315
sg56
(lp4322
S'Cache-Control'
p4323
asbag49
(g70
g51
NtRp4324
(dp4325
g54
(dp4326
g81
g82
ssg63
g4315
sg56
(lp4327
S':'
asbag49
(g70
g51
NtRp4328
(dp4329
g54
(dp4330
sg63
g4315
sg56
(lp4331
g49
(g50
g51
NtRp4332
(dp4333
g54
(dp4334
g62
I4
ssg63
g4328
sg56
(lp4335
S'no-store, no-cache, must-revalidate, post-check=0, pre-check=0'
p4336
asbasbasbag49
(g65
g51
NtRp4337
(dp4338
g54
(dp4339
sg63
g4311
sg56
(lp4340
g49
(g70
g51
NtRp4341
(dp4342
g54
(dp4343
g74
g75
ssg63
g4337
sg56
(lp4344
S'Content-Type'
p4345
asbag49
(g70
g51
NtRp4346
(dp4347
g54
(dp4348
g81
g82
ssg63
g4337
sg56
(lp4349
S':'
asbag49
(g70
g51
NtRp4350
(dp4351
g54
(dp4352
sg63
g4337
sg56
(lp4353
g49
(g50
g51
NtRp4354
(dp4355
g54
(dp4356
g62
I4
ssg63
g4350
sg56
(lp4357
S'text/html; charset=utf-8'
p4358
asbasbasbag49
(g65
g51
NtRp4359
(dp4360
g54
(dp4361
sg63
g4311
sg56
(lp4362
g49
(g70
g51
NtRp4363
(dp4364
g54
(dp4365
g74
g75
ssg63
g4359
sg56
(lp4366
S'Expires'
p4367
asbag49
(g70
g51
NtRp4368
(dp4369
g54
(dp4370
g81
g82
ssg63
g4359
sg56
(lp4371
S':'
asbag49
(g70
g51
NtRp4372
(dp4373
g54
(dp4374
sg63
g4359
sg56
(lp4375
g49
(g50
g51
NtRp4376
(dp4377
g54
(dp4378
g62
I4
ssg63
g4372
sg56
(lp4379
S'Mon, 12 Nov 2012 02:39:00 GMT'
p4380
asbasbasbag49
(g65
g51
NtRp4381
(dp4382
g54
(dp4383
sg63
g4311
sg56
(lp4384
g49
(g70
g51
NtRp4385
(dp4386
g54
(dp4387
g74
g75
ssg63
g4381
sg56
(lp4388
S'Pragma'
p4389
asbag49
(g70
g51
NtRp4390
(dp4391
g54
(dp4392
g81
g82
ssg63
g4381
sg56
(lp4393
S':'
asbag49
(g70
g51
NtRp4394
(dp4395
g54
(dp4396
sg63
g4381
sg56
(lp4397
g49
(g50
g51
NtRp4398
(dp4399
g54
(dp4400
g62
I4
ssg63
g4394
sg56
(lp4401
S'no-cache'
p4402
asbasbasbag49
(g65
g51
NtRp4403
(dp4404
g54
(dp4405
sg63
g4311
sg56
(lp4406
g49
(g70
g51
NtRp4407
(dp4408
g54
(dp4409
g74
g75
ssg63
g4403
sg56
(lp4410
S'X-Powered-By'
p4411
asbag49
(g70
g51
NtRp4412
(dp4413
g54
(dp4414
g81
g82
ssg63
g4403
sg56
(lp4415
S':'
asbag49
(g70
g51
NtRp4416
(dp4417
g54
(dp4418
sg63
g4403
sg56
(lp4419
g49
(g50
g51
NtRp4420
(dp4421
g54
(dp4422
g62
I4
ssg63
g4416
sg56
(lp4423
S'web2py'
p4424
asbasbasbasbasbasbasbag49
(g65
g51
NtRp4425
(dp4426
g54
(dp4427
sg63
g3941
sg56
(lp4428
g49
(g70
g51
NtRp4429
(dp4430
g54
(dp4431
g74
g75
ssg63
g4425
sg56
(lp4432
S'menu'
p4433
asbag49
(g70
g51
NtRp4434
(dp4435
g54
(dp4436
g81
g82
ssg63
g4425
sg56
(lp4437
S':'
asbag49
(g70
g51
NtRp4438
(dp4439
g54
(dp4440
sg63
g4425
sg56
(lp4441
g49
(g50
g51
NtRp4442
(dp4443
g54
(dp4444
g62
I5
ssg63
g4438
sg56
(lp4445
g49
(g58
g51
NtRp4446
(dp4447
g54
(dp4448
g62
I4
ssg63
Nsg56
(lp4449
g49
(g65
g51
NtRp4450
(dp4451
g54
(dp4452
sg63
g4446
sg56
(lp4453
g49
(g70
g51
NtRp4454
(dp4455
g54
(dp4456
sg63
g4450
sg56
(lp4457
g49
(g50
g51
NtRp4458
(dp4459
g54
(dp4460
g62
I4
ssg63
g4454
sg56
(lp4461
g49
(g58
g51
NtRp4462
(dp4463
g54
(dp4464
g62
I3
ssg63
Nsg56
(lp4465
g49
(g65
g51
NtRp4466
(dp4467
g54
(dp4468
sg63
g4462
sg56
(lp4469
g49
(g70
g51
NtRp4470
(dp4471
g54
(dp4472
sg63
g4466
sg56
(lp4473
g49
(g50
g51
NtRp4474
(dp4475
g54
(dp4476
g62
I3
ssg63
g4470
sg56
(lp4477
cgluon.languages
lazyT_unpickle
p4478
(S's\x04\x00\x00\x00Home'
tRp4479
asbasbasbag49
(g65
g51
NtRp4480
(dp4481
g54
(dp4482
sg63
g4462
sg56
(lp4483
g49
(g70
g51
NtRp4484
(dp4485
g54
(dp4486
sg63
g4480
sg56
(lp4487
g49
(g50
g51
NtRp4488
(dp4489
g54
(dp4490
g62
I3
ssg63
g4484
sg56
(lp4491
g92
asbasbasbag49
(g65
g51
NtRp4492
(dp4493
g54
(dp4494
sg63
g4462
sg56
(lp4495
g49
(g70
g51
NtRp4496
(dp4497
g54
(dp4498
sg63
g4492
sg56
(lp4499
g49
(g50
g51
NtRp4500
(dp4501
g54
(dp4502
g62
I3
ssg63
g4496
sg56
(lp4503
S'/SlugBarter/default/index'
p4504
asbasbasbag49
(g65
g51
NtRp4505
(dp4506
g54
(dp4507
sg63
g4462
sg56
(lp4508
g49
(g70
g51
NtRp4509
(dp4510
g54
(dp4511
sg63
g4505
sg56
(lp4512
g49
(g50
g51
NtRp4513
(dp4514
g54
(dp4515
g62
I3
ssg63
g4509
sg56
(lp4516
g49
(g58
g51
NtRp4517
(dp4518
g54
(dp4519
g62
I2
ssg63
Nsg56
(lp4520
sbasbasbasbasbasbasbasbag49
(g65
g51
NtRp4521
(dp4522
g54
(dp4523
sg63
g4446
sg56
(lp4524
g49
(g70
g51
NtRp4525
(dp4526
g54
(dp4527
sg63
g4521
sg56
(lp4528
g49
(g50
g51
NtRp4529
(dp4530
g54
(dp4531
g62
I4
ssg63
g4525
sg56
(lp4532
g49
(g58
g51
NtRp4533
(dp4534
g54
(dp4535
g62
I3
ssg63
Nsg56
(lp4536
g49
(g65
g51
NtRp4537
(dp4538
g54
(dp4539
sg63
g4533
sg56
(lp4540
g49
(g70
g51
NtRp4541
(dp4542
g54
(dp4543
sg63
g4537
sg56
(lp4544
g49
(g50
g51
NtRp4545
(dp4546
g54
(dp4547
g62
I3
ssg63
g4541
sg56
(lp4548
g49
(cgluon.html
SPAN
p4549
g51
NtRp4550
(dp4551
g54
(dp4552
g74
S'color:yellow'
p4553
ssg63
Nsg56
(lp4554
g4424
asbasbasbasbag49
(g65
g51
NtRp4555
(dp4556
g54
(dp4557
sg63
g4533
sg56
(lp4558
g49
(g70
g51
NtRp4559
(dp4560
g54
(dp4561
sg63
g4555
sg56
(lp4562
g49
(g50
g51
NtRp4563
(dp4564
g54
(dp4565
g62
I3
ssg63
g4559
sg56
(lp4566
g92
asbasbasbag49
(g65
g51
NtRp4567
(dp4568
g54
(dp4569
sg63
g4533
sg56
(lp4570
g49
(g70
g51
NtRp4571
(dp4572
g54
(dp4573
sg63
g4567
sg56
(lp4574
g49
(g50
g51
NtRp4575
(dp4576
g54
(dp4577
g62
I3
ssg63
g4571
sg56
(lp4578
S'None'
p4579
asbasbasbag49
(g65
g51
NtRp4580
(dp4581
g54
(dp4582
sg63
g4533
sg56
(lp4583
g49
(g70
g51
NtRp4584
(dp4585
g54
(dp4586
sg63
g4580
sg56
(lp4587
g49
(g50
g51
NtRp4588
(dp4589
g54
(dp4590
g62
I3
ssg63
g4584
sg56
(lp4591
g49
(g58
g51
NtRp4592
(dp4593
g54
(dp4594
g62
I2
ssg63
Nsg56
(lp4595
g49
(g65
g51
NtRp4596
(dp4597
g54
(dp4598
sg63
g4592
sg56
(lp4599
g49
(g70
g51
NtRp4600
(dp4601
g54
(dp4602
sg63
g4596
sg56
(lp4603
g49
(g50
g51
NtRp4604
(dp4605
g54
(dp4606
g62
I2
ssg63
g4600
sg56
(lp4607
g49
(g58
g51
NtRp4608
(dp4609
g54
(dp4610
g62
I1
ssg63
Nsg56
(lp4611
g49
(g65
g51
NtRp4612
(dp4613
g54
(dp4614
sg63
g4608
sg56
(lp4615
g49
(g70
g51
NtRp4616
(dp4617
g54
(dp4618
sg63
g4612
sg56
(lp4619
g49
(g50
g51
NtRp4620
(dp4621
g54
(dp4622
g62
I1
ssg63
g4616
sg56
(lp4623
g4478
(S's\x08\x00\x00\x00My Sites'
tRp4624
asbasbasbag49
(g65
g51
NtRp4625
(dp4626
g54
(dp4627
sg63
g4608
sg56
(lp4628
g49
(g70
g51
NtRp4629
(dp4630
g54
(dp4631
sg63
g4625
sg56
(lp4632
g49
(g50
g51
NtRp4633
(dp4634
g54
(dp4635
g62
I1
ssg63
g4629
sg56
(lp4636
I00
asbasbasbag49
(g65
g51
NtRp4637
(dp4638
g54
(dp4639
sg63
g4608
sg56
(lp4640
g49
(g70
g51
NtRp4641
(dp4642
g54
(dp4643
sg63
g4637
sg56
(lp4644
g49
(g50
g51
NtRp4645
(dp4646
g54
(dp4647
g62
I1
ssg63
g4641
sg56
(lp4648
S'/admin/default/site'
p4649
asbasbasbasbasbasbasbag49
(g65
g51
NtRp4650
(dp4651
g54
(dp4652
sg63
g4592
sg56
(lp4653
g49
(g70
g51
NtRp4654
(dp4655
g54
(dp4656
sg63
g4650
sg56
(lp4657
g49
(g50
g51
NtRp4658
(dp4659
g54
(dp4660
g62
I2
ssg63
g4654
sg56
(lp4661
g49
(g58
g51
NtRp4662
(dp4663
g54
(dp4664
g62
I1
ssg63
Nsg56
(lp4665
g49
(g65
g51
NtRp4666
(dp4667
g54
(dp4668
sg63
g4662
sg56
(lp4669
g49
(g70
g51
NtRp4670
(dp4671
g54
(dp4672
sg63
g4666
sg56
(lp4673
g49
(g50
g51
NtRp4674
(dp4675
g54
(dp4676
g62
I1
ssg63
g4670
sg56
(lp4677
g4478
(S's\x08\x00\x00\x00This App'
tRp4678
asbasbasbag49
(g65
g51
NtRp4679
(dp4680
g54
(dp4681
sg63
g4662
sg56
(lp4682
g49
(g70
g51
NtRp4683
(dp4684
g54
(dp4685
sg63
g4679
sg56
(lp4686
g49
(g50
g51
NtRp4687
(dp4688
g54
(dp4689
g62
I1
ssg63
g4683
sg56
(lp4690
I00
asbasbasbag49
(g65
g51
NtRp4691
(dp4692
g54
(dp4693
sg63
g4662
sg56
(lp4694
g49
(g70
g51
NtRp4695
(dp4696
g54
(dp4697
sg63
g4691
sg56
(lp4698
g49
(g50
g51
NtRp4699
(dp4700
g54
(dp4701
g62
I1
ssg63
g4695
sg56
(lp4702
S'/admin/default/design/SlugBarter'
p4703
asbasbasbag49
(g65
g51
NtRp4704
(dp4705
g54
(dp4706
sg63
g4662
sg56
(lp4707
g49
(g70
g51
NtRp4708
(dp4709
g54
(dp4710
sg63
g4704
sg56
(lp4711
g49
(g50
g51
NtRp4712
(dp4713
g54
(dp4714
g62
I1
ssg63
g4708
sg56
(lp4715
(lp4716
(g4478
(S's\n\x00\x00\x00Controller'
tRp4717
I00
S'/admin/default/edit/SlugBarter/controllers/default.py'
tp4718
a(g4478
(S's\x04\x00\x00\x00View'
tRp4719
I00
S'/admin/default/edit/SlugBarter/views/default/postlisting.html'
tp4720
a(g4478
(S's\x06\x00\x00\x00Layout'
tRp4721
I00
S'/admin/default/edit/SlugBarter/views/layout.html'
tp4722
a(g4478
(S's\n\x00\x00\x00Stylesheet'
tRp4723
I00
S'/admin/default/edit/SlugBarter/static/css/web2py.css'
tp4724
a(g4478
(S's\x08\x00\x00\x00DB Model'
tRp4725
I00
S'/admin/default/edit/SlugBarter/models/db.py'
tp4726
a(g4478
(S's\n\x00\x00\x00Menu Model'
tRp4727
I00
S'/admin/default/edit/SlugBarter/models/menu.py'
tp4728
a(g4478
(S's\x08\x00\x00\x00Database'
tRp4729
I00
S'/SlugBarter/appadmin/index'
tp4730
a(g4478
(S's\x06\x00\x00\x00Errors'
tRp4731
I00
S'/admin/default/errors/SlugBarter'
tp4732
a(g4478
(S's\x05\x00\x00\x00About'
tRp4733
I00
S'/admin/default/about/SlugBarter'
tp4734
aasbasbasbasbasbasbasbag49
(g65
g51
NtRp4735
(dp4736
g54
(dp4737
sg63
g4592
sg56
(lp4738
g49
(g70
g51
NtRp4739
(dp4740
g54
(dp4741
sg63
g4735
sg56
(lp4742
g49
(g50
g51
NtRp4743
(dp4744
g54
(dp4745
g62
I2
ssg63
g4739
sg56
(lp4746
g49
(g58
g51
NtRp4747
(dp4748
g54
(dp4749
g62
I1
ssg63
Nsg56
(lp4750
g49
(g65
g51
NtRp4751
(dp4752
g54
(dp4753
sg63
g4747
sg56
(lp4754
g49
(g70
g51
NtRp4755
(dp4756
g54
(dp4757
sg63
g4751
sg56
(lp4758
g49
(g50
g51
NtRp4759
(dp4760
g54
(dp4761
g62
I1
ssg63
g4755
sg56
(lp4762
S'web2py.com'
p4763
asbasbasbag49
(g65
g51
NtRp4764
(dp4765
g54
(dp4766
sg63
g4747
sg56
(lp4767
g49
(g70
g51
NtRp4768
(dp4769
g54
(dp4770
sg63
g4764
sg56
(lp4771
g49
(g50
g51
NtRp4772
(dp4773
g54
(dp4774
g62
I1
ssg63
g4768
sg56
(lp4775
I00
asbasbasbag49
(g65
g51
NtRp4776
(dp4777
g54
(dp4778
sg63
g4747
sg56
(lp4779
g49
(g70
g51
NtRp4780
(dp4781
g54
(dp4782
sg63
g4776
sg56
(lp4783
g49
(g50
g51
NtRp4784
(dp4785
g54
(dp4786
g62
I1
ssg63
g4780
sg56
(lp4787
S'http://www.web2py.com'
p4788
asbasbasbag49
(g65
g51
NtRp4789
(dp4790
g54
(dp4791
sg63
g4747
sg56
(lp4792
g49
(g70
g51
NtRp4793
(dp4794
g54
(dp4795
sg63
g4789
sg56
(lp4796
g49
(g50
g51
NtRp4797
(dp4798
g54
(dp4799
g62
I1
ssg63
g4793
sg56
(lp4800
(lp4801
(g4478
(S's\x08\x00\x00\x00Download'
tRp4802
I00
S'http://www.web2py.com/examples/default/download'
p4803
tp4804
a(g4478
(S's\x07\x00\x00\x00Support'
tRp4805
I00
S'http://www.web2py.com/examples/default/support'
p4806
tp4807
a(g4478
(S's\x04\x00\x00\x00Demo'
tRp4808
I00
S'http://web2py.com/demo_admin'
p4809
tp4810
a(g4478
(S's\x0e\x00\x00\x00Quick Examples'
tRp4811
I00
S'http://web2py.com/examples/default/examples'
p4812
tp4813
a(g4478
(S's\x03\x00\x00\x00FAQ'
tRp4814
I00
S'http://web2py.com/AlterEgo'
p4815
tp4816
a(g4478
(S's\x06\x00\x00\x00Videos'
tRp4817
I00
S'http://www.web2py.com/examples/default/videos/'
p4818
tp4819
a(g4478
(S's\x11\x00\x00\x00Free Applications'
tRp4820
I00
S'http://web2py.com/appliances'
p4821
tp4822
a(g4478
(S's\x07\x00\x00\x00Plugins'
tRp4823
I00
S'http://web2py.com/plugins'
p4824
tp4825
a(g4478
(S's\x07\x00\x00\x00Layouts'
tRp4826
I00
S'http://web2py.com/layouts'
p4827
tp4828
a(g4478
(S's\x07\x00\x00\x00Recipes'
tRp4829
I00
S'http://web2pyslices.com/'
p4830
tp4831
a(g4478
(S's\x08\x00\x00\x00Semantic'
tRp4832
I00
S'http://web2py.com/semantic'
p4833
tp4834
aasbasbasbasbasbasbasbag49
(g65
g51
NtRp4835
(dp4836
g54
(dp4837
sg63
g4592
sg56
(lp4838
g49
(g70
g51
NtRp4839
(dp4840
g54
(dp4841
sg63
g4835
sg56
(lp4842
g49
(g50
g51
NtRp4843
(dp4844
g54
(dp4845
g62
I2
ssg63
g4839
sg56
(lp4846
g49
(g58
g51
NtRp4847
(dp4848
g54
(dp4849
g62
I1
ssg63
Nsg56
(lp4850
g49
(g65
g51
NtRp4851
(dp4852
g54
(dp4853
sg63
g4847
sg56
(lp4854
g49
(g70
g51
NtRp4855
(dp4856
g54
(dp4857
sg63
g4851
sg56
(lp4858
g49
(g50
g51
NtRp4859
(dp4860
g54
(dp4861
g62
I1
ssg63
g4855
sg56
(lp4862
g4478
(S's\r\x00\x00\x00Documentation'
tRp4863
asbasbasbag49
(g65
g51
NtRp4864
(dp4865
g54
(dp4866
sg63
g4847
sg56
(lp4867
g49
(g70
g51
NtRp4868
(dp4869
g54
(dp4870
sg63
g4864
sg56
(lp4871
g49
(g50
g51
NtRp4872
(dp4873
g54
(dp4874
g62
I1
ssg63
g4868
sg56
(lp4875
I00
asbasbasbag49
(g65
g51
NtRp4876
(dp4877
g54
(dp4878
sg63
g4847
sg56
(lp4879
g49
(g70
g51
NtRp4880
(dp4881
g54
(dp4882
sg63
g4876
sg56
(lp4883
g49
(g50
g51
NtRp4884
(dp4885
g54
(dp4886
g62
I1
ssg63
g4880
sg56
(lp4887
S'http://www.web2py.com/book'
p4888
asbasbasbag49
(g65
g51
NtRp4889
(dp4890
g54
(dp4891
sg63
g4847
sg56
(lp4892
g49
(g70
g51
NtRp4893
(dp4894
g54
(dp4895
sg63
g4889
sg56
(lp4896
g49
(g50
g51
NtRp4897
(dp4898
g54
(dp4899
g62
I1
ssg63
g4893
sg56
(lp4900
(lp4901
(g4478
(S's\x07\x00\x00\x00Preface'
tRp4902
I00
S'http://www.web2py.com/book/default/chapter/00'
p4903
tp4904
a(g4478
(S's\x0c\x00\x00\x00Introduction'
tRp4905
I00
S'http://www.web2py.com/book/default/chapter/01'
p4906
tp4907
a(g4478
(S's\x06\x00\x00\x00Python'
tRp4908
I00
S'http://www.web2py.com/book/default/chapter/02'
p4909
tp4910
a(g4478
(S's\x08\x00\x00\x00Overview'
tRp4911
I00
S'http://www.web2py.com/book/default/chapter/03'
p4912
tp4913
a(g4478
(S's\x08\x00\x00\x00The Core'
tRp4914
I00
S'http://www.web2py.com/book/default/chapter/04'
p4915
tp4916
a(g4478
(S's\t\x00\x00\x00The Views'
tRp4917
I00
S'http://www.web2py.com/book/default/chapter/05'
p4918
tp4919
a(g4478
(S's\x08\x00\x00\x00Database'
tRp4920
I00
S'http://www.web2py.com/book/default/chapter/06'
p4921
tp4922
a(g4478
(S's\x14\x00\x00\x00Forms and Validators'
tRp4923
I00
S'http://www.web2py.com/book/default/chapter/07'
p4924
tp4925
a(g4478
(S's\r\x00\x00\x00Email and SMS'
tRp4926
I00
S'http://www.web2py.com/book/default/chapter/08'
p4927
tp4928
a(g4478
(S's\x0e\x00\x00\x00Access Control'
tRp4929
I00
S'http://www.web2py.com/book/default/chapter/09'
p4930
tp4931
a(g4478
(S's\x08\x00\x00\x00Services'
tRp4932
I00
S'http://www.web2py.com/book/default/chapter/10'
p4933
tp4934
a(g4478
(S's\x0c\x00\x00\x00Ajax Recipes'
tRp4935
I00
S'http://www.web2py.com/book/default/chapter/11'
p4936
tp4937
a(g4478
(S's\x16\x00\x00\x00Components and Plugins'
tRp4938
I00
S'http://www.web2py.com/book/default/chapter/12'
p4939
tp4940
a(g4478
(S's\x12\x00\x00\x00Deployment Recipes'
tRp4941
I00
S'http://www.web2py.com/book/default/chapter/13'
p4942
tp4943
a(g4478
(S's\r\x00\x00\x00Other Recipes'
tRp4944
I00
S'http://www.web2py.com/book/default/chapter/14'
p4945
tp4946
a(g4478
(S's\r\x00\x00\x00Buy this book'
tRp4947
I00
S'http://stores.lulu.com/web2py'
p4948
tp4949
aasbasbasbasbasbasbasbag49
(g65
g51
NtRp4950
(dp4951
g54
(dp4952
sg63
g4592
sg56
(lp4953
g49
(g70
g51
NtRp4954
(dp4955
g54
(dp4956
sg63
g4950
sg56
(lp4957
g49
(g50
g51
NtRp4958
(dp4959
g54
(dp4960
g62
I2
ssg63
g4954
sg56
(lp4961
g49
(g58
g51
NtRp4962
(dp4963
g54
(dp4964
g62
I1
ssg63
Nsg56
(lp4965
g49
(g65
g51
NtRp4966
(dp4967
g54
(dp4968
sg63
g4962
sg56
(lp4969
g49
(g70
g51
NtRp4970
(dp4971
g54
(dp4972
sg63
g4966
sg56
(lp4973
g49
(g50
g51
NtRp4974
(dp4975
g54
(dp4976
g62
I1
ssg63
g4970
sg56
(lp4977
g4478
(S's\t\x00\x00\x00Community'
tRp4978
asbasbasbag49
(g65
g51
NtRp4979
(dp4980
g54
(dp4981
sg63
g4962
sg56
(lp4982
g49
(g70
g51
NtRp4983
(dp4984
g54
(dp4985
sg63
g4979
sg56
(lp4986
g49
(g50
g51
NtRp4987
(dp4988
g54
(dp4989
g62
I1
ssg63
g4983
sg56
(lp4990
I00
asbasbasbag49
(g65
g51
NtRp4991
(dp4992
g54
(dp4993
sg63
g4962
sg56
(lp4994
g49
(g70
g51
NtRp4995
(dp4996
g54
(dp4997
sg63
g4991
sg56
(lp4998
g49
(g50
g51
NtRp4999
(dp5000
g54
(dp5001
g62
I1
ssg63
g4995
sg56
(lp5002
Nasbasbasbag49
(g65
g51
NtRp5003
(dp5004
g54
(dp5005
sg63
g4962
sg56
(lp5006
g49
(g70
g51
NtRp5007
(dp5008
g54
(dp5009
sg63
g5003
sg56
(lp5010
g49
(g50
g51
NtRp5011
(dp5012
g54
(dp5013
g62
I1
ssg63
g5007
sg56
(lp5014
(lp5015
(g4478
(S's\x06\x00\x00\x00Groups'
tRp5016
I00
S'http://www.web2py.com/examples/default/usergroups'
p5017
tp5018
a(g4478
(S's\x07\x00\x00\x00Twitter'
tRp5019
I00
S'http://twitter.com/web2py'
p5020
tp5021
a(g4478
(S's\t\x00\x00\x00Live Chat'
tRp5022
I00
S'http://webchat.freenode.net/?channels=web2py'
p5023
tp5024
aasbasbasbasbasbasbasbag49
(g65
g51
NtRp5025
(dp5026
g54
(dp5027
sg63
g4592
sg56
(lp5028
g49
(g70
g51
NtRp5029
(dp5030
g54
(dp5031
sg63
g5025
sg56
(lp5032
g49
(g50
g51
NtRp5033
(dp5034
g54
(dp5035
g62
I2
ssg63
g5029
sg56
(lp5036
g49
(g58
g51
NtRp5037
(dp5038
g54
(dp5039
g62
I1
ssg63
Nsg56
(lp5040
g49
(g65
g51
NtRp5041
(dp5042
g54
(dp5043
sg63
g5037
sg56
(lp5044
g49
(g70
g51
NtRp5045
(dp5046
g54
(dp5047
sg63
g5041
sg56
(lp5048
g49
(g50
g51
NtRp5049
(dp5050
g54
(dp5051
g62
I1
ssg63
g5045
sg56
(lp5052
g4478
(S's\x07\x00\x00\x00Plugins'
tRp5053
asbasbasbag49
(g65
g51
NtRp5054
(dp5055
g54
(dp5056
sg63
g5037
sg56
(lp5057
g49
(g70
g51
NtRp5058
(dp5059
g54
(dp5060
sg63
g5054
sg56
(lp5061
g49
(g50
g51
NtRp5062
(dp5063
g54
(dp5064
g62
I1
ssg63
g5058
sg56
(lp5065
I00
asbasbasbag49
(g65
g51
NtRp5066
(dp5067
g54
(dp5068
sg63
g5037
sg56
(lp5069
g49
(g70
g51
NtRp5070
(dp5071
g54
(dp5072
sg63
g5066
sg56
(lp5073
g49
(g50
g51
NtRp5074
(dp5075
g54
(dp5076
g62
I1
ssg63
g5070
sg56
(lp5077
Nasbasbasbag49
(g65
g51
NtRp5078
(dp5079
g54
(dp5080
sg63
g5037
sg56
(lp5081
g49
(g70
g51
NtRp5082
(dp5083
g54
(dp5084
sg63
g5078
sg56
(lp5085
g49
(g50
g51
NtRp5086
(dp5087
g54
(dp5088
g62
I1
ssg63
g5082
sg56
(lp5089
(lp5090
(S'plugin_wiki'
p5091
I00
S'http://web2py.com/examples/default/download'
p5092
tp5093
a(g4478
(S's\r\x00\x00\x00Other Plugins'
tRp5094
I00
g4824
tp5095
a(g4478
(S's\x0e\x00\x00\x00Layout Plugins'
tRp5096
I00
g4827
tp5097
aasbasbasbasbasbasbasbasbasbasbasbasbasbasbasbasbasbasbasbag49
(g65
g51
NtRp5098
(dp5099
g54
(dp5100
sg63
g3941
sg56
(lp5101
g49
(g70
g51
NtRp5102
(dp5103
g54
(dp5104
g74
g75
ssg63
g5098
sg56
(lp5105
S'meta'
p5106
asbag49
(g70
g51
NtRp5107
(dp5108
g54
(dp5109
g81
g82
ssg63
g5098
sg56
(lp5110
S':'
asbag49
(g70
g51
NtRp5111
(dp5112
g54
(dp5113
sg63
g5098
sg56
(lp5114
g49
(g50
g51
NtRp5115
(dp5116
g54
(dp5117
g62
I5
ssg63
g5111
sg56
(lp5118
g49
(g58
g51
NtRp5119
(dp5120
g54
(dp5121
g62
I4
ssg63
Nsg56
(lp5122
g49
(g65
g51
NtRp5123
(dp5124
g54
(dp5125
sg63
g5119
sg56
(lp5126
g49
(g70
g51
NtRp5127
(dp5128
g54
(dp5129
g74
g75
ssg63
g5123
sg56
(lp5130
S'author'
p5131
asbag49
(g70
g51
NtRp5132
(dp5133
g54
(dp5134
g81
g82
ssg63
g5123
sg56
(lp5135
S':'
asbag49
(g70
g51
NtRp5136
(dp5137
g54
(dp5138
sg63
g5123
sg56
(lp5139
g49
(g50
g51
NtRp5140
(dp5141
g54
(dp5142
g62
I4
ssg63
g5136
sg56
(lp5143
S'Your Name <you@example.com>'
p5144
asbasbasbag49
(g65
g51
NtRp5145
(dp5146
g54
(dp5147
sg63
g5119
sg56
(lp5148
g49
(g70
g51
NtRp5149
(dp5150
g54
(dp5151
g74
g75
ssg63
g5145
sg56
(lp5152
S'copyright'
p5153
asbag49
(g70
g51
NtRp5154
(dp5155
g54
(dp5156
g81
g82
ssg63
g5145
sg56
(lp5157
S':'
asbag49
(g70
g51
NtRp5158
(dp5159
g54
(dp5160
sg63
g5145
sg56
(lp5161
g49
(g50
g51
NtRp5162
(dp5163
g54
(dp5164
g62
I4
ssg63
g5158
sg56
(lp5165
S'Copyright 2011'
p5166
asbasbasbag49
(g65
g51
NtRp5167
(dp5168
g54
(dp5169
sg63
g5119
sg56
(lp5170
g49
(g70
g51
NtRp5171
(dp5172
g54
(dp5173
g74
g75
ssg63
g5167
sg56
(lp5174
S'description'
p5175
asbag49
(g70
g51
NtRp5176
(dp5177
g54
(dp5178
g81
g82
ssg63
g5167
sg56
(lp5179
S':'
asbag49
(g70
g51
NtRp5180
(dp5181
g54
(dp5182
sg63
g5167
sg56
(lp5183
g49
(g50
g51
NtRp5184
(dp5185
g54
(dp5186
g62
I4
ssg63
g5180
sg56
(lp5187
S'a cool new app'
p5188
asbasbasbag49
(g65
g51
NtRp5189
(dp5190
g54
(dp5191
sg63
g5119
sg56
(lp5192
g49
(g70
g51
NtRp5193
(dp5194
g54
(dp5195
g74
g75
ssg63
g5189
sg56
(lp5196
S'generator'
p5197
asbag49
(g70
g51
NtRp5198
(dp5199
g54
(dp5200
g81
g82
ssg63
g5189
sg56
(lp5201
S':'
asbag49
(g70
g51
NtRp5202
(dp5203
g54
(dp5204
sg63
g5189
sg56
(lp5205
g49
(g50
g51
NtRp5206
(dp5207
g54
(dp5208
g62
I4
ssg63
g5202
sg56
(lp5209
S'Web2py Web Framework'
p5210
asbasbasbag49
(g65
g51
NtRp5211
(dp5212
g54
(dp5213
sg63
g5119
sg56
(lp5214
g49
(g70
g51
NtRp5215
(dp5216
g54
(dp5217
g74
g75
ssg63
g5211
sg56
(lp5218
S'keywords'
p5219
asbag49
(g70
g51
NtRp5220
(dp5221
g54
(dp5222
g81
g82
ssg63
g5211
sg56
(lp5223
S':'
asbag49
(g70
g51
NtRp5224
(dp5225
g54
(dp5226
sg63
g5211
sg56
(lp5227
g49
(g50
g51
NtRp5228
(dp5229
g54
(dp5230
g62
I4
ssg63
g5224
sg56
(lp5231
S'web2py, python, framework'
p5232
asbasbasbasbasbasbasbag49
(g65
g51
NtRp5233
(dp5234
g54
(dp5235
sg63
g3941
sg56
(lp5236
g49
(g70
g51
NtRp5237
(dp5238
g54
(dp5239
g74
g75
ssg63
g5233
sg56
(lp5240
S'postprocessing'
p5241
asbag49
(g70
g51
NtRp5242
(dp5243
g54
(dp5244
g81
g82
ssg63
g5233
sg56
(lp5245
S':'
asbag49
(g70
g51
NtRp5246
(dp5247
g54
(dp5248
sg63
g5233
sg56
(lp5249
g49
(g50
g51
NtRp5250
(dp5251
g54
(dp5252
g62
I5
ssg63
g5246
sg56
(lp5253
g49
(g58
g51
NtRp5254
(dp5255
g54
(dp5256
g62
I4
ssg63
Nsg56
(lp5257
sbasbasbasbag49
(g65
g51
NtRp5258
(dp5259
g54
(dp5260
sg63
g3941
sg56
(lp5261
g49
(g70
g51
NtRp5262
(dp5263
g54
(dp5264
g74
g75
ssg63
g5258
sg56
(lp5265
S'session_file'
p5266
asbag49
(g70
g51
NtRp5267
(dp5268
g54
(dp5269
g81
g82
ssg63
g5258
sg56
(lp5270
S':'
asbag49
(g70
g51
NtRp5271
(dp5272
g54
(dp5273
sg63
g5258
sg56
(lp5274
g49
(g50
g51
NtRp5275
(dp5276
g54
(dp5277
g62
I5
ssg63
g5271
sg56
(lp5278
S"<open file 'C:\\Users\\omkara\\Desktop\\web2py\\applications\\SlugBarter\\sessions\\127.0.0.1-e6ebae72-1bbc-48a5-9458-95dbb65a4e54', mode 'rb+' at 0x05EED608>"
p5279
asbasbasbag49
(g65
g51
NtRp5280
(dp5281
g54
(dp5282
sg63
g3941
sg56
(lp5283
g49
(g70
g51
NtRp5284
(dp5285
g54
(dp5286
g74
g75
ssg63
g5280
sg56
(lp5287
S'session_filename'
p5288
asbag49
(g70
g51
NtRp5289
(dp5290
g54
(dp5291
g81
g82
ssg63
g5280
sg56
(lp5292
S':'
asbag49
(g70
g51
NtRp5293
(dp5294
g54
(dp5295
sg63
g5280
sg56
(lp5296
g49
(g50
g51
NtRp5297
(dp5298
g54
(dp5299
g62
I5
ssg63
g5293
sg56
(lp5300
S'C:\\Users\\omkara\\Desktop\\web2py\\applications\\SlugBarter\\sessions\\127.0.0.1-e6ebae72-1bbc-48a5-9458-95dbb65a4e54'
p5301
asbasbasbag49
(g65
g51
NtRp5302
(dp5303
g54
(dp5304
sg63
g3941
sg56
(lp5305
g49
(g70
g51
NtRp5306
(dp5307
g54
(dp5308
g74
g75
ssg63
g5302
sg56
(lp5309
S'session_id'
p5310
asbag49
(g70
g51
NtRp5311
(dp5312
g54
(dp5313
g81
g82
ssg63
g5302
sg56
(lp5314
S':'
asbag49
(g70
g51
NtRp5315
(dp5316
g54
(dp5317
sg63
g5302
sg56
(lp5318
g49
(g50
g51
NtRp5319
(dp5320
g54
(dp5321
g62
I5
ssg63
g5315
sg56
(lp5322
S'127.0.0.1-e6ebae72-1bbc-48a5-9458-95dbb65a4e54'
p5323
asbasbasbag49
(g65
g51
NtRp5324
(dp5325
g54
(dp5326
sg63
g3941
sg56
(lp5327
g49
(g70
g51
NtRp5328
(dp5329
g54
(dp5330
g74
g75
ssg63
g5324
sg56
(lp5331
S'session_id_name'
p5332
asbag49
(g70
g51
NtRp5333
(dp5334
g54
(dp5335
g81
g82
ssg63
g5324
sg56
(lp5336
S':'
asbag49
(g70
g51
NtRp5337
(dp5338
g54
(dp5339
sg63
g5324
sg56
(lp5340
g49
(g50
g51
NtRp5341
(dp5342
g54
(dp5343
g62
I5
ssg63
g5337
sg56
(lp5344
g3998
asbasbasbag49
(g65
g51
NtRp5345
(dp5346
g54
(dp5347
sg63
g3941
sg56
(lp5348
g49
(g70
g51
NtRp5349
(dp5350
g54
(dp5351
g74
g75
ssg63
g5345
sg56
(lp5352
S'session_locked'
p5353
asbag49
(g70
g51
NtRp5354
(dp5355
g54
(dp5356
g81
g82
ssg63
g5345
sg56
(lp5357
S':'
asbag49
(g70
g51
NtRp5358
(dp5359
g54
(dp5360
sg63
g5345
sg56
(lp5361
g49
(g50
g51
NtRp5362
(dp5363
g54
(dp5364
g62
I5
ssg63
g5358
sg56
(lp5365
g2234
asbasbasbag49
(g65
g51
NtRp5366
(dp5367
g54
(dp5368
sg63
g3941
sg56
(lp5369
g49
(g70
g51
NtRp5370
(dp5371
g54
(dp5372
g74
g75
ssg63
g5366
sg56
(lp5373
S'session_new'
p5374
asbag49
(g70
g51
NtRp5375
(dp5376
g54
(dp5377
g81
g82
ssg63
g5366
sg56
(lp5378
S':'
asbag49
(g70
g51
NtRp5379
(dp5380
g54
(dp5381
sg63
g5366
sg56
(lp5382
g49
(g50
g51
NtRp5383
(dp5384
g54
(dp5385
g62
I5
ssg63
g5379
sg56
(lp5386
g92
asbasbasbag49
(g65
g51
NtRp5387
(dp5388
g54
(dp5389
sg63
g3941
sg56
(lp5390
g49
(g70
g51
NtRp5391
(dp5392
g54
(dp5393
g74
g75
ssg63
g5387
sg56
(lp5394
S'status'
p5395
asbag49
(g70
g51
NtRp5396
(dp5397
g54
(dp5398
g81
g82
ssg63
g5387
sg56
(lp5399
S':'
asbag49
(g70
g51
NtRp5400
(dp5401
g54
(dp5402
sg63
g5387
sg56
(lp5403
g49
(g50
g51
NtRp5404
(dp5405
g54
(dp5406
g62
I5
ssg63
g5400
sg56
(lp5407
S'200'
p5408
asbasbasbag49
(g65
g51
NtRp5409
(dp5410
g54
(dp5411
sg63
g3941
sg56
(lp5412
g49
(g70
g51
NtRp5413
(dp5414
g54
(dp5415
g74
g75
ssg63
g5409
sg56
(lp5416
S'subtitle'
p5417
asbag49
(g70
g51
NtRp5418
(dp5419
g54
(dp5420
g81
g82
ssg63
g5409
sg56
(lp5421
S':'
asbag49
(g70
g51
NtRp5422
(dp5423
g54
(dp5424
sg63
g5409
sg56
(lp5425
g49
(g50
g51
NtRp5426
(dp5427
g54
(dp5428
g62
I5
ssg63
g5422
sg56
(lp5429
g4478
(S's\r\x00\x00\x00customize me!'
tRp5430
asbasbasbag49
(g65
g51
NtRp5431
(dp5432
g54
(dp5433
sg63
g3941
sg56
(lp5434
g49
(g70
g51
NtRp5435
(dp5436
g54
(dp5437
g74
g75
ssg63
g5431
sg56
(lp5438
S'title'
p5439
asbag49
(g70
g51
NtRp5440
(dp5441
g54
(dp5442
g81
g82
ssg63
g5431
sg56
(lp5443
S':'
asbag49
(g70
g51
NtRp5444
(dp5445
g54
(dp5446
sg63
g5431
sg56
(lp5447
g49
(g50
g51
NtRp5448
(dp5449
g54
(dp5450
g62
I5
ssg63
g5444
sg56
(lp5451
S'Slugbarter'
p5452
asbasbasbag49
(g65
g51
NtRp5453
(dp5454
g54
(dp5455
sg63
g3941
sg56
(lp5456
g49
(g70
g51
NtRp5457
(dp5458
g54
(dp5459
g74
g75
ssg63
g5453
sg56
(lp5460
g3006
asbag49
(g70
g51
NtRp5461
(dp5462
g54
(dp5463
g81
g82
ssg63
g5453
sg56
(lp5464
S':'
asbag49
(g70
g51
NtRp5465
(dp5466
g54
(dp5467
sg63
g5453
sg56
(lp5468
g49
(g50
g51
NtRp5469
(dp5470
g54
(dp5471
g62
I5
ssg63
g5465
sg56
(lp5472
g3019
asbasbasbag49
(g65
g51
NtRp5473
(dp5474
g54
(dp5475
sg63
g3941
sg56
(lp5476
g49
(g70
g51
NtRp5477
(dp5478
g54
(dp5479
g74
g75
ssg63
g5473
sg56
(lp5480
S'view'
p5481
asbag49
(g70
g51
NtRp5482
(dp5483
g54
(dp5484
g81
g82
ssg63
g5473
sg56
(lp5485
S':'
asbag49
(g70
g51
NtRp5486
(dp5487
g54
(dp5488
sg63
g5473
sg56
(lp5489
g49
(g50
g51
NtRp5490
(dp5491
g54
(dp5492
g62
I5
ssg63
g5486
sg56
(lp5493
S'default/postlisting.html'
p5494
asbasbasbasbasbsS'locals'
p5495
(dp5496
S'Service'
p5497
S"<class 'gluon.tools.Service'>"
p5498
sS'OBJECT'
p5499
S"<class 'gluon.html.OBJECT'>"
p5500
sS'SQLDB'
p5501
S"<class 'gluon.dal.DAL'>"
p5502
sg3901
S"<Storage {'last_query': 'db.listing.id>0', '_for...reate]': 'b03e2190-eaa9-4917-83d6-eb825ad9ff09'}>"
p5503
sS'LINK'
p5504
S"<class 'gluon.html.LINK'>"
p5505
sS'BR'
p5506
S"<class 'gluon.html.BR'>"
p5507
sS'local_import'
p5508
S'<function <lambda> at 0x0600F8B0>'
p5509
sS'OPTGROUP'
p5510
S"<class 'gluon.html.OPTGROUP'>"
p5511
sS'PRE'
p5512
S"<class 'gluon.html.PRE'>"
p5513
sS'IS_INT_IN_RANGE'
p5514
S"<class 'gluon.validators.IS_INT_IN_RANGE'>"
p5515
sS'IS_LOWER'
p5516
S"<class 'gluon.validators.IS_LOWER'>"
p5517
sS'IS_STRONG'
p5518
S"<class 'gluon.validators.IS_STRONG'>"
p5519
sS'cache'
p5520
S'<gluon.cache.Cache object at 0x061F0EB0>'
p5521
sS'IS_IN_DB'
p5522
S"<class 'gluon.validators.IS_IN_DB'>"
p5523
sS'TAG'
p5524
S'<gluon.html.__TAG__ object at 0x01E7FD50>'
p5525
sS'SQLField'
p5526
S"<class 'gluon.dal.Field'>"
p5527
sS'mail'
p5528
S'<gluon.tools.Mail object at 0x060DE670>'
p5529
sS'BODY'
p5530
S"<class 'gluon.html.BODY'>"
p5531
sS'IS_DATE_IN_RANGE'
p5532
S"<class 'gluon.validators.IS_DATE_IN_RANGE'>"
p5533
sS'IFRAME'
p5534
S"<class 'gluon.html.IFRAME'>"
p5535
sS'URL'
p5536
S'<function URL at 0x01EE7DF0>'
p5537
sS'__file__'
p5538
S"r'C:\\Users\\omkara\\Desktop\\web2py\\applications\\SlugBarter\\models\\registerForm.py'"
p5539
sS'db'
p5540
S"<DAL {'auth_event': <Table {'origin': <gluon.dal..._key': <gluon.dal.Field object at 0x06404E90>}>}>"
p5541
sS'auth'
p5542
S'<gluon.tools.Auth object at 0x06C3D4B0>'
p5543
sS'P'
S"<class 'gluon.html.P'>"
p5544
sS'TFOOT'
p5545
S"<class 'gluon.html.TFOOT'>"
p5546
sS'XHTML'
p5547
S"<class 'gluon.html.XHTML'>"
p5548
sS'datetime'
p5549
S"<type 'datetime.datetime'>"
p5550
sS'ON'
p5551
g2234
sS'OL'
p5552
S"<class 'gluon.html.OL'>"
p5553
sS'TEXTAREA'
p5554
S"<class 'gluon.html.TEXTAREA'>"
p5555
sS'MENU'
p5556
S"<class 'gluon.html.MENU'>"
p5557
sS'EM'
p5558
S"<class 'gluon.html.EM'>"
p5559
sS'CODE'
p5560
S"<class 'gluon.html.CODE'>"
p5561
sS'HTTP'
p5562
S"<class 'gluon.http.HTTP'>"
p5563
sS'HR'
p5564
S"<class 'gluon.html.HR'>"
p5565
sS'IS_DATETIME'
p5566
S"<class 'gluon.validators.IS_DATETIME'>"
p5567
sS'STYLE'
p5568
S"<class 'gluon.html.STYLE'>"
p5569
sS'LABEL'
p5570
S"<class 'gluon.html.LABEL'>"
p5571
sS'META'
p5572
S"<class 'gluon.html.META'>"
p5573
sS'plugins'
p5574
S'<gluon.tools.PluginManager object at 0x0609B410>'
p5575
sS'SELECT'
p5576
S"<class 'gluon.html.SELECT'>"
p5577
sS'use_janrain'
p5578
S'<function use_janrain at 0x02974570>'
p5579
sS'CENTER'
p5580
S"<class 'gluon.html.CENTER'>"
p5581
sS'prettydate'
p5582
S'<function prettydate at 0x0296BB70>'
p5583
sS'Crud'
p5584
S"<class 'gluon.tools.Crud'>"
p5585
sS'Auth'
p5586
S"<class 'gluon.tools.Auth'>"
p5587
sS'__builtins__'
p5588
S"{'ArithmeticError': <type 'exceptions.ArithmeticError'>, 'AssertionError': <type 'exceptions.AssertionError'>, 'AttributeError': <type 'exceptions.AttributeError'>, 'BaseException': <type 'exceptions.BaseException'>, 'DeprecationWarning': <type 'exceptions.DeprecationWarning'>, 'EOFError': <type 'exceptions.EOFError'>, 'Ellipsis': Ellipsis, 'EnvironmentError': <type 'exceptions.EnvironmentError'>, 'Exception': <type 'exceptions.Exception'>, 'False': False, ...}"
p5589
sS'HTML'
p5590
S"<class 'gluon.html.HTML'>"
p5591
sS'SQLFORM'
p5592
S"<class 'gluon.sqlhtml.SQLFORM'>"
p5593
sS'LOAD'
p5594
S'<function LOAD at 0x0212A6F0>'
p5595
sS'redirect'
p5596
S'<function redirect at 0x01B42AB0>'
p5597
sS'FIELDSET'
p5598
S"<class 'gluon.html.FIELDSET'>"
p5599
sS'IS_EQUAL_TO'
p5600
S"<class 'gluon.validators.IS_EQUAL_TO'>"
p5601
sS'embed64'
p5602
S'<function embed64 at 0x01EF5930>'
p5603
sS'IS_LIST_OF'
p5604
S"<class 'gluon.validators.IS_LIST_OF'>"
p5605
sS'INPUT'
p5606
S"<class 'gluon.html.INPUT'>"
p5607
sS'EMBED'
p5608
S"<class 'gluon.html.EMBED'>"
p5609
sS'_'
S'<function _ at 0x0600F6B0>'
p5610
sS'FORM'
p5611
S"<class 'gluon.html.FORM'>"
p5612
sS'H2'
p5613
S"<class 'gluon.html.H2'>"
p5614
sS'H3'
p5615
S"<class 'gluon.html.H3'>"
p5616
sS'BUTTON'
p5617
S"<class 'gluon.html.BUTTON'>"
p5618
sS'H1'
p5619
S"<class 'gluon.html.H1'>"
p5620
sS'H6'
p5621
S"<class 'gluon.html.H6'>"
p5622
sS'H4'
p5623
S"<class 'gluon.html.H4'>"
p5624
sS'H5'
p5625
S"<class 'gluon.html.H5'>"
p5626
sS'UL'
p5627
S"<class 'gluon.html.UL'>"
p5628
sS'IS_UPPER'
p5629
S"<class 'gluon.validators.IS_UPPER'>"
p5630
sS'xmlescape'
p5631
S'<function xmlescape at 0x01EE7D70>'
p5632
sS'IS_TIME'
p5633
S"<class 'gluon.validators.IS_TIME'>"
p5634
sS'OPTION'
p5635
S"<class 'gluon.html.OPTION'>"
p5636
sS'TITLE'
p5637
S"<class 'gluon.html.TITLE'>"
p5638
sS'CRYPT'
p5639
S"<class 'gluon.validators.CRYPT'>"
p5640
sS'IS_EMPTY_OR'
p5641
S"<class 'gluon.validators.IS_EMPTY_OR'>"
p5642
sS'MARKMIN'
p5643
S"<class 'gluon.html.MARKMIN'>"
p5644
sS'__name__'
p5645
S"'__restricted__'"
p5646
sS'COL'
p5647
S"<class 'gluon.html.COL'>"
p5648
sS'service'
p5649
S'<gluon.tools.Service object at 0x061B07F0>'
p5650
sS'SCRIPT'
p5651
S"<class 'gluon.html.SCRIPT'>"
p5652
sS'TABLE'
p5653
S"<class 'gluon.html.TABLE'>"
p5654
sS'IS_IPV4'
p5655
S"<class 'gluon.validators.IS_IPV4'>"
p5656
sS'IS_LENGTH'
p5657
S"<class 'gluon.validators.IS_LENGTH'>"
p5658
sS'XML'
p5659
S"<class 'gluon.html.XML'>"
p5660
sS'B'
S"<class 'gluon.html.B'>"
p5661
sS'IMG'
p5662
S"<class 'gluon.html.IMG'>"
p5663
sS'SQLTABLE'
p5664
S"<class 'gluon.sqlhtml.SQLTABLE'>"
p5665
sS'IS_MATCH'
p5666
S"<class 'gluon.validators.IS_MATCH'>"
p5667
sS'IS_ALPHANUMERIC'
p5668
S"<class 'gluon.validators.IS_ALPHANUMERIC'>"
p5669
sS'SPAN'
p5670
S"<class 'gluon.html.SPAN'>"
p5671
sS'IS_SLUG'
p5672
S"<class 'gluon.validators.IS_SLUG'>"
p5673
sS'CLEANUP'
p5674
S"<class 'gluon.validators.CLEANUP'>"
p5675
sS'IS_DATE'
p5676
S"<class 'gluon.validators.IS_DATE'>"
p5677
sS'IS_EMAIL'
p5678
S"<class 'gluon.validators.IS_EMAIL'>"
p5679
sS'IS_NOT_EMPTY'
p5680
S"<class 'gluon.validators.IS_NOT_EMPTY'>"
p5681
sS'IS_FLOAT_IN_RANGE'
p5682
S"<class 'gluon.validators.IS_FLOAT_IN_RANGE'>"
p5683
sS'BEAUTIFY'
p5684
S"<class 'gluon.html.BEAUTIFY'>"
p5685
sS'TBODY'
p5686
S"<class 'gluon.html.TBODY'>"
p5687
sS'CAT'
p5688
S"<class 'gluon.html.CAT'>"
p5689
sS'Field'
p5690
S"<class 'gluon.dal.Field'>"
p5691
sS'DIV'
p5692
S"<class 'gluon.html.DIV'>"
p5693
sS'LEGEND'
p5694
S"<class 'gluon.html.LEGEND'>"
p5695
sS'COLGROUP'
p5696
S"<class 'gluon.html.COLGROUP'>"
p5697
sS'DAL'
p5698
S"<class 'gluon.dal.DAL'>"
p5699
sS'TT'
p5700
S"<class 'gluon.html.TT'>"
p5701
sS'TR'
p5702
S"<class 'gluon.html.TR'>"
p5703
sS'LI'
p5704
S"<class 'gluon.html.LI'>"
p5705
sS'TH'
p5706
S"<class 'gluon.html.TH'>"
p5707
sS'TD'
p5708
S"<class 'gluon.html.TD'>"
p5709
sS'PluginManager'
p5710
S"<class 'gluon.tools.PluginManager'>"
p5711
sS'IS_URL'
p5712
S"<class 'gluon.validators.IS_URL'>"
p5713
sS'A'
S"<class 'gluon.html.A'>"
p5714
sS'HEAD'
p5715
S"<class 'gluon.html.HEAD'>"
p5716
sS'IS_DATETIME_IN_RANGE'
p5717
S"<class 'gluon.validators.IS_DATETIME_IN_RANGE'>"
p5718
sS'IS_IMAGE'
p5719
S"<class 'gluon.validators.IS_IMAGE'>"
p5720
sS'I'
S"<class 'gluon.html.I'>"
p5721
sS'crud'
p5722
S'<gluon.tools.Crud object at 0x061B0030>'
p5723
sS'IS_NOT_IN_DB'
p5724
S"<class 'gluon.validators.IS_NOT_IN_DB'>"
p5725
sg3936
S"<Storage {'body': <cStringIO.StringO object at 0...0x060A1870>, 'view': 'default/postlisting.html'}>"
p5726
sS'THEAD'
p5727
S"<class 'gluon.html.THEAD'>"
p5728
sS'IS_NULL_OR'
p5729
S"<class 'gluon.validators.IS_EMPTY_OR'>"
p5730
sg48
S"<Storage {'body': <open file '<fdopen>', mode 'w...-6c383c4ebd8f', '_formname': 'listing/create'}>}>"
p5731
sS'IS_EXPR'
p5732
S"<class 'gluon.validators.IS_EXPR'>"
p5733
sS'IS_IN_SET'
p5734
S"<class 'gluon.validators.IS_IN_SET'>"
p5735
sS'IS_UPLOAD_FILENAME'
p5736
S"<class 'gluon.validators.IS_UPLOAD_FILENAME'>"
p5737
sS'IS_DECIMAL_IN_RANGE'
p5738
S"<class 'gluon.validators.IS_DECIMAL_IN_RANGE'>"
p5739
sS'T'
S'<gluon.languages.translator object at 0x066779F0>'
p5740
sssS'traceback'
p5741
S'Traceback (most recent call last):\n  File "gluon/restricted.py", line 205, in restricted\n  File "C:\\Users\\omkara\\Desktop\\web2py\\applications\\SlugBarter\\models\\registerForm.py", line 14, in <module>\nTypeError: __init__() got an unexpected keyword argument \'writeable\'\n'
p5742
s.