(dp1
S'output'
p2
S"<type 'exceptions.TypeError'> define_tables() got an unexpected keyword argument 'userName'"
p3
sS'layer'
p4
S'C:\\Users\\omkara\\Desktop\\web2py\\applications\\SlugBarter\\models\\registerForm.py'
p5
sS'code'
p6
S"#Needed for authenticating users\nfrom datetime import datetime\nfrom gluon.tools import Auth\nauth = Auth(db)\n\nauth.settings.extra_fields['auth_user']=[\n    Field('username', 'string',label = 'Username: '),\n    Field('dateCreated', 'string', default = datetime.utcnow())\n]\nauth.define_tables(userName=True)\n"
p7
sS'snapshot'
p8
(dp9
S'exception'
p10
(dp11
S'__hash__'
p12
S"<method-wrapper '__hash__' of exceptions.TypeError object at 0x06403440>"
p13
sS'__setattr__'
p14
S"<method-wrapper '__setattr__' of exceptions.TypeError object at 0x06403440>"
p15
sS'__reduce_ex__'
p16
S'<built-in method __reduce_ex__ of exceptions.TypeError object at 0x06403440>'
p17
sS'__getslice__'
p18
S"<method-wrapper '__getslice__' of exceptions.TypeError object at 0x06403440>"
p19
sS'__getitem__'
p20
S"<method-wrapper '__getitem__' of exceptions.TypeError object at 0x06403440>"
p21
sS'__setstate__'
p22
S'<built-in method __setstate__ of exceptions.TypeError object at 0x06403440>'
p23
sS'__reduce__'
p24
S'<built-in method __reduce__ of exceptions.TypeError object at 0x06403440>'
p25
sS'__str__'
p26
S"<method-wrapper '__str__' of exceptions.TypeError object at 0x06403440>"
p27
sS'args'
p28
S'("define_tables() got an unexpected keyword argument \'userName\'",)'
p29
sS'__getattribute__'
p30
S"<method-wrapper '__getattribute__' of exceptions.TypeError object at 0x06403440>"
p31
sS'__class__'
p32
S"<type 'exceptions.TypeError'>"
p33
sS'__delattr__'
p34
S"<method-wrapper '__delattr__' of exceptions.TypeError object at 0x06403440>"
p35
sS'__repr__'
p36
S"<method-wrapper '__repr__' of exceptions.TypeError object at 0x06403440>"
p37
sS'__dict__'
p38
S'{}'
p39
sS'__doc__'
p40
S"'Inappropriate argument type.'"
p41
sS'__init__'
p42
S"<method-wrapper '__init__' of exceptions.TypeError object at 0x06403440>"
p43
sS'__new__'
p44
S'<built-in method __new__ of type object at 0x1E1CCD78>'
p45
ssS'evalue'
p46
S"define_tables() got an unexpected keyword argument 'userName'"
p47
sS'request'
p48
ccopy_reg
_reconstructor
p49
(cgluon.html
BEAUTIFY
p50
c__builtin__
object
p51
NtRp52
(dp53
S'attributes'
p54
(dp55
sS'components'
p56
(lp57
g49
(cgluon.html
TABLE
p58
g51
NtRp59
(dp60
g54
(dp61
S'level'
p62
I5
ssS'parent'
p63
Nsg56
(lp64
g49
(cgluon.html
TR
p65
g51
NtRp66
(dp67
g54
(dp68
sg63
g59
sg56
(lp69
g49
(cgluon.html
TD
p70
g51
NtRp71
(dp72
g54
(dp73
S'_style'
p74
S'font-weight:bold;vertical-align:top'
p75
ssg63
g66
sg56
(lp76
S'ajax'
p77
asbag49
(g70
g51
NtRp78
(dp79
g54
(dp80
S'_valign'
p81
S'top'
p82
ssg63
g66
sg56
(lp83
S':'
asbag49
(g70
g51
NtRp84
(dp85
g54
(dp86
sg63
g66
sg56
(lp87
g49
(g50
g51
NtRp88
(dp89
g54
(dp90
g62
I5
ssg63
g84
sg56
(lp91
S'False'
p92
asbasbasbag49
(g65
g51
NtRp93
(dp94
g54
(dp95
sg63
g59
sg56
(lp96
g49
(g70
g51
NtRp97
(dp98
g54
(dp99
g74
g75
ssg63
g93
sg56
(lp100
S'application'
p101
asbag49
(g70
g51
NtRp102
(dp103
g54
(dp104
g81
g82
ssg63
g93
sg56
(lp105
S':'
asbag49
(g70
g51
NtRp106
(dp107
g54
(dp108
sg63
g93
sg56
(lp109
g49
(g50
g51
NtRp110
(dp111
g54
(dp112
g62
I5
ssg63
g106
sg56
(lp113
S'SlugBarter'
p114
asbasbasbag49
(g65
g51
NtRp115
(dp116
g54
(dp117
sg63
g59
sg56
(lp118
g49
(g70
g51
NtRp119
(dp120
g54
(dp121
g74
g75
ssg63
g115
sg56
(lp122
g28
asbag49
(g70
g51
NtRp123
(dp124
g54
(dp125
g81
g82
ssg63
g115
sg56
(lp126
S':'
asbag49
(g70
g51
NtRp127
(dp128
g54
(dp129
sg63
g115
sg56
(lp130
g49
(g50
g51
NtRp131
(dp132
g54
(dp133
g62
I5
ssg63
g127
sg56
(lp134
g49
(g58
g51
NtRp135
(dp136
g54
(dp137
g62
I4
ssg63
Nsg56
(lp138
sbasbasbasbag49
(g65
g51
NtRp139
(dp140
g54
(dp141
sg63
g59
sg56
(lp142
g49
(g70
g51
NtRp143
(dp144
g54
(dp145
g74
g75
ssg63
g139
sg56
(lp146
S'body'
p147
asbag49
(g70
g51
NtRp148
(dp149
g54
(dp150
g81
g82
ssg63
g139
sg56
(lp151
S':'
asbag49
(g70
g51
NtRp152
(dp153
g54
(dp154
sg63
g139
sg56
(lp155
g49
(g50
g51
NtRp156
(dp157
g54
(dp158
g62
I5
ssg63
g152
sg56
(lp159
S'<cStringIO.StringO object at 0x05DC3B60>'
p160
asbasbasbag49
(g65
g51
NtRp161
(dp162
g54
(dp163
sg63
g59
sg56
(lp164
g49
(g70
g51
NtRp165
(dp166
g54
(dp167
g74
g75
ssg63
g161
sg56
(lp168
S'client'
p169
asbag49
(g70
g51
NtRp170
(dp171
g54
(dp172
g81
g82
ssg63
g161
sg56
(lp173
S':'
asbag49
(g70
g51
NtRp174
(dp175
g54
(dp176
sg63
g161
sg56
(lp177
g49
(g50
g51
NtRp178
(dp179
g54
(dp180
g62
I5
ssg63
g174
sg56
(lp181
S'127.0.0.1'
p182
asbasbasbag49
(g65
g51
NtRp183
(dp184
g54
(dp185
sg63
g59
sg56
(lp186
g49
(g70
g51
NtRp187
(dp188
g54
(dp189
g74
g75
ssg63
g183
sg56
(lp190
S'controller'
p191
asbag49
(g70
g51
NtRp192
(dp193
g54
(dp194
g81
g82
ssg63
g183
sg56
(lp195
S':'
asbag49
(g70
g51
NtRp196
(dp197
g54
(dp198
sg63
g183
sg56
(lp199
g49
(g50
g51
NtRp200
(dp201
g54
(dp202
g62
I5
ssg63
g196
sg56
(lp203
S'default'
p204
asbasbasbag49
(g65
g51
NtRp205
(dp206
g54
(dp207
sg63
g59
sg56
(lp208
g49
(g70
g51
NtRp209
(dp210
g54
(dp211
g74
g75
ssg63
g205
sg56
(lp212
S'cookies'
p213
asbag49
(g70
g51
NtRp214
(dp215
g54
(dp216
g81
g82
ssg63
g205
sg56
(lp217
S':'
asbag49
(g70
g51
NtRp218
(dp219
g54
(dp220
sg63
g205
sg56
(lp221
g49
(g50
g51
NtRp222
(dp223
g54
(dp224
g62
I5
ssg63
g218
sg56
(lp225
g49
(g58
g51
NtRp226
(dp227
g54
(dp228
g62
I4
ssg63
Nsg56
(lp229
g49
(g65
g51
NtRp230
(dp231
g54
(dp232
sg63
g226
sg56
(lp233
g49
(g70
g51
NtRp234
(dp235
g54
(dp236
g74
g75
ssg63
g230
sg56
(lp237
S'session_id_admin'
p238
asbag49
(g70
g51
NtRp239
(dp240
g54
(dp241
g81
g82
ssg63
g230
sg56
(lp242
S':'
asbag49
(g70
g51
NtRp243
(dp244
g54
(dp245
sg63
g230
sg56
(lp246
g49
(g50
g51
NtRp247
(dp248
g54
(dp249
g62
I4
ssg63
g243
sg56
(lp250
g49
(g58
g51
NtRp251
(dp252
g54
(dp253
g62
I3
ssg63
Nsg56
(lp254
g49
(g65
g51
NtRp255
(dp256
g54
(dp257
sg63
g251
sg56
(lp258
g49
(g70
g51
NtRp259
(dp260
g54
(dp261
g74
g75
ssg63
g255
sg56
(lp262
S'comment'
p263
asbag49
(g70
g51
NtRp264
(dp265
g54
(dp266
g81
g82
ssg63
g255
sg56
(lp267
S':'
asbag49
(g70
g51
NtRp268
(dp269
g54
(dp270
sg63
g255
sg56
(lp271
g49
(g50
g51
NtRp272
(dp273
g54
(dp274
g62
I3
ssg63
g268
sg56
(lp275
S''
asbasbasbag49
(g65
g51
NtRp276
(dp277
g54
(dp278
sg63
g251
sg56
(lp279
g49
(g70
g51
NtRp280
(dp281
g54
(dp282
g74
g75
ssg63
g276
sg56
(lp283
S'domain'
p284
asbag49
(g70
g51
NtRp285
(dp286
g54
(dp287
g81
g82
ssg63
g276
sg56
(lp288
S':'
asbag49
(g70
g51
NtRp289
(dp290
g54
(dp291
sg63
g276
sg56
(lp292
g49
(g50
g51
NtRp293
(dp294
g54
(dp295
g62
I3
ssg63
g289
sg56
(lp296
S''
asbasbasbag49
(g65
g51
NtRp297
(dp298
g54
(dp299
sg63
g251
sg56
(lp300
g49
(g70
g51
NtRp301
(dp302
g54
(dp303
g74
g75
ssg63
g297
sg56
(lp304
S'expires'
p305
asbag49
(g70
g51
NtRp306
(dp307
g54
(dp308
g81
g82
ssg63
g297
sg56
(lp309
S':'
asbag49
(g70
g51
NtRp310
(dp311
g54
(dp312
sg63
g297
sg56
(lp313
g49
(g50
g51
NtRp314
(dp315
g54
(dp316
g62
I3
ssg63
g310
sg56
(lp317
S''
asbasbasbag49
(g65
g51
NtRp318
(dp319
g54
(dp320
sg63
g251
sg56
(lp321
g49
(g70
g51
NtRp322
(dp323
g54
(dp324
g74
g75
ssg63
g318
sg56
(lp325
S'max-age'
p326
asbag49
(g70
g51
NtRp327
(dp328
g54
(dp329
g81
g82
ssg63
g318
sg56
(lp330
S':'
asbag49
(g70
g51
NtRp331
(dp332
g54
(dp333
sg63
g318
sg56
(lp334
g49
(g50
g51
NtRp335
(dp336
g54
(dp337
g62
I3
ssg63
g331
sg56
(lp338
S''
asbasbasbag49
(g65
g51
NtRp339
(dp340
g54
(dp341
sg63
g251
sg56
(lp342
g49
(g70
g51
NtRp343
(dp344
g54
(dp345
g74
g75
ssg63
g339
sg56
(lp346
S'path'
p347
asbag49
(g70
g51
NtRp348
(dp349
g54
(dp350
g81
g82
ssg63
g339
sg56
(lp351
S':'
asbag49
(g70
g51
NtRp352
(dp353
g54
(dp354
sg63
g339
sg56
(lp355
g49
(g50
g51
NtRp356
(dp357
g54
(dp358
g62
I3
ssg63
g352
sg56
(lp359
S''
asbasbasbag49
(g65
g51
NtRp360
(dp361
g54
(dp362
sg63
g251
sg56
(lp363
g49
(g70
g51
NtRp364
(dp365
g54
(dp366
g74
g75
ssg63
g360
sg56
(lp367
S'secure'
p368
asbag49
(g70
g51
NtRp369
(dp370
g54
(dp371
g81
g82
ssg63
g360
sg56
(lp372
S':'
asbag49
(g70
g51
NtRp373
(dp374
g54
(dp375
sg63
g360
sg56
(lp376
g49
(g50
g51
NtRp377
(dp378
g54
(dp379
g62
I3
ssg63
g373
sg56
(lp380
S''
asbasbasbag49
(g65
g51
NtRp381
(dp382
g54
(dp383
sg63
g251
sg56
(lp384
g49
(g70
g51
NtRp385
(dp386
g54
(dp387
g74
g75
ssg63
g381
sg56
(lp388
S'version'
p389
asbag49
(g70
g51
NtRp390
(dp391
g54
(dp392
g81
g82
ssg63
g381
sg56
(lp393
S':'
asbag49
(g70
g51
NtRp394
(dp395
g54
(dp396
sg63
g381
sg56
(lp397
g49
(g50
g51
NtRp398
(dp399
g54
(dp400
g62
I3
ssg63
g394
sg56
(lp401
S''
asbasbasbasbasbasbasbag49
(g65
g51
NtRp402
(dp403
g54
(dp404
sg63
g226
sg56
(lp405
g49
(g70
g51
NtRp406
(dp407
g54
(dp408
g74
g75
ssg63
g402
sg56
(lp409
S'session_id_onlinenotes_p1_'
p410
asbag49
(g70
g51
NtRp411
(dp412
g54
(dp413
g81
g82
ssg63
g402
sg56
(lp414
S':'
asbag49
(g70
g51
NtRp415
(dp416
g54
(dp417
sg63
g402
sg56
(lp418
g49
(g50
g51
NtRp419
(dp420
g54
(dp421
g62
I4
ssg63
g415
sg56
(lp422
g49
(g58
g51
NtRp423
(dp424
g54
(dp425
g62
I3
ssg63
Nsg56
(lp426
g49
(g65
g51
NtRp427
(dp428
g54
(dp429
sg63
g423
sg56
(lp430
g49
(g70
g51
NtRp431
(dp432
g54
(dp433
g74
g75
ssg63
g427
sg56
(lp434
g263
asbag49
(g70
g51
NtRp435
(dp436
g54
(dp437
g81
g82
ssg63
g427
sg56
(lp438
S':'
asbag49
(g70
g51
NtRp439
(dp440
g54
(dp441
sg63
g427
sg56
(lp442
g49
(g50
g51
NtRp443
(dp444
g54
(dp445
g62
I3
ssg63
g439
sg56
(lp446
S''
asbasbasbag49
(g65
g51
NtRp447
(dp448
g54
(dp449
sg63
g423
sg56
(lp450
g49
(g70
g51
NtRp451
(dp452
g54
(dp453
g74
g75
ssg63
g447
sg56
(lp454
g284
asbag49
(g70
g51
NtRp455
(dp456
g54
(dp457
g81
g82
ssg63
g447
sg56
(lp458
S':'
asbag49
(g70
g51
NtRp459
(dp460
g54
(dp461
sg63
g447
sg56
(lp462
g49
(g50
g51
NtRp463
(dp464
g54
(dp465
g62
I3
ssg63
g459
sg56
(lp466
S''
asbasbasbag49
(g65
g51
NtRp467
(dp468
g54
(dp469
sg63
g423
sg56
(lp470
g49
(g70
g51
NtRp471
(dp472
g54
(dp473
g74
g75
ssg63
g467
sg56
(lp474
g305
asbag49
(g70
g51
NtRp475
(dp476
g54
(dp477
g81
g82
ssg63
g467
sg56
(lp478
S':'
asbag49
(g70
g51
NtRp479
(dp480
g54
(dp481
sg63
g467
sg56
(lp482
g49
(g50
g51
NtRp483
(dp484
g54
(dp485
g62
I3
ssg63
g479
sg56
(lp486
S''
asbasbasbag49
(g65
g51
NtRp487
(dp488
g54
(dp489
sg63
g423
sg56
(lp490
g49
(g70
g51
NtRp491
(dp492
g54
(dp493
g74
g75
ssg63
g487
sg56
(lp494
g326
asbag49
(g70
g51
NtRp495
(dp496
g54
(dp497
g81
g82
ssg63
g487
sg56
(lp498
S':'
asbag49
(g70
g51
NtRp499
(dp500
g54
(dp501
sg63
g487
sg56
(lp502
g49
(g50
g51
NtRp503
(dp504
g54
(dp505
g62
I3
ssg63
g499
sg56
(lp506
S''
asbasbasbag49
(g65
g51
NtRp507
(dp508
g54
(dp509
sg63
g423
sg56
(lp510
g49
(g70
g51
NtRp511
(dp512
g54
(dp513
g74
g75
ssg63
g507
sg56
(lp514
g347
asbag49
(g70
g51
NtRp515
(dp516
g54
(dp517
g81
g82
ssg63
g507
sg56
(lp518
S':'
asbag49
(g70
g51
NtRp519
(dp520
g54
(dp521
sg63
g507
sg56
(lp522
g49
(g50
g51
NtRp523
(dp524
g54
(dp525
g62
I3
ssg63
g519
sg56
(lp526
S''
asbasbasbag49
(g65
g51
NtRp527
(dp528
g54
(dp529
sg63
g423
sg56
(lp530
g49
(g70
g51
NtRp531
(dp532
g54
(dp533
g74
g75
ssg63
g527
sg56
(lp534
g368
asbag49
(g70
g51
NtRp535
(dp536
g54
(dp537
g81
g82
ssg63
g527
sg56
(lp538
S':'
asbag49
(g70
g51
NtRp539
(dp540
g54
(dp541
sg63
g527
sg56
(lp542
g49
(g50
g51
NtRp543
(dp544
g54
(dp545
g62
I3
ssg63
g539
sg56
(lp546
S''
asbasbasbag49
(g65
g51
NtRp547
(dp548
g54
(dp549
sg63
g423
sg56
(lp550
g49
(g70
g51
NtRp551
(dp552
g54
(dp553
g74
g75
ssg63
g547
sg56
(lp554
g389
asbag49
(g70
g51
NtRp555
(dp556
g54
(dp557
g81
g82
ssg63
g547
sg56
(lp558
S':'
asbag49
(g70
g51
NtRp559
(dp560
g54
(dp561
sg63
g547
sg56
(lp562
g49
(g50
g51
NtRp563
(dp564
g54
(dp565
g62
I3
ssg63
g559
sg56
(lp566
S''
asbasbasbasbasbasbasbag49
(g65
g51
NtRp567
(dp568
g54
(dp569
sg63
g226
sg56
(lp570
g49
(g70
g51
NtRp571
(dp572
g54
(dp573
g74
g75
ssg63
g567
sg56
(lp574
S'session_id_slugbarter'
p575
asbag49
(g70
g51
NtRp576
(dp577
g54
(dp578
g81
g82
ssg63
g567
sg56
(lp579
S':'
asbag49
(g70
g51
NtRp580
(dp581
g54
(dp582
sg63
g567
sg56
(lp583
g49
(g50
g51
NtRp584
(dp585
g54
(dp586
g62
I4
ssg63
g580
sg56
(lp587
g49
(g58
g51
NtRp588
(dp589
g54
(dp590
g62
I3
ssg63
Nsg56
(lp591
g49
(g65
g51
NtRp592
(dp593
g54
(dp594
sg63
g588
sg56
(lp595
g49
(g70
g51
NtRp596
(dp597
g54
(dp598
g74
g75
ssg63
g592
sg56
(lp599
g263
asbag49
(g70
g51
NtRp600
(dp601
g54
(dp602
g81
g82
ssg63
g592
sg56
(lp603
S':'
asbag49
(g70
g51
NtRp604
(dp605
g54
(dp606
sg63
g592
sg56
(lp607
g49
(g50
g51
NtRp608
(dp609
g54
(dp610
g62
I3
ssg63
g604
sg56
(lp611
S''
asbasbasbag49
(g65
g51
NtRp612
(dp613
g54
(dp614
sg63
g588
sg56
(lp615
g49
(g70
g51
NtRp616
(dp617
g54
(dp618
g74
g75
ssg63
g612
sg56
(lp619
g284
asbag49
(g70
g51
NtRp620
(dp621
g54
(dp622
g81
g82
ssg63
g612
sg56
(lp623
S':'
asbag49
(g70
g51
NtRp624
(dp625
g54
(dp626
sg63
g612
sg56
(lp627
g49
(g50
g51
NtRp628
(dp629
g54
(dp630
g62
I3
ssg63
g624
sg56
(lp631
S''
asbasbasbag49
(g65
g51
NtRp632
(dp633
g54
(dp634
sg63
g588
sg56
(lp635
g49
(g70
g51
NtRp636
(dp637
g54
(dp638
g74
g75
ssg63
g632
sg56
(lp639
g305
asbag49
(g70
g51
NtRp640
(dp641
g54
(dp642
g81
g82
ssg63
g632
sg56
(lp643
S':'
asbag49
(g70
g51
NtRp644
(dp645
g54
(dp646
sg63
g632
sg56
(lp647
g49
(g50
g51
NtRp648
(dp649
g54
(dp650
g62
I3
ssg63
g644
sg56
(lp651
S''
asbasbasbag49
(g65
g51
NtRp652
(dp653
g54
(dp654
sg63
g588
sg56
(lp655
g49
(g70
g51
NtRp656
(dp657
g54
(dp658
g74
g75
ssg63
g652
sg56
(lp659
g326
asbag49
(g70
g51
NtRp660
(dp661
g54
(dp662
g81
g82
ssg63
g652
sg56
(lp663
S':'
asbag49
(g70
g51
NtRp664
(dp665
g54
(dp666
sg63
g652
sg56
(lp667
g49
(g50
g51
NtRp668
(dp669
g54
(dp670
g62
I3
ssg63
g664
sg56
(lp671
S''
asbasbasbag49
(g65
g51
NtRp672
(dp673
g54
(dp674
sg63
g588
sg56
(lp675
g49
(g70
g51
NtRp676
(dp677
g54
(dp678
g74
g75
ssg63
g672
sg56
(lp679
g347
asbag49
(g70
g51
NtRp680
(dp681
g54
(dp682
g81
g82
ssg63
g672
sg56
(lp683
S':'
asbag49
(g70
g51
NtRp684
(dp685
g54
(dp686
sg63
g672
sg56
(lp687
g49
(g50
g51
NtRp688
(dp689
g54
(dp690
g62
I3
ssg63
g684
sg56
(lp691
S''
asbasbasbag49
(g65
g51
NtRp692
(dp693
g54
(dp694
sg63
g588
sg56
(lp695
g49
(g70
g51
NtRp696
(dp697
g54
(dp698
g74
g75
ssg63
g692
sg56
(lp699
g368
asbag49
(g70
g51
NtRp700
(dp701
g54
(dp702
g81
g82
ssg63
g692
sg56
(lp703
S':'
asbag49
(g70
g51
NtRp704
(dp705
g54
(dp706
sg63
g692
sg56
(lp707
g49
(g50
g51
NtRp708
(dp709
g54
(dp710
g62
I3
ssg63
g704
sg56
(lp711
S''
asbasbasbag49
(g65
g51
NtRp712
(dp713
g54
(dp714
sg63
g588
sg56
(lp715
g49
(g70
g51
NtRp716
(dp717
g54
(dp718
g74
g75
ssg63
g712
sg56
(lp719
g389
asbag49
(g70
g51
NtRp720
(dp721
g54
(dp722
g81
g82
ssg63
g712
sg56
(lp723
S':'
asbag49
(g70
g51
NtRp724
(dp725
g54
(dp726
sg63
g712
sg56
(lp727
g49
(g50
g51
NtRp728
(dp729
g54
(dp730
g62
I3
ssg63
g724
sg56
(lp731
S''
asbasbasbasbasbasbasbag49
(g65
g51
NtRp732
(dp733
g54
(dp734
sg63
g226
sg56
(lp735
g49
(g70
g51
NtRp736
(dp737
g54
(dp738
g74
g75
ssg63
g732
sg56
(lp739
S'session_id_welcome'
p740
asbag49
(g70
g51
NtRp741
(dp742
g54
(dp743
g81
g82
ssg63
g732
sg56
(lp744
S':'
asbag49
(g70
g51
NtRp745
(dp746
g54
(dp747
sg63
g732
sg56
(lp748
g49
(g50
g51
NtRp749
(dp750
g54
(dp751
g62
I4
ssg63
g745
sg56
(lp752
g49
(g58
g51
NtRp753
(dp754
g54
(dp755
g62
I3
ssg63
Nsg56
(lp756
g49
(g65
g51
NtRp757
(dp758
g54
(dp759
sg63
g753
sg56
(lp760
g49
(g70
g51
NtRp761
(dp762
g54
(dp763
g74
g75
ssg63
g757
sg56
(lp764
g263
asbag49
(g70
g51
NtRp765
(dp766
g54
(dp767
g81
g82
ssg63
g757
sg56
(lp768
S':'
asbag49
(g70
g51
NtRp769
(dp770
g54
(dp771
sg63
g757
sg56
(lp772
g49
(g50
g51
NtRp773
(dp774
g54
(dp775
g62
I3
ssg63
g769
sg56
(lp776
S''
asbasbasbag49
(g65
g51
NtRp777
(dp778
g54
(dp779
sg63
g753
sg56
(lp780
g49
(g70
g51
NtRp781
(dp782
g54
(dp783
g74
g75
ssg63
g777
sg56
(lp784
g284
asbag49
(g70
g51
NtRp785
(dp786
g54
(dp787
g81
g82
ssg63
g777
sg56
(lp788
S':'
asbag49
(g70
g51
NtRp789
(dp790
g54
(dp791
sg63
g777
sg56
(lp792
g49
(g50
g51
NtRp793
(dp794
g54
(dp795
g62
I3
ssg63
g789
sg56
(lp796
S''
asbasbasbag49
(g65
g51
NtRp797
(dp798
g54
(dp799
sg63
g753
sg56
(lp800
g49
(g70
g51
NtRp801
(dp802
g54
(dp803
g74
g75
ssg63
g797
sg56
(lp804
g305
asbag49
(g70
g51
NtRp805
(dp806
g54
(dp807
g81
g82
ssg63
g797
sg56
(lp808
S':'
asbag49
(g70
g51
NtRp809
(dp810
g54
(dp811
sg63
g797
sg56
(lp812
g49
(g50
g51
NtRp813
(dp814
g54
(dp815
g62
I3
ssg63
g809
sg56
(lp816
S''
asbasbasbag49
(g65
g51
NtRp817
(dp818
g54
(dp819
sg63
g753
sg56
(lp820
g49
(g70
g51
NtRp821
(dp822
g54
(dp823
g74
g75
ssg63
g817
sg56
(lp824
g326
asbag49
(g70
g51
NtRp825
(dp826
g54
(dp827
g81
g82
ssg63
g817
sg56
(lp828
S':'
asbag49
(g70
g51
NtRp829
(dp830
g54
(dp831
sg63
g817
sg56
(lp832
g49
(g50
g51
NtRp833
(dp834
g54
(dp835
g62
I3
ssg63
g829
sg56
(lp836
S''
asbasbasbag49
(g65
g51
NtRp837
(dp838
g54
(dp839
sg63
g753
sg56
(lp840
g49
(g70
g51
NtRp841
(dp842
g54
(dp843
g74
g75
ssg63
g837
sg56
(lp844
g347
asbag49
(g70
g51
NtRp845
(dp846
g54
(dp847
g81
g82
ssg63
g837
sg56
(lp848
S':'
asbag49
(g70
g51
NtRp849
(dp850
g54
(dp851
sg63
g837
sg56
(lp852
g49
(g50
g51
NtRp853
(dp854
g54
(dp855
g62
I3
ssg63
g849
sg56
(lp856
S''
asbasbasbag49
(g65
g51
NtRp857
(dp858
g54
(dp859
sg63
g753
sg56
(lp860
g49
(g70
g51
NtRp861
(dp862
g54
(dp863
g74
g75
ssg63
g857
sg56
(lp864
g368
asbag49
(g70
g51
NtRp865
(dp866
g54
(dp867
g81
g82
ssg63
g857
sg56
(lp868
S':'
asbag49
(g70
g51
NtRp869
(dp870
g54
(dp871
sg63
g857
sg56
(lp872
g49
(g50
g51
NtRp873
(dp874
g54
(dp875
g62
I3
ssg63
g869
sg56
(lp876
S''
asbasbasbag49
(g65
g51
NtRp877
(dp878
g54
(dp879
sg63
g753
sg56
(lp880
g49
(g70
g51
NtRp881
(dp882
g54
(dp883
g74
g75
ssg63
g877
sg56
(lp884
g389
asbag49
(g70
g51
NtRp885
(dp886
g54
(dp887
g81
g82
ssg63
g877
sg56
(lp888
S':'
asbag49
(g70
g51
NtRp889
(dp890
g54
(dp891
sg63
g877
sg56
(lp892
g49
(g50
g51
NtRp893
(dp894
g54
(dp895
g62
I3
ssg63
g889
sg56
(lp896
S''
asbasbasbasbasbasbasbasbasbasbasbag49
(g65
g51
NtRp897
(dp898
g54
(dp899
sg63
g59
sg56
(lp900
g49
(g70
g51
NtRp901
(dp902
g54
(dp903
g74
g75
ssg63
g897
sg56
(lp904
S'env'
p905
asbag49
(g70
g51
NtRp906
(dp907
g54
(dp908
g81
g82
ssg63
g897
sg56
(lp909
S':'
asbag49
(g70
g51
NtRp910
(dp911
g54
(dp912
sg63
g897
sg56
(lp913
g49
(g50
g51
NtRp914
(dp915
g54
(dp916
g62
I5
ssg63
g910
sg56
(lp917
g49
(g58
g51
NtRp918
(dp919
g54
(dp920
g62
I4
ssg63
Nsg56
(lp921
g49
(g65
g51
NtRp922
(dp923
g54
(dp924
sg63
g918
sg56
(lp925
g49
(g70
g51
NtRp926
(dp927
g54
(dp928
g74
g75
ssg63
g922
sg56
(lp929
S'app_folders'
p930
asbag49
(g70
g51
NtRp931
(dp932
g54
(dp933
g81
g82
ssg63
g922
sg56
(lp934
S':'
asbag49
(g70
g51
NtRp935
(dp936
g54
(dp937
sg63
g922
sg56
(lp938
g49
(g50
g51
NtRp939
(dp940
g54
(dp941
g62
I4
ssg63
g935
sg56
(lp942
S"set(['C:\\\\Users\\\\omkara\\\\Desktop\\\\web2py\\\\applications\\\\admin\\\\', 'C:\\\\Users\\\\omkara\\\\Desktop\\\\web2py\\\\applications\\\\welcome\\\\', 'C:\\\\Users\\\\omkara\\\\Desktop\\\\web2py\\\\applications\\\\SlugBarter\\\\', 'C:\\\\Users\\\\omkara\\\\Desktop\\\\web2py\\\\applications\\\\OnlineNotes_p1_\\\\'])"
p943
asbasbasbag49
(g65
g51
NtRp944
(dp945
g54
(dp946
sg63
g918
sg56
(lp947
g49
(g70
g51
NtRp948
(dp949
g54
(dp950
g74
g75
ssg63
g944
sg56
(lp951
S'applications_parent'
p952
asbag49
(g70
g51
NtRp953
(dp954
g54
(dp955
g81
g82
ssg63
g944
sg56
(lp956
S':'
asbag49
(g70
g51
NtRp957
(dp958
g54
(dp959
sg63
g944
sg56
(lp960
g49
(g50
g51
NtRp961
(dp962
g54
(dp963
g62
I4
ssg63
g957
sg56
(lp964
S'C:\\Users\\omkara\\Desktop\\web2py'
p965
asbasbasbag49
(g65
g51
NtRp966
(dp967
g54
(dp968
sg63
g918
sg56
(lp969
g49
(g70
g51
NtRp970
(dp971
g54
(dp972
g74
g75
ssg63
g966
sg56
(lp973
S'cmd_args'
p974
asbag49
(g70
g51
NtRp975
(dp976
g54
(dp977
g81
g82
ssg63
g966
sg56
(lp978
S':'
asbag49
(g70
g51
NtRp979
(dp980
g54
(dp981
sg63
g966
sg56
(lp982
g49
(g50
g51
NtRp983
(dp984
g54
(dp985
g62
I4
ssg63
g979
sg56
(lp986
g49
(g58
g51
NtRp987
(dp988
g54
(dp989
g62
I3
ssg63
Nsg56
(lp990
sbasbasbasbag49
(g65
g51
NtRp991
(dp992
g54
(dp993
sg63
g918
sg56
(lp994
g49
(g70
g51
NtRp995
(dp996
g54
(dp997
g74
g75
ssg63
g991
sg56
(lp998
S'cmd_options'
p999
asbag49
(g70
g51
NtRp1000
(dp1001
g54
(dp1002
g81
g82
ssg63
g991
sg56
(lp1003
S':'
asbag49
(g70
g51
NtRp1004
(dp1005
g54
(dp1006
sg63
g991
sg56
(lp1007
g49
(g50
g51
NtRp1008
(dp1009
g54
(dp1010
g62
I4
ssg63
g1004
sg56
(lp1011
S"<Values at 0x27a30f8: {'verbose': False, 'ip': '127.0.0.1', 'shutdown_timeout': 5, 'taskbar': False, 'nocron': False, 'pid_filename': 'httpserver.pid', 'maxthreads': None, 'softcron': False, 'server_name': 'omkara-PC', 'bpython': False, 'nogui': False, 'port': 8000, 'extcron': False, 'debuglevel': 30, 'test': None, 'folder': 'C:\\\\Users\\\\omkara\\\\Desktop\\\\web2py', 'config': '', 'import_models': False, 'winservice': '', 'shell': None, 'run': '', 'log_filename': 'httpserver.log', 'args': [''], 'socket_timeout': 5, 'ssl_ca_certificate': None, 'scheduler': None, 'profiler_filename': None, 'ssl_private_key': '', 'password': '<ask>', 'request_queue_size': 5, 'ssl_certificate': '', 'cronjob': False, 'numthreads': None, 'quiet': False, 'interfaces': None, 'minthreads': None, 'timeout': 10, 'plain': False, 'nobanner': False}>"
p1012
asbasbasbag49
(g65
g51
NtRp1013
(dp1014
g54
(dp1015
sg63
g918
sg56
(lp1016
g49
(g70
g51
NtRp1017
(dp1018
g54
(dp1019
g74
g75
ssg63
g1013
sg56
(lp1020
S'db_sessions'
p1021
asbag49
(g70
g51
NtRp1022
(dp1023
g54
(dp1024
g81
g82
ssg63
g1013
sg56
(lp1025
S':'
asbag49
(g70
g51
NtRp1026
(dp1027
g54
(dp1028
sg63
g1013
sg56
(lp1029
g49
(g50
g51
NtRp1030
(dp1031
g54
(dp1032
g62
I4
ssg63
g1026
sg56
(lp1033
S'set([])'
p1034
asbasbasbag49
(g65
g51
NtRp1035
(dp1036
g54
(dp1037
sg63
g918
sg56
(lp1038
g49
(g70
g51
NtRp1039
(dp1040
g54
(dp1041
g74
g75
ssg63
g1035
sg56
(lp1042
S'debugging'
p1043
asbag49
(g70
g51
NtRp1044
(dp1045
g54
(dp1046
g81
g82
ssg63
g1035
sg56
(lp1047
S':'
asbag49
(g70
g51
NtRp1048
(dp1049
g54
(dp1050
sg63
g1035
sg56
(lp1051
g49
(g50
g51
NtRp1052
(dp1053
g54
(dp1054
g62
I4
ssg63
g1048
sg56
(lp1055
g92
asbasbasbag49
(g65
g51
NtRp1056
(dp1057
g54
(dp1058
sg63
g918
sg56
(lp1059
g49
(g70
g51
NtRp1060
(dp1061
g54
(dp1062
g74
g75
ssg63
g1056
sg56
(lp1063
S'gluon_parent'
p1064
asbag49
(g70
g51
NtRp1065
(dp1066
g54
(dp1067
g81
g82
ssg63
g1056
sg56
(lp1068
S':'
asbag49
(g70
g51
NtRp1069
(dp1070
g54
(dp1071
sg63
g1056
sg56
(lp1072
g49
(g50
g51
NtRp1073
(dp1074
g54
(dp1075
g62
I4
ssg63
g1069
sg56
(lp1076
S'C:\\Users\\omkara\\Desktop\\web2py'
p1077
asbasbasbag49
(g65
g51
NtRp1078
(dp1079
g54
(dp1080
sg63
g918
sg56
(lp1081
g49
(g70
g51
NtRp1082
(dp1083
g54
(dp1084
g74
g75
ssg63
g1078
sg56
(lp1085
S'http_accept'
p1086
asbag49
(g70
g51
NtRp1087
(dp1088
g54
(dp1089
g81
g82
ssg63
g1078
sg56
(lp1090
S':'
asbag49
(g70
g51
NtRp1091
(dp1092
g54
(dp1093
sg63
g1078
sg56
(lp1094
g49
(g50
g51
NtRp1095
(dp1096
g54
(dp1097
g62
I4
ssg63
g1091
sg56
(lp1098
S'text/html,application/xhtml+xml,application/xml;q=0.9,*/*;q=0.8'
p1099
asbasbasbag49
(g65
g51
NtRp1100
(dp1101
g54
(dp1102
sg63
g918
sg56
(lp1103
g49
(g70
g51
NtRp1104
(dp1105
g54
(dp1106
g74
g75
ssg63
g1100
sg56
(lp1107
S'http_accept_charset'
p1108
asbag49
(g70
g51
NtRp1109
(dp1110
g54
(dp1111
g81
g82
ssg63
g1100
sg56
(lp1112
S':'
asbag49
(g70
g51
NtRp1113
(dp1114
g54
(dp1115
sg63
g1100
sg56
(lp1116
g49
(g50
g51
NtRp1117
(dp1118
g54
(dp1119
g62
I4
ssg63
g1113
sg56
(lp1120
S'ISO-8859-1,utf-8;q=0.7,*;q=0.3'
p1121
asbasbasbag49
(g65
g51
NtRp1122
(dp1123
g54
(dp1124
sg63
g918
sg56
(lp1125
g49
(g70
g51
NtRp1126
(dp1127
g54
(dp1128
g74
g75
ssg63
g1122
sg56
(lp1129
S'http_accept_encoding'
p1130
asbag49
(g70
g51
NtRp1131
(dp1132
g54
(dp1133
g81
g82
ssg63
g1122
sg56
(lp1134
S':'
asbag49
(g70
g51
NtRp1135
(dp1136
g54
(dp1137
sg63
g1122
sg56
(lp1138
g49
(g50
g51
NtRp1139
(dp1140
g54
(dp1141
g62
I4
ssg63
g1135
sg56
(lp1142
S'gzip,deflate,sdch'
p1143
asbasbasbag49
(g65
g51
NtRp1144
(dp1145
g54
(dp1146
sg63
g918
sg56
(lp1147
g49
(g70
g51
NtRp1148
(dp1149
g54
(dp1150
g74
g75
ssg63
g1144
sg56
(lp1151
S'http_accept_language'
p1152
asbag49
(g70
g51
NtRp1153
(dp1154
g54
(dp1155
g81
g82
ssg63
g1144
sg56
(lp1156
S':'
asbag49
(g70
g51
NtRp1157
(dp1158
g54
(dp1159
sg63
g1144
sg56
(lp1160
g49
(g50
g51
NtRp1161
(dp1162
g54
(dp1163
g62
I4
ssg63
g1157
sg56
(lp1164
S'en-US,en;q=0.8'
p1165
asbasbasbag49
(g65
g51
NtRp1166
(dp1167
g54
(dp1168
sg63
g918
sg56
(lp1169
g49
(g70
g51
NtRp1170
(dp1171
g54
(dp1172
g74
g75
ssg63
g1166
sg56
(lp1173
S'http_cache_control'
p1174
asbag49
(g70
g51
NtRp1175
(dp1176
g54
(dp1177
g81
g82
ssg63
g1166
sg56
(lp1178
S':'
asbag49
(g70
g51
NtRp1179
(dp1180
g54
(dp1181
sg63
g1166
sg56
(lp1182
g49
(g50
g51
NtRp1183
(dp1184
g54
(dp1185
g62
I4
ssg63
g1179
sg56
(lp1186
S'max-age=0'
p1187
asbasbasbag49
(g65
g51
NtRp1188
(dp1189
g54
(dp1190
sg63
g918
sg56
(lp1191
g49
(g70
g51
NtRp1192
(dp1193
g54
(dp1194
g74
g75
ssg63
g1188
sg56
(lp1195
S'http_connection'
p1196
asbag49
(g70
g51
NtRp1197
(dp1198
g54
(dp1199
g81
g82
ssg63
g1188
sg56
(lp1200
S':'
asbag49
(g70
g51
NtRp1201
(dp1202
g54
(dp1203
sg63
g1188
sg56
(lp1204
g49
(g50
g51
NtRp1205
(dp1206
g54
(dp1207
g62
I4
ssg63
g1201
sg56
(lp1208
S'keep-alive'
p1209
asbasbasbag49
(g65
g51
NtRp1210
(dp1211
g54
(dp1212
sg63
g918
sg56
(lp1213
g49
(g70
g51
NtRp1214
(dp1215
g54
(dp1216
g74
g75
ssg63
g1210
sg56
(lp1217
S'http_cookie'
p1218
asbag49
(g70
g51
NtRp1219
(dp1220
g54
(dp1221
g81
g82
ssg63
g1210
sg56
(lp1222
S':'
asbag49
(g70
g51
NtRp1223
(dp1224
g54
(dp1225
sg63
g1210
sg56
(lp1226
g49
(g50
g51
NtRp1227
(dp1228
g54
(dp1229
g62
I4
ssg63
g1223
sg56
(lp1230
S'session_id_welcome=127.0.0.1-a1b3016b-66b8-408b-ae8e-37231f35f16e; session_id_onlinenotes_p1_=127.0.0.1-2b1a349f-aa95-4718-93d5-e7df1c85d951; session_id_slugbarter=127.0.0.1-e6ebae72-1bbc-48a5-9458-95dbb65a4e54; session_id_admin=127.0.0.1-3b1553ef-7186-4588-80e8-d2bbbaa88c9f'
p1231
asbasbasbag49
(g65
g51
NtRp1232
(dp1233
g54
(dp1234
sg63
g918
sg56
(lp1235
g49
(g70
g51
NtRp1236
(dp1237
g54
(dp1238
g74
g75
ssg63
g1232
sg56
(lp1239
S'http_host'
p1240
asbag49
(g70
g51
NtRp1241
(dp1242
g54
(dp1243
g81
g82
ssg63
g1232
sg56
(lp1244
S':'
asbag49
(g70
g51
NtRp1245
(dp1246
g54
(dp1247
sg63
g1232
sg56
(lp1248
g49
(g50
g51
NtRp1249
(dp1250
g54
(dp1251
g62
I4
ssg63
g1245
sg56
(lp1252
S'127.0.0.1:8000'
p1253
asbasbasbag49
(g65
g51
NtRp1254
(dp1255
g54
(dp1256
sg63
g918
sg56
(lp1257
g49
(g70
g51
NtRp1258
(dp1259
g54
(dp1260
g74
g75
ssg63
g1254
sg56
(lp1261
S'http_referer'
p1262
asbag49
(g70
g51
NtRp1263
(dp1264
g54
(dp1265
g81
g82
ssg63
g1254
sg56
(lp1266
S':'
asbag49
(g70
g51
NtRp1267
(dp1268
g54
(dp1269
sg63
g1254
sg56
(lp1270
g49
(g50
g51
NtRp1271
(dp1272
g54
(dp1273
g62
I4
ssg63
g1267
sg56
(lp1274
S'http://127.0.0.1:8000/SlugBarter/default/index'
p1275
asbasbasbag49
(g65
g51
NtRp1276
(dp1277
g54
(dp1278
sg63
g918
sg56
(lp1279
g49
(g70
g51
NtRp1280
(dp1281
g54
(dp1282
g74
g75
ssg63
g1276
sg56
(lp1283
S'http_user_agent'
p1284
asbag49
(g70
g51
NtRp1285
(dp1286
g54
(dp1287
g81
g82
ssg63
g1276
sg56
(lp1288
S':'
asbag49
(g70
g51
NtRp1289
(dp1290
g54
(dp1291
sg63
g1276
sg56
(lp1292
g49
(g50
g51
NtRp1293
(dp1294
g54
(dp1295
g62
I4
ssg63
g1289
sg56
(lp1296
S'Mozilla/5.0 (Windows NT 6.1) AppleWebKit/537.11 (KHTML, like Gecko) Chrome/23.0.1271.64 Safari/537.11'
p1297
asbasbasbag49
(g65
g51
NtRp1298
(dp1299
g54
(dp1300
sg63
g918
sg56
(lp1301
g49
(g70
g51
NtRp1302
(dp1303
g54
(dp1304
g74
g75
ssg63
g1298
sg56
(lp1305
S'is_jython'
p1306
asbag49
(g70
g51
NtRp1307
(dp1308
g54
(dp1309
g81
g82
ssg63
g1298
sg56
(lp1310
S':'
asbag49
(g70
g51
NtRp1311
(dp1312
g54
(dp1313
sg63
g1298
sg56
(lp1314
g49
(g50
g51
NtRp1315
(dp1316
g54
(dp1317
g62
I4
ssg63
g1311
sg56
(lp1318
g92
asbasbasbag49
(g65
g51
NtRp1319
(dp1320
g54
(dp1321
sg63
g918
sg56
(lp1322
g49
(g70
g51
NtRp1323
(dp1324
g54
(dp1325
g74
g75
ssg63
g1319
sg56
(lp1326
S'is_pypy'
p1327
asbag49
(g70
g51
NtRp1328
(dp1329
g54
(dp1330
g81
g82
ssg63
g1319
sg56
(lp1331
S':'
asbag49
(g70
g51
NtRp1332
(dp1333
g54
(dp1334
sg63
g1319
sg56
(lp1335
g49
(g50
g51
NtRp1336
(dp1337
g54
(dp1338
g62
I4
ssg63
g1332
sg56
(lp1339
g92
asbasbasbag49
(g65
g51
NtRp1340
(dp1341
g54
(dp1342
sg63
g918
sg56
(lp1343
g49
(g70
g51
NtRp1344
(dp1345
g54
(dp1346
g74
g75
ssg63
g1340
sg56
(lp1347
S'path_info'
p1348
asbag49
(g70
g51
NtRp1349
(dp1350
g54
(dp1351
g81
g82
ssg63
g1340
sg56
(lp1352
S':'
asbag49
(g70
g51
NtRp1353
(dp1354
g54
(dp1355
sg63
g1340
sg56
(lp1356
g49
(g50
g51
NtRp1357
(dp1358
g54
(dp1359
g62
I4
ssg63
g1353
sg56
(lp1360
S'/SlugBarter/default/register'
p1361
asbasbasbag49
(g65
g51
NtRp1362
(dp1363
g54
(dp1364
sg63
g918
sg56
(lp1365
g49
(g70
g51
NtRp1366
(dp1367
g54
(dp1368
g74
g75
ssg63
g1362
sg56
(lp1369
S'query_string'
p1370
asbag49
(g70
g51
NtRp1371
(dp1372
g54
(dp1373
g81
g82
ssg63
g1362
sg56
(lp1374
S':'
asbag49
(g70
g51
NtRp1375
(dp1376
g54
(dp1377
sg63
g1362
sg56
(lp1378
g49
(g50
g51
NtRp1379
(dp1380
g54
(dp1381
g62
I4
ssg63
g1375
sg56
(lp1382
S''
asbasbasbag49
(g65
g51
NtRp1383
(dp1384
g54
(dp1385
sg63
g918
sg56
(lp1386
g49
(g70
g51
NtRp1387
(dp1388
g54
(dp1389
g74
g75
ssg63
g1383
sg56
(lp1390
S'remote_addr'
p1391
asbag49
(g70
g51
NtRp1392
(dp1393
g54
(dp1394
g81
g82
ssg63
g1383
sg56
(lp1395
S':'
asbag49
(g70
g51
NtRp1396
(dp1397
g54
(dp1398
sg63
g1383
sg56
(lp1399
g49
(g50
g51
NtRp1400
(dp1401
g54
(dp1402
g62
I4
ssg63
g1396
sg56
(lp1403
g182
asbasbasbag49
(g65
g51
NtRp1404
(dp1405
g54
(dp1406
sg63
g918
sg56
(lp1407
g49
(g70
g51
NtRp1408
(dp1409
g54
(dp1410
g74
g75
ssg63
g1404
sg56
(lp1411
S'remote_port'
p1412
asbag49
(g70
g51
NtRp1413
(dp1414
g54
(dp1415
g81
g82
ssg63
g1404
sg56
(lp1416
S':'
asbag49
(g70
g51
NtRp1417
(dp1418
g54
(dp1419
sg63
g1404
sg56
(lp1420
g49
(g50
g51
NtRp1421
(dp1422
g54
(dp1423
g62
I4
ssg63
g1417
sg56
(lp1424
S'56945'
p1425
asbasbasbag49
(g65
g51
NtRp1426
(dp1427
g54
(dp1428
sg63
g918
sg56
(lp1429
g49
(g70
g51
NtRp1430
(dp1431
g54
(dp1432
g74
g75
ssg63
g1426
sg56
(lp1433
S'request_method'
p1434
asbag49
(g70
g51
NtRp1435
(dp1436
g54
(dp1437
g81
g82
ssg63
g1426
sg56
(lp1438
S':'
asbag49
(g70
g51
NtRp1439
(dp1440
g54
(dp1441
sg63
g1426
sg56
(lp1442
g49
(g50
g51
NtRp1443
(dp1444
g54
(dp1445
g62
I4
ssg63
g1439
sg56
(lp1446
S'GET'
p1447
asbasbasbag49
(g65
g51
NtRp1448
(dp1449
g54
(dp1450
sg63
g918
sg56
(lp1451
g49
(g70
g51
NtRp1452
(dp1453
g54
(dp1454
g74
g75
ssg63
g1448
sg56
(lp1455
S'script_name'
p1456
asbag49
(g70
g51
NtRp1457
(dp1458
g54
(dp1459
g81
g82
ssg63
g1448
sg56
(lp1460
S':'
asbag49
(g70
g51
NtRp1461
(dp1462
g54
(dp1463
sg63
g1448
sg56
(lp1464
g49
(g50
g51
NtRp1465
(dp1466
g54
(dp1467
g62
I4
ssg63
g1461
sg56
(lp1468
S''
asbasbasbag49
(g65
g51
NtRp1469
(dp1470
g54
(dp1471
sg63
g918
sg56
(lp1472
g49
(g70
g51
NtRp1473
(dp1474
g54
(dp1475
g74
g75
ssg63
g1469
sg56
(lp1476
S'server_name'
p1477
asbag49
(g70
g51
NtRp1478
(dp1479
g54
(dp1480
g81
g82
ssg63
g1469
sg56
(lp1481
S':'
asbag49
(g70
g51
NtRp1482
(dp1483
g54
(dp1484
sg63
g1469
sg56
(lp1485
g49
(g50
g51
NtRp1486
(dp1487
g54
(dp1488
g62
I4
ssg63
g1482
sg56
(lp1489
S'omkara-PC'
p1490
asbasbasbag49
(g65
g51
NtRp1491
(dp1492
g54
(dp1493
sg63
g918
sg56
(lp1494
g49
(g70
g51
NtRp1495
(dp1496
g54
(dp1497
g74
g75
ssg63
g1491
sg56
(lp1498
S'server_port'
p1499
asbag49
(g70
g51
NtRp1500
(dp1501
g54
(dp1502
g81
g82
ssg63
g1491
sg56
(lp1503
S':'
asbag49
(g70
g51
NtRp1504
(dp1505
g54
(dp1506
sg63
g1491
sg56
(lp1507
g49
(g50
g51
NtRp1508
(dp1509
g54
(dp1510
g62
I4
ssg63
g1504
sg56
(lp1511
S'8000'
p1512
asbasbasbag49
(g65
g51
NtRp1513
(dp1514
g54
(dp1515
sg63
g918
sg56
(lp1516
g49
(g70
g51
NtRp1517
(dp1518
g54
(dp1519
g74
g75
ssg63
g1513
sg56
(lp1520
S'server_protocol'
p1521
asbag49
(g70
g51
NtRp1522
(dp1523
g54
(dp1524
g81
g82
ssg63
g1513
sg56
(lp1525
S':'
asbag49
(g70
g51
NtRp1526
(dp1527
g54
(dp1528
sg63
g1513
sg56
(lp1529
g49
(g50
g51
NtRp1530
(dp1531
g54
(dp1532
g62
I4
ssg63
g1526
sg56
(lp1533
S'HTTP/1.1'
p1534
asbasbasbag49
(g65
g51
NtRp1535
(dp1536
g54
(dp1537
sg63
g918
sg56
(lp1538
g49
(g70
g51
NtRp1539
(dp1540
g54
(dp1541
g74
g75
ssg63
g1535
sg56
(lp1542
S'server_software'
p1543
asbag49
(g70
g51
NtRp1544
(dp1545
g54
(dp1546
g81
g82
ssg63
g1535
sg56
(lp1547
S':'
asbag49
(g70
g51
NtRp1548
(dp1549
g54
(dp1550
sg63
g1535
sg56
(lp1551
g49
(g50
g51
NtRp1552
(dp1553
g54
(dp1554
g62
I4
ssg63
g1548
sg56
(lp1555
S'Rocket 1.2.4'
p1556
asbasbasbag49
(g65
g51
NtRp1557
(dp1558
g54
(dp1559
sg63
g918
sg56
(lp1560
g49
(g70
g51
NtRp1561
(dp1562
g54
(dp1563
g74
g75
ssg63
g1557
sg56
(lp1564
S'web2py_crontype'
p1565
asbag49
(g70
g51
NtRp1566
(dp1567
g54
(dp1568
g81
g82
ssg63
g1557
sg56
(lp1569
S':'
asbag49
(g70
g51
NtRp1570
(dp1571
g54
(dp1572
sg63
g1557
sg56
(lp1573
g49
(g50
g51
NtRp1574
(dp1575
g54
(dp1576
g62
I4
ssg63
g1570
sg56
(lp1577
S'hard'
p1578
asbasbasbag49
(g65
g51
NtRp1579
(dp1580
g54
(dp1581
sg63
g918
sg56
(lp1582
g49
(g70
g51
NtRp1583
(dp1584
g54
(dp1585
g74
g75
ssg63
g1579
sg56
(lp1586
S'web2py_path'
p1587
asbag49
(g70
g51
NtRp1588
(dp1589
g54
(dp1590
g81
g82
ssg63
g1579
sg56
(lp1591
S':'
asbag49
(g70
g51
NtRp1592
(dp1593
g54
(dp1594
sg63
g1579
sg56
(lp1595
g49
(g50
g51
NtRp1596
(dp1597
g54
(dp1598
g62
I4
ssg63
g1592
sg56
(lp1599
g965
asbasbasbag49
(g65
g51
NtRp1600
(dp1601
g54
(dp1602
sg63
g918
sg56
(lp1603
g49
(g70
g51
NtRp1604
(dp1605
g54
(dp1606
g74
g75
ssg63
g1600
sg56
(lp1607
S'web2py_version'
p1608
asbag49
(g70
g51
NtRp1609
(dp1610
g54
(dp1611
g81
g82
ssg63
g1600
sg56
(lp1612
S':'
asbag49
(g70
g51
NtRp1613
(dp1614
g54
(dp1615
sg63
g1600
sg56
(lp1616
g49
(g50
g51
NtRp1617
(dp1618
g54
(dp1619
g62
I4
ssg63
g1613
sg56
(lp1620
g49
(g58
g51
NtRp1621
(dp1622
g54
(dp1623
g62
I3
ssg63
Nsg56
(lp1624
g49
(g65
g51
NtRp1625
(dp1626
g54
(dp1627
sg63
g1621
sg56
(lp1628
g49
(g70
g51
NtRp1629
(dp1630
g54
(dp1631
sg63
g1625
sg56
(lp1632
g49
(g50
g51
NtRp1633
(dp1634
g54
(dp1635
g62
I3
ssg63
g1629
sg56
(lp1636
S'1'
asbasbasbag49
(g65
g51
NtRp1637
(dp1638
g54
(dp1639
sg63
g1621
sg56
(lp1640
g49
(g70
g51
NtRp1641
(dp1642
g54
(dp1643
sg63
g1637
sg56
(lp1644
g49
(g50
g51
NtRp1645
(dp1646
g54
(dp1647
g62
I3
ssg63
g1641
sg56
(lp1648
S'99'
p1649
asbasbasbag49
(g65
g51
NtRp1650
(dp1651
g54
(dp1652
sg63
g1621
sg56
(lp1653
g49
(g70
g51
NtRp1654
(dp1655
g54
(dp1656
sg63
g1650
sg56
(lp1657
g49
(g50
g51
NtRp1658
(dp1659
g54
(dp1660
g62
I3
ssg63
g1654
sg56
(lp1661
S'7'
asbasbasbag49
(g65
g51
NtRp1662
(dp1663
g54
(dp1664
sg63
g1621
sg56
(lp1665
g49
(g70
g51
NtRp1666
(dp1667
g54
(dp1668
sg63
g1662
sg56
(lp1669
g49
(g50
g51
NtRp1670
(dp1671
g54
(dp1672
g62
I3
ssg63
g1666
sg56
(lp1673
S'datetime.datetime(2012, 3, 4, 22, 12, 8)'
p1674
asbasbasbag49
(g65
g51
NtRp1675
(dp1676
g54
(dp1677
sg63
g1621
sg56
(lp1678
g49
(g70
g51
NtRp1679
(dp1680
g54
(dp1681
sg63
g1675
sg56
(lp1682
g49
(g50
g51
NtRp1683
(dp1684
g54
(dp1685
g62
I3
ssg63
g1679
sg56
(lp1686
S'stable'
p1687
asbasbasbasbasbasbasbag49
(g65
g51
NtRp1688
(dp1689
g54
(dp1690
sg63
g918
sg56
(lp1691
g49
(g70
g51
NtRp1692
(dp1693
g54
(dp1694
g74
g75
ssg63
g1688
sg56
(lp1695
S'wsgi_errors'
p1696
asbag49
(g70
g51
NtRp1697
(dp1698
g54
(dp1699
g81
g82
ssg63
g1688
sg56
(lp1700
S':'
asbag49
(g70
g51
NtRp1701
(dp1702
g54
(dp1703
sg63
g1688
sg56
(lp1704
g49
(g50
g51
NtRp1705
(dp1706
g54
(dp1707
g62
I4
ssg63
g1701
sg56
(lp1708
S'<__main__.Stderr object at 0x01667670>'
p1709
asbasbasbag49
(g65
g51
NtRp1710
(dp1711
g54
(dp1712
sg63
g918
sg56
(lp1713
g49
(g70
g51
NtRp1714
(dp1715
g54
(dp1716
g74
g75
ssg63
g1710
sg56
(lp1717
S'wsgi_file_wrapper'
p1718
asbag49
(g70
g51
NtRp1719
(dp1720
g54
(dp1721
g81
g82
ssg63
g1710
sg56
(lp1722
S':'
asbag49
(g70
g51
NtRp1723
(dp1724
g54
(dp1725
sg63
g1710
sg56
(lp1726
g49
(g50
g51
NtRp1727
(dp1728
g54
(dp1729
g62
I4
ssg63
g1723
sg56
(lp1730
S'<class wsgiref.util.FileWrapper at 0x02532210>'
p1731
asbasbasbag49
(g65
g51
NtRp1732
(dp1733
g54
(dp1734
sg63
g918
sg56
(lp1735
g49
(g70
g51
NtRp1736
(dp1737
g54
(dp1738
g74
g75
ssg63
g1732
sg56
(lp1739
S'wsgi_input'
p1740
asbag49
(g70
g51
NtRp1741
(dp1742
g54
(dp1743
g81
g82
ssg63
g1732
sg56
(lp1744
S':'
asbag49
(g70
g51
NtRp1745
(dp1746
g54
(dp1747
sg63
g1732
sg56
(lp1748
g49
(g50
g51
NtRp1749
(dp1750
g54
(dp1751
g62
I4
ssg63
g1745
sg56
(lp1752
S'<socket._fileobject object at 0x05C856F0>'
p1753
asbasbasbag49
(g65
g51
NtRp1754
(dp1755
g54
(dp1756
sg63
g918
sg56
(lp1757
g49
(g70
g51
NtRp1758
(dp1759
g54
(dp1760
g74
g75
ssg63
g1754
sg56
(lp1761
S'wsgi_multiprocess'
p1762
asbag49
(g70
g51
NtRp1763
(dp1764
g54
(dp1765
g81
g82
ssg63
g1754
sg56
(lp1766
S':'
asbag49
(g70
g51
NtRp1767
(dp1768
g54
(dp1769
sg63
g1754
sg56
(lp1770
g49
(g50
g51
NtRp1771
(dp1772
g54
(dp1773
g62
I4
ssg63
g1767
sg56
(lp1774
g92
asbasbasbag49
(g65
g51
NtRp1775
(dp1776
g54
(dp1777
sg63
g918
sg56
(lp1778
g49
(g70
g51
NtRp1779
(dp1780
g54
(dp1781
g74
g75
ssg63
g1775
sg56
(lp1782
S'wsgi_multithread'
p1783
asbag49
(g70
g51
NtRp1784
(dp1785
g54
(dp1786
g81
g82
ssg63
g1775
sg56
(lp1787
S':'
asbag49
(g70
g51
NtRp1788
(dp1789
g54
(dp1790
sg63
g1775
sg56
(lp1791
g49
(g50
g51
NtRp1792
(dp1793
g54
(dp1794
g62
I4
ssg63
g1788
sg56
(lp1795
S'True'
p1796
asbasbasbag49
(g65
g51
NtRp1797
(dp1798
g54
(dp1799
sg63
g918
sg56
(lp1800
g49
(g70
g51
NtRp1801
(dp1802
g54
(dp1803
g74
g75
ssg63
g1797
sg56
(lp1804
S'wsgi_run_once'
p1805
asbag49
(g70
g51
NtRp1806
(dp1807
g54
(dp1808
g81
g82
ssg63
g1797
sg56
(lp1809
S':'
asbag49
(g70
g51
NtRp1810
(dp1811
g54
(dp1812
sg63
g1797
sg56
(lp1813
g49
(g50
g51
NtRp1814
(dp1815
g54
(dp1816
g62
I4
ssg63
g1810
sg56
(lp1817
g92
asbasbasbag49
(g65
g51
NtRp1818
(dp1819
g54
(dp1820
sg63
g918
sg56
(lp1821
g49
(g70
g51
NtRp1822
(dp1823
g54
(dp1824
g74
g75
ssg63
g1818
sg56
(lp1825
S'wsgi_url_scheme'
p1826
asbag49
(g70
g51
NtRp1827
(dp1828
g54
(dp1829
g81
g82
ssg63
g1818
sg56
(lp1830
S':'
asbag49
(g70
g51
NtRp1831
(dp1832
g54
(dp1833
sg63
g1818
sg56
(lp1834
g49
(g50
g51
NtRp1835
(dp1836
g54
(dp1837
g62
I4
ssg63
g1831
sg56
(lp1838
S'http'
p1839
asbasbasbag49
(g65
g51
NtRp1840
(dp1841
g54
(dp1842
sg63
g918
sg56
(lp1843
g49
(g70
g51
NtRp1844
(dp1845
g54
(dp1846
g74
g75
ssg63
g1840
sg56
(lp1847
S'wsgi_version'
p1848
asbag49
(g70
g51
NtRp1849
(dp1850
g54
(dp1851
g81
g82
ssg63
g1840
sg56
(lp1852
S':'
asbag49
(g70
g51
NtRp1853
(dp1854
g54
(dp1855
sg63
g1840
sg56
(lp1856
g49
(g50
g51
NtRp1857
(dp1858
g54
(dp1859
g62
I4
ssg63
g1853
sg56
(lp1860
g49
(g58
g51
NtRp1861
(dp1862
g54
(dp1863
g62
I3
ssg63
Nsg56
(lp1864
g49
(g65
g51
NtRp1865
(dp1866
g54
(dp1867
sg63
g1861
sg56
(lp1868
g49
(g70
g51
NtRp1869
(dp1870
g54
(dp1871
sg63
g1865
sg56
(lp1872
g49
(g50
g51
NtRp1873
(dp1874
g54
(dp1875
g62
I3
ssg63
g1869
sg56
(lp1876
S'1'
asbasbasbag49
(g65
g51
NtRp1877
(dp1878
g54
(dp1879
sg63
g1861
sg56
(lp1880
g49
(g70
g51
NtRp1881
(dp1882
g54
(dp1883
sg63
g1877
sg56
(lp1884
g49
(g50
g51
NtRp1885
(dp1886
g54
(dp1887
g62
I3
ssg63
g1881
sg56
(lp1888
S'0'
asbasbasbasbasbasbasbasbasbasbasbag49
(g65
g51
NtRp1889
(dp1890
g54
(dp1891
sg63
g59
sg56
(lp1892
g49
(g70
g51
NtRp1893
(dp1894
g54
(dp1895
g74
g75
ssg63
g1889
sg56
(lp1896
S'extension'
p1897
asbag49
(g70
g51
NtRp1898
(dp1899
g54
(dp1900
g81
g82
ssg63
g1889
sg56
(lp1901
S':'
asbag49
(g70
g51
NtRp1902
(dp1903
g54
(dp1904
sg63
g1889
sg56
(lp1905
g49
(g50
g51
NtRp1906
(dp1907
g54
(dp1908
g62
I5
ssg63
g1902
sg56
(lp1909
S'html'
p1910
asbasbasbag49
(g65
g51
NtRp1911
(dp1912
g54
(dp1913
sg63
g59
sg56
(lp1914
g49
(g70
g51
NtRp1915
(dp1916
g54
(dp1917
g74
g75
ssg63
g1911
sg56
(lp1918
S'folder'
p1919
asbag49
(g70
g51
NtRp1920
(dp1921
g54
(dp1922
g81
g82
ssg63
g1911
sg56
(lp1923
S':'
asbag49
(g70
g51
NtRp1924
(dp1925
g54
(dp1926
sg63
g1911
sg56
(lp1927
g49
(g50
g51
NtRp1928
(dp1929
g54
(dp1930
g62
I5
ssg63
g1924
sg56
(lp1931
S'C:\\Users\\omkara\\Desktop\\web2py\\applications\\SlugBarter\\'
p1932
asbasbasbag49
(g65
g51
NtRp1933
(dp1934
g54
(dp1935
sg63
g59
sg56
(lp1936
g49
(g70
g51
NtRp1937
(dp1938
g54
(dp1939
g74
g75
ssg63
g1933
sg56
(lp1940
S'function'
p1941
asbag49
(g70
g51
NtRp1942
(dp1943
g54
(dp1944
g81
g82
ssg63
g1933
sg56
(lp1945
S':'
asbag49
(g70
g51
NtRp1946
(dp1947
g54
(dp1948
sg63
g1933
sg56
(lp1949
g49
(g50
g51
NtRp1950
(dp1951
g54
(dp1952
g62
I5
ssg63
g1946
sg56
(lp1953
S'register'
p1954
asbasbasbag49
(g65
g51
NtRp1955
(dp1956
g54
(dp1957
sg63
g59
sg56
(lp1958
g49
(g70
g51
NtRp1959
(dp1960
g54
(dp1961
g74
g75
ssg63
g1955
sg56
(lp1962
S'get_vars'
p1963
asbag49
(g70
g51
NtRp1964
(dp1965
g54
(dp1966
g81
g82
ssg63
g1955
sg56
(lp1967
S':'
asbag49
(g70
g51
NtRp1968
(dp1969
g54
(dp1970
sg63
g1955
sg56
(lp1971
g49
(g50
g51
NtRp1972
(dp1973
g54
(dp1974
g62
I5
ssg63
g1968
sg56
(lp1975
g49
(g58
g51
NtRp1976
(dp1977
g54
(dp1978
g62
I4
ssg63
Nsg56
(lp1979
sbasbasbasbag49
(g65
g51
NtRp1980
(dp1981
g54
(dp1982
sg63
g59
sg56
(lp1983
g49
(g70
g51
NtRp1984
(dp1985
g54
(dp1986
g74
g75
ssg63
g1980
sg56
(lp1987
S'global_settings'
p1988
asbag49
(g70
g51
NtRp1989
(dp1990
g54
(dp1991
g81
g82
ssg63
g1980
sg56
(lp1992
S':'
asbag49
(g70
g51
NtRp1993
(dp1994
g54
(dp1995
sg63
g1980
sg56
(lp1996
g49
(g50
g51
NtRp1997
(dp1998
g54
(dp1999
g62
I5
ssg63
g1993
sg56
(lp2000
g49
(g58
g51
NtRp2001
(dp2002
g54
(dp2003
g62
I4
ssg63
Nsg56
(lp2004
g49
(g65
g51
NtRp2005
(dp2006
g54
(dp2007
sg63
g2001
sg56
(lp2008
g49
(g70
g51
NtRp2009
(dp2010
g54
(dp2011
g74
g75
ssg63
g2005
sg56
(lp2012
g930
asbag49
(g70
g51
NtRp2013
(dp2014
g54
(dp2015
g81
g82
ssg63
g2005
sg56
(lp2016
S':'
asbag49
(g70
g51
NtRp2017
(dp2018
g54
(dp2019
sg63
g2005
sg56
(lp2020
g49
(g50
g51
NtRp2021
(dp2022
g54
(dp2023
g62
I4
ssg63
g2017
sg56
(lp2024
S"set(['C:\\\\Users\\\\omkara\\\\Desktop\\\\web2py\\\\applications\\\\admin\\\\', 'C:\\\\Users\\\\omkara\\\\Desktop\\\\web2py\\\\applications\\\\welcome\\\\', 'C:\\\\Users\\\\omkara\\\\Desktop\\\\web2py\\\\applications\\\\SlugBarter\\\\', 'C:\\\\Users\\\\omkara\\\\Desktop\\\\web2py\\\\applications\\\\OnlineNotes_p1_\\\\'])"
p2025
asbasbasbag49
(g65
g51
NtRp2026
(dp2027
g54
(dp2028
sg63
g2001
sg56
(lp2029
g49
(g70
g51
NtRp2030
(dp2031
g54
(dp2032
g74
g75
ssg63
g2026
sg56
(lp2033
g952
asbag49
(g70
g51
NtRp2034
(dp2035
g54
(dp2036
g81
g82
ssg63
g2026
sg56
(lp2037
S':'
asbag49
(g70
g51
NtRp2038
(dp2039
g54
(dp2040
sg63
g2026
sg56
(lp2041
g49
(g50
g51
NtRp2042
(dp2043
g54
(dp2044
g62
I4
ssg63
g2038
sg56
(lp2045
g965
asbasbasbag49
(g65
g51
NtRp2046
(dp2047
g54
(dp2048
sg63
g2001
sg56
(lp2049
g49
(g70
g51
NtRp2050
(dp2051
g54
(dp2052
g74
g75
ssg63
g2046
sg56
(lp2053
g974
asbag49
(g70
g51
NtRp2054
(dp2055
g54
(dp2056
g81
g82
ssg63
g2046
sg56
(lp2057
S':'
asbag49
(g70
g51
NtRp2058
(dp2059
g54
(dp2060
sg63
g2046
sg56
(lp2061
g49
(g50
g51
NtRp2062
(dp2063
g54
(dp2064
g62
I4
ssg63
g2058
sg56
(lp2065
g49
(g58
g51
NtRp2066
(dp2067
g54
(dp2068
g62
I3
ssg63
Nsg56
(lp2069
sbasbasbasbag49
(g65
g51
NtRp2070
(dp2071
g54
(dp2072
sg63
g2001
sg56
(lp2073
g49
(g70
g51
NtRp2074
(dp2075
g54
(dp2076
g74
g75
ssg63
g2070
sg56
(lp2077
g999
asbag49
(g70
g51
NtRp2078
(dp2079
g54
(dp2080
g81
g82
ssg63
g2070
sg56
(lp2081
S':'
asbag49
(g70
g51
NtRp2082
(dp2083
g54
(dp2084
sg63
g2070
sg56
(lp2085
g49
(g50
g51
NtRp2086
(dp2087
g54
(dp2088
g62
I4
ssg63
g2082
sg56
(lp2089
S"<Values at 0x27a30f8: {'verbose': False, 'ip': '127.0.0.1', 'shutdown_timeout': 5, 'taskbar': False, 'nocron': False, 'pid_filename': 'httpserver.pid', 'maxthreads': None, 'softcron': False, 'server_name': 'omkara-PC', 'bpython': False, 'nogui': False, 'port': 8000, 'extcron': False, 'debuglevel': 30, 'test': None, 'folder': 'C:\\\\Users\\\\omkara\\\\Desktop\\\\web2py', 'config': '', 'import_models': False, 'winservice': '', 'shell': None, 'run': '', 'log_filename': 'httpserver.log', 'args': [''], 'socket_timeout': 5, 'ssl_ca_certificate': None, 'scheduler': None, 'profiler_filename': None, 'ssl_private_key': '', 'password': '<ask>', 'request_queue_size': 5, 'ssl_certificate': '', 'cronjob': False, 'numthreads': None, 'quiet': False, 'interfaces': None, 'minthreads': None, 'timeout': 10, 'plain': False, 'nobanner': False}>"
p2090
asbasbasbag49
(g65
g51
NtRp2091
(dp2092
g54
(dp2093
sg63
g2001
sg56
(lp2094
g49
(g70
g51
NtRp2095
(dp2096
g54
(dp2097
g74
g75
ssg63
g2091
sg56
(lp2098
g1021
asbag49
(g70
g51
NtRp2099
(dp2100
g54
(dp2101
g81
g82
ssg63
g2091
sg56
(lp2102
S':'
asbag49
(g70
g51
NtRp2103
(dp2104
g54
(dp2105
sg63
g2091
sg56
(lp2106
g49
(g50
g51
NtRp2107
(dp2108
g54
(dp2109
g62
I4
ssg63
g2103
sg56
(lp2110
S'set([])'
p2111
asbasbasbag49
(g65
g51
NtRp2112
(dp2113
g54
(dp2114
sg63
g2001
sg56
(lp2115
g49
(g70
g51
NtRp2116
(dp2117
g54
(dp2118
g74
g75
ssg63
g2112
sg56
(lp2119
g1043
asbag49
(g70
g51
NtRp2120
(dp2121
g54
(dp2122
g81
g82
ssg63
g2112
sg56
(lp2123
S':'
asbag49
(g70
g51
NtRp2124
(dp2125
g54
(dp2126
sg63
g2112
sg56
(lp2127
g49
(g50
g51
NtRp2128
(dp2129
g54
(dp2130
g62
I4
ssg63
g2124
sg56
(lp2131
g92
asbasbasbag49
(g65
g51
NtRp2132
(dp2133
g54
(dp2134
sg63
g2001
sg56
(lp2135
g49
(g70
g51
NtRp2136
(dp2137
g54
(dp2138
g74
g75
ssg63
g2132
sg56
(lp2139
g1064
asbag49
(g70
g51
NtRp2140
(dp2141
g54
(dp2142
g81
g82
ssg63
g2132
sg56
(lp2143
S':'
asbag49
(g70
g51
NtRp2144
(dp2145
g54
(dp2146
sg63
g2132
sg56
(lp2147
g49
(g50
g51
NtRp2148
(dp2149
g54
(dp2150
g62
I4
ssg63
g2144
sg56
(lp2151
g1077
asbasbasbag49
(g65
g51
NtRp2152
(dp2153
g54
(dp2154
sg63
g2001
sg56
(lp2155
g49
(g70
g51
NtRp2156
(dp2157
g54
(dp2158
g74
g75
ssg63
g2152
sg56
(lp2159
g1306
asbag49
(g70
g51
NtRp2160
(dp2161
g54
(dp2162
g81
g82
ssg63
g2152
sg56
(lp2163
S':'
asbag49
(g70
g51
NtRp2164
(dp2165
g54
(dp2166
sg63
g2152
sg56
(lp2167
g49
(g50
g51
NtRp2168
(dp2169
g54
(dp2170
g62
I4
ssg63
g2164
sg56
(lp2171
g92
asbasbasbag49
(g65
g51
NtRp2172
(dp2173
g54
(dp2174
sg63
g2001
sg56
(lp2175
g49
(g70
g51
NtRp2176
(dp2177
g54
(dp2178
g74
g75
ssg63
g2172
sg56
(lp2179
g1327
asbag49
(g70
g51
NtRp2180
(dp2181
g54
(dp2182
g81
g82
ssg63
g2172
sg56
(lp2183
S':'
asbag49
(g70
g51
NtRp2184
(dp2185
g54
(dp2186
sg63
g2172
sg56
(lp2187
g49
(g50
g51
NtRp2188
(dp2189
g54
(dp2190
g62
I4
ssg63
g2184
sg56
(lp2191
g92
asbasbasbag49
(g65
g51
NtRp2192
(dp2193
g54
(dp2194
sg63
g2001
sg56
(lp2195
g49
(g70
g51
NtRp2196
(dp2197
g54
(dp2198
g74
g75
ssg63
g2192
sg56
(lp2199
g1565
asbag49
(g70
g51
NtRp2200
(dp2201
g54
(dp2202
g81
g82
ssg63
g2192
sg56
(lp2203
S':'
asbag49
(g70
g51
NtRp2204
(dp2205
g54
(dp2206
sg63
g2192
sg56
(lp2207
g49
(g50
g51
NtRp2208
(dp2209
g54
(dp2210
g62
I4
ssg63
g2204
sg56
(lp2211
g1578
asbasbasbag49
(g65
g51
NtRp2212
(dp2213
g54
(dp2214
sg63
g2001
sg56
(lp2215
g49
(g70
g51
NtRp2216
(dp2217
g54
(dp2218
g74
g75
ssg63
g2212
sg56
(lp2219
g1608
asbag49
(g70
g51
NtRp2220
(dp2221
g54
(dp2222
g81
g82
ssg63
g2212
sg56
(lp2223
S':'
asbag49
(g70
g51
NtRp2224
(dp2225
g54
(dp2226
sg63
g2212
sg56
(lp2227
g49
(g50
g51
NtRp2228
(dp2229
g54
(dp2230
g62
I4
ssg63
g2224
sg56
(lp2231
g49
(g58
g51
NtRp2232
(dp2233
g54
(dp2234
g62
I3
ssg63
Nsg56
(lp2235
g49
(g65
g51
NtRp2236
(dp2237
g54
(dp2238
sg63
g2232
sg56
(lp2239
g49
(g70
g51
NtRp2240
(dp2241
g54
(dp2242
sg63
g2236
sg56
(lp2243
g49
(g50
g51
NtRp2244
(dp2245
g54
(dp2246
g62
I3
ssg63
g2240
sg56
(lp2247
S'1'
asbasbasbag49
(g65
g51
NtRp2248
(dp2249
g54
(dp2250
sg63
g2232
sg56
(lp2251
g49
(g70
g51
NtRp2252
(dp2253
g54
(dp2254
sg63
g2248
sg56
(lp2255
g49
(g50
g51
NtRp2256
(dp2257
g54
(dp2258
g62
I3
ssg63
g2252
sg56
(lp2259
S'99'
p2260
asbasbasbag49
(g65
g51
NtRp2261
(dp2262
g54
(dp2263
sg63
g2232
sg56
(lp2264
g49
(g70
g51
NtRp2265
(dp2266
g54
(dp2267
sg63
g2261
sg56
(lp2268
g49
(g50
g51
NtRp2269
(dp2270
g54
(dp2271
g62
I3
ssg63
g2265
sg56
(lp2272
S'7'
asbasbasbag49
(g65
g51
NtRp2273
(dp2274
g54
(dp2275
sg63
g2232
sg56
(lp2276
g49
(g70
g51
NtRp2277
(dp2278
g54
(dp2279
sg63
g2273
sg56
(lp2280
g49
(g50
g51
NtRp2281
(dp2282
g54
(dp2283
g62
I3
ssg63
g2277
sg56
(lp2284
S'datetime.datetime(2012, 3, 4, 22, 12, 8)'
p2285
asbasbasbag49
(g65
g51
NtRp2286
(dp2287
g54
(dp2288
sg63
g2232
sg56
(lp2289
g49
(g70
g51
NtRp2290
(dp2291
g54
(dp2292
sg63
g2286
sg56
(lp2293
g49
(g50
g51
NtRp2294
(dp2295
g54
(dp2296
g62
I3
ssg63
g2290
sg56
(lp2297
g1687
asbasbasbasbasbasbasbasbasbasbasbag49
(g65
g51
NtRp2298
(dp2299
g54
(dp2300
sg63
g59
sg56
(lp2301
g49
(g70
g51
NtRp2302
(dp2303
g54
(dp2304
g74
g75
ssg63
g2298
sg56
(lp2305
S'is_https'
p2306
asbag49
(g70
g51
NtRp2307
(dp2308
g54
(dp2309
g81
g82
ssg63
g2298
sg56
(lp2310
S':'
asbag49
(g70
g51
NtRp2311
(dp2312
g54
(dp2313
sg63
g2298
sg56
(lp2314
g49
(g50
g51
NtRp2315
(dp2316
g54
(dp2317
g62
I5
ssg63
g2311
sg56
(lp2318
g92
asbasbasbag49
(g65
g51
NtRp2319
(dp2320
g54
(dp2321
sg63
g59
sg56
(lp2322
g49
(g70
g51
NtRp2323
(dp2324
g54
(dp2325
g74
g75
ssg63
g2319
sg56
(lp2326
S'is_local'
p2327
asbag49
(g70
g51
NtRp2328
(dp2329
g54
(dp2330
g81
g82
ssg63
g2319
sg56
(lp2331
S':'
asbag49
(g70
g51
NtRp2332
(dp2333
g54
(dp2334
sg63
g2319
sg56
(lp2335
g49
(g50
g51
NtRp2336
(dp2337
g54
(dp2338
g62
I5
ssg63
g2332
sg56
(lp2339
g1796
asbasbasbag49
(g65
g51
NtRp2340
(dp2341
g54
(dp2342
sg63
g59
sg56
(lp2343
g49
(g70
g51
NtRp2344
(dp2345
g54
(dp2346
g74
g75
ssg63
g2340
sg56
(lp2347
S'is_restful'
p2348
asbag49
(g70
g51
NtRp2349
(dp2350
g54
(dp2351
g81
g82
ssg63
g2340
sg56
(lp2352
S':'
asbag49
(g70
g51
NtRp2353
(dp2354
g54
(dp2355
sg63
g2340
sg56
(lp2356
g49
(g50
g51
NtRp2357
(dp2358
g54
(dp2359
g62
I5
ssg63
g2353
sg56
(lp2360
g92
asbasbasbag49
(g65
g51
NtRp2361
(dp2362
g54
(dp2363
sg63
g59
sg56
(lp2364
g49
(g70
g51
NtRp2365
(dp2366
g54
(dp2367
g74
g75
ssg63
g2361
sg56
(lp2368
S'now'
p2369
asbag49
(g70
g51
NtRp2370
(dp2371
g54
(dp2372
g81
g82
ssg63
g2361
sg56
(lp2373
S':'
asbag49
(g70
g51
NtRp2374
(dp2375
g54
(dp2376
sg63
g2361
sg56
(lp2377
g49
(g50
g51
NtRp2378
(dp2379
g54
(dp2380
g62
I5
ssg63
g2374
sg56
(lp2381
S'datetime.datetime(2012, 11, 10, 10, 54, 22, 903000)'
p2382
asbasbasbag49
(g65
g51
NtRp2383
(dp2384
g54
(dp2385
sg63
g59
sg56
(lp2386
g49
(g70
g51
NtRp2387
(dp2388
g54
(dp2389
g74
g75
ssg63
g2383
sg56
(lp2390
S'post_vars'
p2391
asbag49
(g70
g51
NtRp2392
(dp2393
g54
(dp2394
g81
g82
ssg63
g2383
sg56
(lp2395
S':'
asbag49
(g70
g51
NtRp2396
(dp2397
g54
(dp2398
sg63
g2383
sg56
(lp2399
g49
(g50
g51
NtRp2400
(dp2401
g54
(dp2402
g62
I5
ssg63
g2396
sg56
(lp2403
g49
(g58
g51
NtRp2404
(dp2405
g54
(dp2406
g62
I4
ssg63
Nsg56
(lp2407
sbasbasbasbag49
(g65
g51
NtRp2408
(dp2409
g54
(dp2410
sg63
g59
sg56
(lp2411
g49
(g70
g51
NtRp2412
(dp2413
g54
(dp2414
g74
g75
ssg63
g2408
sg56
(lp2415
S'url'
p2416
asbag49
(g70
g51
NtRp2417
(dp2418
g54
(dp2419
g81
g82
ssg63
g2408
sg56
(lp2420
S':'
asbag49
(g70
g51
NtRp2421
(dp2422
g54
(dp2423
sg63
g2408
sg56
(lp2424
g49
(g50
g51
NtRp2425
(dp2426
g54
(dp2427
g62
I5
ssg63
g2421
sg56
(lp2428
S'/SlugBarter/default/register'
p2429
asbasbasbag49
(g65
g51
NtRp2430
(dp2431
g54
(dp2432
sg63
g59
sg56
(lp2433
g49
(g70
g51
NtRp2434
(dp2435
g54
(dp2436
g74
g75
ssg63
g2430
sg56
(lp2437
S'utcnow'
p2438
asbag49
(g70
g51
NtRp2439
(dp2440
g54
(dp2441
g81
g82
ssg63
g2430
sg56
(lp2442
S':'
asbag49
(g70
g51
NtRp2443
(dp2444
g54
(dp2445
sg63
g2430
sg56
(lp2446
g49
(g50
g51
NtRp2447
(dp2448
g54
(dp2449
g62
I5
ssg63
g2443
sg56
(lp2450
S'datetime.datetime(2012, 11, 10, 18, 54, 22, 903000)'
p2451
asbasbasbag49
(g65
g51
NtRp2452
(dp2453
g54
(dp2454
sg63
g59
sg56
(lp2455
g49
(g70
g51
NtRp2456
(dp2457
g54
(dp2458
g74
g75
ssg63
g2452
sg56
(lp2459
S'uuid'
p2460
asbag49
(g70
g51
NtRp2461
(dp2462
g54
(dp2463
g81
g82
ssg63
g2452
sg56
(lp2464
S':'
asbag49
(g70
g51
NtRp2465
(dp2466
g54
(dp2467
sg63
g2452
sg56
(lp2468
g49
(g50
g51
NtRp2469
(dp2470
g54
(dp2471
g62
I5
ssg63
g2465
sg56
(lp2472
S'SlugBarter/127.0.0.1.2012-11-10.10-54-22.2009c350-efe4-4516-8c2d-c451714875dc'
p2473
asbasbasbag49
(g65
g51
NtRp2474
(dp2475
g54
(dp2476
sg63
g59
sg56
(lp2477
g49
(g70
g51
NtRp2478
(dp2479
g54
(dp2480
g74
g75
ssg63
g2474
sg56
(lp2481
S'vars'
p2482
asbag49
(g70
g51
NtRp2483
(dp2484
g54
(dp2485
g81
g82
ssg63
g2474
sg56
(lp2486
S':'
asbag49
(g70
g51
NtRp2487
(dp2488
g54
(dp2489
sg63
g2474
sg56
(lp2490
g49
(g50
g51
NtRp2491
(dp2492
g54
(dp2493
g62
I5
ssg63
g2487
sg56
(lp2494
g49
(g58
g51
NtRp2495
(dp2496
g54
(dp2497
g62
I4
ssg63
Nsg56
(lp2498
sbasbasbasbag49
(g65
g51
NtRp2499
(dp2500
g54
(dp2501
sg63
g59
sg56
(lp2502
g49
(g70
g51
NtRp2503
(dp2504
g54
(dp2505
g74
g75
ssg63
g2499
sg56
(lp2506
S'wsgi'
p2507
asbag49
(g70
g51
NtRp2508
(dp2509
g54
(dp2510
g81
g82
ssg63
g2499
sg56
(lp2511
S':'
asbag49
(g70
g51
NtRp2512
(dp2513
g54
(dp2514
sg63
g2499
sg56
(lp2515
g49
(g50
g51
NtRp2516
(dp2517
g54
(dp2518
g62
I5
ssg63
g2512
sg56
(lp2519
g49
(g58
g51
NtRp2520
(dp2521
g54
(dp2522
g62
I4
ssg63
Nsg56
(lp2523
g49
(g65
g51
NtRp2524
(dp2525
g54
(dp2526
sg63
g2520
sg56
(lp2527
g49
(g70
g51
NtRp2528
(dp2529
g54
(dp2530
g74
g75
ssg63
g2524
sg56
(lp2531
S'environ'
p2532
asbag49
(g70
g51
NtRp2533
(dp2534
g54
(dp2535
g81
g82
ssg63
g2524
sg56
(lp2536
S':'
asbag49
(g70
g51
NtRp2537
(dp2538
g54
(dp2539
sg63
g2524
sg56
(lp2540
g49
(g50
g51
NtRp2541
(dp2542
g54
(dp2543
g62
I4
ssg63
g2537
sg56
(lp2544
g49
(g58
g51
NtRp2545
(dp2546
g54
(dp2547
g62
I3
ssg63
Nsg56
(lp2548
g49
(g65
g51
NtRp2549
(dp2550
g54
(dp2551
sg63
g2545
sg56
(lp2552
g49
(g70
g51
NtRp2553
(dp2554
g54
(dp2555
g74
g75
ssg63
g2549
sg56
(lp2556
S'HTTP_ACCEPT'
p2557
asbag49
(g70
g51
NtRp2558
(dp2559
g54
(dp2560
g81
g82
ssg63
g2549
sg56
(lp2561
S':'
asbag49
(g70
g51
NtRp2562
(dp2563
g54
(dp2564
sg63
g2549
sg56
(lp2565
g49
(g50
g51
NtRp2566
(dp2567
g54
(dp2568
g62
I3
ssg63
g2562
sg56
(lp2569
g1099
asbasbasbag49
(g65
g51
NtRp2570
(dp2571
g54
(dp2572
sg63
g2545
sg56
(lp2573
g49
(g70
g51
NtRp2574
(dp2575
g54
(dp2576
g74
g75
ssg63
g2570
sg56
(lp2577
S'HTTP_ACCEPT_CHARSET'
p2578
asbag49
(g70
g51
NtRp2579
(dp2580
g54
(dp2581
g81
g82
ssg63
g2570
sg56
(lp2582
S':'
asbag49
(g70
g51
NtRp2583
(dp2584
g54
(dp2585
sg63
g2570
sg56
(lp2586
g49
(g50
g51
NtRp2587
(dp2588
g54
(dp2589
g62
I3
ssg63
g2583
sg56
(lp2590
g1121
asbasbasbag49
(g65
g51
NtRp2591
(dp2592
g54
(dp2593
sg63
g2545
sg56
(lp2594
g49
(g70
g51
NtRp2595
(dp2596
g54
(dp2597
g74
g75
ssg63
g2591
sg56
(lp2598
S'HTTP_ACCEPT_ENCODING'
p2599
asbag49
(g70
g51
NtRp2600
(dp2601
g54
(dp2602
g81
g82
ssg63
g2591
sg56
(lp2603
S':'
asbag49
(g70
g51
NtRp2604
(dp2605
g54
(dp2606
sg63
g2591
sg56
(lp2607
g49
(g50
g51
NtRp2608
(dp2609
g54
(dp2610
g62
I3
ssg63
g2604
sg56
(lp2611
g1143
asbasbasbag49
(g65
g51
NtRp2612
(dp2613
g54
(dp2614
sg63
g2545
sg56
(lp2615
g49
(g70
g51
NtRp2616
(dp2617
g54
(dp2618
g74
g75
ssg63
g2612
sg56
(lp2619
S'HTTP_ACCEPT_LANGUAGE'
p2620
asbag49
(g70
g51
NtRp2621
(dp2622
g54
(dp2623
g81
g82
ssg63
g2612
sg56
(lp2624
S':'
asbag49
(g70
g51
NtRp2625
(dp2626
g54
(dp2627
sg63
g2612
sg56
(lp2628
g49
(g50
g51
NtRp2629
(dp2630
g54
(dp2631
g62
I3
ssg63
g2625
sg56
(lp2632
g1165
asbasbasbag49
(g65
g51
NtRp2633
(dp2634
g54
(dp2635
sg63
g2545
sg56
(lp2636
g49
(g70
g51
NtRp2637
(dp2638
g54
(dp2639
g74
g75
ssg63
g2633
sg56
(lp2640
S'HTTP_CACHE_CONTROL'
p2641
asbag49
(g70
g51
NtRp2642
(dp2643
g54
(dp2644
g81
g82
ssg63
g2633
sg56
(lp2645
S':'
asbag49
(g70
g51
NtRp2646
(dp2647
g54
(dp2648
sg63
g2633
sg56
(lp2649
g49
(g50
g51
NtRp2650
(dp2651
g54
(dp2652
g62
I3
ssg63
g2646
sg56
(lp2653
g1187
asbasbasbag49
(g65
g51
NtRp2654
(dp2655
g54
(dp2656
sg63
g2545
sg56
(lp2657
g49
(g70
g51
NtRp2658
(dp2659
g54
(dp2660
g74
g75
ssg63
g2654
sg56
(lp2661
S'HTTP_CONNECTION'
p2662
asbag49
(g70
g51
NtRp2663
(dp2664
g54
(dp2665
g81
g82
ssg63
g2654
sg56
(lp2666
S':'
asbag49
(g70
g51
NtRp2667
(dp2668
g54
(dp2669
sg63
g2654
sg56
(lp2670
g49
(g50
g51
NtRp2671
(dp2672
g54
(dp2673
g62
I3
ssg63
g2667
sg56
(lp2674
g1209
asbasbasbag49
(g65
g51
NtRp2675
(dp2676
g54
(dp2677
sg63
g2545
sg56
(lp2678
g49
(g70
g51
NtRp2679
(dp2680
g54
(dp2681
g74
g75
ssg63
g2675
sg56
(lp2682
S'HTTP_COOKIE'
p2683
asbag49
(g70
g51
NtRp2684
(dp2685
g54
(dp2686
g81
g82
ssg63
g2675
sg56
(lp2687
S':'
asbag49
(g70
g51
NtRp2688
(dp2689
g54
(dp2690
sg63
g2675
sg56
(lp2691
g49
(g50
g51
NtRp2692
(dp2693
g54
(dp2694
g62
I3
ssg63
g2688
sg56
(lp2695
g1231
asbasbasbag49
(g65
g51
NtRp2696
(dp2697
g54
(dp2698
sg63
g2545
sg56
(lp2699
g49
(g70
g51
NtRp2700
(dp2701
g54
(dp2702
g74
g75
ssg63
g2696
sg56
(lp2703
S'HTTP_HOST'
p2704
asbag49
(g70
g51
NtRp2705
(dp2706
g54
(dp2707
g81
g82
ssg63
g2696
sg56
(lp2708
S':'
asbag49
(g70
g51
NtRp2709
(dp2710
g54
(dp2711
sg63
g2696
sg56
(lp2712
g49
(g50
g51
NtRp2713
(dp2714
g54
(dp2715
g62
I3
ssg63
g2709
sg56
(lp2716
g1253
asbasbasbag49
(g65
g51
NtRp2717
(dp2718
g54
(dp2719
sg63
g2545
sg56
(lp2720
g49
(g70
g51
NtRp2721
(dp2722
g54
(dp2723
g74
g75
ssg63
g2717
sg56
(lp2724
S'HTTP_REFERER'
p2725
asbag49
(g70
g51
NtRp2726
(dp2727
g54
(dp2728
g81
g82
ssg63
g2717
sg56
(lp2729
S':'
asbag49
(g70
g51
NtRp2730
(dp2731
g54
(dp2732
sg63
g2717
sg56
(lp2733
g49
(g50
g51
NtRp2734
(dp2735
g54
(dp2736
g62
I3
ssg63
g2730
sg56
(lp2737
g1275
asbasbasbag49
(g65
g51
NtRp2738
(dp2739
g54
(dp2740
sg63
g2545
sg56
(lp2741
g49
(g70
g51
NtRp2742
(dp2743
g54
(dp2744
g74
g75
ssg63
g2738
sg56
(lp2745
S'HTTP_USER_AGENT'
p2746
asbag49
(g70
g51
NtRp2747
(dp2748
g54
(dp2749
g81
g82
ssg63
g2738
sg56
(lp2750
S':'
asbag49
(g70
g51
NtRp2751
(dp2752
g54
(dp2753
sg63
g2738
sg56
(lp2754
g49
(g50
g51
NtRp2755
(dp2756
g54
(dp2757
g62
I3
ssg63
g2751
sg56
(lp2758
g1297
asbasbasbag49
(g65
g51
NtRp2759
(dp2760
g54
(dp2761
sg63
g2545
sg56
(lp2762
g49
(g70
g51
NtRp2763
(dp2764
g54
(dp2765
g74
g75
ssg63
g2759
sg56
(lp2766
S'PATH_INFO'
p2767
asbag49
(g70
g51
NtRp2768
(dp2769
g54
(dp2770
g81
g82
ssg63
g2759
sg56
(lp2771
S':'
asbag49
(g70
g51
NtRp2772
(dp2773
g54
(dp2774
sg63
g2759
sg56
(lp2775
g49
(g50
g51
NtRp2776
(dp2777
g54
(dp2778
g62
I3
ssg63
g2772
sg56
(lp2779
g1361
asbasbasbag49
(g65
g51
NtRp2780
(dp2781
g54
(dp2782
sg63
g2545
sg56
(lp2783
g49
(g70
g51
NtRp2784
(dp2785
g54
(dp2786
g74
g75
ssg63
g2780
sg56
(lp2787
S'QUERY_STRING'
p2788
asbag49
(g70
g51
NtRp2789
(dp2790
g54
(dp2791
g81
g82
ssg63
g2780
sg56
(lp2792
S':'
asbag49
(g70
g51
NtRp2793
(dp2794
g54
(dp2795
sg63
g2780
sg56
(lp2796
g49
(g50
g51
NtRp2797
(dp2798
g54
(dp2799
g62
I3
ssg63
g2793
sg56
(lp2800
S''
asbasbasbag49
(g65
g51
NtRp2801
(dp2802
g54
(dp2803
sg63
g2545
sg56
(lp2804
g49
(g70
g51
NtRp2805
(dp2806
g54
(dp2807
g74
g75
ssg63
g2801
sg56
(lp2808
S'REMOTE_ADDR'
p2809
asbag49
(g70
g51
NtRp2810
(dp2811
g54
(dp2812
g81
g82
ssg63
g2801
sg56
(lp2813
S':'
asbag49
(g70
g51
NtRp2814
(dp2815
g54
(dp2816
sg63
g2801
sg56
(lp2817
g49
(g50
g51
NtRp2818
(dp2819
g54
(dp2820
g62
I3
ssg63
g2814
sg56
(lp2821
g182
asbasbasbag49
(g65
g51
NtRp2822
(dp2823
g54
(dp2824
sg63
g2545
sg56
(lp2825
g49
(g70
g51
NtRp2826
(dp2827
g54
(dp2828
g74
g75
ssg63
g2822
sg56
(lp2829
S'REMOTE_PORT'
p2830
asbag49
(g70
g51
NtRp2831
(dp2832
g54
(dp2833
g81
g82
ssg63
g2822
sg56
(lp2834
S':'
asbag49
(g70
g51
NtRp2835
(dp2836
g54
(dp2837
sg63
g2822
sg56
(lp2838
g49
(g50
g51
NtRp2839
(dp2840
g54
(dp2841
g62
I3
ssg63
g2835
sg56
(lp2842
g1425
asbasbasbag49
(g65
g51
NtRp2843
(dp2844
g54
(dp2845
sg63
g2545
sg56
(lp2846
g49
(g70
g51
NtRp2847
(dp2848
g54
(dp2849
g74
g75
ssg63
g2843
sg56
(lp2850
S'REQUEST_METHOD'
p2851
asbag49
(g70
g51
NtRp2852
(dp2853
g54
(dp2854
g81
g82
ssg63
g2843
sg56
(lp2855
S':'
asbag49
(g70
g51
NtRp2856
(dp2857
g54
(dp2858
sg63
g2843
sg56
(lp2859
g49
(g50
g51
NtRp2860
(dp2861
g54
(dp2862
g62
I3
ssg63
g2856
sg56
(lp2863
g1447
asbasbasbag49
(g65
g51
NtRp2864
(dp2865
g54
(dp2866
sg63
g2545
sg56
(lp2867
g49
(g70
g51
NtRp2868
(dp2869
g54
(dp2870
g74
g75
ssg63
g2864
sg56
(lp2871
S'SCRIPT_NAME'
p2872
asbag49
(g70
g51
NtRp2873
(dp2874
g54
(dp2875
g81
g82
ssg63
g2864
sg56
(lp2876
S':'
asbag49
(g70
g51
NtRp2877
(dp2878
g54
(dp2879
sg63
g2864
sg56
(lp2880
g49
(g50
g51
NtRp2881
(dp2882
g54
(dp2883
g62
I3
ssg63
g2877
sg56
(lp2884
S''
asbasbasbag49
(g65
g51
NtRp2885
(dp2886
g54
(dp2887
sg63
g2545
sg56
(lp2888
g49
(g70
g51
NtRp2889
(dp2890
g54
(dp2891
g74
g75
ssg63
g2885
sg56
(lp2892
S'SERVER_NAME'
p2893
asbag49
(g70
g51
NtRp2894
(dp2895
g54
(dp2896
g81
g82
ssg63
g2885
sg56
(lp2897
S':'
asbag49
(g70
g51
NtRp2898
(dp2899
g54
(dp2900
sg63
g2885
sg56
(lp2901
g49
(g50
g51
NtRp2902
(dp2903
g54
(dp2904
g62
I3
ssg63
g2898
sg56
(lp2905
g1490
asbasbasbag49
(g65
g51
NtRp2906
(dp2907
g54
(dp2908
sg63
g2545
sg56
(lp2909
g49
(g70
g51
NtRp2910
(dp2911
g54
(dp2912
g74
g75
ssg63
g2906
sg56
(lp2913
S'SERVER_PORT'
p2914
asbag49
(g70
g51
NtRp2915
(dp2916
g54
(dp2917
g81
g82
ssg63
g2906
sg56
(lp2918
S':'
asbag49
(g70
g51
NtRp2919
(dp2920
g54
(dp2921
sg63
g2906
sg56
(lp2922
g49
(g50
g51
NtRp2923
(dp2924
g54
(dp2925
g62
I3
ssg63
g2919
sg56
(lp2926
g1512
asbasbasbag49
(g65
g51
NtRp2927
(dp2928
g54
(dp2929
sg63
g2545
sg56
(lp2930
g49
(g70
g51
NtRp2931
(dp2932
g54
(dp2933
g74
g75
ssg63
g2927
sg56
(lp2934
S'SERVER_PROTOCOL'
p2935
asbag49
(g70
g51
NtRp2936
(dp2937
g54
(dp2938
g81
g82
ssg63
g2927
sg56
(lp2939
S':'
asbag49
(g70
g51
NtRp2940
(dp2941
g54
(dp2942
sg63
g2927
sg56
(lp2943
g49
(g50
g51
NtRp2944
(dp2945
g54
(dp2946
g62
I3
ssg63
g2940
sg56
(lp2947
g1534
asbasbasbag49
(g65
g51
NtRp2948
(dp2949
g54
(dp2950
sg63
g2545
sg56
(lp2951
g49
(g70
g51
NtRp2952
(dp2953
g54
(dp2954
g74
g75
ssg63
g2948
sg56
(lp2955
S'SERVER_SOFTWARE'
p2956
asbag49
(g70
g51
NtRp2957
(dp2958
g54
(dp2959
g81
g82
ssg63
g2948
sg56
(lp2960
S':'
asbag49
(g70
g51
NtRp2961
(dp2962
g54
(dp2963
sg63
g2948
sg56
(lp2964
g49
(g50
g51
NtRp2965
(dp2966
g54
(dp2967
g62
I3
ssg63
g2961
sg56
(lp2968
g1556
asbasbasbag49
(g65
g51
NtRp2969
(dp2970
g54
(dp2971
sg63
g2545
sg56
(lp2972
g49
(g70
g51
NtRp2973
(dp2974
g54
(dp2975
g74
g75
ssg63
g2969
sg56
(lp2976
S'wsgi.errors'
p2977
asbag49
(g70
g51
NtRp2978
(dp2979
g54
(dp2980
g81
g82
ssg63
g2969
sg56
(lp2981
S':'
asbag49
(g70
g51
NtRp2982
(dp2983
g54
(dp2984
sg63
g2969
sg56
(lp2985
g49
(g50
g51
NtRp2986
(dp2987
g54
(dp2988
g62
I3
ssg63
g2982
sg56
(lp2989
S'<__main__.Stderr object at 0x01667670>'
p2990
asbasbasbag49
(g65
g51
NtRp2991
(dp2992
g54
(dp2993
sg63
g2545
sg56
(lp2994
g49
(g70
g51
NtRp2995
(dp2996
g54
(dp2997
g74
g75
ssg63
g2991
sg56
(lp2998
S'wsgi.file_wrapper'
p2999
asbag49
(g70
g51
NtRp3000
(dp3001
g54
(dp3002
g81
g82
ssg63
g2991
sg56
(lp3003
S':'
asbag49
(g70
g51
NtRp3004
(dp3005
g54
(dp3006
sg63
g2991
sg56
(lp3007
g49
(g50
g51
NtRp3008
(dp3009
g54
(dp3010
g62
I3
ssg63
g3004
sg56
(lp3011
S'<class wsgiref.util.FileWrapper at 0x02532210>'
p3012
asbasbasbag49
(g65
g51
NtRp3013
(dp3014
g54
(dp3015
sg63
g2545
sg56
(lp3016
g49
(g70
g51
NtRp3017
(dp3018
g54
(dp3019
g74
g75
ssg63
g3013
sg56
(lp3020
S'wsgi.input'
p3021
asbag49
(g70
g51
NtRp3022
(dp3023
g54
(dp3024
g81
g82
ssg63
g3013
sg56
(lp3025
S':'
asbag49
(g70
g51
NtRp3026
(dp3027
g54
(dp3028
sg63
g3013
sg56
(lp3029
g49
(g50
g51
NtRp3030
(dp3031
g54
(dp3032
g62
I3
ssg63
g3026
sg56
(lp3033
S'<cStringIO.StringO object at 0x05DC3B60>'
p3034
asbasbasbag49
(g65
g51
NtRp3035
(dp3036
g54
(dp3037
sg63
g2545
sg56
(lp3038
g49
(g70
g51
NtRp3039
(dp3040
g54
(dp3041
g74
g75
ssg63
g3035
sg56
(lp3042
S'wsgi.multiprocess'
p3043
asbag49
(g70
g51
NtRp3044
(dp3045
g54
(dp3046
g81
g82
ssg63
g3035
sg56
(lp3047
S':'
asbag49
(g70
g51
NtRp3048
(dp3049
g54
(dp3050
sg63
g3035
sg56
(lp3051
g49
(g50
g51
NtRp3052
(dp3053
g54
(dp3054
g62
I3
ssg63
g3048
sg56
(lp3055
g92
asbasbasbag49
(g65
g51
NtRp3056
(dp3057
g54
(dp3058
sg63
g2545
sg56
(lp3059
g49
(g70
g51
NtRp3060
(dp3061
g54
(dp3062
g74
g75
ssg63
g3056
sg56
(lp3063
S'wsgi.multithread'
p3064
asbag49
(g70
g51
NtRp3065
(dp3066
g54
(dp3067
g81
g82
ssg63
g3056
sg56
(lp3068
S':'
asbag49
(g70
g51
NtRp3069
(dp3070
g54
(dp3071
sg63
g3056
sg56
(lp3072
g49
(g50
g51
NtRp3073
(dp3074
g54
(dp3075
g62
I3
ssg63
g3069
sg56
(lp3076
g1796
asbasbasbag49
(g65
g51
NtRp3077
(dp3078
g54
(dp3079
sg63
g2545
sg56
(lp3080
g49
(g70
g51
NtRp3081
(dp3082
g54
(dp3083
g74
g75
ssg63
g3077
sg56
(lp3084
S'wsgi.run_once'
p3085
asbag49
(g70
g51
NtRp3086
(dp3087
g54
(dp3088
g81
g82
ssg63
g3077
sg56
(lp3089
S':'
asbag49
(g70
g51
NtRp3090
(dp3091
g54
(dp3092
sg63
g3077
sg56
(lp3093
g49
(g50
g51
NtRp3094
(dp3095
g54
(dp3096
g62
I3
ssg63
g3090
sg56
(lp3097
g92
asbasbasbag49
(g65
g51
NtRp3098
(dp3099
g54
(dp3100
sg63
g2545
sg56
(lp3101
g49
(g70
g51
NtRp3102
(dp3103
g54
(dp3104
g74
g75
ssg63
g3098
sg56
(lp3105
S'wsgi.url_scheme'
p3106
asbag49
(g70
g51
NtRp3107
(dp3108
g54
(dp3109
g81
g82
ssg63
g3098
sg56
(lp3110
S':'
asbag49
(g70
g51
NtRp3111
(dp3112
g54
(dp3113
sg63
g3098
sg56
(lp3114
g49
(g50
g51
NtRp3115
(dp3116
g54
(dp3117
g62
I3
ssg63
g3111
sg56
(lp3118
g1839
asbasbasbag49
(g65
g51
NtRp3119
(dp3120
g54
(dp3121
sg63
g2545
sg56
(lp3122
g49
(g70
g51
NtRp3123
(dp3124
g54
(dp3125
g74
g75
ssg63
g3119
sg56
(lp3126
S'wsgi.version'
p3127
asbag49
(g70
g51
NtRp3128
(dp3129
g54
(dp3130
g81
g82
ssg63
g3119
sg56
(lp3131
S':'
asbag49
(g70
g51
NtRp3132
(dp3133
g54
(dp3134
sg63
g3119
sg56
(lp3135
g49
(g50
g51
NtRp3136
(dp3137
g54
(dp3138
g62
I3
ssg63
g3132
sg56
(lp3139
S'1'
asbasbasbasbasbasbasbasbasbasbasbasbasbsS'frames'
p3140
(lp3141
(dp3142
S'file'
p3143
S'C:\\Users\\omkara\\Desktop\\web2py\\gluon\\restricted.py'
p3144
sS'dump'
p3145
(dp3146
sS'lnum'
p3147
I205
sS'lines'
p3148
(dp3149
sS'call'
p3150
S"(code='#Needed for authenticating users\\nfrom datetime i...me.utcnow())\\n]\\nauth.define_tables(userName=True)\\n', environment={'A': <class 'gluon.html.A'>, 'Auth': <class 'gluon.tools.Auth'>, 'B': <class 'gluon.html.B'>, 'BEAUTIFY': <class 'gluon.html.BEAUTIFY'>, 'BODY': <class 'gluon.html.BODY'>, 'BR': <class 'gluon.html.BR'>, 'BUTTON': <class 'gluon.html.BUTTON'>, 'CAT': <class 'gluon.html.CAT'>, 'CENTER': <class 'gluon.html.CENTER'>, 'CLEANUP': <class 'gluon.validators.CLEANUP'>, ...}, layer=r'C:\\Users\\omkara\\Desktop\\web2py\\applications\\SlugBarter\\models\\registerForm.py')"
p3151
sS'func'
p3152
S'restricted'
p3153
sa(dp3154
g3143
S'C:\\Users\\omkara\\Desktop\\web2py\\applications\\SlugBarter\\models\\registerForm.py'
p3155
sg3145
(dp3156
sg3147
I10
sg3148
(dp3157
I1
S'#Needed for authenticating users'
p3158
sI2
S'from datetime import datetime'
p3159
sI3
S'from gluon.tools import Auth'
p3160
sI4
S'auth = Auth(db)'
p3161
sI5
S''
sI6
S"auth.settings.extra_fields['auth_user']=["
p3162
sI7
S"    Field('username', 'string',label = 'Username: '),"
p3163
sI8
S"    Field('dateCreated', 'string', default = datetime.utcnow())"
p3164
sI9
S']'
sI10
S'auth.define_tables(userName=True)'
p3165
ssg3150
S'()'
p3166
sg3152
S'<module>'
p3167
sasS'pyver'
p3168
S'Python 2.5.4: C:\\Users\\omkara\\Desktop\\web2py\\web2py_no_console.exe'
p3169
sS'session'
p3170
g49
(g50
g51
NtRp3171
(dp3172
g54
(dp3173
sg56
(lp3174
g49
(g58
g51
NtRp3175
(dp3176
g54
(dp3177
g62
I5
ssg63
Nsg56
(lp3178
g49
(g65
g51
NtRp3179
(dp3180
g54
(dp3181
sg63
g3175
sg56
(lp3182
g49
(g70
g51
NtRp3183
(dp3184
g54
(dp3185
g74
g75
ssg63
g3179
sg56
(lp3186
S'last_query'
p3187
asbag49
(g70
g51
NtRp3188
(dp3189
g54
(dp3190
g81
g82
ssg63
g3179
sg56
(lp3191
S':'
asbag49
(g70
g51
NtRp3192
(dp3193
g54
(dp3194
sg63
g3179
sg56
(lp3195
g49
(g50
g51
NtRp3196
(dp3197
g54
(dp3198
g62
I5
ssg63
g3192
sg56
(lp3199
S'db.auth_user.id>0'
p3200
asbasbasbasbasbsS'etype'
p3201
S"<type 'exceptions.TypeError'>"
p3202
sS'date'
p3203
S'Sat Nov 10 10:54:22 2012'
p3204
sS'response'
p3205
g49
(g50
g51
NtRp3206
(dp3207
g54
(dp3208
sg56
(lp3209
g49
(g58
g51
NtRp3210
(dp3211
g54
(dp3212
g62
I5
ssg63
Nsg56
(lp3213
g49
(g65
g51
NtRp3214
(dp3215
g54
(dp3216
sg63
g3210
sg56
(lp3217
g49
(g70
g51
NtRp3218
(dp3219
g54
(dp3220
g74
g75
ssg63
g3214
sg56
(lp3221
g147
asbag49
(g70
g51
NtRp3222
(dp3223
g54
(dp3224
g81
g82
ssg63
g3214
sg56
(lp3225
S':'
asbag49
(g70
g51
NtRp3226
(dp3227
g54
(dp3228
sg63
g3214
sg56
(lp3229
g49
(g50
g51
NtRp3230
(dp3231
g54
(dp3232
g62
I5
ssg63
g3226
sg56
(lp3233
S'<cStringIO.StringO object at 0x05DC3760>'
p3234
asbasbasbag49
(g65
g51
NtRp3235
(dp3236
g54
(dp3237
sg63
g3210
sg56
(lp3238
g49
(g70
g51
NtRp3239
(dp3240
g54
(dp3241
g74
g75
ssg63
g3235
sg56
(lp3242
g213
asbag49
(g70
g51
NtRp3243
(dp3244
g54
(dp3245
g81
g82
ssg63
g3235
sg56
(lp3246
S':'
asbag49
(g70
g51
NtRp3247
(dp3248
g54
(dp3249
sg63
g3235
sg56
(lp3250
g49
(g50
g51
NtRp3251
(dp3252
g54
(dp3253
g62
I5
ssg63
g3247
sg56
(lp3254
g49
(g58
g51
NtRp3255
(dp3256
g54
(dp3257
g62
I4
ssg63
Nsg56
(lp3258
g49
(g65
g51
NtRp3259
(dp3260
g54
(dp3261
sg63
g3255
sg56
(lp3262
g49
(g70
g51
NtRp3263
(dp3264
g54
(dp3265
g74
g75
ssg63
g3259
sg56
(lp3266
S'session_id_slugbarter'
p3267
asbag49
(g70
g51
NtRp3268
(dp3269
g54
(dp3270
g81
g82
ssg63
g3259
sg56
(lp3271
S':'
asbag49
(g70
g51
NtRp3272
(dp3273
g54
(dp3274
sg63
g3259
sg56
(lp3275
g49
(g50
g51
NtRp3276
(dp3277
g54
(dp3278
g62
I4
ssg63
g3272
sg56
(lp3279
g49
(g58
g51
NtRp3280
(dp3281
g54
(dp3282
g62
I3
ssg63
Nsg56
(lp3283
g49
(g65
g51
NtRp3284
(dp3285
g54
(dp3286
sg63
g3280
sg56
(lp3287
g49
(g70
g51
NtRp3288
(dp3289
g54
(dp3290
g74
g75
ssg63
g3284
sg56
(lp3291
g263
asbag49
(g70
g51
NtRp3292
(dp3293
g54
(dp3294
g81
g82
ssg63
g3284
sg56
(lp3295
S':'
asbag49
(g70
g51
NtRp3296
(dp3297
g54
(dp3298
sg63
g3284
sg56
(lp3299
g49
(g50
g51
NtRp3300
(dp3301
g54
(dp3302
g62
I3
ssg63
g3296
sg56
(lp3303
S''
asbasbasbag49
(g65
g51
NtRp3304
(dp3305
g54
(dp3306
sg63
g3280
sg56
(lp3307
g49
(g70
g51
NtRp3308
(dp3309
g54
(dp3310
g74
g75
ssg63
g3304
sg56
(lp3311
g284
asbag49
(g70
g51
NtRp3312
(dp3313
g54
(dp3314
g81
g82
ssg63
g3304
sg56
(lp3315
S':'
asbag49
(g70
g51
NtRp3316
(dp3317
g54
(dp3318
sg63
g3304
sg56
(lp3319
g49
(g50
g51
NtRp3320
(dp3321
g54
(dp3322
g62
I3
ssg63
g3316
sg56
(lp3323
S''
asbasbasbag49
(g65
g51
NtRp3324
(dp3325
g54
(dp3326
sg63
g3280
sg56
(lp3327
g49
(g70
g51
NtRp3328
(dp3329
g54
(dp3330
g74
g75
ssg63
g3324
sg56
(lp3331
g305
asbag49
(g70
g51
NtRp3332
(dp3333
g54
(dp3334
g81
g82
ssg63
g3324
sg56
(lp3335
S':'
asbag49
(g70
g51
NtRp3336
(dp3337
g54
(dp3338
sg63
g3324
sg56
(lp3339
g49
(g50
g51
NtRp3340
(dp3341
g54
(dp3342
g62
I3
ssg63
g3336
sg56
(lp3343
S''
asbasbasbag49
(g65
g51
NtRp3344
(dp3345
g54
(dp3346
sg63
g3280
sg56
(lp3347
g49
(g70
g51
NtRp3348
(dp3349
g54
(dp3350
g74
g75
ssg63
g3344
sg56
(lp3351
g326
asbag49
(g70
g51
NtRp3352
(dp3353
g54
(dp3354
g81
g82
ssg63
g3344
sg56
(lp3355
S':'
asbag49
(g70
g51
NtRp3356
(dp3357
g54
(dp3358
sg63
g3344
sg56
(lp3359
g49
(g50
g51
NtRp3360
(dp3361
g54
(dp3362
g62
I3
ssg63
g3356
sg56
(lp3363
S''
asbasbasbag49
(g65
g51
NtRp3364
(dp3365
g54
(dp3366
sg63
g3280
sg56
(lp3367
g49
(g70
g51
NtRp3368
(dp3369
g54
(dp3370
g74
g75
ssg63
g3364
sg56
(lp3371
g347
asbag49
(g70
g51
NtRp3372
(dp3373
g54
(dp3374
g81
g82
ssg63
g3364
sg56
(lp3375
S':'
asbag49
(g70
g51
NtRp3376
(dp3377
g54
(dp3378
sg63
g3364
sg56
(lp3379
g49
(g50
g51
NtRp3380
(dp3381
g54
(dp3382
g62
I3
ssg63
g3376
sg56
(lp3383
S'/'
asbasbasbag49
(g65
g51
NtRp3384
(dp3385
g54
(dp3386
sg63
g3280
sg56
(lp3387
g49
(g70
g51
NtRp3388
(dp3389
g54
(dp3390
g74
g75
ssg63
g3384
sg56
(lp3391
g368
asbag49
(g70
g51
NtRp3392
(dp3393
g54
(dp3394
g81
g82
ssg63
g3384
sg56
(lp3395
S':'
asbag49
(g70
g51
NtRp3396
(dp3397
g54
(dp3398
sg63
g3384
sg56
(lp3399
g49
(g50
g51
NtRp3400
(dp3401
g54
(dp3402
g62
I3
ssg63
g3396
sg56
(lp3403
S''
asbasbasbag49
(g65
g51
NtRp3404
(dp3405
g54
(dp3406
sg63
g3280
sg56
(lp3407
g49
(g70
g51
NtRp3408
(dp3409
g54
(dp3410
g74
g75
ssg63
g3404
sg56
(lp3411
g389
asbag49
(g70
g51
NtRp3412
(dp3413
g54
(dp3414
g81
g82
ssg63
g3404
sg56
(lp3415
S':'
asbag49
(g70
g51
NtRp3416
(dp3417
g54
(dp3418
sg63
g3404
sg56
(lp3419
g49
(g50
g51
NtRp3420
(dp3421
g54
(dp3422
g62
I3
ssg63
g3416
sg56
(lp3423
S''
asbasbasbasbasbasbasbasbasbasbasbag49
(g65
g51
NtRp3424
(dp3425
g54
(dp3426
sg63
g3210
sg56
(lp3427
g49
(g70
g51
NtRp3428
(dp3429
g54
(dp3430
g74
g75
ssg63
g3424
sg56
(lp3431
S'delimiters'
p3432
asbag49
(g70
g51
NtRp3433
(dp3434
g54
(dp3435
g81
g82
ssg63
g3424
sg56
(lp3436
S':'
asbag49
(g70
g51
NtRp3437
(dp3438
g54
(dp3439
sg63
g3424
sg56
(lp3440
g49
(g50
g51
NtRp3441
(dp3442
g54
(dp3443
g62
I5
ssg63
g3437
sg56
(lp3444
g49
(g58
g51
NtRp3445
(dp3446
g54
(dp3447
g62
I4
ssg63
Nsg56
(lp3448
g49
(g65
g51
NtRp3449
(dp3450
g54
(dp3451
sg63
g3445
sg56
(lp3452
g49
(g70
g51
NtRp3453
(dp3454
g54
(dp3455
sg63
g3449
sg56
(lp3456
g49
(g50
g51
NtRp3457
(dp3458
g54
(dp3459
g62
I4
ssg63
g3453
sg56
(lp3460
S'{{'
p3461
asbasbasbag49
(g65
g51
NtRp3462
(dp3463
g54
(dp3464
sg63
g3445
sg56
(lp3465
g49
(g70
g51
NtRp3466
(dp3467
g54
(dp3468
sg63
g3462
sg56
(lp3469
g49
(g50
g51
NtRp3470
(dp3471
g54
(dp3472
g62
I4
ssg63
g3466
sg56
(lp3473
S'}}'
p3474
asbasbasbasbasbasbasbag49
(g65
g51
NtRp3475
(dp3476
g54
(dp3477
sg63
g3210
sg56
(lp3478
g49
(g70
g51
NtRp3479
(dp3480
g54
(dp3481
g74
g75
ssg63
g3475
sg56
(lp3482
S'files'
p3483
asbag49
(g70
g51
NtRp3484
(dp3485
g54
(dp3486
g81
g82
ssg63
g3475
sg56
(lp3487
S':'
asbag49
(g70
g51
NtRp3488
(dp3489
g54
(dp3490
sg63
g3475
sg56
(lp3491
g49
(g50
g51
NtRp3492
(dp3493
g54
(dp3494
g62
I5
ssg63
g3488
sg56
(lp3495
g49
(g58
g51
NtRp3496
(dp3497
g54
(dp3498
g62
I4
ssg63
Nsg56
(lp3499
sbasbasbasbag49
(g65
g51
NtRp3500
(dp3501
g54
(dp3502
sg63
g3210
sg56
(lp3503
g49
(g70
g51
NtRp3504
(dp3505
g54
(dp3506
g74
g75
ssg63
g3500
sg56
(lp3507
S'flash'
p3508
asbag49
(g70
g51
NtRp3509
(dp3510
g54
(dp3511
g81
g82
ssg63
g3500
sg56
(lp3512
S':'
asbag49
(g70
g51
NtRp3513
(dp3514
g54
(dp3515
sg63
g3500
sg56
(lp3516
g49
(g50
g51
NtRp3517
(dp3518
g54
(dp3519
g62
I5
ssg63
g3513
sg56
(lp3520
S''
asbasbasbag49
(g65
g51
NtRp3521
(dp3522
g54
(dp3523
sg63
g3210
sg56
(lp3524
g49
(g70
g51
NtRp3525
(dp3526
g54
(dp3527
g74
g75
ssg63
g3521
sg56
(lp3528
S'generic_patterns'
p3529
asbag49
(g70
g51
NtRp3530
(dp3531
g54
(dp3532
g81
g82
ssg63
g3521
sg56
(lp3533
S':'
asbag49
(g70
g51
NtRp3534
(dp3535
g54
(dp3536
sg63
g3521
sg56
(lp3537
g49
(g50
g51
NtRp3538
(dp3539
g54
(dp3540
g62
I5
ssg63
g3534
sg56
(lp3541
g49
(g58
g51
NtRp3542
(dp3543
g54
(dp3544
g62
I4
ssg63
Nsg56
(lp3545
g49
(g65
g51
NtRp3546
(dp3547
g54
(dp3548
sg63
g3542
sg56
(lp3549
g49
(g70
g51
NtRp3550
(dp3551
g54
(dp3552
sg63
g3546
sg56
(lp3553
g49
(g50
g51
NtRp3554
(dp3555
g54
(dp3556
g62
I4
ssg63
g3550
sg56
(lp3557
S'*'
asbasbasbasbasbasbasbag49
(g65
g51
NtRp3558
(dp3559
g54
(dp3560
sg63
g3210
sg56
(lp3561
g49
(g70
g51
NtRp3562
(dp3563
g54
(dp3564
g74
g75
ssg63
g3558
sg56
(lp3565
S'headers'
p3566
asbag49
(g70
g51
NtRp3567
(dp3568
g54
(dp3569
g81
g82
ssg63
g3558
sg56
(lp3570
S':'
asbag49
(g70
g51
NtRp3571
(dp3572
g54
(dp3573
sg63
g3558
sg56
(lp3574
g49
(g50
g51
NtRp3575
(dp3576
g54
(dp3577
g62
I5
ssg63
g3571
sg56
(lp3578
g49
(g58
g51
NtRp3579
(dp3580
g54
(dp3581
g62
I4
ssg63
Nsg56
(lp3582
g49
(g65
g51
NtRp3583
(dp3584
g54
(dp3585
sg63
g3579
sg56
(lp3586
g49
(g70
g51
NtRp3587
(dp3588
g54
(dp3589
g74
g75
ssg63
g3583
sg56
(lp3590
S'Cache-Control'
p3591
asbag49
(g70
g51
NtRp3592
(dp3593
g54
(dp3594
g81
g82
ssg63
g3583
sg56
(lp3595
S':'
asbag49
(g70
g51
NtRp3596
(dp3597
g54
(dp3598
sg63
g3583
sg56
(lp3599
g49
(g50
g51
NtRp3600
(dp3601
g54
(dp3602
g62
I4
ssg63
g3596
sg56
(lp3603
S'no-store, no-cache, must-revalidate, post-check=0, pre-check=0'
p3604
asbasbasbag49
(g65
g51
NtRp3605
(dp3606
g54
(dp3607
sg63
g3579
sg56
(lp3608
g49
(g70
g51
NtRp3609
(dp3610
g54
(dp3611
g74
g75
ssg63
g3605
sg56
(lp3612
S'Content-Type'
p3613
asbag49
(g70
g51
NtRp3614
(dp3615
g54
(dp3616
g81
g82
ssg63
g3605
sg56
(lp3617
S':'
asbag49
(g70
g51
NtRp3618
(dp3619
g54
(dp3620
sg63
g3605
sg56
(lp3621
g49
(g50
g51
NtRp3622
(dp3623
g54
(dp3624
g62
I4
ssg63
g3618
sg56
(lp3625
S'text/html; charset=utf-8'
p3626
asbasbasbag49
(g65
g51
NtRp3627
(dp3628
g54
(dp3629
sg63
g3579
sg56
(lp3630
g49
(g70
g51
NtRp3631
(dp3632
g54
(dp3633
g74
g75
ssg63
g3627
sg56
(lp3634
S'Expires'
p3635
asbag49
(g70
g51
NtRp3636
(dp3637
g54
(dp3638
g81
g82
ssg63
g3627
sg56
(lp3639
S':'
asbag49
(g70
g51
NtRp3640
(dp3641
g54
(dp3642
sg63
g3627
sg56
(lp3643
g49
(g50
g51
NtRp3644
(dp3645
g54
(dp3646
g62
I4
ssg63
g3640
sg56
(lp3647
S'Sat, 10 Nov 2012 18:54:22 GMT'
p3648
asbasbasbag49
(g65
g51
NtRp3649
(dp3650
g54
(dp3651
sg63
g3579
sg56
(lp3652
g49
(g70
g51
NtRp3653
(dp3654
g54
(dp3655
g74
g75
ssg63
g3649
sg56
(lp3656
S'Pragma'
p3657
asbag49
(g70
g51
NtRp3658
(dp3659
g54
(dp3660
g81
g82
ssg63
g3649
sg56
(lp3661
S':'
asbag49
(g70
g51
NtRp3662
(dp3663
g54
(dp3664
sg63
g3649
sg56
(lp3665
g49
(g50
g51
NtRp3666
(dp3667
g54
(dp3668
g62
I4
ssg63
g3662
sg56
(lp3669
S'no-cache'
p3670
asbasbasbag49
(g65
g51
NtRp3671
(dp3672
g54
(dp3673
sg63
g3579
sg56
(lp3674
g49
(g70
g51
NtRp3675
(dp3676
g54
(dp3677
g74
g75
ssg63
g3671
sg56
(lp3678
S'X-Powered-By'
p3679
asbag49
(g70
g51
NtRp3680
(dp3681
g54
(dp3682
g81
g82
ssg63
g3671
sg56
(lp3683
S':'
asbag49
(g70
g51
NtRp3684
(dp3685
g54
(dp3686
sg63
g3671
sg56
(lp3687
g49
(g50
g51
NtRp3688
(dp3689
g54
(dp3690
g62
I4
ssg63
g3684
sg56
(lp3691
S'web2py'
p3692
asbasbasbasbasbasbasbag49
(g65
g51
NtRp3693
(dp3694
g54
(dp3695
sg63
g3210
sg56
(lp3696
g49
(g70
g51
NtRp3697
(dp3698
g54
(dp3699
g74
g75
ssg63
g3693
sg56
(lp3700
S'menu'
p3701
asbag49
(g70
g51
NtRp3702
(dp3703
g54
(dp3704
g81
g82
ssg63
g3693
sg56
(lp3705
S':'
asbag49
(g70
g51
NtRp3706
(dp3707
g54
(dp3708
sg63
g3693
sg56
(lp3709
g49
(g50
g51
NtRp3710
(dp3711
g54
(dp3712
g62
I5
ssg63
g3706
sg56
(lp3713
g49
(g58
g51
NtRp3714
(dp3715
g54
(dp3716
g62
I4
ssg63
Nsg56
(lp3717
g49
(g65
g51
NtRp3718
(dp3719
g54
(dp3720
sg63
g3714
sg56
(lp3721
g49
(g70
g51
NtRp3722
(dp3723
g54
(dp3724
sg63
g3718
sg56
(lp3725
g49
(g50
g51
NtRp3726
(dp3727
g54
(dp3728
g62
I4
ssg63
g3722
sg56
(lp3729
g49
(g58
g51
NtRp3730
(dp3731
g54
(dp3732
g62
I3
ssg63
Nsg56
(lp3733
g49
(g65
g51
NtRp3734
(dp3735
g54
(dp3736
sg63
g3730
sg56
(lp3737
g49
(g70
g51
NtRp3738
(dp3739
g54
(dp3740
sg63
g3734
sg56
(lp3741
g49
(g50
g51
NtRp3742
(dp3743
g54
(dp3744
g62
I3
ssg63
g3738
sg56
(lp3745
cgluon.languages
lazyT_unpickle
p3746
(S's\x04\x00\x00\x00Home'
tRp3747
asbasbasbag49
(g65
g51
NtRp3748
(dp3749
g54
(dp3750
sg63
g3730
sg56
(lp3751
g49
(g70
g51
NtRp3752
(dp3753
g54
(dp3754
sg63
g3748
sg56
(lp3755
g49
(g50
g51
NtRp3756
(dp3757
g54
(dp3758
g62
I3
ssg63
g3752
sg56
(lp3759
g92
asbasbasbag49
(g65
g51
NtRp3760
(dp3761
g54
(dp3762
sg63
g3730
sg56
(lp3763
g49
(g70
g51
NtRp3764
(dp3765
g54
(dp3766
sg63
g3760
sg56
(lp3767
g49
(g50
g51
NtRp3768
(dp3769
g54
(dp3770
g62
I3
ssg63
g3764
sg56
(lp3771
S'/SlugBarter/default/index'
p3772
asbasbasbag49
(g65
g51
NtRp3773
(dp3774
g54
(dp3775
sg63
g3730
sg56
(lp3776
g49
(g70
g51
NtRp3777
(dp3778
g54
(dp3779
sg63
g3773
sg56
(lp3780
g49
(g50
g51
NtRp3781
(dp3782
g54
(dp3783
g62
I3
ssg63
g3777
sg56
(lp3784
g49
(g58
g51
NtRp3785
(dp3786
g54
(dp3787
g62
I2
ssg63
Nsg56
(lp3788
sbasbasbasbasbasbasbasbag49
(g65
g51
NtRp3789
(dp3790
g54
(dp3791
sg63
g3714
sg56
(lp3792
g49
(g70
g51
NtRp3793
(dp3794
g54
(dp3795
sg63
g3789
sg56
(lp3796
g49
(g50
g51
NtRp3797
(dp3798
g54
(dp3799
g62
I4
ssg63
g3793
sg56
(lp3800
g49
(g58
g51
NtRp3801
(dp3802
g54
(dp3803
g62
I3
ssg63
Nsg56
(lp3804
g49
(g65
g51
NtRp3805
(dp3806
g54
(dp3807
sg63
g3801
sg56
(lp3808
g49
(g70
g51
NtRp3809
(dp3810
g54
(dp3811
sg63
g3805
sg56
(lp3812
g49
(g50
g51
NtRp3813
(dp3814
g54
(dp3815
g62
I3
ssg63
g3809
sg56
(lp3816
g49
(cgluon.html
SPAN
p3817
g51
NtRp3818
(dp3819
g54
(dp3820
g74
S'color:yellow'
p3821
ssg63
Nsg56
(lp3822
g3692
asbasbasbasbag49
(g65
g51
NtRp3823
(dp3824
g54
(dp3825
sg63
g3801
sg56
(lp3826
g49
(g70
g51
NtRp3827
(dp3828
g54
(dp3829
sg63
g3823
sg56
(lp3830
g49
(g50
g51
NtRp3831
(dp3832
g54
(dp3833
g62
I3
ssg63
g3827
sg56
(lp3834
g92
asbasbasbag49
(g65
g51
NtRp3835
(dp3836
g54
(dp3837
sg63
g3801
sg56
(lp3838
g49
(g70
g51
NtRp3839
(dp3840
g54
(dp3841
sg63
g3835
sg56
(lp3842
g49
(g50
g51
NtRp3843
(dp3844
g54
(dp3845
g62
I3
ssg63
g3839
sg56
(lp3846
S'None'
p3847
asbasbasbag49
(g65
g51
NtRp3848
(dp3849
g54
(dp3850
sg63
g3801
sg56
(lp3851
g49
(g70
g51
NtRp3852
(dp3853
g54
(dp3854
sg63
g3848
sg56
(lp3855
g49
(g50
g51
NtRp3856
(dp3857
g54
(dp3858
g62
I3
ssg63
g3852
sg56
(lp3859
g49
(g58
g51
NtRp3860
(dp3861
g54
(dp3862
g62
I2
ssg63
Nsg56
(lp3863
g49
(g65
g51
NtRp3864
(dp3865
g54
(dp3866
sg63
g3860
sg56
(lp3867
g49
(g70
g51
NtRp3868
(dp3869
g54
(dp3870
sg63
g3864
sg56
(lp3871
g49
(g50
g51
NtRp3872
(dp3873
g54
(dp3874
g62
I2
ssg63
g3868
sg56
(lp3875
g49
(g58
g51
NtRp3876
(dp3877
g54
(dp3878
g62
I1
ssg63
Nsg56
(lp3879
g49
(g65
g51
NtRp3880
(dp3881
g54
(dp3882
sg63
g3876
sg56
(lp3883
g49
(g70
g51
NtRp3884
(dp3885
g54
(dp3886
sg63
g3880
sg56
(lp3887
g49
(g50
g51
NtRp3888
(dp3889
g54
(dp3890
g62
I1
ssg63
g3884
sg56
(lp3891
g3746
(S's\x08\x00\x00\x00My Sites'
tRp3892
asbasbasbag49
(g65
g51
NtRp3893
(dp3894
g54
(dp3895
sg63
g3876
sg56
(lp3896
g49
(g70
g51
NtRp3897
(dp3898
g54
(dp3899
sg63
g3893
sg56
(lp3900
g49
(g50
g51
NtRp3901
(dp3902
g54
(dp3903
g62
I1
ssg63
g3897
sg56
(lp3904
I00
asbasbasbag49
(g65
g51
NtRp3905
(dp3906
g54
(dp3907
sg63
g3876
sg56
(lp3908
g49
(g70
g51
NtRp3909
(dp3910
g54
(dp3911
sg63
g3905
sg56
(lp3912
g49
(g50
g51
NtRp3913
(dp3914
g54
(dp3915
g62
I1
ssg63
g3909
sg56
(lp3916
S'/admin/default/site'
p3917
asbasbasbasbasbasbasbag49
(g65
g51
NtRp3918
(dp3919
g54
(dp3920
sg63
g3860
sg56
(lp3921
g49
(g70
g51
NtRp3922
(dp3923
g54
(dp3924
sg63
g3918
sg56
(lp3925
g49
(g50
g51
NtRp3926
(dp3927
g54
(dp3928
g62
I2
ssg63
g3922
sg56
(lp3929
g49
(g58
g51
NtRp3930
(dp3931
g54
(dp3932
g62
I1
ssg63
Nsg56
(lp3933
g49
(g65
g51
NtRp3934
(dp3935
g54
(dp3936
sg63
g3930
sg56
(lp3937
g49
(g70
g51
NtRp3938
(dp3939
g54
(dp3940
sg63
g3934
sg56
(lp3941
g49
(g50
g51
NtRp3942
(dp3943
g54
(dp3944
g62
I1
ssg63
g3938
sg56
(lp3945
g3746
(S's\x08\x00\x00\x00This App'
tRp3946
asbasbasbag49
(g65
g51
NtRp3947
(dp3948
g54
(dp3949
sg63
g3930
sg56
(lp3950
g49
(g70
g51
NtRp3951
(dp3952
g54
(dp3953
sg63
g3947
sg56
(lp3954
g49
(g50
g51
NtRp3955
(dp3956
g54
(dp3957
g62
I1
ssg63
g3951
sg56
(lp3958
I00
asbasbasbag49
(g65
g51
NtRp3959
(dp3960
g54
(dp3961
sg63
g3930
sg56
(lp3962
g49
(g70
g51
NtRp3963
(dp3964
g54
(dp3965
sg63
g3959
sg56
(lp3966
g49
(g50
g51
NtRp3967
(dp3968
g54
(dp3969
g62
I1
ssg63
g3963
sg56
(lp3970
S'/admin/default/design/SlugBarter'
p3971
asbasbasbag49
(g65
g51
NtRp3972
(dp3973
g54
(dp3974
sg63
g3930
sg56
(lp3975
g49
(g70
g51
NtRp3976
(dp3977
g54
(dp3978
sg63
g3972
sg56
(lp3979
g49
(g50
g51
NtRp3980
(dp3981
g54
(dp3982
g62
I1
ssg63
g3976
sg56
(lp3983
(lp3984
(g3746
(S's\n\x00\x00\x00Controller'
tRp3985
I00
S'/admin/default/edit/SlugBarter/controllers/default.py'
tp3986
a(g3746
(S's\x04\x00\x00\x00View'
tRp3987
I00
S'/admin/default/edit/SlugBarter/views/default/register.html'
tp3988
a(g3746
(S's\x06\x00\x00\x00Layout'
tRp3989
I00
S'/admin/default/edit/SlugBarter/views/layout.html'
tp3990
a(g3746
(S's\n\x00\x00\x00Stylesheet'
tRp3991
I00
S'/admin/default/edit/SlugBarter/static/css/web2py.css'
tp3992
a(g3746
(S's\x08\x00\x00\x00DB Model'
tRp3993
I00
S'/admin/default/edit/SlugBarter/models/db.py'
tp3994
a(g3746
(S's\n\x00\x00\x00Menu Model'
tRp3995
I00
S'/admin/default/edit/SlugBarter/models/menu.py'
tp3996
a(g3746
(S's\x08\x00\x00\x00Database'
tRp3997
I00
S'/SlugBarter/appadmin/index'
tp3998
a(g3746
(S's\x06\x00\x00\x00Errors'
tRp3999
I00
S'/admin/default/errors/SlugBarter'
tp4000
a(g3746
(S's\x05\x00\x00\x00About'
tRp4001
I00
S'/admin/default/about/SlugBarter'
tp4002
aasbasbasbasbasbasbasbag49
(g65
g51
NtRp4003
(dp4004
g54
(dp4005
sg63
g3860
sg56
(lp4006
g49
(g70
g51
NtRp4007
(dp4008
g54
(dp4009
sg63
g4003
sg56
(lp4010
g49
(g50
g51
NtRp4011
(dp4012
g54
(dp4013
g62
I2
ssg63
g4007
sg56
(lp4014
g49
(g58
g51
NtRp4015
(dp4016
g54
(dp4017
g62
I1
ssg63
Nsg56
(lp4018
g49
(g65
g51
NtRp4019
(dp4020
g54
(dp4021
sg63
g4015
sg56
(lp4022
g49
(g70
g51
NtRp4023
(dp4024
g54
(dp4025
sg63
g4019
sg56
(lp4026
g49
(g50
g51
NtRp4027
(dp4028
g54
(dp4029
g62
I1
ssg63
g4023
sg56
(lp4030
S'web2py.com'
p4031
asbasbasbag49
(g65
g51
NtRp4032
(dp4033
g54
(dp4034
sg63
g4015
sg56
(lp4035
g49
(g70
g51
NtRp4036
(dp4037
g54
(dp4038
sg63
g4032
sg56
(lp4039
g49
(g50
g51
NtRp4040
(dp4041
g54
(dp4042
g62
I1
ssg63
g4036
sg56
(lp4043
I00
asbasbasbag49
(g65
g51
NtRp4044
(dp4045
g54
(dp4046
sg63
g4015
sg56
(lp4047
g49
(g70
g51
NtRp4048
(dp4049
g54
(dp4050
sg63
g4044
sg56
(lp4051
g49
(g50
g51
NtRp4052
(dp4053
g54
(dp4054
g62
I1
ssg63
g4048
sg56
(lp4055
S'http://www.web2py.com'
p4056
asbasbasbag49
(g65
g51
NtRp4057
(dp4058
g54
(dp4059
sg63
g4015
sg56
(lp4060
g49
(g70
g51
NtRp4061
(dp4062
g54
(dp4063
sg63
g4057
sg56
(lp4064
g49
(g50
g51
NtRp4065
(dp4066
g54
(dp4067
g62
I1
ssg63
g4061
sg56
(lp4068
(lp4069
(g3746
(S's\x08\x00\x00\x00Download'
tRp4070
I00
S'http://www.web2py.com/examples/default/download'
p4071
tp4072
a(g3746
(S's\x07\x00\x00\x00Support'
tRp4073
I00
S'http://www.web2py.com/examples/default/support'
p4074
tp4075
a(g3746
(S's\x04\x00\x00\x00Demo'
tRp4076
I00
S'http://web2py.com/demo_admin'
p4077
tp4078
a(g3746
(S's\x0e\x00\x00\x00Quick Examples'
tRp4079
I00
S'http://web2py.com/examples/default/examples'
p4080
tp4081
a(g3746
(S's\x03\x00\x00\x00FAQ'
tRp4082
I00
S'http://web2py.com/AlterEgo'
p4083
tp4084
a(g3746
(S's\x06\x00\x00\x00Videos'
tRp4085
I00
S'http://www.web2py.com/examples/default/videos/'
p4086
tp4087
a(g3746
(S's\x11\x00\x00\x00Free Applications'
tRp4088
I00
S'http://web2py.com/appliances'
p4089
tp4090
a(g3746
(S's\x07\x00\x00\x00Plugins'
tRp4091
I00
S'http://web2py.com/plugins'
p4092
tp4093
a(g3746
(S's\x07\x00\x00\x00Layouts'
tRp4094
I00
S'http://web2py.com/layouts'
p4095
tp4096
a(g3746
(S's\x07\x00\x00\x00Recipes'
tRp4097
I00
S'http://web2pyslices.com/'
p4098
tp4099
a(g3746
(S's\x08\x00\x00\x00Semantic'
tRp4100
I00
S'http://web2py.com/semantic'
p4101
tp4102
aasbasbasbasbasbasbasbag49
(g65
g51
NtRp4103
(dp4104
g54
(dp4105
sg63
g3860
sg56
(lp4106
g49
(g70
g51
NtRp4107
(dp4108
g54
(dp4109
sg63
g4103
sg56
(lp4110
g49
(g50
g51
NtRp4111
(dp4112
g54
(dp4113
g62
I2
ssg63
g4107
sg56
(lp4114
g49
(g58
g51
NtRp4115
(dp4116
g54
(dp4117
g62
I1
ssg63
Nsg56
(lp4118
g49
(g65
g51
NtRp4119
(dp4120
g54
(dp4121
sg63
g4115
sg56
(lp4122
g49
(g70
g51
NtRp4123
(dp4124
g54
(dp4125
sg63
g4119
sg56
(lp4126
g49
(g50
g51
NtRp4127
(dp4128
g54
(dp4129
g62
I1
ssg63
g4123
sg56
(lp4130
g3746
(S's\r\x00\x00\x00Documentation'
tRp4131
asbasbasbag49
(g65
g51
NtRp4132
(dp4133
g54
(dp4134
sg63
g4115
sg56
(lp4135
g49
(g70
g51
NtRp4136
(dp4137
g54
(dp4138
sg63
g4132
sg56
(lp4139
g49
(g50
g51
NtRp4140
(dp4141
g54
(dp4142
g62
I1
ssg63
g4136
sg56
(lp4143
I00
asbasbasbag49
(g65
g51
NtRp4144
(dp4145
g54
(dp4146
sg63
g4115
sg56
(lp4147
g49
(g70
g51
NtRp4148
(dp4149
g54
(dp4150
sg63
g4144
sg56
(lp4151
g49
(g50
g51
NtRp4152
(dp4153
g54
(dp4154
g62
I1
ssg63
g4148
sg56
(lp4155
S'http://www.web2py.com/book'
p4156
asbasbasbag49
(g65
g51
NtRp4157
(dp4158
g54
(dp4159
sg63
g4115
sg56
(lp4160
g49
(g70
g51
NtRp4161
(dp4162
g54
(dp4163
sg63
g4157
sg56
(lp4164
g49
(g50
g51
NtRp4165
(dp4166
g54
(dp4167
g62
I1
ssg63
g4161
sg56
(lp4168
(lp4169
(g3746
(S's\x07\x00\x00\x00Preface'
tRp4170
I00
S'http://www.web2py.com/book/default/chapter/00'
p4171
tp4172
a(g3746
(S's\x0c\x00\x00\x00Introduction'
tRp4173
I00
S'http://www.web2py.com/book/default/chapter/01'
p4174
tp4175
a(g3746
(S's\x06\x00\x00\x00Python'
tRp4176
I00
S'http://www.web2py.com/book/default/chapter/02'
p4177
tp4178
a(g3746
(S's\x08\x00\x00\x00Overview'
tRp4179
I00
S'http://www.web2py.com/book/default/chapter/03'
p4180
tp4181
a(g3746
(S's\x08\x00\x00\x00The Core'
tRp4182
I00
S'http://www.web2py.com/book/default/chapter/04'
p4183
tp4184
a(g3746
(S's\t\x00\x00\x00The Views'
tRp4185
I00
S'http://www.web2py.com/book/default/chapter/05'
p4186
tp4187
a(g3746
(S's\x08\x00\x00\x00Database'
tRp4188
I00
S'http://www.web2py.com/book/default/chapter/06'
p4189
tp4190
a(g3746
(S's\x14\x00\x00\x00Forms and Validators'
tRp4191
I00
S'http://www.web2py.com/book/default/chapter/07'
p4192
tp4193
a(g3746
(S's\r\x00\x00\x00Email and SMS'
tRp4194
I00
S'http://www.web2py.com/book/default/chapter/08'
p4195
tp4196
a(g3746
(S's\x0e\x00\x00\x00Access Control'
tRp4197
I00
S'http://www.web2py.com/book/default/chapter/09'
p4198
tp4199
a(g3746
(S's\x08\x00\x00\x00Services'
tRp4200
I00
S'http://www.web2py.com/book/default/chapter/10'
p4201
tp4202
a(g3746
(S's\x0c\x00\x00\x00Ajax Recipes'
tRp4203
I00
S'http://www.web2py.com/book/default/chapter/11'
p4204
tp4205
a(g3746
(S's\x16\x00\x00\x00Components and Plugins'
tRp4206
I00
S'http://www.web2py.com/book/default/chapter/12'
p4207
tp4208
a(g3746
(S's\x12\x00\x00\x00Deployment Recipes'
tRp4209
I00
S'http://www.web2py.com/book/default/chapter/13'
p4210
tp4211
a(g3746
(S's\r\x00\x00\x00Other Recipes'
tRp4212
I00
S'http://www.web2py.com/book/default/chapter/14'
p4213
tp4214
a(g3746
(S's\r\x00\x00\x00Buy this book'
tRp4215
I00
S'http://stores.lulu.com/web2py'
p4216
tp4217
aasbasbasbasbasbasbasbag49
(g65
g51
NtRp4218
(dp4219
g54
(dp4220
sg63
g3860
sg56
(lp4221
g49
(g70
g51
NtRp4222
(dp4223
g54
(dp4224
sg63
g4218
sg56
(lp4225
g49
(g50
g51
NtRp4226
(dp4227
g54
(dp4228
g62
I2
ssg63
g4222
sg56
(lp4229
g49
(g58
g51
NtRp4230
(dp4231
g54
(dp4232
g62
I1
ssg63
Nsg56
(lp4233
g49
(g65
g51
NtRp4234
(dp4235
g54
(dp4236
sg63
g4230
sg56
(lp4237
g49
(g70
g51
NtRp4238
(dp4239
g54
(dp4240
sg63
g4234
sg56
(lp4241
g49
(g50
g51
NtRp4242
(dp4243
g54
(dp4244
g62
I1
ssg63
g4238
sg56
(lp4245
g3746
(S's\t\x00\x00\x00Community'
tRp4246
asbasbasbag49
(g65
g51
NtRp4247
(dp4248
g54
(dp4249
sg63
g4230
sg56
(lp4250
g49
(g70
g51
NtRp4251
(dp4252
g54
(dp4253
sg63
g4247
sg56
(lp4254
g49
(g50
g51
NtRp4255
(dp4256
g54
(dp4257
g62
I1
ssg63
g4251
sg56
(lp4258
I00
asbasbasbag49
(g65
g51
NtRp4259
(dp4260
g54
(dp4261
sg63
g4230
sg56
(lp4262
g49
(g70
g51
NtRp4263
(dp4264
g54
(dp4265
sg63
g4259
sg56
(lp4266
g49
(g50
g51
NtRp4267
(dp4268
g54
(dp4269
g62
I1
ssg63
g4263
sg56
(lp4270
Nasbasbasbag49
(g65
g51
NtRp4271
(dp4272
g54
(dp4273
sg63
g4230
sg56
(lp4274
g49
(g70
g51
NtRp4275
(dp4276
g54
(dp4277
sg63
g4271
sg56
(lp4278
g49
(g50
g51
NtRp4279
(dp4280
g54
(dp4281
g62
I1
ssg63
g4275
sg56
(lp4282
(lp4283
(g3746
(S's\x06\x00\x00\x00Groups'
tRp4284
I00
S'http://www.web2py.com/examples/default/usergroups'
p4285
tp4286
a(g3746
(S's\x07\x00\x00\x00Twitter'
tRp4287
I00
S'http://twitter.com/web2py'
p4288
tp4289
a(g3746
(S's\t\x00\x00\x00Live Chat'
tRp4290
I00
S'http://webchat.freenode.net/?channels=web2py'
p4291
tp4292
aasbasbasbasbasbasbasbag49
(g65
g51
NtRp4293
(dp4294
g54
(dp4295
sg63
g3860
sg56
(lp4296
g49
(g70
g51
NtRp4297
(dp4298
g54
(dp4299
sg63
g4293
sg56
(lp4300
g49
(g50
g51
NtRp4301
(dp4302
g54
(dp4303
g62
I2
ssg63
g4297
sg56
(lp4304
g49
(g58
g51
NtRp4305
(dp4306
g54
(dp4307
g62
I1
ssg63
Nsg56
(lp4308
g49
(g65
g51
NtRp4309
(dp4310
g54
(dp4311
sg63
g4305
sg56
(lp4312
g49
(g70
g51
NtRp4313
(dp4314
g54
(dp4315
sg63
g4309
sg56
(lp4316
g49
(g50
g51
NtRp4317
(dp4318
g54
(dp4319
g62
I1
ssg63
g4313
sg56
(lp4320
g3746
(S's\x07\x00\x00\x00Plugins'
tRp4321
asbasbasbag49
(g65
g51
NtRp4322
(dp4323
g54
(dp4324
sg63
g4305
sg56
(lp4325
g49
(g70
g51
NtRp4326
(dp4327
g54
(dp4328
sg63
g4322
sg56
(lp4329
g49
(g50
g51
NtRp4330
(dp4331
g54
(dp4332
g62
I1
ssg63
g4326
sg56
(lp4333
I00
asbasbasbag49
(g65
g51
NtRp4334
(dp4335
g54
(dp4336
sg63
g4305
sg56
(lp4337
g49
(g70
g51
NtRp4338
(dp4339
g54
(dp4340
sg63
g4334
sg56
(lp4341
g49
(g50
g51
NtRp4342
(dp4343
g54
(dp4344
g62
I1
ssg63
g4338
sg56
(lp4345
Nasbasbasbag49
(g65
g51
NtRp4346
(dp4347
g54
(dp4348
sg63
g4305
sg56
(lp4349
g49
(g70
g51
NtRp4350
(dp4351
g54
(dp4352
sg63
g4346
sg56
(lp4353
g49
(g50
g51
NtRp4354
(dp4355
g54
(dp4356
g62
I1
ssg63
g4350
sg56
(lp4357
(lp4358
(S'plugin_wiki'
p4359
I00
S'http://web2py.com/examples/default/download'
p4360
tp4361
a(g3746
(S's\r\x00\x00\x00Other Plugins'
tRp4362
I00
g4092
tp4363
a(g3746
(S's\x0e\x00\x00\x00Layout Plugins'
tRp4364
I00
g4095
tp4365
aasbasbasbasbasbasbasbasbasbasbasbasbasbasbasbasbasbasbasbag49
(g65
g51
NtRp4366
(dp4367
g54
(dp4368
sg63
g3210
sg56
(lp4369
g49
(g70
g51
NtRp4370
(dp4371
g54
(dp4372
g74
g75
ssg63
g4366
sg56
(lp4373
S'meta'
p4374
asbag49
(g70
g51
NtRp4375
(dp4376
g54
(dp4377
g81
g82
ssg63
g4366
sg56
(lp4378
S':'
asbag49
(g70
g51
NtRp4379
(dp4380
g54
(dp4381
sg63
g4366
sg56
(lp4382
g49
(g50
g51
NtRp4383
(dp4384
g54
(dp4385
g62
I5
ssg63
g4379
sg56
(lp4386
g49
(g58
g51
NtRp4387
(dp4388
g54
(dp4389
g62
I4
ssg63
Nsg56
(lp4390
g49
(g65
g51
NtRp4391
(dp4392
g54
(dp4393
sg63
g4387
sg56
(lp4394
g49
(g70
g51
NtRp4395
(dp4396
g54
(dp4397
g74
g75
ssg63
g4391
sg56
(lp4398
S'author'
p4399
asbag49
(g70
g51
NtRp4400
(dp4401
g54
(dp4402
g81
g82
ssg63
g4391
sg56
(lp4403
S':'
asbag49
(g70
g51
NtRp4404
(dp4405
g54
(dp4406
sg63
g4391
sg56
(lp4407
g49
(g50
g51
NtRp4408
(dp4409
g54
(dp4410
g62
I4
ssg63
g4404
sg56
(lp4411
S'Your Name <you@example.com>'
p4412
asbasbasbag49
(g65
g51
NtRp4413
(dp4414
g54
(dp4415
sg63
g4387
sg56
(lp4416
g49
(g70
g51
NtRp4417
(dp4418
g54
(dp4419
g74
g75
ssg63
g4413
sg56
(lp4420
S'copyright'
p4421
asbag49
(g70
g51
NtRp4422
(dp4423
g54
(dp4424
g81
g82
ssg63
g4413
sg56
(lp4425
S':'
asbag49
(g70
g51
NtRp4426
(dp4427
g54
(dp4428
sg63
g4413
sg56
(lp4429
g49
(g50
g51
NtRp4430
(dp4431
g54
(dp4432
g62
I4
ssg63
g4426
sg56
(lp4433
S'Copyright 2011'
p4434
asbasbasbag49
(g65
g51
NtRp4435
(dp4436
g54
(dp4437
sg63
g4387
sg56
(lp4438
g49
(g70
g51
NtRp4439
(dp4440
g54
(dp4441
g74
g75
ssg63
g4435
sg56
(lp4442
S'description'
p4443
asbag49
(g70
g51
NtRp4444
(dp4445
g54
(dp4446
g81
g82
ssg63
g4435
sg56
(lp4447
S':'
asbag49
(g70
g51
NtRp4448
(dp4449
g54
(dp4450
sg63
g4435
sg56
(lp4451
g49
(g50
g51
NtRp4452
(dp4453
g54
(dp4454
g62
I4
ssg63
g4448
sg56
(lp4455
S'a cool new app'
p4456
asbasbasbag49
(g65
g51
NtRp4457
(dp4458
g54
(dp4459
sg63
g4387
sg56
(lp4460
g49
(g70
g51
NtRp4461
(dp4462
g54
(dp4463
g74
g75
ssg63
g4457
sg56
(lp4464
S'generator'
p4465
asbag49
(g70
g51
NtRp4466
(dp4467
g54
(dp4468
g81
g82
ssg63
g4457
sg56
(lp4469
S':'
asbag49
(g70
g51
NtRp4470
(dp4471
g54
(dp4472
sg63
g4457
sg56
(lp4473
g49
(g50
g51
NtRp4474
(dp4475
g54
(dp4476
g62
I4
ssg63
g4470
sg56
(lp4477
S'Web2py Web Framework'
p4478
asbasbasbag49
(g65
g51
NtRp4479
(dp4480
g54
(dp4481
sg63
g4387
sg56
(lp4482
g49
(g70
g51
NtRp4483
(dp4484
g54
(dp4485
g74
g75
ssg63
g4479
sg56
(lp4486
S'keywords'
p4487
asbag49
(g70
g51
NtRp4488
(dp4489
g54
(dp4490
g81
g82
ssg63
g4479
sg56
(lp4491
S':'
asbag49
(g70
g51
NtRp4492
(dp4493
g54
(dp4494
sg63
g4479
sg56
(lp4495
g49
(g50
g51
NtRp4496
(dp4497
g54
(dp4498
g62
I4
ssg63
g4492
sg56
(lp4499
S'web2py, python, framework'
p4500
asbasbasbasbasbasbasbag49
(g65
g51
NtRp4501
(dp4502
g54
(dp4503
sg63
g3210
sg56
(lp4504
g49
(g70
g51
NtRp4505
(dp4506
g54
(dp4507
g74
g75
ssg63
g4501
sg56
(lp4508
S'postprocessing'
p4509
asbag49
(g70
g51
NtRp4510
(dp4511
g54
(dp4512
g81
g82
ssg63
g4501
sg56
(lp4513
S':'
asbag49
(g70
g51
NtRp4514
(dp4515
g54
(dp4516
sg63
g4501
sg56
(lp4517
g49
(g50
g51
NtRp4518
(dp4519
g54
(dp4520
g62
I5
ssg63
g4514
sg56
(lp4521
g49
(g58
g51
NtRp4522
(dp4523
g54
(dp4524
g62
I4
ssg63
Nsg56
(lp4525
sbasbasbasbag49
(g65
g51
NtRp4526
(dp4527
g54
(dp4528
sg63
g3210
sg56
(lp4529
g49
(g70
g51
NtRp4530
(dp4531
g54
(dp4532
g74
g75
ssg63
g4526
sg56
(lp4533
S'session_file'
p4534
asbag49
(g70
g51
NtRp4535
(dp4536
g54
(dp4537
g81
g82
ssg63
g4526
sg56
(lp4538
S':'
asbag49
(g70
g51
NtRp4539
(dp4540
g54
(dp4541
sg63
g4526
sg56
(lp4542
g49
(g50
g51
NtRp4543
(dp4544
g54
(dp4545
g62
I5
ssg63
g4539
sg56
(lp4546
S"<open file 'C:\\Users\\omkara\\Desktop\\web2py\\applications\\SlugBarter\\sessions\\127.0.0.1-e6ebae72-1bbc-48a5-9458-95dbb65a4e54', mode 'rb+' at 0x05BA8DA0>"
p4547
asbasbasbag49
(g65
g51
NtRp4548
(dp4549
g54
(dp4550
sg63
g3210
sg56
(lp4551
g49
(g70
g51
NtRp4552
(dp4553
g54
(dp4554
g74
g75
ssg63
g4548
sg56
(lp4555
S'session_filename'
p4556
asbag49
(g70
g51
NtRp4557
(dp4558
g54
(dp4559
g81
g82
ssg63
g4548
sg56
(lp4560
S':'
asbag49
(g70
g51
NtRp4561
(dp4562
g54
(dp4563
sg63
g4548
sg56
(lp4564
g49
(g50
g51
NtRp4565
(dp4566
g54
(dp4567
g62
I5
ssg63
g4561
sg56
(lp4568
S'C:\\Users\\omkara\\Desktop\\web2py\\applications\\SlugBarter\\sessions\\127.0.0.1-e6ebae72-1bbc-48a5-9458-95dbb65a4e54'
p4569
asbasbasbag49
(g65
g51
NtRp4570
(dp4571
g54
(dp4572
sg63
g3210
sg56
(lp4573
g49
(g70
g51
NtRp4574
(dp4575
g54
(dp4576
g74
g75
ssg63
g4570
sg56
(lp4577
S'session_id'
p4578
asbag49
(g70
g51
NtRp4579
(dp4580
g54
(dp4581
g81
g82
ssg63
g4570
sg56
(lp4582
S':'
asbag49
(g70
g51
NtRp4583
(dp4584
g54
(dp4585
sg63
g4570
sg56
(lp4586
g49
(g50
g51
NtRp4587
(dp4588
g54
(dp4589
g62
I5
ssg63
g4583
sg56
(lp4590
S'127.0.0.1-e6ebae72-1bbc-48a5-9458-95dbb65a4e54'
p4591
asbasbasbag49
(g65
g51
NtRp4592
(dp4593
g54
(dp4594
sg63
g3210
sg56
(lp4595
g49
(g70
g51
NtRp4596
(dp4597
g54
(dp4598
g74
g75
ssg63
g4592
sg56
(lp4599
S'session_id_name'
p4600
asbag49
(g70
g51
NtRp4601
(dp4602
g54
(dp4603
g81
g82
ssg63
g4592
sg56
(lp4604
S':'
asbag49
(g70
g51
NtRp4605
(dp4606
g54
(dp4607
sg63
g4592
sg56
(lp4608
g49
(g50
g51
NtRp4609
(dp4610
g54
(dp4611
g62
I5
ssg63
g4605
sg56
(lp4612
g3267
asbasbasbag49
(g65
g51
NtRp4613
(dp4614
g54
(dp4615
sg63
g3210
sg56
(lp4616
g49
(g70
g51
NtRp4617
(dp4618
g54
(dp4619
g74
g75
ssg63
g4613
sg56
(lp4620
S'session_locked'
p4621
asbag49
(g70
g51
NtRp4622
(dp4623
g54
(dp4624
g81
g82
ssg63
g4613
sg56
(lp4625
S':'
asbag49
(g70
g51
NtRp4626
(dp4627
g54
(dp4628
sg63
g4613
sg56
(lp4629
g49
(g50
g51
NtRp4630
(dp4631
g54
(dp4632
g62
I5
ssg63
g4626
sg56
(lp4633
g1796
asbasbasbag49
(g65
g51
NtRp4634
(dp4635
g54
(dp4636
sg63
g3210
sg56
(lp4637
g49
(g70
g51
NtRp4638
(dp4639
g54
(dp4640
g74
g75
ssg63
g4634
sg56
(lp4641
S'session_new'
p4642
asbag49
(g70
g51
NtRp4643
(dp4644
g54
(dp4645
g81
g82
ssg63
g4634
sg56
(lp4646
S':'
asbag49
(g70
g51
NtRp4647
(dp4648
g54
(dp4649
sg63
g4634
sg56
(lp4650
g49
(g50
g51
NtRp4651
(dp4652
g54
(dp4653
g62
I5
ssg63
g4647
sg56
(lp4654
g92
asbasbasbag49
(g65
g51
NtRp4655
(dp4656
g54
(dp4657
sg63
g3210
sg56
(lp4658
g49
(g70
g51
NtRp4659
(dp4660
g54
(dp4661
g74
g75
ssg63
g4655
sg56
(lp4662
S'status'
p4663
asbag49
(g70
g51
NtRp4664
(dp4665
g54
(dp4666
g81
g82
ssg63
g4655
sg56
(lp4667
S':'
asbag49
(g70
g51
NtRp4668
(dp4669
g54
(dp4670
sg63
g4655
sg56
(lp4671
g49
(g50
g51
NtRp4672
(dp4673
g54
(dp4674
g62
I5
ssg63
g4668
sg56
(lp4675
S'200'
p4676
asbasbasbag49
(g65
g51
NtRp4677
(dp4678
g54
(dp4679
sg63
g3210
sg56
(lp4680
g49
(g70
g51
NtRp4681
(dp4682
g54
(dp4683
g74
g75
ssg63
g4677
sg56
(lp4684
S'subtitle'
p4685
asbag49
(g70
g51
NtRp4686
(dp4687
g54
(dp4688
g81
g82
ssg63
g4677
sg56
(lp4689
S':'
asbag49
(g70
g51
NtRp4690
(dp4691
g54
(dp4692
sg63
g4677
sg56
(lp4693
g49
(g50
g51
NtRp4694
(dp4695
g54
(dp4696
g62
I5
ssg63
g4690
sg56
(lp4697
g3746
(S's\r\x00\x00\x00customize me!'
tRp4698
asbasbasbag49
(g65
g51
NtRp4699
(dp4700
g54
(dp4701
sg63
g3210
sg56
(lp4702
g49
(g70
g51
NtRp4703
(dp4704
g54
(dp4705
g74
g75
ssg63
g4699
sg56
(lp4706
S'title'
p4707
asbag49
(g70
g51
NtRp4708
(dp4709
g54
(dp4710
g81
g82
ssg63
g4699
sg56
(lp4711
S':'
asbag49
(g70
g51
NtRp4712
(dp4713
g54
(dp4714
sg63
g4699
sg56
(lp4715
g49
(g50
g51
NtRp4716
(dp4717
g54
(dp4718
g62
I5
ssg63
g4712
sg56
(lp4719
S'Slugbarter'
p4720
asbasbasbag49
(g65
g51
NtRp4721
(dp4722
g54
(dp4723
sg63
g3210
sg56
(lp4724
g49
(g70
g51
NtRp4725
(dp4726
g54
(dp4727
g74
g75
ssg63
g4721
sg56
(lp4728
g2460
asbag49
(g70
g51
NtRp4729
(dp4730
g54
(dp4731
g81
g82
ssg63
g4721
sg56
(lp4732
S':'
asbag49
(g70
g51
NtRp4733
(dp4734
g54
(dp4735
sg63
g4721
sg56
(lp4736
g49
(g50
g51
NtRp4737
(dp4738
g54
(dp4739
g62
I5
ssg63
g4733
sg56
(lp4740
g2473
asbasbasbag49
(g65
g51
NtRp4741
(dp4742
g54
(dp4743
sg63
g3210
sg56
(lp4744
g49
(g70
g51
NtRp4745
(dp4746
g54
(dp4747
g74
g75
ssg63
g4741
sg56
(lp4748
S'view'
p4749
asbag49
(g70
g51
NtRp4750
(dp4751
g54
(dp4752
g81
g82
ssg63
g4741
sg56
(lp4753
S':'
asbag49
(g70
g51
NtRp4754
(dp4755
g54
(dp4756
sg63
g4741
sg56
(lp4757
g49
(g50
g51
NtRp4758
(dp4759
g54
(dp4760
g62
I5
ssg63
g4754
sg56
(lp4761
S'default/register.html'
p4762
asbasbasbasbasbsS'locals'
p4763
(dp4764
S'Service'
p4765
S"<class 'gluon.tools.Service'>"
p4766
sS'OBJECT'
p4767
S"<class 'gluon.html.OBJECT'>"
p4768
sS'SQLDB'
p4769
S"<class 'gluon.dal.DAL'>"
p4770
sg3170
S"<Storage {'last_query': 'db.auth_user.id>0', '_f...ister]': 'c74d41aa-f3d3-4c4c-8c46-9fa281a8e860'}>"
p4771
sS'LINK'
p4772
S"<class 'gluon.html.LINK'>"
p4773
sS'BR'
p4774
S"<class 'gluon.html.BR'>"
p4775
sS'local_import'
p4776
S'<function <lambda> at 0x05C1FCB0>'
p4777
sS'OPTGROUP'
p4778
S"<class 'gluon.html.OPTGROUP'>"
p4779
sS'PRE'
p4780
S"<class 'gluon.html.PRE'>"
p4781
sS'IS_INT_IN_RANGE'
p4782
S"<class 'gluon.validators.IS_INT_IN_RANGE'>"
p4783
sS'IS_LOWER'
p4784
S"<class 'gluon.validators.IS_LOWER'>"
p4785
sS'IS_STRONG'
p4786
S"<class 'gluon.validators.IS_STRONG'>"
p4787
sS'cache'
p4788
S'<gluon.cache.Cache object at 0x05DC3DF0>'
p4789
sS'IS_IN_DB'
p4790
S"<class 'gluon.validators.IS_IN_DB'>"
p4791
sS'TAG'
p4792
S'<gluon.html.__TAG__ object at 0x01E7FD70>'
p4793
sS'SQLField'
p4794
S"<class 'gluon.dal.Field'>"
p4795
sS'mail'
p4796
S'<gluon.tools.Mail object at 0x05DC3BF0>'
p4797
sS'BODY'
p4798
S"<class 'gluon.html.BODY'>"
p4799
sS'IS_DATE_IN_RANGE'
p4800
S"<class 'gluon.validators.IS_DATE_IN_RANGE'>"
p4801
sS'IFRAME'
p4802
S"<class 'gluon.html.IFRAME'>"
p4803
sS'URL'
p4804
S'<function URL at 0x01EE7EF0>'
p4805
sS'__file__'
p4806
S"r'C:\\Users\\omkara\\Desktop\\web2py\\applications\\SlugBarter\\models\\registerForm.py'"
p4807
sS'db'
p4808
S"<DAL {'auth_event': <Table {'origin': <gluon.dal..._key': <gluon.dal.Field object at 0x05D2B670>}>}>"
p4809
sS'auth'
p4810
S'<gluon.tools.Auth object at 0x062B92D0>'
p4811
sS'P'
S"<class 'gluon.html.P'>"
p4812
sS'TFOOT'
p4813
S"<class 'gluon.html.TFOOT'>"
p4814
sS'XHTML'
p4815
S"<class 'gluon.html.XHTML'>"
p4816
sS'datetime'
p4817
S"<type 'datetime.datetime'>"
p4818
sS'ON'
p4819
g1796
sS'OL'
p4820
S"<class 'gluon.html.OL'>"
p4821
sS'TEXTAREA'
p4822
S"<class 'gluon.html.TEXTAREA'>"
p4823
sS'MENU'
p4824
S"<class 'gluon.html.MENU'>"
p4825
sS'EM'
p4826
S"<class 'gluon.html.EM'>"
p4827
sS'CODE'
p4828
S"<class 'gluon.html.CODE'>"
p4829
sS'HTTP'
p4830
S"<class 'gluon.http.HTTP'>"
p4831
sS'HR'
p4832
S"<class 'gluon.html.HR'>"
p4833
sS'IS_DATETIME'
p4834
S"<class 'gluon.validators.IS_DATETIME'>"
p4835
sS'STYLE'
p4836
S"<class 'gluon.html.STYLE'>"
p4837
sS'LABEL'
p4838
S"<class 'gluon.html.LABEL'>"
p4839
sS'META'
p4840
S"<class 'gluon.html.META'>"
p4841
sS'plugins'
p4842
S'<gluon.tools.PluginManager object at 0x05C19710>'
p4843
sS'SELECT'
p4844
S"<class 'gluon.html.SELECT'>"
p4845
sS'use_janrain'
p4846
S'<function use_janrain at 0x02957730>'
p4847
sS'CENTER'
p4848
S"<class 'gluon.html.CENTER'>"
p4849
sS'prettydate'
p4850
S'<function prettydate at 0x02954D30>'
p4851
sS'Crud'
p4852
S"<class 'gluon.tools.Crud'>"
p4853
sS'Auth'
p4854
S"<class 'gluon.tools.Auth'>"
p4855
sS'__builtins__'
p4856
S"{'ArithmeticError': <type 'exceptions.ArithmeticError'>, 'AssertionError': <type 'exceptions.AssertionError'>, 'AttributeError': <type 'exceptions.AttributeError'>, 'BaseException': <type 'exceptions.BaseException'>, 'DeprecationWarning': <type 'exceptions.DeprecationWarning'>, 'EOFError': <type 'exceptions.EOFError'>, 'Ellipsis': Ellipsis, 'EnvironmentError': <type 'exceptions.EnvironmentError'>, 'Exception': <type 'exceptions.Exception'>, 'False': False, ...}"
p4857
sS'HTML'
p4858
S"<class 'gluon.html.HTML'>"
p4859
sS'SQLFORM'
p4860
S"<class 'gluon.sqlhtml.SQLFORM'>"
p4861
sS'LOAD'
p4862
S'<function LOAD at 0x021297F0>'
p4863
sS'redirect'
p4864
S'<function redirect at 0x01BEFBB0>'
p4865
sS'FIELDSET'
p4866
S"<class 'gluon.html.FIELDSET'>"
p4867
sS'IS_EQUAL_TO'
p4868
S"<class 'gluon.validators.IS_EQUAL_TO'>"
p4869
sS'embed64'
p4870
S'<function embed64 at 0x01EF6A30>'
p4871
sS'IS_LIST_OF'
p4872
S"<class 'gluon.validators.IS_LIST_OF'>"
p4873
sS'INPUT'
p4874
S"<class 'gluon.html.INPUT'>"
p4875
sS'EMBED'
p4876
S"<class 'gluon.html.EMBED'>"
p4877
sS'_'
S'<function _ at 0x05C1F470>'
p4878
sS'FORM'
p4879
S"<class 'gluon.html.FORM'>"
p4880
sS'H2'
p4881
S"<class 'gluon.html.H2'>"
p4882
sS'H3'
p4883
S"<class 'gluon.html.H3'>"
p4884
sS'BUTTON'
p4885
S"<class 'gluon.html.BUTTON'>"
p4886
sS'H1'
p4887
S"<class 'gluon.html.H1'>"
p4888
sS'H6'
p4889
S"<class 'gluon.html.H6'>"
p4890
sS'H4'
p4891
S"<class 'gluon.html.H4'>"
p4892
sS'H5'
p4893
S"<class 'gluon.html.H5'>"
p4894
sS'UL'
p4895
S"<class 'gluon.html.UL'>"
p4896
sS'IS_UPPER'
p4897
S"<class 'gluon.validators.IS_UPPER'>"
p4898
sS'xmlescape'
p4899
S'<function xmlescape at 0x01EE7E70>'
p4900
sS'IS_TIME'
p4901
S"<class 'gluon.validators.IS_TIME'>"
p4902
sS'OPTION'
p4903
S"<class 'gluon.html.OPTION'>"
p4904
sS'TITLE'
p4905
S"<class 'gluon.html.TITLE'>"
p4906
sS'CRYPT'
p4907
S"<class 'gluon.validators.CRYPT'>"
p4908
sS'IS_EMPTY_OR'
p4909
S"<class 'gluon.validators.IS_EMPTY_OR'>"
p4910
sS'MARKMIN'
p4911
S"<class 'gluon.html.MARKMIN'>"
p4912
sS'__name__'
p4913
S"'__restricted__'"
p4914
sS'COL'
p4915
S"<class 'gluon.html.COL'>"
p4916
sS'service'
p4917
S'<gluon.tools.Service object at 0x05D2B7D0>'
p4918
sS'SCRIPT'
p4919
S"<class 'gluon.html.SCRIPT'>"
p4920
sS'TABLE'
p4921
S"<class 'gluon.html.TABLE'>"
p4922
sS'IS_IPV4'
p4923
S"<class 'gluon.validators.IS_IPV4'>"
p4924
sS'IS_LENGTH'
p4925
S"<class 'gluon.validators.IS_LENGTH'>"
p4926
sS'XML'
p4927
S"<class 'gluon.html.XML'>"
p4928
sS'B'
S"<class 'gluon.html.B'>"
p4929
sS'IMG'
p4930
S"<class 'gluon.html.IMG'>"
p4931
sS'SQLTABLE'
p4932
S"<class 'gluon.sqlhtml.SQLTABLE'>"
p4933
sS'IS_MATCH'
p4934
S"<class 'gluon.validators.IS_MATCH'>"
p4935
sS'IS_ALPHANUMERIC'
p4936
S"<class 'gluon.validators.IS_ALPHANUMERIC'>"
p4937
sS'SPAN'
p4938
S"<class 'gluon.html.SPAN'>"
p4939
sS'IS_SLUG'
p4940
S"<class 'gluon.validators.IS_SLUG'>"
p4941
sS'CLEANUP'
p4942
S"<class 'gluon.validators.CLEANUP'>"
p4943
sS'IS_DATE'
p4944
S"<class 'gluon.validators.IS_DATE'>"
p4945
sS'IS_EMAIL'
p4946
S"<class 'gluon.validators.IS_EMAIL'>"
p4947
sS'IS_NOT_EMPTY'
p4948
S"<class 'gluon.validators.IS_NOT_EMPTY'>"
p4949
sS'IS_FLOAT_IN_RANGE'
p4950
S"<class 'gluon.validators.IS_FLOAT_IN_RANGE'>"
p4951
sS'BEAUTIFY'
p4952
S"<class 'gluon.html.BEAUTIFY'>"
p4953
sS'TBODY'
p4954
S"<class 'gluon.html.TBODY'>"
p4955
sS'CAT'
p4956
S"<class 'gluon.html.CAT'>"
p4957
sS'Field'
p4958
S"<class 'gluon.dal.Field'>"
p4959
sS'DIV'
p4960
S"<class 'gluon.html.DIV'>"
p4961
sS'LEGEND'
p4962
S"<class 'gluon.html.LEGEND'>"
p4963
sS'COLGROUP'
p4964
S"<class 'gluon.html.COLGROUP'>"
p4965
sS'DAL'
p4966
S"<class 'gluon.dal.DAL'>"
p4967
sS'TT'
p4968
S"<class 'gluon.html.TT'>"
p4969
sS'TR'
p4970
S"<class 'gluon.html.TR'>"
p4971
sS'LI'
p4972
S"<class 'gluon.html.LI'>"
p4973
sS'TH'
p4974
S"<class 'gluon.html.TH'>"
p4975
sS'TD'
p4976
S"<class 'gluon.html.TD'>"
p4977
sS'PluginManager'
p4978
S"<class 'gluon.tools.PluginManager'>"
p4979
sS'IS_URL'
p4980
S"<class 'gluon.validators.IS_URL'>"
p4981
sS'A'
S"<class 'gluon.html.A'>"
p4982
sS'HEAD'
p4983
S"<class 'gluon.html.HEAD'>"
p4984
sS'IS_DATETIME_IN_RANGE'
p4985
S"<class 'gluon.validators.IS_DATETIME_IN_RANGE'>"
p4986
sS'IS_IMAGE'
p4987
S"<class 'gluon.validators.IS_IMAGE'>"
p4988
sS'I'
S"<class 'gluon.html.I'>"
p4989
sS'crud'
p4990
S'<gluon.tools.Crud object at 0x05D2BFD0>'
p4991
sS'IS_NOT_IN_DB'
p4992
S"<class 'gluon.validators.IS_NOT_IN_DB'>"
p4993
sg3205
S"<Storage {'body': <cStringIO.StringO object at 0...at 0x05C859B0>, 'view': 'default/register.html'}>"
p4994
sS'THEAD'
p4995
S"<class 'gluon.html.THEAD'>"
p4996
sS'IS_NULL_OR'
p4997
S"<class 'gluon.validators.IS_EMPTY_OR'>"
p4998
sg48
S"<Storage {'body': <cStringIO.StringO object at 0..._vars': <Storage {}>, 'post_vars': <Storage {}>}>"
p4999
sS'IS_EXPR'
p5000
S"<class 'gluon.validators.IS_EXPR'>"
p5001
sS'IS_IN_SET'
p5002
S"<class 'gluon.validators.IS_IN_SET'>"
p5003
sS'IS_UPLOAD_FILENAME'
p5004
S"<class 'gluon.validators.IS_UPLOAD_FILENAME'>"
p5005
sS'IS_DECIMAL_IN_RANGE'
p5006
S"<class 'gluon.validators.IS_DECIMAL_IN_RANGE'>"
p5007
sS'T'
S'<gluon.languages.translator object at 0x05DC3090>'
p5008
sssS'traceback'
p5009
S'Traceback (most recent call last):\n  File "gluon/restricted.py", line 205, in restricted\n  File "C:\\Users\\omkara\\Desktop\\web2py\\applications\\SlugBarter\\models\\registerForm.py", line 10, in <module>\nTypeError: define_tables() got an unexpected keyword argument \'userName\'\n'
p5010
s.