(dp1
S'output'
p2
S"<type 'exceptions.NameError'> name 'form' is not defined"
p3
sS'layer'
p4
S'C:\\Users\\omkara\\Desktop\\web2py\\applications\\SlugBarter\\models\\registerForm.py'
p5
sS'code'
p6
S"# coding: utf8\ndb = DAL('sqlite://storage.sqlite')\nfrom gluon.tools import Auth\nfrom datetime import datetime\nauth = Auth(db)\nauth.settings.extra_fields['auth_user']= [\n  Field('username', 'string', requires = IS_NOT_EMPTY(error_message = 'Cannot be empty')),\n  Field('dateCreated', 'datetime', default=datetime.utcnow(), readable=False, writable =False )\n  ]\nauth.settings.login_next=URL('mypage') \nsession.userName = form.vars.username\nauth.define_tables()\n"
p7
sS'snapshot'
p8
(dp9
S'exception'
p10
(dp11
S'__hash__'
p12
S"<method-wrapper '__hash__' of exceptions.NameError object at 0x05DB2440>"
p13
sS'__setattr__'
p14
S"<method-wrapper '__setattr__' of exceptions.NameError object at 0x05DB2440>"
p15
sS'__reduce_ex__'
p16
S'<built-in method __reduce_ex__ of exceptions.NameError object at 0x05DB2440>'
p17
sS'__getslice__'
p18
S"<method-wrapper '__getslice__' of exceptions.NameError object at 0x05DB2440>"
p19
sS'__getitem__'
p20
S"<method-wrapper '__getitem__' of exceptions.NameError object at 0x05DB2440>"
p21
sS'__setstate__'
p22
S'<built-in method __setstate__ of exceptions.NameError object at 0x05DB2440>'
p23
sS'__reduce__'
p24
S'<built-in method __reduce__ of exceptions.NameError object at 0x05DB2440>'
p25
sS'__str__'
p26
S"<method-wrapper '__str__' of exceptions.NameError object at 0x05DB2440>"
p27
sS'args'
p28
S'("name \'form\' is not defined",)'
p29
sS'__getattribute__'
p30
S"<method-wrapper '__getattribute__' of exceptions.NameError object at 0x05DB2440>"
p31
sS'__class__'
p32
S"<type 'exceptions.NameError'>"
p33
sS'__delattr__'
p34
S"<method-wrapper '__delattr__' of exceptions.NameError object at 0x05DB2440>"
p35
sS'__repr__'
p36
S"<method-wrapper '__repr__' of exceptions.NameError object at 0x05DB2440>"
p37
sS'__dict__'
p38
S'{}'
p39
sS'__doc__'
p40
S"'Name not found globally.'"
p41
sS'__init__'
p42
S"<method-wrapper '__init__' of exceptions.NameError object at 0x05DB2440>"
p43
sS'__new__'
p44
S'<built-in method __new__ of type object at 0x1E1CD8D8>'
p45
ssS'evalue'
p46
S"name 'form' is not defined"
p47
sS'request'
p48
ccopy_reg
_reconstructor
p49
(cgluon.html
BEAUTIFY
p50
c__builtin__
object
p51
NtRp52
(dp53
S'attributes'
p54
(dp55
sS'components'
p56
(lp57
g49
(cgluon.html
TABLE
p58
g51
NtRp59
(dp60
g54
(dp61
S'level'
p62
I5
ssS'parent'
p63
Nsg56
(lp64
g49
(cgluon.html
TR
p65
g51
NtRp66
(dp67
g54
(dp68
sg63
g59
sg56
(lp69
g49
(cgluon.html
TD
p70
g51
NtRp71
(dp72
g54
(dp73
S'_style'
p74
S'font-weight:bold;vertical-align:top'
p75
ssg63
g66
sg56
(lp76
S'ajax'
p77
asbag49
(g70
g51
NtRp78
(dp79
g54
(dp80
S'_valign'
p81
S'top'
p82
ssg63
g66
sg56
(lp83
S':'
asbag49
(g70
g51
NtRp84
(dp85
g54
(dp86
sg63
g66
sg56
(lp87
g49
(g50
g51
NtRp88
(dp89
g54
(dp90
g62
I5
ssg63
g84
sg56
(lp91
S'False'
p92
asbasbasbag49
(g65
g51
NtRp93
(dp94
g54
(dp95
sg63
g59
sg56
(lp96
g49
(g70
g51
NtRp97
(dp98
g54
(dp99
g74
g75
ssg63
g93
sg56
(lp100
S'application'
p101
asbag49
(g70
g51
NtRp102
(dp103
g54
(dp104
g81
g82
ssg63
g93
sg56
(lp105
S':'
asbag49
(g70
g51
NtRp106
(dp107
g54
(dp108
sg63
g93
sg56
(lp109
g49
(g50
g51
NtRp110
(dp111
g54
(dp112
g62
I5
ssg63
g106
sg56
(lp113
S'SlugBarter'
p114
asbasbasbag49
(g65
g51
NtRp115
(dp116
g54
(dp117
sg63
g59
sg56
(lp118
g49
(g70
g51
NtRp119
(dp120
g54
(dp121
g74
g75
ssg63
g115
sg56
(lp122
g28
asbag49
(g70
g51
NtRp123
(dp124
g54
(dp125
g81
g82
ssg63
g115
sg56
(lp126
S':'
asbag49
(g70
g51
NtRp127
(dp128
g54
(dp129
sg63
g115
sg56
(lp130
g49
(g50
g51
NtRp131
(dp132
g54
(dp133
g62
I5
ssg63
g127
sg56
(lp134
g49
(g58
g51
NtRp135
(dp136
g54
(dp137
g62
I4
ssg63
Nsg56
(lp138
sbasbasbasbag49
(g65
g51
NtRp139
(dp140
g54
(dp141
sg63
g59
sg56
(lp142
g49
(g70
g51
NtRp143
(dp144
g54
(dp145
g74
g75
ssg63
g139
sg56
(lp146
S'body'
p147
asbag49
(g70
g51
NtRp148
(dp149
g54
(dp150
g81
g82
ssg63
g139
sg56
(lp151
S':'
asbag49
(g70
g51
NtRp152
(dp153
g54
(dp154
sg63
g139
sg56
(lp155
g49
(g50
g51
NtRp156
(dp157
g54
(dp158
g62
I5
ssg63
g152
sg56
(lp159
S'<cStringIO.StringO object at 0x06272A00>'
p160
asbasbasbag49
(g65
g51
NtRp161
(dp162
g54
(dp163
sg63
g59
sg56
(lp164
g49
(g70
g51
NtRp165
(dp166
g54
(dp167
g74
g75
ssg63
g161
sg56
(lp168
S'client'
p169
asbag49
(g70
g51
NtRp170
(dp171
g54
(dp172
g81
g82
ssg63
g161
sg56
(lp173
S':'
asbag49
(g70
g51
NtRp174
(dp175
g54
(dp176
sg63
g161
sg56
(lp177
g49
(g50
g51
NtRp178
(dp179
g54
(dp180
g62
I5
ssg63
g174
sg56
(lp181
S'127.0.0.1'
p182
asbasbasbag49
(g65
g51
NtRp183
(dp184
g54
(dp185
sg63
g59
sg56
(lp186
g49
(g70
g51
NtRp187
(dp188
g54
(dp189
g74
g75
ssg63
g183
sg56
(lp190
S'controller'
p191
asbag49
(g70
g51
NtRp192
(dp193
g54
(dp194
g81
g82
ssg63
g183
sg56
(lp195
S':'
asbag49
(g70
g51
NtRp196
(dp197
g54
(dp198
sg63
g183
sg56
(lp199
g49
(g50
g51
NtRp200
(dp201
g54
(dp202
g62
I5
ssg63
g196
sg56
(lp203
S'default'
p204
asbasbasbag49
(g65
g51
NtRp205
(dp206
g54
(dp207
sg63
g59
sg56
(lp208
g49
(g70
g51
NtRp209
(dp210
g54
(dp211
g74
g75
ssg63
g205
sg56
(lp212
S'cookies'
p213
asbag49
(g70
g51
NtRp214
(dp215
g54
(dp216
g81
g82
ssg63
g205
sg56
(lp217
S':'
asbag49
(g70
g51
NtRp218
(dp219
g54
(dp220
sg63
g205
sg56
(lp221
g49
(g50
g51
NtRp222
(dp223
g54
(dp224
g62
I5
ssg63
g218
sg56
(lp225
g49
(g58
g51
NtRp226
(dp227
g54
(dp228
g62
I4
ssg63
Nsg56
(lp229
g49
(g65
g51
NtRp230
(dp231
g54
(dp232
sg63
g226
sg56
(lp233
g49
(g70
g51
NtRp234
(dp235
g54
(dp236
g74
g75
ssg63
g230
sg56
(lp237
S'session_id_admin'
p238
asbag49
(g70
g51
NtRp239
(dp240
g54
(dp241
g81
g82
ssg63
g230
sg56
(lp242
S':'
asbag49
(g70
g51
NtRp243
(dp244
g54
(dp245
sg63
g230
sg56
(lp246
g49
(g50
g51
NtRp247
(dp248
g54
(dp249
g62
I4
ssg63
g243
sg56
(lp250
g49
(g58
g51
NtRp251
(dp252
g54
(dp253
g62
I3
ssg63
Nsg56
(lp254
g49
(g65
g51
NtRp255
(dp256
g54
(dp257
sg63
g251
sg56
(lp258
g49
(g70
g51
NtRp259
(dp260
g54
(dp261
g74
g75
ssg63
g255
sg56
(lp262
S'comment'
p263
asbag49
(g70
g51
NtRp264
(dp265
g54
(dp266
g81
g82
ssg63
g255
sg56
(lp267
S':'
asbag49
(g70
g51
NtRp268
(dp269
g54
(dp270
sg63
g255
sg56
(lp271
g49
(g50
g51
NtRp272
(dp273
g54
(dp274
g62
I3
ssg63
g268
sg56
(lp275
S''
asbasbasbag49
(g65
g51
NtRp276
(dp277
g54
(dp278
sg63
g251
sg56
(lp279
g49
(g70
g51
NtRp280
(dp281
g54
(dp282
g74
g75
ssg63
g276
sg56
(lp283
S'domain'
p284
asbag49
(g70
g51
NtRp285
(dp286
g54
(dp287
g81
g82
ssg63
g276
sg56
(lp288
S':'
asbag49
(g70
g51
NtRp289
(dp290
g54
(dp291
sg63
g276
sg56
(lp292
g49
(g50
g51
NtRp293
(dp294
g54
(dp295
g62
I3
ssg63
g289
sg56
(lp296
S''
asbasbasbag49
(g65
g51
NtRp297
(dp298
g54
(dp299
sg63
g251
sg56
(lp300
g49
(g70
g51
NtRp301
(dp302
g54
(dp303
g74
g75
ssg63
g297
sg56
(lp304
S'expires'
p305
asbag49
(g70
g51
NtRp306
(dp307
g54
(dp308
g81
g82
ssg63
g297
sg56
(lp309
S':'
asbag49
(g70
g51
NtRp310
(dp311
g54
(dp312
sg63
g297
sg56
(lp313
g49
(g50
g51
NtRp314
(dp315
g54
(dp316
g62
I3
ssg63
g310
sg56
(lp317
S''
asbasbasbag49
(g65
g51
NtRp318
(dp319
g54
(dp320
sg63
g251
sg56
(lp321
g49
(g70
g51
NtRp322
(dp323
g54
(dp324
g74
g75
ssg63
g318
sg56
(lp325
S'max-age'
p326
asbag49
(g70
g51
NtRp327
(dp328
g54
(dp329
g81
g82
ssg63
g318
sg56
(lp330
S':'
asbag49
(g70
g51
NtRp331
(dp332
g54
(dp333
sg63
g318
sg56
(lp334
g49
(g50
g51
NtRp335
(dp336
g54
(dp337
g62
I3
ssg63
g331
sg56
(lp338
S''
asbasbasbag49
(g65
g51
NtRp339
(dp340
g54
(dp341
sg63
g251
sg56
(lp342
g49
(g70
g51
NtRp343
(dp344
g54
(dp345
g74
g75
ssg63
g339
sg56
(lp346
S'path'
p347
asbag49
(g70
g51
NtRp348
(dp349
g54
(dp350
g81
g82
ssg63
g339
sg56
(lp351
S':'
asbag49
(g70
g51
NtRp352
(dp353
g54
(dp354
sg63
g339
sg56
(lp355
g49
(g50
g51
NtRp356
(dp357
g54
(dp358
g62
I3
ssg63
g352
sg56
(lp359
S''
asbasbasbag49
(g65
g51
NtRp360
(dp361
g54
(dp362
sg63
g251
sg56
(lp363
g49
(g70
g51
NtRp364
(dp365
g54
(dp366
g74
g75
ssg63
g360
sg56
(lp367
S'secure'
p368
asbag49
(g70
g51
NtRp369
(dp370
g54
(dp371
g81
g82
ssg63
g360
sg56
(lp372
S':'
asbag49
(g70
g51
NtRp373
(dp374
g54
(dp375
sg63
g360
sg56
(lp376
g49
(g50
g51
NtRp377
(dp378
g54
(dp379
g62
I3
ssg63
g373
sg56
(lp380
S''
asbasbasbag49
(g65
g51
NtRp381
(dp382
g54
(dp383
sg63
g251
sg56
(lp384
g49
(g70
g51
NtRp385
(dp386
g54
(dp387
g74
g75
ssg63
g381
sg56
(lp388
S'version'
p389
asbag49
(g70
g51
NtRp390
(dp391
g54
(dp392
g81
g82
ssg63
g381
sg56
(lp393
S':'
asbag49
(g70
g51
NtRp394
(dp395
g54
(dp396
sg63
g381
sg56
(lp397
g49
(g50
g51
NtRp398
(dp399
g54
(dp400
g62
I3
ssg63
g394
sg56
(lp401
S''
asbasbasbasbasbasbasbag49
(g65
g51
NtRp402
(dp403
g54
(dp404
sg63
g226
sg56
(lp405
g49
(g70
g51
NtRp406
(dp407
g54
(dp408
g74
g75
ssg63
g402
sg56
(lp409
S'session_id_onlinenotes_p1_'
p410
asbag49
(g70
g51
NtRp411
(dp412
g54
(dp413
g81
g82
ssg63
g402
sg56
(lp414
S':'
asbag49
(g70
g51
NtRp415
(dp416
g54
(dp417
sg63
g402
sg56
(lp418
g49
(g50
g51
NtRp419
(dp420
g54
(dp421
g62
I4
ssg63
g415
sg56
(lp422
g49
(g58
g51
NtRp423
(dp424
g54
(dp425
g62
I3
ssg63
Nsg56
(lp426
g49
(g65
g51
NtRp427
(dp428
g54
(dp429
sg63
g423
sg56
(lp430
g49
(g70
g51
NtRp431
(dp432
g54
(dp433
g74
g75
ssg63
g427
sg56
(lp434
g263
asbag49
(g70
g51
NtRp435
(dp436
g54
(dp437
g81
g82
ssg63
g427
sg56
(lp438
S':'
asbag49
(g70
g51
NtRp439
(dp440
g54
(dp441
sg63
g427
sg56
(lp442
g49
(g50
g51
NtRp443
(dp444
g54
(dp445
g62
I3
ssg63
g439
sg56
(lp446
S''
asbasbasbag49
(g65
g51
NtRp447
(dp448
g54
(dp449
sg63
g423
sg56
(lp450
g49
(g70
g51
NtRp451
(dp452
g54
(dp453
g74
g75
ssg63
g447
sg56
(lp454
g284
asbag49
(g70
g51
NtRp455
(dp456
g54
(dp457
g81
g82
ssg63
g447
sg56
(lp458
S':'
asbag49
(g70
g51
NtRp459
(dp460
g54
(dp461
sg63
g447
sg56
(lp462
g49
(g50
g51
NtRp463
(dp464
g54
(dp465
g62
I3
ssg63
g459
sg56
(lp466
S''
asbasbasbag49
(g65
g51
NtRp467
(dp468
g54
(dp469
sg63
g423
sg56
(lp470
g49
(g70
g51
NtRp471
(dp472
g54
(dp473
g74
g75
ssg63
g467
sg56
(lp474
g305
asbag49
(g70
g51
NtRp475
(dp476
g54
(dp477
g81
g82
ssg63
g467
sg56
(lp478
S':'
asbag49
(g70
g51
NtRp479
(dp480
g54
(dp481
sg63
g467
sg56
(lp482
g49
(g50
g51
NtRp483
(dp484
g54
(dp485
g62
I3
ssg63
g479
sg56
(lp486
S''
asbasbasbag49
(g65
g51
NtRp487
(dp488
g54
(dp489
sg63
g423
sg56
(lp490
g49
(g70
g51
NtRp491
(dp492
g54
(dp493
g74
g75
ssg63
g487
sg56
(lp494
g326
asbag49
(g70
g51
NtRp495
(dp496
g54
(dp497
g81
g82
ssg63
g487
sg56
(lp498
S':'
asbag49
(g70
g51
NtRp499
(dp500
g54
(dp501
sg63
g487
sg56
(lp502
g49
(g50
g51
NtRp503
(dp504
g54
(dp505
g62
I3
ssg63
g499
sg56
(lp506
S''
asbasbasbag49
(g65
g51
NtRp507
(dp508
g54
(dp509
sg63
g423
sg56
(lp510
g49
(g70
g51
NtRp511
(dp512
g54
(dp513
g74
g75
ssg63
g507
sg56
(lp514
g347
asbag49
(g70
g51
NtRp515
(dp516
g54
(dp517
g81
g82
ssg63
g507
sg56
(lp518
S':'
asbag49
(g70
g51
NtRp519
(dp520
g54
(dp521
sg63
g507
sg56
(lp522
g49
(g50
g51
NtRp523
(dp524
g54
(dp525
g62
I3
ssg63
g519
sg56
(lp526
S''
asbasbasbag49
(g65
g51
NtRp527
(dp528
g54
(dp529
sg63
g423
sg56
(lp530
g49
(g70
g51
NtRp531
(dp532
g54
(dp533
g74
g75
ssg63
g527
sg56
(lp534
g368
asbag49
(g70
g51
NtRp535
(dp536
g54
(dp537
g81
g82
ssg63
g527
sg56
(lp538
S':'
asbag49
(g70
g51
NtRp539
(dp540
g54
(dp541
sg63
g527
sg56
(lp542
g49
(g50
g51
NtRp543
(dp544
g54
(dp545
g62
I3
ssg63
g539
sg56
(lp546
S''
asbasbasbag49
(g65
g51
NtRp547
(dp548
g54
(dp549
sg63
g423
sg56
(lp550
g49
(g70
g51
NtRp551
(dp552
g54
(dp553
g74
g75
ssg63
g547
sg56
(lp554
g389
asbag49
(g70
g51
NtRp555
(dp556
g54
(dp557
g81
g82
ssg63
g547
sg56
(lp558
S':'
asbag49
(g70
g51
NtRp559
(dp560
g54
(dp561
sg63
g547
sg56
(lp562
g49
(g50
g51
NtRp563
(dp564
g54
(dp565
g62
I3
ssg63
g559
sg56
(lp566
S''
asbasbasbasbasbasbasbag49
(g65
g51
NtRp567
(dp568
g54
(dp569
sg63
g226
sg56
(lp570
g49
(g70
g51
NtRp571
(dp572
g54
(dp573
g74
g75
ssg63
g567
sg56
(lp574
S'session_id_slug_register_page'
p575
asbag49
(g70
g51
NtRp576
(dp577
g54
(dp578
g81
g82
ssg63
g567
sg56
(lp579
S':'
asbag49
(g70
g51
NtRp580
(dp581
g54
(dp582
sg63
g567
sg56
(lp583
g49
(g50
g51
NtRp584
(dp585
g54
(dp586
g62
I4
ssg63
g580
sg56
(lp587
g49
(g58
g51
NtRp588
(dp589
g54
(dp590
g62
I3
ssg63
Nsg56
(lp591
g49
(g65
g51
NtRp592
(dp593
g54
(dp594
sg63
g588
sg56
(lp595
g49
(g70
g51
NtRp596
(dp597
g54
(dp598
g74
g75
ssg63
g592
sg56
(lp599
g263
asbag49
(g70
g51
NtRp600
(dp601
g54
(dp602
g81
g82
ssg63
g592
sg56
(lp603
S':'
asbag49
(g70
g51
NtRp604
(dp605
g54
(dp606
sg63
g592
sg56
(lp607
g49
(g50
g51
NtRp608
(dp609
g54
(dp610
g62
I3
ssg63
g604
sg56
(lp611
S''
asbasbasbag49
(g65
g51
NtRp612
(dp613
g54
(dp614
sg63
g588
sg56
(lp615
g49
(g70
g51
NtRp616
(dp617
g54
(dp618
g74
g75
ssg63
g612
sg56
(lp619
g284
asbag49
(g70
g51
NtRp620
(dp621
g54
(dp622
g81
g82
ssg63
g612
sg56
(lp623
S':'
asbag49
(g70
g51
NtRp624
(dp625
g54
(dp626
sg63
g612
sg56
(lp627
g49
(g50
g51
NtRp628
(dp629
g54
(dp630
g62
I3
ssg63
g624
sg56
(lp631
S''
asbasbasbag49
(g65
g51
NtRp632
(dp633
g54
(dp634
sg63
g588
sg56
(lp635
g49
(g70
g51
NtRp636
(dp637
g54
(dp638
g74
g75
ssg63
g632
sg56
(lp639
g305
asbag49
(g70
g51
NtRp640
(dp641
g54
(dp642
g81
g82
ssg63
g632
sg56
(lp643
S':'
asbag49
(g70
g51
NtRp644
(dp645
g54
(dp646
sg63
g632
sg56
(lp647
g49
(g50
g51
NtRp648
(dp649
g54
(dp650
g62
I3
ssg63
g644
sg56
(lp651
S''
asbasbasbag49
(g65
g51
NtRp652
(dp653
g54
(dp654
sg63
g588
sg56
(lp655
g49
(g70
g51
NtRp656
(dp657
g54
(dp658
g74
g75
ssg63
g652
sg56
(lp659
g326
asbag49
(g70
g51
NtRp660
(dp661
g54
(dp662
g81
g82
ssg63
g652
sg56
(lp663
S':'
asbag49
(g70
g51
NtRp664
(dp665
g54
(dp666
sg63
g652
sg56
(lp667
g49
(g50
g51
NtRp668
(dp669
g54
(dp670
g62
I3
ssg63
g664
sg56
(lp671
S''
asbasbasbag49
(g65
g51
NtRp672
(dp673
g54
(dp674
sg63
g588
sg56
(lp675
g49
(g70
g51
NtRp676
(dp677
g54
(dp678
g74
g75
ssg63
g672
sg56
(lp679
g347
asbag49
(g70
g51
NtRp680
(dp681
g54
(dp682
g81
g82
ssg63
g672
sg56
(lp683
S':'
asbag49
(g70
g51
NtRp684
(dp685
g54
(dp686
sg63
g672
sg56
(lp687
g49
(g50
g51
NtRp688
(dp689
g54
(dp690
g62
I3
ssg63
g684
sg56
(lp691
S''
asbasbasbag49
(g65
g51
NtRp692
(dp693
g54
(dp694
sg63
g588
sg56
(lp695
g49
(g70
g51
NtRp696
(dp697
g54
(dp698
g74
g75
ssg63
g692
sg56
(lp699
g368
asbag49
(g70
g51
NtRp700
(dp701
g54
(dp702
g81
g82
ssg63
g692
sg56
(lp703
S':'
asbag49
(g70
g51
NtRp704
(dp705
g54
(dp706
sg63
g692
sg56
(lp707
g49
(g50
g51
NtRp708
(dp709
g54
(dp710
g62
I3
ssg63
g704
sg56
(lp711
S''
asbasbasbag49
(g65
g51
NtRp712
(dp713
g54
(dp714
sg63
g588
sg56
(lp715
g49
(g70
g51
NtRp716
(dp717
g54
(dp718
g74
g75
ssg63
g712
sg56
(lp719
g389
asbag49
(g70
g51
NtRp720
(dp721
g54
(dp722
g81
g82
ssg63
g712
sg56
(lp723
S':'
asbag49
(g70
g51
NtRp724
(dp725
g54
(dp726
sg63
g712
sg56
(lp727
g49
(g50
g51
NtRp728
(dp729
g54
(dp730
g62
I3
ssg63
g724
sg56
(lp731
S''
asbasbasbasbasbasbasbag49
(g65
g51
NtRp732
(dp733
g54
(dp734
sg63
g226
sg56
(lp735
g49
(g70
g51
NtRp736
(dp737
g54
(dp738
g74
g75
ssg63
g732
sg56
(lp739
S'session_id_slugbarter'
p740
asbag49
(g70
g51
NtRp741
(dp742
g54
(dp743
g81
g82
ssg63
g732
sg56
(lp744
S':'
asbag49
(g70
g51
NtRp745
(dp746
g54
(dp747
sg63
g732
sg56
(lp748
g49
(g50
g51
NtRp749
(dp750
g54
(dp751
g62
I4
ssg63
g745
sg56
(lp752
g49
(g58
g51
NtRp753
(dp754
g54
(dp755
g62
I3
ssg63
Nsg56
(lp756
g49
(g65
g51
NtRp757
(dp758
g54
(dp759
sg63
g753
sg56
(lp760
g49
(g70
g51
NtRp761
(dp762
g54
(dp763
g74
g75
ssg63
g757
sg56
(lp764
g263
asbag49
(g70
g51
NtRp765
(dp766
g54
(dp767
g81
g82
ssg63
g757
sg56
(lp768
S':'
asbag49
(g70
g51
NtRp769
(dp770
g54
(dp771
sg63
g757
sg56
(lp772
g49
(g50
g51
NtRp773
(dp774
g54
(dp775
g62
I3
ssg63
g769
sg56
(lp776
S''
asbasbasbag49
(g65
g51
NtRp777
(dp778
g54
(dp779
sg63
g753
sg56
(lp780
g49
(g70
g51
NtRp781
(dp782
g54
(dp783
g74
g75
ssg63
g777
sg56
(lp784
g284
asbag49
(g70
g51
NtRp785
(dp786
g54
(dp787
g81
g82
ssg63
g777
sg56
(lp788
S':'
asbag49
(g70
g51
NtRp789
(dp790
g54
(dp791
sg63
g777
sg56
(lp792
g49
(g50
g51
NtRp793
(dp794
g54
(dp795
g62
I3
ssg63
g789
sg56
(lp796
S''
asbasbasbag49
(g65
g51
NtRp797
(dp798
g54
(dp799
sg63
g753
sg56
(lp800
g49
(g70
g51
NtRp801
(dp802
g54
(dp803
g74
g75
ssg63
g797
sg56
(lp804
g305
asbag49
(g70
g51
NtRp805
(dp806
g54
(dp807
g81
g82
ssg63
g797
sg56
(lp808
S':'
asbag49
(g70
g51
NtRp809
(dp810
g54
(dp811
sg63
g797
sg56
(lp812
g49
(g50
g51
NtRp813
(dp814
g54
(dp815
g62
I3
ssg63
g809
sg56
(lp816
S''
asbasbasbag49
(g65
g51
NtRp817
(dp818
g54
(dp819
sg63
g753
sg56
(lp820
g49
(g70
g51
NtRp821
(dp822
g54
(dp823
g74
g75
ssg63
g817
sg56
(lp824
g326
asbag49
(g70
g51
NtRp825
(dp826
g54
(dp827
g81
g82
ssg63
g817
sg56
(lp828
S':'
asbag49
(g70
g51
NtRp829
(dp830
g54
(dp831
sg63
g817
sg56
(lp832
g49
(g50
g51
NtRp833
(dp834
g54
(dp835
g62
I3
ssg63
g829
sg56
(lp836
S''
asbasbasbag49
(g65
g51
NtRp837
(dp838
g54
(dp839
sg63
g753
sg56
(lp840
g49
(g70
g51
NtRp841
(dp842
g54
(dp843
g74
g75
ssg63
g837
sg56
(lp844
g347
asbag49
(g70
g51
NtRp845
(dp846
g54
(dp847
g81
g82
ssg63
g837
sg56
(lp848
S':'
asbag49
(g70
g51
NtRp849
(dp850
g54
(dp851
sg63
g837
sg56
(lp852
g49
(g50
g51
NtRp853
(dp854
g54
(dp855
g62
I3
ssg63
g849
sg56
(lp856
S''
asbasbasbag49
(g65
g51
NtRp857
(dp858
g54
(dp859
sg63
g753
sg56
(lp860
g49
(g70
g51
NtRp861
(dp862
g54
(dp863
g74
g75
ssg63
g857
sg56
(lp864
g368
asbag49
(g70
g51
NtRp865
(dp866
g54
(dp867
g81
g82
ssg63
g857
sg56
(lp868
S':'
asbag49
(g70
g51
NtRp869
(dp870
g54
(dp871
sg63
g857
sg56
(lp872
g49
(g50
g51
NtRp873
(dp874
g54
(dp875
g62
I3
ssg63
g869
sg56
(lp876
S''
asbasbasbag49
(g65
g51
NtRp877
(dp878
g54
(dp879
sg63
g753
sg56
(lp880
g49
(g70
g51
NtRp881
(dp882
g54
(dp883
g74
g75
ssg63
g877
sg56
(lp884
g389
asbag49
(g70
g51
NtRp885
(dp886
g54
(dp887
g81
g82
ssg63
g877
sg56
(lp888
S':'
asbag49
(g70
g51
NtRp889
(dp890
g54
(dp891
sg63
g877
sg56
(lp892
g49
(g50
g51
NtRp893
(dp894
g54
(dp895
g62
I3
ssg63
g889
sg56
(lp896
S''
asbasbasbasbasbasbasbag49
(g65
g51
NtRp897
(dp898
g54
(dp899
sg63
g226
sg56
(lp900
g49
(g70
g51
NtRp901
(dp902
g54
(dp903
g74
g75
ssg63
g897
sg56
(lp904
S'session_id_testapp'
p905
asbag49
(g70
g51
NtRp906
(dp907
g54
(dp908
g81
g82
ssg63
g897
sg56
(lp909
S':'
asbag49
(g70
g51
NtRp910
(dp911
g54
(dp912
sg63
g897
sg56
(lp913
g49
(g50
g51
NtRp914
(dp915
g54
(dp916
g62
I4
ssg63
g910
sg56
(lp917
g49
(g58
g51
NtRp918
(dp919
g54
(dp920
g62
I3
ssg63
Nsg56
(lp921
g49
(g65
g51
NtRp922
(dp923
g54
(dp924
sg63
g918
sg56
(lp925
g49
(g70
g51
NtRp926
(dp927
g54
(dp928
g74
g75
ssg63
g922
sg56
(lp929
g263
asbag49
(g70
g51
NtRp930
(dp931
g54
(dp932
g81
g82
ssg63
g922
sg56
(lp933
S':'
asbag49
(g70
g51
NtRp934
(dp935
g54
(dp936
sg63
g922
sg56
(lp937
g49
(g50
g51
NtRp938
(dp939
g54
(dp940
g62
I3
ssg63
g934
sg56
(lp941
S''
asbasbasbag49
(g65
g51
NtRp942
(dp943
g54
(dp944
sg63
g918
sg56
(lp945
g49
(g70
g51
NtRp946
(dp947
g54
(dp948
g74
g75
ssg63
g942
sg56
(lp949
g284
asbag49
(g70
g51
NtRp950
(dp951
g54
(dp952
g81
g82
ssg63
g942
sg56
(lp953
S':'
asbag49
(g70
g51
NtRp954
(dp955
g54
(dp956
sg63
g942
sg56
(lp957
g49
(g50
g51
NtRp958
(dp959
g54
(dp960
g62
I3
ssg63
g954
sg56
(lp961
S''
asbasbasbag49
(g65
g51
NtRp962
(dp963
g54
(dp964
sg63
g918
sg56
(lp965
g49
(g70
g51
NtRp966
(dp967
g54
(dp968
g74
g75
ssg63
g962
sg56
(lp969
g305
asbag49
(g70
g51
NtRp970
(dp971
g54
(dp972
g81
g82
ssg63
g962
sg56
(lp973
S':'
asbag49
(g70
g51
NtRp974
(dp975
g54
(dp976
sg63
g962
sg56
(lp977
g49
(g50
g51
NtRp978
(dp979
g54
(dp980
g62
I3
ssg63
g974
sg56
(lp981
S''
asbasbasbag49
(g65
g51
NtRp982
(dp983
g54
(dp984
sg63
g918
sg56
(lp985
g49
(g70
g51
NtRp986
(dp987
g54
(dp988
g74
g75
ssg63
g982
sg56
(lp989
g326
asbag49
(g70
g51
NtRp990
(dp991
g54
(dp992
g81
g82
ssg63
g982
sg56
(lp993
S':'
asbag49
(g70
g51
NtRp994
(dp995
g54
(dp996
sg63
g982
sg56
(lp997
g49
(g50
g51
NtRp998
(dp999
g54
(dp1000
g62
I3
ssg63
g994
sg56
(lp1001
S''
asbasbasbag49
(g65
g51
NtRp1002
(dp1003
g54
(dp1004
sg63
g918
sg56
(lp1005
g49
(g70
g51
NtRp1006
(dp1007
g54
(dp1008
g74
g75
ssg63
g1002
sg56
(lp1009
g347
asbag49
(g70
g51
NtRp1010
(dp1011
g54
(dp1012
g81
g82
ssg63
g1002
sg56
(lp1013
S':'
asbag49
(g70
g51
NtRp1014
(dp1015
g54
(dp1016
sg63
g1002
sg56
(lp1017
g49
(g50
g51
NtRp1018
(dp1019
g54
(dp1020
g62
I3
ssg63
g1014
sg56
(lp1021
S''
asbasbasbag49
(g65
g51
NtRp1022
(dp1023
g54
(dp1024
sg63
g918
sg56
(lp1025
g49
(g70
g51
NtRp1026
(dp1027
g54
(dp1028
g74
g75
ssg63
g1022
sg56
(lp1029
g368
asbag49
(g70
g51
NtRp1030
(dp1031
g54
(dp1032
g81
g82
ssg63
g1022
sg56
(lp1033
S':'
asbag49
(g70
g51
NtRp1034
(dp1035
g54
(dp1036
sg63
g1022
sg56
(lp1037
g49
(g50
g51
NtRp1038
(dp1039
g54
(dp1040
g62
I3
ssg63
g1034
sg56
(lp1041
S''
asbasbasbag49
(g65
g51
NtRp1042
(dp1043
g54
(dp1044
sg63
g918
sg56
(lp1045
g49
(g70
g51
NtRp1046
(dp1047
g54
(dp1048
g74
g75
ssg63
g1042
sg56
(lp1049
g389
asbag49
(g70
g51
NtRp1050
(dp1051
g54
(dp1052
g81
g82
ssg63
g1042
sg56
(lp1053
S':'
asbag49
(g70
g51
NtRp1054
(dp1055
g54
(dp1056
sg63
g1042
sg56
(lp1057
g49
(g50
g51
NtRp1058
(dp1059
g54
(dp1060
g62
I3
ssg63
g1054
sg56
(lp1061
S''
asbasbasbasbasbasbasbag49
(g65
g51
NtRp1062
(dp1063
g54
(dp1064
sg63
g226
sg56
(lp1065
g49
(g70
g51
NtRp1066
(dp1067
g54
(dp1068
g74
g75
ssg63
g1062
sg56
(lp1069
S'session_id_welcome'
p1070
asbag49
(g70
g51
NtRp1071
(dp1072
g54
(dp1073
g81
g82
ssg63
g1062
sg56
(lp1074
S':'
asbag49
(g70
g51
NtRp1075
(dp1076
g54
(dp1077
sg63
g1062
sg56
(lp1078
g49
(g50
g51
NtRp1079
(dp1080
g54
(dp1081
g62
I4
ssg63
g1075
sg56
(lp1082
g49
(g58
g51
NtRp1083
(dp1084
g54
(dp1085
g62
I3
ssg63
Nsg56
(lp1086
g49
(g65
g51
NtRp1087
(dp1088
g54
(dp1089
sg63
g1083
sg56
(lp1090
g49
(g70
g51
NtRp1091
(dp1092
g54
(dp1093
g74
g75
ssg63
g1087
sg56
(lp1094
g263
asbag49
(g70
g51
NtRp1095
(dp1096
g54
(dp1097
g81
g82
ssg63
g1087
sg56
(lp1098
S':'
asbag49
(g70
g51
NtRp1099
(dp1100
g54
(dp1101
sg63
g1087
sg56
(lp1102
g49
(g50
g51
NtRp1103
(dp1104
g54
(dp1105
g62
I3
ssg63
g1099
sg56
(lp1106
S''
asbasbasbag49
(g65
g51
NtRp1107
(dp1108
g54
(dp1109
sg63
g1083
sg56
(lp1110
g49
(g70
g51
NtRp1111
(dp1112
g54
(dp1113
g74
g75
ssg63
g1107
sg56
(lp1114
g284
asbag49
(g70
g51
NtRp1115
(dp1116
g54
(dp1117
g81
g82
ssg63
g1107
sg56
(lp1118
S':'
asbag49
(g70
g51
NtRp1119
(dp1120
g54
(dp1121
sg63
g1107
sg56
(lp1122
g49
(g50
g51
NtRp1123
(dp1124
g54
(dp1125
g62
I3
ssg63
g1119
sg56
(lp1126
S''
asbasbasbag49
(g65
g51
NtRp1127
(dp1128
g54
(dp1129
sg63
g1083
sg56
(lp1130
g49
(g70
g51
NtRp1131
(dp1132
g54
(dp1133
g74
g75
ssg63
g1127
sg56
(lp1134
g305
asbag49
(g70
g51
NtRp1135
(dp1136
g54
(dp1137
g81
g82
ssg63
g1127
sg56
(lp1138
S':'
asbag49
(g70
g51
NtRp1139
(dp1140
g54
(dp1141
sg63
g1127
sg56
(lp1142
g49
(g50
g51
NtRp1143
(dp1144
g54
(dp1145
g62
I3
ssg63
g1139
sg56
(lp1146
S''
asbasbasbag49
(g65
g51
NtRp1147
(dp1148
g54
(dp1149
sg63
g1083
sg56
(lp1150
g49
(g70
g51
NtRp1151
(dp1152
g54
(dp1153
g74
g75
ssg63
g1147
sg56
(lp1154
g326
asbag49
(g70
g51
NtRp1155
(dp1156
g54
(dp1157
g81
g82
ssg63
g1147
sg56
(lp1158
S':'
asbag49
(g70
g51
NtRp1159
(dp1160
g54
(dp1161
sg63
g1147
sg56
(lp1162
g49
(g50
g51
NtRp1163
(dp1164
g54
(dp1165
g62
I3
ssg63
g1159
sg56
(lp1166
S''
asbasbasbag49
(g65
g51
NtRp1167
(dp1168
g54
(dp1169
sg63
g1083
sg56
(lp1170
g49
(g70
g51
NtRp1171
(dp1172
g54
(dp1173
g74
g75
ssg63
g1167
sg56
(lp1174
g347
asbag49
(g70
g51
NtRp1175
(dp1176
g54
(dp1177
g81
g82
ssg63
g1167
sg56
(lp1178
S':'
asbag49
(g70
g51
NtRp1179
(dp1180
g54
(dp1181
sg63
g1167
sg56
(lp1182
g49
(g50
g51
NtRp1183
(dp1184
g54
(dp1185
g62
I3
ssg63
g1179
sg56
(lp1186
S''
asbasbasbag49
(g65
g51
NtRp1187
(dp1188
g54
(dp1189
sg63
g1083
sg56
(lp1190
g49
(g70
g51
NtRp1191
(dp1192
g54
(dp1193
g74
g75
ssg63
g1187
sg56
(lp1194
g368
asbag49
(g70
g51
NtRp1195
(dp1196
g54
(dp1197
g81
g82
ssg63
g1187
sg56
(lp1198
S':'
asbag49
(g70
g51
NtRp1199
(dp1200
g54
(dp1201
sg63
g1187
sg56
(lp1202
g49
(g50
g51
NtRp1203
(dp1204
g54
(dp1205
g62
I3
ssg63
g1199
sg56
(lp1206
S''
asbasbasbag49
(g65
g51
NtRp1207
(dp1208
g54
(dp1209
sg63
g1083
sg56
(lp1210
g49
(g70
g51
NtRp1211
(dp1212
g54
(dp1213
g74
g75
ssg63
g1207
sg56
(lp1214
g389
asbag49
(g70
g51
NtRp1215
(dp1216
g54
(dp1217
g81
g82
ssg63
g1207
sg56
(lp1218
S':'
asbag49
(g70
g51
NtRp1219
(dp1220
g54
(dp1221
sg63
g1207
sg56
(lp1222
g49
(g50
g51
NtRp1223
(dp1224
g54
(dp1225
g62
I3
ssg63
g1219
sg56
(lp1226
S''
asbasbasbasbasbasbasbasbasbasbasbag49
(g65
g51
NtRp1227
(dp1228
g54
(dp1229
sg63
g59
sg56
(lp1230
g49
(g70
g51
NtRp1231
(dp1232
g54
(dp1233
g74
g75
ssg63
g1227
sg56
(lp1234
S'env'
p1235
asbag49
(g70
g51
NtRp1236
(dp1237
g54
(dp1238
g81
g82
ssg63
g1227
sg56
(lp1239
S':'
asbag49
(g70
g51
NtRp1240
(dp1241
g54
(dp1242
sg63
g1227
sg56
(lp1243
g49
(g50
g51
NtRp1244
(dp1245
g54
(dp1246
g62
I5
ssg63
g1240
sg56
(lp1247
g49
(g58
g51
NtRp1248
(dp1249
g54
(dp1250
g62
I4
ssg63
Nsg56
(lp1251
g49
(g65
g51
NtRp1252
(dp1253
g54
(dp1254
sg63
g1248
sg56
(lp1255
g49
(g70
g51
NtRp1256
(dp1257
g54
(dp1258
g74
g75
ssg63
g1252
sg56
(lp1259
S'app_folders'
p1260
asbag49
(g70
g51
NtRp1261
(dp1262
g54
(dp1263
g81
g82
ssg63
g1252
sg56
(lp1264
S':'
asbag49
(g70
g51
NtRp1265
(dp1266
g54
(dp1267
sg63
g1252
sg56
(lp1268
g49
(g50
g51
NtRp1269
(dp1270
g54
(dp1271
g62
I4
ssg63
g1265
sg56
(lp1272
S"set(['C:\\\\Users\\\\omkara\\\\Desktop\\\\web2py\\\\applications\\\\newA\\\\', 'C:\\\\Users\\\\omkara\\\\Desktop\\\\web2py\\\\applications\\\\slug_register_page\\\\', 'C:\\\\Users\\\\omkara\\\\Desktop\\\\web2py\\\\applications\\\\admin\\\\', 'C:\\\\Users\\\\omkara\\\\Desktop\\\\web2py\\\\applications\\\\welcome\\\\', 'C:\\\\Users\\\\omkara\\\\Desktop\\\\web2py\\\\applications\\\\slug_register\\\\', 'C:\\\\Users\\\\omkara\\\\Desktop\\\\web2py\\\\applications\\\\SlugBarter\\\\', 'C:\\\\Users\\\\omkara\\\\Desktop\\\\web2py\\\\applications\\\\testApp\\\\'])"
p1273
asbasbasbag49
(g65
g51
NtRp1274
(dp1275
g54
(dp1276
sg63
g1248
sg56
(lp1277
g49
(g70
g51
NtRp1278
(dp1279
g54
(dp1280
g74
g75
ssg63
g1274
sg56
(lp1281
S'applications_parent'
p1282
asbag49
(g70
g51
NtRp1283
(dp1284
g54
(dp1285
g81
g82
ssg63
g1274
sg56
(lp1286
S':'
asbag49
(g70
g51
NtRp1287
(dp1288
g54
(dp1289
sg63
g1274
sg56
(lp1290
g49
(g50
g51
NtRp1291
(dp1292
g54
(dp1293
g62
I4
ssg63
g1287
sg56
(lp1294
S'C:\\Users\\omkara\\Desktop\\web2py'
p1295
asbasbasbag49
(g65
g51
NtRp1296
(dp1297
g54
(dp1298
sg63
g1248
sg56
(lp1299
g49
(g70
g51
NtRp1300
(dp1301
g54
(dp1302
g74
g75
ssg63
g1296
sg56
(lp1303
S'cmd_args'
p1304
asbag49
(g70
g51
NtRp1305
(dp1306
g54
(dp1307
g81
g82
ssg63
g1296
sg56
(lp1308
S':'
asbag49
(g70
g51
NtRp1309
(dp1310
g54
(dp1311
sg63
g1296
sg56
(lp1312
g49
(g50
g51
NtRp1313
(dp1314
g54
(dp1315
g62
I4
ssg63
g1309
sg56
(lp1316
g49
(g58
g51
NtRp1317
(dp1318
g54
(dp1319
g62
I3
ssg63
Nsg56
(lp1320
sbasbasbasbag49
(g65
g51
NtRp1321
(dp1322
g54
(dp1323
sg63
g1248
sg56
(lp1324
g49
(g70
g51
NtRp1325
(dp1326
g54
(dp1327
g74
g75
ssg63
g1321
sg56
(lp1328
S'cmd_options'
p1329
asbag49
(g70
g51
NtRp1330
(dp1331
g54
(dp1332
g81
g82
ssg63
g1321
sg56
(lp1333
S':'
asbag49
(g70
g51
NtRp1334
(dp1335
g54
(dp1336
sg63
g1321
sg56
(lp1337
g49
(g50
g51
NtRp1338
(dp1339
g54
(dp1340
g62
I4
ssg63
g1334
sg56
(lp1341
S"<Values at 0x27b1f80: {'verbose': False, 'ip': '127.0.0.1', 'shutdown_timeout': 5, 'taskbar': False, 'nocron': False, 'pid_filename': 'httpserver.pid', 'maxthreads': None, 'softcron': False, 'server_name': 'omkara-PC', 'bpython': False, 'nogui': False, 'port': 8000, 'extcron': False, 'debuglevel': 30, 'test': None, 'folder': 'C:\\\\Users\\\\omkara\\\\Desktop\\\\web2py', 'config': '', 'import_models': False, 'winservice': '', 'shell': None, 'run': '', 'log_filename': 'httpserver.log', 'args': [''], 'socket_timeout': 5, 'ssl_ca_certificate': None, 'scheduler': None, 'profiler_filename': None, 'ssl_private_key': '', 'password': '<ask>', 'request_queue_size': 5, 'ssl_certificate': '', 'cronjob': False, 'numthreads': None, 'quiet': False, 'interfaces': None, 'minthreads': None, 'timeout': 10, 'plain': False, 'nobanner': False}>"
p1342
asbasbasbag49
(g65
g51
NtRp1343
(dp1344
g54
(dp1345
sg63
g1248
sg56
(lp1346
g49
(g70
g51
NtRp1347
(dp1348
g54
(dp1349
g74
g75
ssg63
g1343
sg56
(lp1350
S'db_sessions'
p1351
asbag49
(g70
g51
NtRp1352
(dp1353
g54
(dp1354
g81
g82
ssg63
g1343
sg56
(lp1355
S':'
asbag49
(g70
g51
NtRp1356
(dp1357
g54
(dp1358
sg63
g1343
sg56
(lp1359
g49
(g50
g51
NtRp1360
(dp1361
g54
(dp1362
g62
I4
ssg63
g1356
sg56
(lp1363
S'set([])'
p1364
asbasbasbag49
(g65
g51
NtRp1365
(dp1366
g54
(dp1367
sg63
g1248
sg56
(lp1368
g49
(g70
g51
NtRp1369
(dp1370
g54
(dp1371
g74
g75
ssg63
g1365
sg56
(lp1372
S'debugging'
p1373
asbag49
(g70
g51
NtRp1374
(dp1375
g54
(dp1376
g81
g82
ssg63
g1365
sg56
(lp1377
S':'
asbag49
(g70
g51
NtRp1378
(dp1379
g54
(dp1380
sg63
g1365
sg56
(lp1381
g49
(g50
g51
NtRp1382
(dp1383
g54
(dp1384
g62
I4
ssg63
g1378
sg56
(lp1385
g92
asbasbasbag49
(g65
g51
NtRp1386
(dp1387
g54
(dp1388
sg63
g1248
sg56
(lp1389
g49
(g70
g51
NtRp1390
(dp1391
g54
(dp1392
g74
g75
ssg63
g1386
sg56
(lp1393
S'gluon_parent'
p1394
asbag49
(g70
g51
NtRp1395
(dp1396
g54
(dp1397
g81
g82
ssg63
g1386
sg56
(lp1398
S':'
asbag49
(g70
g51
NtRp1399
(dp1400
g54
(dp1401
sg63
g1386
sg56
(lp1402
g49
(g50
g51
NtRp1403
(dp1404
g54
(dp1405
g62
I4
ssg63
g1399
sg56
(lp1406
S'C:\\Users\\omkara\\Desktop\\web2py'
p1407
asbasbasbag49
(g65
g51
NtRp1408
(dp1409
g54
(dp1410
sg63
g1248
sg56
(lp1411
g49
(g70
g51
NtRp1412
(dp1413
g54
(dp1414
g74
g75
ssg63
g1408
sg56
(lp1415
S'http_accept'
p1416
asbag49
(g70
g51
NtRp1417
(dp1418
g54
(dp1419
g81
g82
ssg63
g1408
sg56
(lp1420
S':'
asbag49
(g70
g51
NtRp1421
(dp1422
g54
(dp1423
sg63
g1408
sg56
(lp1424
g49
(g50
g51
NtRp1425
(dp1426
g54
(dp1427
g62
I4
ssg63
g1421
sg56
(lp1428
S'text/html,application/xhtml+xml,application/xml;q=0.9,*/*;q=0.8'
p1429
asbasbasbag49
(g65
g51
NtRp1430
(dp1431
g54
(dp1432
sg63
g1248
sg56
(lp1433
g49
(g70
g51
NtRp1434
(dp1435
g54
(dp1436
g74
g75
ssg63
g1430
sg56
(lp1437
S'http_accept_charset'
p1438
asbag49
(g70
g51
NtRp1439
(dp1440
g54
(dp1441
g81
g82
ssg63
g1430
sg56
(lp1442
S':'
asbag49
(g70
g51
NtRp1443
(dp1444
g54
(dp1445
sg63
g1430
sg56
(lp1446
g49
(g50
g51
NtRp1447
(dp1448
g54
(dp1449
g62
I4
ssg63
g1443
sg56
(lp1450
S'ISO-8859-1,utf-8;q=0.7,*;q=0.3'
p1451
asbasbasbag49
(g65
g51
NtRp1452
(dp1453
g54
(dp1454
sg63
g1248
sg56
(lp1455
g49
(g70
g51
NtRp1456
(dp1457
g54
(dp1458
g74
g75
ssg63
g1452
sg56
(lp1459
S'http_accept_encoding'
p1460
asbag49
(g70
g51
NtRp1461
(dp1462
g54
(dp1463
g81
g82
ssg63
g1452
sg56
(lp1464
S':'
asbag49
(g70
g51
NtRp1465
(dp1466
g54
(dp1467
sg63
g1452
sg56
(lp1468
g49
(g50
g51
NtRp1469
(dp1470
g54
(dp1471
g62
I4
ssg63
g1465
sg56
(lp1472
S'gzip,deflate,sdch'
p1473
asbasbasbag49
(g65
g51
NtRp1474
(dp1475
g54
(dp1476
sg63
g1248
sg56
(lp1477
g49
(g70
g51
NtRp1478
(dp1479
g54
(dp1480
g74
g75
ssg63
g1474
sg56
(lp1481
S'http_accept_language'
p1482
asbag49
(g70
g51
NtRp1483
(dp1484
g54
(dp1485
g81
g82
ssg63
g1474
sg56
(lp1486
S':'
asbag49
(g70
g51
NtRp1487
(dp1488
g54
(dp1489
sg63
g1474
sg56
(lp1490
g49
(g50
g51
NtRp1491
(dp1492
g54
(dp1493
g62
I4
ssg63
g1487
sg56
(lp1494
S'en-US,en;q=0.8'
p1495
asbasbasbag49
(g65
g51
NtRp1496
(dp1497
g54
(dp1498
sg63
g1248
sg56
(lp1499
g49
(g70
g51
NtRp1500
(dp1501
g54
(dp1502
g74
g75
ssg63
g1496
sg56
(lp1503
S'http_cache_control'
p1504
asbag49
(g70
g51
NtRp1505
(dp1506
g54
(dp1507
g81
g82
ssg63
g1496
sg56
(lp1508
S':'
asbag49
(g70
g51
NtRp1509
(dp1510
g54
(dp1511
sg63
g1496
sg56
(lp1512
g49
(g50
g51
NtRp1513
(dp1514
g54
(dp1515
g62
I4
ssg63
g1509
sg56
(lp1516
S'max-age=0'
p1517
asbasbasbag49
(g65
g51
NtRp1518
(dp1519
g54
(dp1520
sg63
g1248
sg56
(lp1521
g49
(g70
g51
NtRp1522
(dp1523
g54
(dp1524
g74
g75
ssg63
g1518
sg56
(lp1525
S'http_connection'
p1526
asbag49
(g70
g51
NtRp1527
(dp1528
g54
(dp1529
g81
g82
ssg63
g1518
sg56
(lp1530
S':'
asbag49
(g70
g51
NtRp1531
(dp1532
g54
(dp1533
sg63
g1518
sg56
(lp1534
g49
(g50
g51
NtRp1535
(dp1536
g54
(dp1537
g62
I4
ssg63
g1531
sg56
(lp1538
S'keep-alive'
p1539
asbasbasbag49
(g65
g51
NtRp1540
(dp1541
g54
(dp1542
sg63
g1248
sg56
(lp1543
g49
(g70
g51
NtRp1544
(dp1545
g54
(dp1546
g74
g75
ssg63
g1540
sg56
(lp1547
S'http_cookie'
p1548
asbag49
(g70
g51
NtRp1549
(dp1550
g54
(dp1551
g81
g82
ssg63
g1540
sg56
(lp1552
S':'
asbag49
(g70
g51
NtRp1553
(dp1554
g54
(dp1555
sg63
g1540
sg56
(lp1556
g49
(g50
g51
NtRp1557
(dp1558
g54
(dp1559
g62
I4
ssg63
g1553
sg56
(lp1560
S'session_id_onlinenotes_p1_=127.0.0.1-2b1a349f-aa95-4718-93d5-e7df1c85d951; session_id_slug_register_page=127.0.0.1-c2775933-22a4-419d-80e2-4c993aff45c7; session_id_welcome=127.0.0.1-a1b3016b-66b8-408b-ae8e-37231f35f16e; session_id_testapp=127.0.0.1-07eafbbd-d252-4b2b-84dc-0b0d16c3c06d; session_id_slugbarter=127.0.0.1-e6ebae72-1bbc-48a5-9458-95dbb65a4e54; session_id_admin=127.0.0.1-dcf0163e-0560-4f31-a592-e577714771db'
p1561
asbasbasbag49
(g65
g51
NtRp1562
(dp1563
g54
(dp1564
sg63
g1248
sg56
(lp1565
g49
(g70
g51
NtRp1566
(dp1567
g54
(dp1568
g74
g75
ssg63
g1562
sg56
(lp1569
S'http_host'
p1570
asbag49
(g70
g51
NtRp1571
(dp1572
g54
(dp1573
g81
g82
ssg63
g1562
sg56
(lp1574
S':'
asbag49
(g70
g51
NtRp1575
(dp1576
g54
(dp1577
sg63
g1562
sg56
(lp1578
g49
(g50
g51
NtRp1579
(dp1580
g54
(dp1581
g62
I4
ssg63
g1575
sg56
(lp1582
S'127.0.0.1:8000'
p1583
asbasbasbag49
(g65
g51
NtRp1584
(dp1585
g54
(dp1586
sg63
g1248
sg56
(lp1587
g49
(g70
g51
NtRp1588
(dp1589
g54
(dp1590
g74
g75
ssg63
g1584
sg56
(lp1591
S'http_referer'
p1592
asbag49
(g70
g51
NtRp1593
(dp1594
g54
(dp1595
g81
g82
ssg63
g1584
sg56
(lp1596
S':'
asbag49
(g70
g51
NtRp1597
(dp1598
g54
(dp1599
sg63
g1584
sg56
(lp1600
g49
(g50
g51
NtRp1601
(dp1602
g54
(dp1603
g62
I4
ssg63
g1597
sg56
(lp1604
S'http://127.0.0.1:8000/SlugBarter/default/login'
p1605
asbasbasbag49
(g65
g51
NtRp1606
(dp1607
g54
(dp1608
sg63
g1248
sg56
(lp1609
g49
(g70
g51
NtRp1610
(dp1611
g54
(dp1612
g74
g75
ssg63
g1606
sg56
(lp1613
S'http_user_agent'
p1614
asbag49
(g70
g51
NtRp1615
(dp1616
g54
(dp1617
g81
g82
ssg63
g1606
sg56
(lp1618
S':'
asbag49
(g70
g51
NtRp1619
(dp1620
g54
(dp1621
sg63
g1606
sg56
(lp1622
g49
(g50
g51
NtRp1623
(dp1624
g54
(dp1625
g62
I4
ssg63
g1619
sg56
(lp1626
S'Mozilla/5.0 (Windows NT 6.1) AppleWebKit/537.11 (KHTML, like Gecko) Chrome/23.0.1271.64 Safari/537.11'
p1627
asbasbasbag49
(g65
g51
NtRp1628
(dp1629
g54
(dp1630
sg63
g1248
sg56
(lp1631
g49
(g70
g51
NtRp1632
(dp1633
g54
(dp1634
g74
g75
ssg63
g1628
sg56
(lp1635
S'is_jython'
p1636
asbag49
(g70
g51
NtRp1637
(dp1638
g54
(dp1639
g81
g82
ssg63
g1628
sg56
(lp1640
S':'
asbag49
(g70
g51
NtRp1641
(dp1642
g54
(dp1643
sg63
g1628
sg56
(lp1644
g49
(g50
g51
NtRp1645
(dp1646
g54
(dp1647
g62
I4
ssg63
g1641
sg56
(lp1648
g92
asbasbasbag49
(g65
g51
NtRp1649
(dp1650
g54
(dp1651
sg63
g1248
sg56
(lp1652
g49
(g70
g51
NtRp1653
(dp1654
g54
(dp1655
g74
g75
ssg63
g1649
sg56
(lp1656
S'is_pypy'
p1657
asbag49
(g70
g51
NtRp1658
(dp1659
g54
(dp1660
g81
g82
ssg63
g1649
sg56
(lp1661
S':'
asbag49
(g70
g51
NtRp1662
(dp1663
g54
(dp1664
sg63
g1649
sg56
(lp1665
g49
(g50
g51
NtRp1666
(dp1667
g54
(dp1668
g62
I4
ssg63
g1662
sg56
(lp1669
g92
asbasbasbag49
(g65
g51
NtRp1670
(dp1671
g54
(dp1672
sg63
g1248
sg56
(lp1673
g49
(g70
g51
NtRp1674
(dp1675
g54
(dp1676
g74
g75
ssg63
g1670
sg56
(lp1677
S'path_info'
p1678
asbag49
(g70
g51
NtRp1679
(dp1680
g54
(dp1681
g81
g82
ssg63
g1670
sg56
(lp1682
S':'
asbag49
(g70
g51
NtRp1683
(dp1684
g54
(dp1685
sg63
g1670
sg56
(lp1686
g49
(g50
g51
NtRp1687
(dp1688
g54
(dp1689
g62
I4
ssg63
g1683
sg56
(lp1690
S'/SlugBarter/default/mypage'
p1691
asbasbasbag49
(g65
g51
NtRp1692
(dp1693
g54
(dp1694
sg63
g1248
sg56
(lp1695
g49
(g70
g51
NtRp1696
(dp1697
g54
(dp1698
g74
g75
ssg63
g1692
sg56
(lp1699
S'query_string'
p1700
asbag49
(g70
g51
NtRp1701
(dp1702
g54
(dp1703
g81
g82
ssg63
g1692
sg56
(lp1704
S':'
asbag49
(g70
g51
NtRp1705
(dp1706
g54
(dp1707
sg63
g1692
sg56
(lp1708
g49
(g50
g51
NtRp1709
(dp1710
g54
(dp1711
g62
I4
ssg63
g1705
sg56
(lp1712
S''
asbasbasbag49
(g65
g51
NtRp1713
(dp1714
g54
(dp1715
sg63
g1248
sg56
(lp1716
g49
(g70
g51
NtRp1717
(dp1718
g54
(dp1719
g74
g75
ssg63
g1713
sg56
(lp1720
S'remote_addr'
p1721
asbag49
(g70
g51
NtRp1722
(dp1723
g54
(dp1724
g81
g82
ssg63
g1713
sg56
(lp1725
S':'
asbag49
(g70
g51
NtRp1726
(dp1727
g54
(dp1728
sg63
g1713
sg56
(lp1729
g49
(g50
g51
NtRp1730
(dp1731
g54
(dp1732
g62
I4
ssg63
g1726
sg56
(lp1733
g182
asbasbasbag49
(g65
g51
NtRp1734
(dp1735
g54
(dp1736
sg63
g1248
sg56
(lp1737
g49
(g70
g51
NtRp1738
(dp1739
g54
(dp1740
g74
g75
ssg63
g1734
sg56
(lp1741
S'remote_port'
p1742
asbag49
(g70
g51
NtRp1743
(dp1744
g54
(dp1745
g81
g82
ssg63
g1734
sg56
(lp1746
S':'
asbag49
(g70
g51
NtRp1747
(dp1748
g54
(dp1749
sg63
g1734
sg56
(lp1750
g49
(g50
g51
NtRp1751
(dp1752
g54
(dp1753
g62
I4
ssg63
g1747
sg56
(lp1754
S'62545'
p1755
asbasbasbag49
(g65
g51
NtRp1756
(dp1757
g54
(dp1758
sg63
g1248
sg56
(lp1759
g49
(g70
g51
NtRp1760
(dp1761
g54
(dp1762
g74
g75
ssg63
g1756
sg56
(lp1763
S'request_method'
p1764
asbag49
(g70
g51
NtRp1765
(dp1766
g54
(dp1767
g81
g82
ssg63
g1756
sg56
(lp1768
S':'
asbag49
(g70
g51
NtRp1769
(dp1770
g54
(dp1771
sg63
g1756
sg56
(lp1772
g49
(g50
g51
NtRp1773
(dp1774
g54
(dp1775
g62
I4
ssg63
g1769
sg56
(lp1776
S'GET'
p1777
asbasbasbag49
(g65
g51
NtRp1778
(dp1779
g54
(dp1780
sg63
g1248
sg56
(lp1781
g49
(g70
g51
NtRp1782
(dp1783
g54
(dp1784
g74
g75
ssg63
g1778
sg56
(lp1785
S'script_name'
p1786
asbag49
(g70
g51
NtRp1787
(dp1788
g54
(dp1789
g81
g82
ssg63
g1778
sg56
(lp1790
S':'
asbag49
(g70
g51
NtRp1791
(dp1792
g54
(dp1793
sg63
g1778
sg56
(lp1794
g49
(g50
g51
NtRp1795
(dp1796
g54
(dp1797
g62
I4
ssg63
g1791
sg56
(lp1798
S''
asbasbasbag49
(g65
g51
NtRp1799
(dp1800
g54
(dp1801
sg63
g1248
sg56
(lp1802
g49
(g70
g51
NtRp1803
(dp1804
g54
(dp1805
g74
g75
ssg63
g1799
sg56
(lp1806
S'server_name'
p1807
asbag49
(g70
g51
NtRp1808
(dp1809
g54
(dp1810
g81
g82
ssg63
g1799
sg56
(lp1811
S':'
asbag49
(g70
g51
NtRp1812
(dp1813
g54
(dp1814
sg63
g1799
sg56
(lp1815
g49
(g50
g51
NtRp1816
(dp1817
g54
(dp1818
g62
I4
ssg63
g1812
sg56
(lp1819
S'omkara-PC'
p1820
asbasbasbag49
(g65
g51
NtRp1821
(dp1822
g54
(dp1823
sg63
g1248
sg56
(lp1824
g49
(g70
g51
NtRp1825
(dp1826
g54
(dp1827
g74
g75
ssg63
g1821
sg56
(lp1828
S'server_port'
p1829
asbag49
(g70
g51
NtRp1830
(dp1831
g54
(dp1832
g81
g82
ssg63
g1821
sg56
(lp1833
S':'
asbag49
(g70
g51
NtRp1834
(dp1835
g54
(dp1836
sg63
g1821
sg56
(lp1837
g49
(g50
g51
NtRp1838
(dp1839
g54
(dp1840
g62
I4
ssg63
g1834
sg56
(lp1841
S'8000'
p1842
asbasbasbag49
(g65
g51
NtRp1843
(dp1844
g54
(dp1845
sg63
g1248
sg56
(lp1846
g49
(g70
g51
NtRp1847
(dp1848
g54
(dp1849
g74
g75
ssg63
g1843
sg56
(lp1850
S'server_protocol'
p1851
asbag49
(g70
g51
NtRp1852
(dp1853
g54
(dp1854
g81
g82
ssg63
g1843
sg56
(lp1855
S':'
asbag49
(g70
g51
NtRp1856
(dp1857
g54
(dp1858
sg63
g1843
sg56
(lp1859
g49
(g50
g51
NtRp1860
(dp1861
g54
(dp1862
g62
I4
ssg63
g1856
sg56
(lp1863
S'HTTP/1.1'
p1864
asbasbasbag49
(g65
g51
NtRp1865
(dp1866
g54
(dp1867
sg63
g1248
sg56
(lp1868
g49
(g70
g51
NtRp1869
(dp1870
g54
(dp1871
g74
g75
ssg63
g1865
sg56
(lp1872
S'server_software'
p1873
asbag49
(g70
g51
NtRp1874
(dp1875
g54
(dp1876
g81
g82
ssg63
g1865
sg56
(lp1877
S':'
asbag49
(g70
g51
NtRp1878
(dp1879
g54
(dp1880
sg63
g1865
sg56
(lp1881
g49
(g50
g51
NtRp1882
(dp1883
g54
(dp1884
g62
I4
ssg63
g1878
sg56
(lp1885
S'Rocket 1.2.4'
p1886
asbasbasbag49
(g65
g51
NtRp1887
(dp1888
g54
(dp1889
sg63
g1248
sg56
(lp1890
g49
(g70
g51
NtRp1891
(dp1892
g54
(dp1893
g74
g75
ssg63
g1887
sg56
(lp1894
S'web2py_crontype'
p1895
asbag49
(g70
g51
NtRp1896
(dp1897
g54
(dp1898
g81
g82
ssg63
g1887
sg56
(lp1899
S':'
asbag49
(g70
g51
NtRp1900
(dp1901
g54
(dp1902
sg63
g1887
sg56
(lp1903
g49
(g50
g51
NtRp1904
(dp1905
g54
(dp1906
g62
I4
ssg63
g1900
sg56
(lp1907
S'hard'
p1908
asbasbasbag49
(g65
g51
NtRp1909
(dp1910
g54
(dp1911
sg63
g1248
sg56
(lp1912
g49
(g70
g51
NtRp1913
(dp1914
g54
(dp1915
g74
g75
ssg63
g1909
sg56
(lp1916
S'web2py_path'
p1917
asbag49
(g70
g51
NtRp1918
(dp1919
g54
(dp1920
g81
g82
ssg63
g1909
sg56
(lp1921
S':'
asbag49
(g70
g51
NtRp1922
(dp1923
g54
(dp1924
sg63
g1909
sg56
(lp1925
g49
(g50
g51
NtRp1926
(dp1927
g54
(dp1928
g62
I4
ssg63
g1922
sg56
(lp1929
g1295
asbasbasbag49
(g65
g51
NtRp1930
(dp1931
g54
(dp1932
sg63
g1248
sg56
(lp1933
g49
(g70
g51
NtRp1934
(dp1935
g54
(dp1936
g74
g75
ssg63
g1930
sg56
(lp1937
S'web2py_version'
p1938
asbag49
(g70
g51
NtRp1939
(dp1940
g54
(dp1941
g81
g82
ssg63
g1930
sg56
(lp1942
S':'
asbag49
(g70
g51
NtRp1943
(dp1944
g54
(dp1945
sg63
g1930
sg56
(lp1946
g49
(g50
g51
NtRp1947
(dp1948
g54
(dp1949
g62
I4
ssg63
g1943
sg56
(lp1950
g49
(g58
g51
NtRp1951
(dp1952
g54
(dp1953
g62
I3
ssg63
Nsg56
(lp1954
g49
(g65
g51
NtRp1955
(dp1956
g54
(dp1957
sg63
g1951
sg56
(lp1958
g49
(g70
g51
NtRp1959
(dp1960
g54
(dp1961
sg63
g1955
sg56
(lp1962
g49
(g50
g51
NtRp1963
(dp1964
g54
(dp1965
g62
I3
ssg63
g1959
sg56
(lp1966
S'1'
asbasbasbag49
(g65
g51
NtRp1967
(dp1968
g54
(dp1969
sg63
g1951
sg56
(lp1970
g49
(g70
g51
NtRp1971
(dp1972
g54
(dp1973
sg63
g1967
sg56
(lp1974
g49
(g50
g51
NtRp1975
(dp1976
g54
(dp1977
g62
I3
ssg63
g1971
sg56
(lp1978
S'99'
p1979
asbasbasbag49
(g65
g51
NtRp1980
(dp1981
g54
(dp1982
sg63
g1951
sg56
(lp1983
g49
(g70
g51
NtRp1984
(dp1985
g54
(dp1986
sg63
g1980
sg56
(lp1987
g49
(g50
g51
NtRp1988
(dp1989
g54
(dp1990
g62
I3
ssg63
g1984
sg56
(lp1991
S'7'
asbasbasbag49
(g65
g51
NtRp1992
(dp1993
g54
(dp1994
sg63
g1951
sg56
(lp1995
g49
(g70
g51
NtRp1996
(dp1997
g54
(dp1998
sg63
g1992
sg56
(lp1999
g49
(g50
g51
NtRp2000
(dp2001
g54
(dp2002
g62
I3
ssg63
g1996
sg56
(lp2003
S'datetime.datetime(2012, 3, 4, 22, 12, 8)'
p2004
asbasbasbag49
(g65
g51
NtRp2005
(dp2006
g54
(dp2007
sg63
g1951
sg56
(lp2008
g49
(g70
g51
NtRp2009
(dp2010
g54
(dp2011
sg63
g2005
sg56
(lp2012
g49
(g50
g51
NtRp2013
(dp2014
g54
(dp2015
g62
I3
ssg63
g2009
sg56
(lp2016
S'stable'
p2017
asbasbasbasbasbasbasbag49
(g65
g51
NtRp2018
(dp2019
g54
(dp2020
sg63
g1248
sg56
(lp2021
g49
(g70
g51
NtRp2022
(dp2023
g54
(dp2024
g74
g75
ssg63
g2018
sg56
(lp2025
S'wsgi_errors'
p2026
asbag49
(g70
g51
NtRp2027
(dp2028
g54
(dp2029
g81
g82
ssg63
g2018
sg56
(lp2030
S':'
asbag49
(g70
g51
NtRp2031
(dp2032
g54
(dp2033
sg63
g2018
sg56
(lp2034
g49
(g50
g51
NtRp2035
(dp2036
g54
(dp2037
g62
I4
ssg63
g2031
sg56
(lp2038
S"<open file '<stderr>', mode 'w' at 0x016000B0>"
p2039
asbasbasbag49
(g65
g51
NtRp2040
(dp2041
g54
(dp2042
sg63
g1248
sg56
(lp2043
g49
(g70
g51
NtRp2044
(dp2045
g54
(dp2046
g74
g75
ssg63
g2040
sg56
(lp2047
S'wsgi_file_wrapper'
p2048
asbag49
(g70
g51
NtRp2049
(dp2050
g54
(dp2051
g81
g82
ssg63
g2040
sg56
(lp2052
S':'
asbag49
(g70
g51
NtRp2053
(dp2054
g54
(dp2055
sg63
g2040
sg56
(lp2056
g49
(g50
g51
NtRp2057
(dp2058
g54
(dp2059
g62
I4
ssg63
g2053
sg56
(lp2060
S'<class wsgiref.util.FileWrapper at 0x025361B0>'
p2061
asbasbasbag49
(g65
g51
NtRp2062
(dp2063
g54
(dp2064
sg63
g1248
sg56
(lp2065
g49
(g70
g51
NtRp2066
(dp2067
g54
(dp2068
g74
g75
ssg63
g2062
sg56
(lp2069
S'wsgi_input'
p2070
asbag49
(g70
g51
NtRp2071
(dp2072
g54
(dp2073
g81
g82
ssg63
g2062
sg56
(lp2074
S':'
asbag49
(g70
g51
NtRp2075
(dp2076
g54
(dp2077
sg63
g2062
sg56
(lp2078
g49
(g50
g51
NtRp2079
(dp2080
g54
(dp2081
g62
I4
ssg63
g2075
sg56
(lp2082
S'<socket._fileobject object at 0x0638B930>'
p2083
asbasbasbag49
(g65
g51
NtRp2084
(dp2085
g54
(dp2086
sg63
g1248
sg56
(lp2087
g49
(g70
g51
NtRp2088
(dp2089
g54
(dp2090
g74
g75
ssg63
g2084
sg56
(lp2091
S'wsgi_multiprocess'
p2092
asbag49
(g70
g51
NtRp2093
(dp2094
g54
(dp2095
g81
g82
ssg63
g2084
sg56
(lp2096
S':'
asbag49
(g70
g51
NtRp2097
(dp2098
g54
(dp2099
sg63
g2084
sg56
(lp2100
g49
(g50
g51
NtRp2101
(dp2102
g54
(dp2103
g62
I4
ssg63
g2097
sg56
(lp2104
g92
asbasbasbag49
(g65
g51
NtRp2105
(dp2106
g54
(dp2107
sg63
g1248
sg56
(lp2108
g49
(g70
g51
NtRp2109
(dp2110
g54
(dp2111
g74
g75
ssg63
g2105
sg56
(lp2112
S'wsgi_multithread'
p2113
asbag49
(g70
g51
NtRp2114
(dp2115
g54
(dp2116
g81
g82
ssg63
g2105
sg56
(lp2117
S':'
asbag49
(g70
g51
NtRp2118
(dp2119
g54
(dp2120
sg63
g2105
sg56
(lp2121
g49
(g50
g51
NtRp2122
(dp2123
g54
(dp2124
g62
I4
ssg63
g2118
sg56
(lp2125
S'True'
p2126
asbasbasbag49
(g65
g51
NtRp2127
(dp2128
g54
(dp2129
sg63
g1248
sg56
(lp2130
g49
(g70
g51
NtRp2131
(dp2132
g54
(dp2133
g74
g75
ssg63
g2127
sg56
(lp2134
S'wsgi_run_once'
p2135
asbag49
(g70
g51
NtRp2136
(dp2137
g54
(dp2138
g81
g82
ssg63
g2127
sg56
(lp2139
S':'
asbag49
(g70
g51
NtRp2140
(dp2141
g54
(dp2142
sg63
g2127
sg56
(lp2143
g49
(g50
g51
NtRp2144
(dp2145
g54
(dp2146
g62
I4
ssg63
g2140
sg56
(lp2147
g92
asbasbasbag49
(g65
g51
NtRp2148
(dp2149
g54
(dp2150
sg63
g1248
sg56
(lp2151
g49
(g70
g51
NtRp2152
(dp2153
g54
(dp2154
g74
g75
ssg63
g2148
sg56
(lp2155
S'wsgi_url_scheme'
p2156
asbag49
(g70
g51
NtRp2157
(dp2158
g54
(dp2159
g81
g82
ssg63
g2148
sg56
(lp2160
S':'
asbag49
(g70
g51
NtRp2161
(dp2162
g54
(dp2163
sg63
g2148
sg56
(lp2164
g49
(g50
g51
NtRp2165
(dp2166
g54
(dp2167
g62
I4
ssg63
g2161
sg56
(lp2168
S'http'
p2169
asbasbasbag49
(g65
g51
NtRp2170
(dp2171
g54
(dp2172
sg63
g1248
sg56
(lp2173
g49
(g70
g51
NtRp2174
(dp2175
g54
(dp2176
g74
g75
ssg63
g2170
sg56
(lp2177
S'wsgi_version'
p2178
asbag49
(g70
g51
NtRp2179
(dp2180
g54
(dp2181
g81
g82
ssg63
g2170
sg56
(lp2182
S':'
asbag49
(g70
g51
NtRp2183
(dp2184
g54
(dp2185
sg63
g2170
sg56
(lp2186
g49
(g50
g51
NtRp2187
(dp2188
g54
(dp2189
g62
I4
ssg63
g2183
sg56
(lp2190
g49
(g58
g51
NtRp2191
(dp2192
g54
(dp2193
g62
I3
ssg63
Nsg56
(lp2194
g49
(g65
g51
NtRp2195
(dp2196
g54
(dp2197
sg63
g2191
sg56
(lp2198
g49
(g70
g51
NtRp2199
(dp2200
g54
(dp2201
sg63
g2195
sg56
(lp2202
g49
(g50
g51
NtRp2203
(dp2204
g54
(dp2205
g62
I3
ssg63
g2199
sg56
(lp2206
S'1'
asbasbasbag49
(g65
g51
NtRp2207
(dp2208
g54
(dp2209
sg63
g2191
sg56
(lp2210
g49
(g70
g51
NtRp2211
(dp2212
g54
(dp2213
sg63
g2207
sg56
(lp2214
g49
(g50
g51
NtRp2215
(dp2216
g54
(dp2217
g62
I3
ssg63
g2211
sg56
(lp2218
S'0'
asbasbasbasbasbasbasbasbasbasbasbag49
(g65
g51
NtRp2219
(dp2220
g54
(dp2221
sg63
g59
sg56
(lp2222
g49
(g70
g51
NtRp2223
(dp2224
g54
(dp2225
g74
g75
ssg63
g2219
sg56
(lp2226
S'extension'
p2227
asbag49
(g70
g51
NtRp2228
(dp2229
g54
(dp2230
g81
g82
ssg63
g2219
sg56
(lp2231
S':'
asbag49
(g70
g51
NtRp2232
(dp2233
g54
(dp2234
sg63
g2219
sg56
(lp2235
g49
(g50
g51
NtRp2236
(dp2237
g54
(dp2238
g62
I5
ssg63
g2232
sg56
(lp2239
S'html'
p2240
asbasbasbag49
(g65
g51
NtRp2241
(dp2242
g54
(dp2243
sg63
g59
sg56
(lp2244
g49
(g70
g51
NtRp2245
(dp2246
g54
(dp2247
g74
g75
ssg63
g2241
sg56
(lp2248
S'folder'
p2249
asbag49
(g70
g51
NtRp2250
(dp2251
g54
(dp2252
g81
g82
ssg63
g2241
sg56
(lp2253
S':'
asbag49
(g70
g51
NtRp2254
(dp2255
g54
(dp2256
sg63
g2241
sg56
(lp2257
g49
(g50
g51
NtRp2258
(dp2259
g54
(dp2260
g62
I5
ssg63
g2254
sg56
(lp2261
S'C:\\Users\\omkara\\Desktop\\web2py\\applications\\SlugBarter\\'
p2262
asbasbasbag49
(g65
g51
NtRp2263
(dp2264
g54
(dp2265
sg63
g59
sg56
(lp2266
g49
(g70
g51
NtRp2267
(dp2268
g54
(dp2269
g74
g75
ssg63
g2263
sg56
(lp2270
S'function'
p2271
asbag49
(g70
g51
NtRp2272
(dp2273
g54
(dp2274
g81
g82
ssg63
g2263
sg56
(lp2275
S':'
asbag49
(g70
g51
NtRp2276
(dp2277
g54
(dp2278
sg63
g2263
sg56
(lp2279
g49
(g50
g51
NtRp2280
(dp2281
g54
(dp2282
g62
I5
ssg63
g2276
sg56
(lp2283
S'mypage'
p2284
asbasbasbag49
(g65
g51
NtRp2285
(dp2286
g54
(dp2287
sg63
g59
sg56
(lp2288
g49
(g70
g51
NtRp2289
(dp2290
g54
(dp2291
g74
g75
ssg63
g2285
sg56
(lp2292
S'get_vars'
p2293
asbag49
(g70
g51
NtRp2294
(dp2295
g54
(dp2296
g81
g82
ssg63
g2285
sg56
(lp2297
S':'
asbag49
(g70
g51
NtRp2298
(dp2299
g54
(dp2300
sg63
g2285
sg56
(lp2301
g49
(g50
g51
NtRp2302
(dp2303
g54
(dp2304
g62
I5
ssg63
g2298
sg56
(lp2305
g49
(g58
g51
NtRp2306
(dp2307
g54
(dp2308
g62
I4
ssg63
Nsg56
(lp2309
sbasbasbasbag49
(g65
g51
NtRp2310
(dp2311
g54
(dp2312
sg63
g59
sg56
(lp2313
g49
(g70
g51
NtRp2314
(dp2315
g54
(dp2316
g74
g75
ssg63
g2310
sg56
(lp2317
S'global_settings'
p2318
asbag49
(g70
g51
NtRp2319
(dp2320
g54
(dp2321
g81
g82
ssg63
g2310
sg56
(lp2322
S':'
asbag49
(g70
g51
NtRp2323
(dp2324
g54
(dp2325
sg63
g2310
sg56
(lp2326
g49
(g50
g51
NtRp2327
(dp2328
g54
(dp2329
g62
I5
ssg63
g2323
sg56
(lp2330
g49
(g58
g51
NtRp2331
(dp2332
g54
(dp2333
g62
I4
ssg63
Nsg56
(lp2334
g49
(g65
g51
NtRp2335
(dp2336
g54
(dp2337
sg63
g2331
sg56
(lp2338
g49
(g70
g51
NtRp2339
(dp2340
g54
(dp2341
g74
g75
ssg63
g2335
sg56
(lp2342
g1260
asbag49
(g70
g51
NtRp2343
(dp2344
g54
(dp2345
g81
g82
ssg63
g2335
sg56
(lp2346
S':'
asbag49
(g70
g51
NtRp2347
(dp2348
g54
(dp2349
sg63
g2335
sg56
(lp2350
g49
(g50
g51
NtRp2351
(dp2352
g54
(dp2353
g62
I4
ssg63
g2347
sg56
(lp2354
S"set(['C:\\\\Users\\\\omkara\\\\Desktop\\\\web2py\\\\applications\\\\newA\\\\', 'C:\\\\Users\\\\omkara\\\\Desktop\\\\web2py\\\\applications\\\\slug_register_page\\\\', 'C:\\\\Users\\\\omkara\\\\Desktop\\\\web2py\\\\applications\\\\admin\\\\', 'C:\\\\Users\\\\omkara\\\\Desktop\\\\web2py\\\\applications\\\\welcome\\\\', 'C:\\\\Users\\\\omkara\\\\Desktop\\\\web2py\\\\applications\\\\slug_register\\\\', 'C:\\\\Users\\\\omkara\\\\Desktop\\\\web2py\\\\applications\\\\SlugBarter\\\\', 'C:\\\\Users\\\\omkara\\\\Desktop\\\\web2py\\\\applications\\\\testApp\\\\'])"
p2355
asbasbasbag49
(g65
g51
NtRp2356
(dp2357
g54
(dp2358
sg63
g2331
sg56
(lp2359
g49
(g70
g51
NtRp2360
(dp2361
g54
(dp2362
g74
g75
ssg63
g2356
sg56
(lp2363
g1282
asbag49
(g70
g51
NtRp2364
(dp2365
g54
(dp2366
g81
g82
ssg63
g2356
sg56
(lp2367
S':'
asbag49
(g70
g51
NtRp2368
(dp2369
g54
(dp2370
sg63
g2356
sg56
(lp2371
g49
(g50
g51
NtRp2372
(dp2373
g54
(dp2374
g62
I4
ssg63
g2368
sg56
(lp2375
g1295
asbasbasbag49
(g65
g51
NtRp2376
(dp2377
g54
(dp2378
sg63
g2331
sg56
(lp2379
g49
(g70
g51
NtRp2380
(dp2381
g54
(dp2382
g74
g75
ssg63
g2376
sg56
(lp2383
g1304
asbag49
(g70
g51
NtRp2384
(dp2385
g54
(dp2386
g81
g82
ssg63
g2376
sg56
(lp2387
S':'
asbag49
(g70
g51
NtRp2388
(dp2389
g54
(dp2390
sg63
g2376
sg56
(lp2391
g49
(g50
g51
NtRp2392
(dp2393
g54
(dp2394
g62
I4
ssg63
g2388
sg56
(lp2395
g49
(g58
g51
NtRp2396
(dp2397
g54
(dp2398
g62
I3
ssg63
Nsg56
(lp2399
sbasbasbasbag49
(g65
g51
NtRp2400
(dp2401
g54
(dp2402
sg63
g2331
sg56
(lp2403
g49
(g70
g51
NtRp2404
(dp2405
g54
(dp2406
g74
g75
ssg63
g2400
sg56
(lp2407
g1329
asbag49
(g70
g51
NtRp2408
(dp2409
g54
(dp2410
g81
g82
ssg63
g2400
sg56
(lp2411
S':'
asbag49
(g70
g51
NtRp2412
(dp2413
g54
(dp2414
sg63
g2400
sg56
(lp2415
g49
(g50
g51
NtRp2416
(dp2417
g54
(dp2418
g62
I4
ssg63
g2412
sg56
(lp2419
S"<Values at 0x27b1f80: {'verbose': False, 'ip': '127.0.0.1', 'shutdown_timeout': 5, 'taskbar': False, 'nocron': False, 'pid_filename': 'httpserver.pid', 'maxthreads': None, 'softcron': False, 'server_name': 'omkara-PC', 'bpython': False, 'nogui': False, 'port': 8000, 'extcron': False, 'debuglevel': 30, 'test': None, 'folder': 'C:\\\\Users\\\\omkara\\\\Desktop\\\\web2py', 'config': '', 'import_models': False, 'winservice': '', 'shell': None, 'run': '', 'log_filename': 'httpserver.log', 'args': [''], 'socket_timeout': 5, 'ssl_ca_certificate': None, 'scheduler': None, 'profiler_filename': None, 'ssl_private_key': '', 'password': '<ask>', 'request_queue_size': 5, 'ssl_certificate': '', 'cronjob': False, 'numthreads': None, 'quiet': False, 'interfaces': None, 'minthreads': None, 'timeout': 10, 'plain': False, 'nobanner': False}>"
p2420
asbasbasbag49
(g65
g51
NtRp2421
(dp2422
g54
(dp2423
sg63
g2331
sg56
(lp2424
g49
(g70
g51
NtRp2425
(dp2426
g54
(dp2427
g74
g75
ssg63
g2421
sg56
(lp2428
g1351
asbag49
(g70
g51
NtRp2429
(dp2430
g54
(dp2431
g81
g82
ssg63
g2421
sg56
(lp2432
S':'
asbag49
(g70
g51
NtRp2433
(dp2434
g54
(dp2435
sg63
g2421
sg56
(lp2436
g49
(g50
g51
NtRp2437
(dp2438
g54
(dp2439
g62
I4
ssg63
g2433
sg56
(lp2440
S'set([])'
p2441
asbasbasbag49
(g65
g51
NtRp2442
(dp2443
g54
(dp2444
sg63
g2331
sg56
(lp2445
g49
(g70
g51
NtRp2446
(dp2447
g54
(dp2448
g74
g75
ssg63
g2442
sg56
(lp2449
g1373
asbag49
(g70
g51
NtRp2450
(dp2451
g54
(dp2452
g81
g82
ssg63
g2442
sg56
(lp2453
S':'
asbag49
(g70
g51
NtRp2454
(dp2455
g54
(dp2456
sg63
g2442
sg56
(lp2457
g49
(g50
g51
NtRp2458
(dp2459
g54
(dp2460
g62
I4
ssg63
g2454
sg56
(lp2461
g92
asbasbasbag49
(g65
g51
NtRp2462
(dp2463
g54
(dp2464
sg63
g2331
sg56
(lp2465
g49
(g70
g51
NtRp2466
(dp2467
g54
(dp2468
g74
g75
ssg63
g2462
sg56
(lp2469
g1394
asbag49
(g70
g51
NtRp2470
(dp2471
g54
(dp2472
g81
g82
ssg63
g2462
sg56
(lp2473
S':'
asbag49
(g70
g51
NtRp2474
(dp2475
g54
(dp2476
sg63
g2462
sg56
(lp2477
g49
(g50
g51
NtRp2478
(dp2479
g54
(dp2480
g62
I4
ssg63
g2474
sg56
(lp2481
g1407
asbasbasbag49
(g65
g51
NtRp2482
(dp2483
g54
(dp2484
sg63
g2331
sg56
(lp2485
g49
(g70
g51
NtRp2486
(dp2487
g54
(dp2488
g74
g75
ssg63
g2482
sg56
(lp2489
g1636
asbag49
(g70
g51
NtRp2490
(dp2491
g54
(dp2492
g81
g82
ssg63
g2482
sg56
(lp2493
S':'
asbag49
(g70
g51
NtRp2494
(dp2495
g54
(dp2496
sg63
g2482
sg56
(lp2497
g49
(g50
g51
NtRp2498
(dp2499
g54
(dp2500
g62
I4
ssg63
g2494
sg56
(lp2501
g92
asbasbasbag49
(g65
g51
NtRp2502
(dp2503
g54
(dp2504
sg63
g2331
sg56
(lp2505
g49
(g70
g51
NtRp2506
(dp2507
g54
(dp2508
g74
g75
ssg63
g2502
sg56
(lp2509
g1657
asbag49
(g70
g51
NtRp2510
(dp2511
g54
(dp2512
g81
g82
ssg63
g2502
sg56
(lp2513
S':'
asbag49
(g70
g51
NtRp2514
(dp2515
g54
(dp2516
sg63
g2502
sg56
(lp2517
g49
(g50
g51
NtRp2518
(dp2519
g54
(dp2520
g62
I4
ssg63
g2514
sg56
(lp2521
g92
asbasbasbag49
(g65
g51
NtRp2522
(dp2523
g54
(dp2524
sg63
g2331
sg56
(lp2525
g49
(g70
g51
NtRp2526
(dp2527
g54
(dp2528
g74
g75
ssg63
g2522
sg56
(lp2529
g1895
asbag49
(g70
g51
NtRp2530
(dp2531
g54
(dp2532
g81
g82
ssg63
g2522
sg56
(lp2533
S':'
asbag49
(g70
g51
NtRp2534
(dp2535
g54
(dp2536
sg63
g2522
sg56
(lp2537
g49
(g50
g51
NtRp2538
(dp2539
g54
(dp2540
g62
I4
ssg63
g2534
sg56
(lp2541
g1908
asbasbasbag49
(g65
g51
NtRp2542
(dp2543
g54
(dp2544
sg63
g2331
sg56
(lp2545
g49
(g70
g51
NtRp2546
(dp2547
g54
(dp2548
g74
g75
ssg63
g2542
sg56
(lp2549
g1938
asbag49
(g70
g51
NtRp2550
(dp2551
g54
(dp2552
g81
g82
ssg63
g2542
sg56
(lp2553
S':'
asbag49
(g70
g51
NtRp2554
(dp2555
g54
(dp2556
sg63
g2542
sg56
(lp2557
g49
(g50
g51
NtRp2558
(dp2559
g54
(dp2560
g62
I4
ssg63
g2554
sg56
(lp2561
g49
(g58
g51
NtRp2562
(dp2563
g54
(dp2564
g62
I3
ssg63
Nsg56
(lp2565
g49
(g65
g51
NtRp2566
(dp2567
g54
(dp2568
sg63
g2562
sg56
(lp2569
g49
(g70
g51
NtRp2570
(dp2571
g54
(dp2572
sg63
g2566
sg56
(lp2573
g49
(g50
g51
NtRp2574
(dp2575
g54
(dp2576
g62
I3
ssg63
g2570
sg56
(lp2577
S'1'
asbasbasbag49
(g65
g51
NtRp2578
(dp2579
g54
(dp2580
sg63
g2562
sg56
(lp2581
g49
(g70
g51
NtRp2582
(dp2583
g54
(dp2584
sg63
g2578
sg56
(lp2585
g49
(g50
g51
NtRp2586
(dp2587
g54
(dp2588
g62
I3
ssg63
g2582
sg56
(lp2589
S'99'
p2590
asbasbasbag49
(g65
g51
NtRp2591
(dp2592
g54
(dp2593
sg63
g2562
sg56
(lp2594
g49
(g70
g51
NtRp2595
(dp2596
g54
(dp2597
sg63
g2591
sg56
(lp2598
g49
(g50
g51
NtRp2599
(dp2600
g54
(dp2601
g62
I3
ssg63
g2595
sg56
(lp2602
S'7'
asbasbasbag49
(g65
g51
NtRp2603
(dp2604
g54
(dp2605
sg63
g2562
sg56
(lp2606
g49
(g70
g51
NtRp2607
(dp2608
g54
(dp2609
sg63
g2603
sg56
(lp2610
g49
(g50
g51
NtRp2611
(dp2612
g54
(dp2613
g62
I3
ssg63
g2607
sg56
(lp2614
S'datetime.datetime(2012, 3, 4, 22, 12, 8)'
p2615
asbasbasbag49
(g65
g51
NtRp2616
(dp2617
g54
(dp2618
sg63
g2562
sg56
(lp2619
g49
(g70
g51
NtRp2620
(dp2621
g54
(dp2622
sg63
g2616
sg56
(lp2623
g49
(g50
g51
NtRp2624
(dp2625
g54
(dp2626
g62
I3
ssg63
g2620
sg56
(lp2627
g2017
asbasbasbasbasbasbasbasbasbasbasbag49
(g65
g51
NtRp2628
(dp2629
g54
(dp2630
sg63
g59
sg56
(lp2631
g49
(g70
g51
NtRp2632
(dp2633
g54
(dp2634
g74
g75
ssg63
g2628
sg56
(lp2635
S'is_https'
p2636
asbag49
(g70
g51
NtRp2637
(dp2638
g54
(dp2639
g81
g82
ssg63
g2628
sg56
(lp2640
S':'
asbag49
(g70
g51
NtRp2641
(dp2642
g54
(dp2643
sg63
g2628
sg56
(lp2644
g49
(g50
g51
NtRp2645
(dp2646
g54
(dp2647
g62
I5
ssg63
g2641
sg56
(lp2648
g92
asbasbasbag49
(g65
g51
NtRp2649
(dp2650
g54
(dp2651
sg63
g59
sg56
(lp2652
g49
(g70
g51
NtRp2653
(dp2654
g54
(dp2655
g74
g75
ssg63
g2649
sg56
(lp2656
S'is_local'
p2657
asbag49
(g70
g51
NtRp2658
(dp2659
g54
(dp2660
g81
g82
ssg63
g2649
sg56
(lp2661
S':'
asbag49
(g70
g51
NtRp2662
(dp2663
g54
(dp2664
sg63
g2649
sg56
(lp2665
g49
(g50
g51
NtRp2666
(dp2667
g54
(dp2668
g62
I5
ssg63
g2662
sg56
(lp2669
g2126
asbasbasbag49
(g65
g51
NtRp2670
(dp2671
g54
(dp2672
sg63
g59
sg56
(lp2673
g49
(g70
g51
NtRp2674
(dp2675
g54
(dp2676
g74
g75
ssg63
g2670
sg56
(lp2677
S'is_restful'
p2678
asbag49
(g70
g51
NtRp2679
(dp2680
g54
(dp2681
g81
g82
ssg63
g2670
sg56
(lp2682
S':'
asbag49
(g70
g51
NtRp2683
(dp2684
g54
(dp2685
sg63
g2670
sg56
(lp2686
g49
(g50
g51
NtRp2687
(dp2688
g54
(dp2689
g62
I5
ssg63
g2683
sg56
(lp2690
g92
asbasbasbag49
(g65
g51
NtRp2691
(dp2692
g54
(dp2693
sg63
g59
sg56
(lp2694
g49
(g70
g51
NtRp2695
(dp2696
g54
(dp2697
g74
g75
ssg63
g2691
sg56
(lp2698
S'now'
p2699
asbag49
(g70
g51
NtRp2700
(dp2701
g54
(dp2702
g81
g82
ssg63
g2691
sg56
(lp2703
S':'
asbag49
(g70
g51
NtRp2704
(dp2705
g54
(dp2706
sg63
g2691
sg56
(lp2707
g49
(g50
g51
NtRp2708
(dp2709
g54
(dp2710
g62
I5
ssg63
g2704
sg56
(lp2711
S'datetime.datetime(2012, 11, 11, 15, 8, 19, 102000)'
p2712
asbasbasbag49
(g65
g51
NtRp2713
(dp2714
g54
(dp2715
sg63
g59
sg56
(lp2716
g49
(g70
g51
NtRp2717
(dp2718
g54
(dp2719
g74
g75
ssg63
g2713
sg56
(lp2720
S'post_vars'
p2721
asbag49
(g70
g51
NtRp2722
(dp2723
g54
(dp2724
g81
g82
ssg63
g2713
sg56
(lp2725
S':'
asbag49
(g70
g51
NtRp2726
(dp2727
g54
(dp2728
sg63
g2713
sg56
(lp2729
g49
(g50
g51
NtRp2730
(dp2731
g54
(dp2732
g62
I5
ssg63
g2726
sg56
(lp2733
g49
(g58
g51
NtRp2734
(dp2735
g54
(dp2736
g62
I4
ssg63
Nsg56
(lp2737
sbasbasbasbag49
(g65
g51
NtRp2738
(dp2739
g54
(dp2740
sg63
g59
sg56
(lp2741
g49
(g70
g51
NtRp2742
(dp2743
g54
(dp2744
g74
g75
ssg63
g2738
sg56
(lp2745
S'url'
p2746
asbag49
(g70
g51
NtRp2747
(dp2748
g54
(dp2749
g81
g82
ssg63
g2738
sg56
(lp2750
S':'
asbag49
(g70
g51
NtRp2751
(dp2752
g54
(dp2753
sg63
g2738
sg56
(lp2754
g49
(g50
g51
NtRp2755
(dp2756
g54
(dp2757
g62
I5
ssg63
g2751
sg56
(lp2758
S'/SlugBarter/default/mypage'
p2759
asbasbasbag49
(g65
g51
NtRp2760
(dp2761
g54
(dp2762
sg63
g59
sg56
(lp2763
g49
(g70
g51
NtRp2764
(dp2765
g54
(dp2766
g74
g75
ssg63
g2760
sg56
(lp2767
S'utcnow'
p2768
asbag49
(g70
g51
NtRp2769
(dp2770
g54
(dp2771
g81
g82
ssg63
g2760
sg56
(lp2772
S':'
asbag49
(g70
g51
NtRp2773
(dp2774
g54
(dp2775
sg63
g2760
sg56
(lp2776
g49
(g50
g51
NtRp2777
(dp2778
g54
(dp2779
g62
I5
ssg63
g2773
sg56
(lp2780
S'datetime.datetime(2012, 11, 11, 23, 8, 19, 103000)'
p2781
asbasbasbag49
(g65
g51
NtRp2782
(dp2783
g54
(dp2784
sg63
g59
sg56
(lp2785
g49
(g70
g51
NtRp2786
(dp2787
g54
(dp2788
g74
g75
ssg63
g2782
sg56
(lp2789
S'uuid'
p2790
asbag49
(g70
g51
NtRp2791
(dp2792
g54
(dp2793
g81
g82
ssg63
g2782
sg56
(lp2794
S':'
asbag49
(g70
g51
NtRp2795
(dp2796
g54
(dp2797
sg63
g2782
sg56
(lp2798
g49
(g50
g51
NtRp2799
(dp2800
g54
(dp2801
g62
I5
ssg63
g2795
sg56
(lp2802
S'SlugBarter/127.0.0.1.2012-11-11.15-08-19.2a4ee565-d0d5-4a27-b332-0858ab184dfa'
p2803
asbasbasbag49
(g65
g51
NtRp2804
(dp2805
g54
(dp2806
sg63
g59
sg56
(lp2807
g49
(g70
g51
NtRp2808
(dp2809
g54
(dp2810
g74
g75
ssg63
g2804
sg56
(lp2811
S'vars'
p2812
asbag49
(g70
g51
NtRp2813
(dp2814
g54
(dp2815
g81
g82
ssg63
g2804
sg56
(lp2816
S':'
asbag49
(g70
g51
NtRp2817
(dp2818
g54
(dp2819
sg63
g2804
sg56
(lp2820
g49
(g50
g51
NtRp2821
(dp2822
g54
(dp2823
g62
I5
ssg63
g2817
sg56
(lp2824
g49
(g58
g51
NtRp2825
(dp2826
g54
(dp2827
g62
I4
ssg63
Nsg56
(lp2828
sbasbasbasbag49
(g65
g51
NtRp2829
(dp2830
g54
(dp2831
sg63
g59
sg56
(lp2832
g49
(g70
g51
NtRp2833
(dp2834
g54
(dp2835
g74
g75
ssg63
g2829
sg56
(lp2836
S'wsgi'
p2837
asbag49
(g70
g51
NtRp2838
(dp2839
g54
(dp2840
g81
g82
ssg63
g2829
sg56
(lp2841
S':'
asbag49
(g70
g51
NtRp2842
(dp2843
g54
(dp2844
sg63
g2829
sg56
(lp2845
g49
(g50
g51
NtRp2846
(dp2847
g54
(dp2848
g62
I5
ssg63
g2842
sg56
(lp2849
g49
(g58
g51
NtRp2850
(dp2851
g54
(dp2852
g62
I4
ssg63
Nsg56
(lp2853
g49
(g65
g51
NtRp2854
(dp2855
g54
(dp2856
sg63
g2850
sg56
(lp2857
g49
(g70
g51
NtRp2858
(dp2859
g54
(dp2860
g74
g75
ssg63
g2854
sg56
(lp2861
S'environ'
p2862
asbag49
(g70
g51
NtRp2863
(dp2864
g54
(dp2865
g81
g82
ssg63
g2854
sg56
(lp2866
S':'
asbag49
(g70
g51
NtRp2867
(dp2868
g54
(dp2869
sg63
g2854
sg56
(lp2870
g49
(g50
g51
NtRp2871
(dp2872
g54
(dp2873
g62
I4
ssg63
g2867
sg56
(lp2874
g49
(g58
g51
NtRp2875
(dp2876
g54
(dp2877
g62
I3
ssg63
Nsg56
(lp2878
g49
(g65
g51
NtRp2879
(dp2880
g54
(dp2881
sg63
g2875
sg56
(lp2882
g49
(g70
g51
NtRp2883
(dp2884
g54
(dp2885
g74
g75
ssg63
g2879
sg56
(lp2886
S'HTTP_ACCEPT'
p2887
asbag49
(g70
g51
NtRp2888
(dp2889
g54
(dp2890
g81
g82
ssg63
g2879
sg56
(lp2891
S':'
asbag49
(g70
g51
NtRp2892
(dp2893
g54
(dp2894
sg63
g2879
sg56
(lp2895
g49
(g50
g51
NtRp2896
(dp2897
g54
(dp2898
g62
I3
ssg63
g2892
sg56
(lp2899
g1429
asbasbasbag49
(g65
g51
NtRp2900
(dp2901
g54
(dp2902
sg63
g2875
sg56
(lp2903
g49
(g70
g51
NtRp2904
(dp2905
g54
(dp2906
g74
g75
ssg63
g2900
sg56
(lp2907
S'HTTP_ACCEPT_CHARSET'
p2908
asbag49
(g70
g51
NtRp2909
(dp2910
g54
(dp2911
g81
g82
ssg63
g2900
sg56
(lp2912
S':'
asbag49
(g70
g51
NtRp2913
(dp2914
g54
(dp2915
sg63
g2900
sg56
(lp2916
g49
(g50
g51
NtRp2917
(dp2918
g54
(dp2919
g62
I3
ssg63
g2913
sg56
(lp2920
g1451
asbasbasbag49
(g65
g51
NtRp2921
(dp2922
g54
(dp2923
sg63
g2875
sg56
(lp2924
g49
(g70
g51
NtRp2925
(dp2926
g54
(dp2927
g74
g75
ssg63
g2921
sg56
(lp2928
S'HTTP_ACCEPT_ENCODING'
p2929
asbag49
(g70
g51
NtRp2930
(dp2931
g54
(dp2932
g81
g82
ssg63
g2921
sg56
(lp2933
S':'
asbag49
(g70
g51
NtRp2934
(dp2935
g54
(dp2936
sg63
g2921
sg56
(lp2937
g49
(g50
g51
NtRp2938
(dp2939
g54
(dp2940
g62
I3
ssg63
g2934
sg56
(lp2941
g1473
asbasbasbag49
(g65
g51
NtRp2942
(dp2943
g54
(dp2944
sg63
g2875
sg56
(lp2945
g49
(g70
g51
NtRp2946
(dp2947
g54
(dp2948
g74
g75
ssg63
g2942
sg56
(lp2949
S'HTTP_ACCEPT_LANGUAGE'
p2950
asbag49
(g70
g51
NtRp2951
(dp2952
g54
(dp2953
g81
g82
ssg63
g2942
sg56
(lp2954
S':'
asbag49
(g70
g51
NtRp2955
(dp2956
g54
(dp2957
sg63
g2942
sg56
(lp2958
g49
(g50
g51
NtRp2959
(dp2960
g54
(dp2961
g62
I3
ssg63
g2955
sg56
(lp2962
g1495
asbasbasbag49
(g65
g51
NtRp2963
(dp2964
g54
(dp2965
sg63
g2875
sg56
(lp2966
g49
(g70
g51
NtRp2967
(dp2968
g54
(dp2969
g74
g75
ssg63
g2963
sg56
(lp2970
S'HTTP_CACHE_CONTROL'
p2971
asbag49
(g70
g51
NtRp2972
(dp2973
g54
(dp2974
g81
g82
ssg63
g2963
sg56
(lp2975
S':'
asbag49
(g70
g51
NtRp2976
(dp2977
g54
(dp2978
sg63
g2963
sg56
(lp2979
g49
(g50
g51
NtRp2980
(dp2981
g54
(dp2982
g62
I3
ssg63
g2976
sg56
(lp2983
g1517
asbasbasbag49
(g65
g51
NtRp2984
(dp2985
g54
(dp2986
sg63
g2875
sg56
(lp2987
g49
(g70
g51
NtRp2988
(dp2989
g54
(dp2990
g74
g75
ssg63
g2984
sg56
(lp2991
S'HTTP_CONNECTION'
p2992
asbag49
(g70
g51
NtRp2993
(dp2994
g54
(dp2995
g81
g82
ssg63
g2984
sg56
(lp2996
S':'
asbag49
(g70
g51
NtRp2997
(dp2998
g54
(dp2999
sg63
g2984
sg56
(lp3000
g49
(g50
g51
NtRp3001
(dp3002
g54
(dp3003
g62
I3
ssg63
g2997
sg56
(lp3004
g1539
asbasbasbag49
(g65
g51
NtRp3005
(dp3006
g54
(dp3007
sg63
g2875
sg56
(lp3008
g49
(g70
g51
NtRp3009
(dp3010
g54
(dp3011
g74
g75
ssg63
g3005
sg56
(lp3012
S'HTTP_COOKIE'
p3013
asbag49
(g70
g51
NtRp3014
(dp3015
g54
(dp3016
g81
g82
ssg63
g3005
sg56
(lp3017
S':'
asbag49
(g70
g51
NtRp3018
(dp3019
g54
(dp3020
sg63
g3005
sg56
(lp3021
g49
(g50
g51
NtRp3022
(dp3023
g54
(dp3024
g62
I3
ssg63
g3018
sg56
(lp3025
g1561
asbasbasbag49
(g65
g51
NtRp3026
(dp3027
g54
(dp3028
sg63
g2875
sg56
(lp3029
g49
(g70
g51
NtRp3030
(dp3031
g54
(dp3032
g74
g75
ssg63
g3026
sg56
(lp3033
S'HTTP_HOST'
p3034
asbag49
(g70
g51
NtRp3035
(dp3036
g54
(dp3037
g81
g82
ssg63
g3026
sg56
(lp3038
S':'
asbag49
(g70
g51
NtRp3039
(dp3040
g54
(dp3041
sg63
g3026
sg56
(lp3042
g49
(g50
g51
NtRp3043
(dp3044
g54
(dp3045
g62
I3
ssg63
g3039
sg56
(lp3046
g1583
asbasbasbag49
(g65
g51
NtRp3047
(dp3048
g54
(dp3049
sg63
g2875
sg56
(lp3050
g49
(g70
g51
NtRp3051
(dp3052
g54
(dp3053
g74
g75
ssg63
g3047
sg56
(lp3054
S'HTTP_REFERER'
p3055
asbag49
(g70
g51
NtRp3056
(dp3057
g54
(dp3058
g81
g82
ssg63
g3047
sg56
(lp3059
S':'
asbag49
(g70
g51
NtRp3060
(dp3061
g54
(dp3062
sg63
g3047
sg56
(lp3063
g49
(g50
g51
NtRp3064
(dp3065
g54
(dp3066
g62
I3
ssg63
g3060
sg56
(lp3067
g1605
asbasbasbag49
(g65
g51
NtRp3068
(dp3069
g54
(dp3070
sg63
g2875
sg56
(lp3071
g49
(g70
g51
NtRp3072
(dp3073
g54
(dp3074
g74
g75
ssg63
g3068
sg56
(lp3075
S'HTTP_USER_AGENT'
p3076
asbag49
(g70
g51
NtRp3077
(dp3078
g54
(dp3079
g81
g82
ssg63
g3068
sg56
(lp3080
S':'
asbag49
(g70
g51
NtRp3081
(dp3082
g54
(dp3083
sg63
g3068
sg56
(lp3084
g49
(g50
g51
NtRp3085
(dp3086
g54
(dp3087
g62
I3
ssg63
g3081
sg56
(lp3088
g1627
asbasbasbag49
(g65
g51
NtRp3089
(dp3090
g54
(dp3091
sg63
g2875
sg56
(lp3092
g49
(g70
g51
NtRp3093
(dp3094
g54
(dp3095
g74
g75
ssg63
g3089
sg56
(lp3096
S'PATH_INFO'
p3097
asbag49
(g70
g51
NtRp3098
(dp3099
g54
(dp3100
g81
g82
ssg63
g3089
sg56
(lp3101
S':'
asbag49
(g70
g51
NtRp3102
(dp3103
g54
(dp3104
sg63
g3089
sg56
(lp3105
g49
(g50
g51
NtRp3106
(dp3107
g54
(dp3108
g62
I3
ssg63
g3102
sg56
(lp3109
g1691
asbasbasbag49
(g65
g51
NtRp3110
(dp3111
g54
(dp3112
sg63
g2875
sg56
(lp3113
g49
(g70
g51
NtRp3114
(dp3115
g54
(dp3116
g74
g75
ssg63
g3110
sg56
(lp3117
S'QUERY_STRING'
p3118
asbag49
(g70
g51
NtRp3119
(dp3120
g54
(dp3121
g81
g82
ssg63
g3110
sg56
(lp3122
S':'
asbag49
(g70
g51
NtRp3123
(dp3124
g54
(dp3125
sg63
g3110
sg56
(lp3126
g49
(g50
g51
NtRp3127
(dp3128
g54
(dp3129
g62
I3
ssg63
g3123
sg56
(lp3130
S''
asbasbasbag49
(g65
g51
NtRp3131
(dp3132
g54
(dp3133
sg63
g2875
sg56
(lp3134
g49
(g70
g51
NtRp3135
(dp3136
g54
(dp3137
g74
g75
ssg63
g3131
sg56
(lp3138
S'REMOTE_ADDR'
p3139
asbag49
(g70
g51
NtRp3140
(dp3141
g54
(dp3142
g81
g82
ssg63
g3131
sg56
(lp3143
S':'
asbag49
(g70
g51
NtRp3144
(dp3145
g54
(dp3146
sg63
g3131
sg56
(lp3147
g49
(g50
g51
NtRp3148
(dp3149
g54
(dp3150
g62
I3
ssg63
g3144
sg56
(lp3151
g182
asbasbasbag49
(g65
g51
NtRp3152
(dp3153
g54
(dp3154
sg63
g2875
sg56
(lp3155
g49
(g70
g51
NtRp3156
(dp3157
g54
(dp3158
g74
g75
ssg63
g3152
sg56
(lp3159
S'REMOTE_PORT'
p3160
asbag49
(g70
g51
NtRp3161
(dp3162
g54
(dp3163
g81
g82
ssg63
g3152
sg56
(lp3164
S':'
asbag49
(g70
g51
NtRp3165
(dp3166
g54
(dp3167
sg63
g3152
sg56
(lp3168
g49
(g50
g51
NtRp3169
(dp3170
g54
(dp3171
g62
I3
ssg63
g3165
sg56
(lp3172
g1755
asbasbasbag49
(g65
g51
NtRp3173
(dp3174
g54
(dp3175
sg63
g2875
sg56
(lp3176
g49
(g70
g51
NtRp3177
(dp3178
g54
(dp3179
g74
g75
ssg63
g3173
sg56
(lp3180
S'REQUEST_METHOD'
p3181
asbag49
(g70
g51
NtRp3182
(dp3183
g54
(dp3184
g81
g82
ssg63
g3173
sg56
(lp3185
S':'
asbag49
(g70
g51
NtRp3186
(dp3187
g54
(dp3188
sg63
g3173
sg56
(lp3189
g49
(g50
g51
NtRp3190
(dp3191
g54
(dp3192
g62
I3
ssg63
g3186
sg56
(lp3193
g1777
asbasbasbag49
(g65
g51
NtRp3194
(dp3195
g54
(dp3196
sg63
g2875
sg56
(lp3197
g49
(g70
g51
NtRp3198
(dp3199
g54
(dp3200
g74
g75
ssg63
g3194
sg56
(lp3201
S'SCRIPT_NAME'
p3202
asbag49
(g70
g51
NtRp3203
(dp3204
g54
(dp3205
g81
g82
ssg63
g3194
sg56
(lp3206
S':'
asbag49
(g70
g51
NtRp3207
(dp3208
g54
(dp3209
sg63
g3194
sg56
(lp3210
g49
(g50
g51
NtRp3211
(dp3212
g54
(dp3213
g62
I3
ssg63
g3207
sg56
(lp3214
S''
asbasbasbag49
(g65
g51
NtRp3215
(dp3216
g54
(dp3217
sg63
g2875
sg56
(lp3218
g49
(g70
g51
NtRp3219
(dp3220
g54
(dp3221
g74
g75
ssg63
g3215
sg56
(lp3222
S'SERVER_NAME'
p3223
asbag49
(g70
g51
NtRp3224
(dp3225
g54
(dp3226
g81
g82
ssg63
g3215
sg56
(lp3227
S':'
asbag49
(g70
g51
NtRp3228
(dp3229
g54
(dp3230
sg63
g3215
sg56
(lp3231
g49
(g50
g51
NtRp3232
(dp3233
g54
(dp3234
g62
I3
ssg63
g3228
sg56
(lp3235
g1820
asbasbasbag49
(g65
g51
NtRp3236
(dp3237
g54
(dp3238
sg63
g2875
sg56
(lp3239
g49
(g70
g51
NtRp3240
(dp3241
g54
(dp3242
g74
g75
ssg63
g3236
sg56
(lp3243
S'SERVER_PORT'
p3244
asbag49
(g70
g51
NtRp3245
(dp3246
g54
(dp3247
g81
g82
ssg63
g3236
sg56
(lp3248
S':'
asbag49
(g70
g51
NtRp3249
(dp3250
g54
(dp3251
sg63
g3236
sg56
(lp3252
g49
(g50
g51
NtRp3253
(dp3254
g54
(dp3255
g62
I3
ssg63
g3249
sg56
(lp3256
g1842
asbasbasbag49
(g65
g51
NtRp3257
(dp3258
g54
(dp3259
sg63
g2875
sg56
(lp3260
g49
(g70
g51
NtRp3261
(dp3262
g54
(dp3263
g74
g75
ssg63
g3257
sg56
(lp3264
S'SERVER_PROTOCOL'
p3265
asbag49
(g70
g51
NtRp3266
(dp3267
g54
(dp3268
g81
g82
ssg63
g3257
sg56
(lp3269
S':'
asbag49
(g70
g51
NtRp3270
(dp3271
g54
(dp3272
sg63
g3257
sg56
(lp3273
g49
(g50
g51
NtRp3274
(dp3275
g54
(dp3276
g62
I3
ssg63
g3270
sg56
(lp3277
g1864
asbasbasbag49
(g65
g51
NtRp3278
(dp3279
g54
(dp3280
sg63
g2875
sg56
(lp3281
g49
(g70
g51
NtRp3282
(dp3283
g54
(dp3284
g74
g75
ssg63
g3278
sg56
(lp3285
S'SERVER_SOFTWARE'
p3286
asbag49
(g70
g51
NtRp3287
(dp3288
g54
(dp3289
g81
g82
ssg63
g3278
sg56
(lp3290
S':'
asbag49
(g70
g51
NtRp3291
(dp3292
g54
(dp3293
sg63
g3278
sg56
(lp3294
g49
(g50
g51
NtRp3295
(dp3296
g54
(dp3297
g62
I3
ssg63
g3291
sg56
(lp3298
g1886
asbasbasbag49
(g65
g51
NtRp3299
(dp3300
g54
(dp3301
sg63
g2875
sg56
(lp3302
g49
(g70
g51
NtRp3303
(dp3304
g54
(dp3305
g74
g75
ssg63
g3299
sg56
(lp3306
S'wsgi.errors'
p3307
asbag49
(g70
g51
NtRp3308
(dp3309
g54
(dp3310
g81
g82
ssg63
g3299
sg56
(lp3311
S':'
asbag49
(g70
g51
NtRp3312
(dp3313
g54
(dp3314
sg63
g3299
sg56
(lp3315
g49
(g50
g51
NtRp3316
(dp3317
g54
(dp3318
g62
I3
ssg63
g3312
sg56
(lp3319
S"<open file '<stderr>', mode 'w' at 0x016000B0>"
p3320
asbasbasbag49
(g65
g51
NtRp3321
(dp3322
g54
(dp3323
sg63
g2875
sg56
(lp3324
g49
(g70
g51
NtRp3325
(dp3326
g54
(dp3327
g74
g75
ssg63
g3321
sg56
(lp3328
S'wsgi.file_wrapper'
p3329
asbag49
(g70
g51
NtRp3330
(dp3331
g54
(dp3332
g81
g82
ssg63
g3321
sg56
(lp3333
S':'
asbag49
(g70
g51
NtRp3334
(dp3335
g54
(dp3336
sg63
g3321
sg56
(lp3337
g49
(g50
g51
NtRp3338
(dp3339
g54
(dp3340
g62
I3
ssg63
g3334
sg56
(lp3341
S'<class wsgiref.util.FileWrapper at 0x025361B0>'
p3342
asbasbasbag49
(g65
g51
NtRp3343
(dp3344
g54
(dp3345
sg63
g2875
sg56
(lp3346
g49
(g70
g51
NtRp3347
(dp3348
g54
(dp3349
g74
g75
ssg63
g3343
sg56
(lp3350
S'wsgi.input'
p3351
asbag49
(g70
g51
NtRp3352
(dp3353
g54
(dp3354
g81
g82
ssg63
g3343
sg56
(lp3355
S':'
asbag49
(g70
g51
NtRp3356
(dp3357
g54
(dp3358
sg63
g3343
sg56
(lp3359
g49
(g50
g51
NtRp3360
(dp3361
g54
(dp3362
g62
I3
ssg63
g3356
sg56
(lp3363
S'<cStringIO.StringO object at 0x06272A00>'
p3364
asbasbasbag49
(g65
g51
NtRp3365
(dp3366
g54
(dp3367
sg63
g2875
sg56
(lp3368
g49
(g70
g51
NtRp3369
(dp3370
g54
(dp3371
g74
g75
ssg63
g3365
sg56
(lp3372
S'wsgi.multiprocess'
p3373
asbag49
(g70
g51
NtRp3374
(dp3375
g54
(dp3376
g81
g82
ssg63
g3365
sg56
(lp3377
S':'
asbag49
(g70
g51
NtRp3378
(dp3379
g54
(dp3380
sg63
g3365
sg56
(lp3381
g49
(g50
g51
NtRp3382
(dp3383
g54
(dp3384
g62
I3
ssg63
g3378
sg56
(lp3385
g92
asbasbasbag49
(g65
g51
NtRp3386
(dp3387
g54
(dp3388
sg63
g2875
sg56
(lp3389
g49
(g70
g51
NtRp3390
(dp3391
g54
(dp3392
g74
g75
ssg63
g3386
sg56
(lp3393
S'wsgi.multithread'
p3394
asbag49
(g70
g51
NtRp3395
(dp3396
g54
(dp3397
g81
g82
ssg63
g3386
sg56
(lp3398
S':'
asbag49
(g70
g51
NtRp3399
(dp3400
g54
(dp3401
sg63
g3386
sg56
(lp3402
g49
(g50
g51
NtRp3403
(dp3404
g54
(dp3405
g62
I3
ssg63
g3399
sg56
(lp3406
g2126
asbasbasbag49
(g65
g51
NtRp3407
(dp3408
g54
(dp3409
sg63
g2875
sg56
(lp3410
g49
(g70
g51
NtRp3411
(dp3412
g54
(dp3413
g74
g75
ssg63
g3407
sg56
(lp3414
S'wsgi.run_once'
p3415
asbag49
(g70
g51
NtRp3416
(dp3417
g54
(dp3418
g81
g82
ssg63
g3407
sg56
(lp3419
S':'
asbag49
(g70
g51
NtRp3420
(dp3421
g54
(dp3422
sg63
g3407
sg56
(lp3423
g49
(g50
g51
NtRp3424
(dp3425
g54
(dp3426
g62
I3
ssg63
g3420
sg56
(lp3427
g92
asbasbasbag49
(g65
g51
NtRp3428
(dp3429
g54
(dp3430
sg63
g2875
sg56
(lp3431
g49
(g70
g51
NtRp3432
(dp3433
g54
(dp3434
g74
g75
ssg63
g3428
sg56
(lp3435
S'wsgi.url_scheme'
p3436
asbag49
(g70
g51
NtRp3437
(dp3438
g54
(dp3439
g81
g82
ssg63
g3428
sg56
(lp3440
S':'
asbag49
(g70
g51
NtRp3441
(dp3442
g54
(dp3443
sg63
g3428
sg56
(lp3444
g49
(g50
g51
NtRp3445
(dp3446
g54
(dp3447
g62
I3
ssg63
g3441
sg56
(lp3448
g2169
asbasbasbag49
(g65
g51
NtRp3449
(dp3450
g54
(dp3451
sg63
g2875
sg56
(lp3452
g49
(g70
g51
NtRp3453
(dp3454
g54
(dp3455
g74
g75
ssg63
g3449
sg56
(lp3456
S'wsgi.version'
p3457
asbag49
(g70
g51
NtRp3458
(dp3459
g54
(dp3460
g81
g82
ssg63
g3449
sg56
(lp3461
S':'
asbag49
(g70
g51
NtRp3462
(dp3463
g54
(dp3464
sg63
g3449
sg56
(lp3465
g49
(g50
g51
NtRp3466
(dp3467
g54
(dp3468
g62
I3
ssg63
g3462
sg56
(lp3469
S'1'
asbasbasbasbasbasbasbasbasbasbasbasbasbsS'frames'
p3470
(lp3471
(dp3472
S'file'
p3473
S'C:\\Users\\omkara\\Desktop\\web2py\\gluon\\restricted.py'
p3474
sS'dump'
p3475
(dp3476
sS'lnum'
p3477
I205
sS'lines'
p3478
(dp3479
sS'call'
p3480
S'(code="# coding: utf8\\ndb = DAL(\'sqlite://storage.sqlite...erName = form.vars.username\\nauth.define_tables()\\n", environment={\'A\': <class \'gluon.html.A\'>, \'Auth\': <class \'gluon.tools.Auth\'>, \'B\': <class \'gluon.html.B\'>, \'BEAUTIFY\': <class \'gluon.html.BEAUTIFY\'>, \'BODY\': <class \'gluon.html.BODY\'>, \'BR\': <class \'gluon.html.BR\'>, \'BUTTON\': <class \'gluon.html.BUTTON\'>, \'CAT\': <class \'gluon.html.CAT\'>, \'CENTER\': <class \'gluon.html.CENTER\'>, \'CLEANUP\': <class \'gluon.validators.CLEANUP\'>, ...}, layer=r\'C:\\Users\\omkara\\Desktop\\web2py\\applications\\SlugBarter\\models\\registerForm.py\')'
p3481
sS'func'
p3482
S'restricted'
p3483
sa(dp3484
g3473
S'C:\\Users\\omkara\\Desktop\\web2py\\applications\\SlugBarter\\models\\registerForm.py'
p3485
sg3475
(dp3486
sg3477
I11
sg3478
(dp3487
I3
S'from gluon.tools import Auth'
p3488
sI4
S'from datetime import datetime'
p3489
sI5
S'auth = Auth(db)'
p3490
sI6
S"auth.settings.extra_fields['auth_user']= ["
p3491
sI7
S"  Field('username', 'string', requires = IS_NOT_EMPTY(error_message = 'Cannot be empty')),"
p3492
sI8
S"  Field('dateCreated', 'datetime', default=datetime.utcnow(), readable=False, writable =False )"
p3493
sI9
S'  ]'
p3494
sI10
S"auth.settings.login_next=URL('mypage')"
p3495
sI11
S'session.userName = form.vars.username'
p3496
sI12
S'auth.define_tables()'
p3497
ssg3480
S'()'
p3498
sg3482
S'<module>'
p3499
sasS'pyver'
p3500
S'Python 2.5.4: C:\\Users\\omkara\\Desktop\\web2py\\web2py.exe'
p3501
sS'session'
p3502
g49
(g50
g51
NtRp3503
(dp3504
g54
(dp3505
sg56
(lp3506
g49
(g58
g51
NtRp3507
(dp3508
g54
(dp3509
g62
I5
ssg63
Nsg56
(lp3510
g49
(g65
g51
NtRp3511
(dp3512
g54
(dp3513
sg63
g3507
sg56
(lp3514
g49
(g70
g51
NtRp3515
(dp3516
g54
(dp3517
g74
g75
ssg63
g3511
sg56
(lp3518
S'auth'
p3519
asbag49
(g70
g51
NtRp3520
(dp3521
g54
(dp3522
g81
g82
ssg63
g3511
sg56
(lp3523
S':'
asbag49
(g70
g51
NtRp3524
(dp3525
g54
(dp3526
sg63
g3511
sg56
(lp3527
g49
(g50
g51
NtRp3528
(dp3529
g54
(dp3530
g62
I5
ssg63
g3524
sg56
(lp3531
g49
(g58
g51
NtRp3532
(dp3533
g54
(dp3534
g62
I4
ssg63
Nsg56
(lp3535
g49
(g65
g51
NtRp3536
(dp3537
g54
(dp3538
sg63
g3532
sg56
(lp3539
g49
(g70
g51
NtRp3540
(dp3541
g54
(dp3542
g74
g75
ssg63
g3536
sg56
(lp3543
S'expiration'
p3544
asbag49
(g70
g51
NtRp3545
(dp3546
g54
(dp3547
g81
g82
ssg63
g3536
sg56
(lp3548
S':'
asbag49
(g70
g51
NtRp3549
(dp3550
g54
(dp3551
sg63
g3536
sg56
(lp3552
g49
(g50
g51
NtRp3553
(dp3554
g54
(dp3555
g62
I4
ssg63
g3549
sg56
(lp3556
S'3600'
p3557
asbasbasbag49
(g65
g51
NtRp3558
(dp3559
g54
(dp3560
sg63
g3532
sg56
(lp3561
g49
(g70
g51
NtRp3562
(dp3563
g54
(dp3564
g74
g75
ssg63
g3558
sg56
(lp3565
S'hmac_key'
p3566
asbag49
(g70
g51
NtRp3567
(dp3568
g54
(dp3569
g81
g82
ssg63
g3558
sg56
(lp3570
S':'
asbag49
(g70
g51
NtRp3571
(dp3572
g54
(dp3573
sg63
g3558
sg56
(lp3574
g49
(g50
g51
NtRp3575
(dp3576
g54
(dp3577
g62
I4
ssg63
g3571
sg56
(lp3578
S'ec740e7e-337b-40a9-841d-416abf873e7f'
p3579
asbasbasbag49
(g65
g51
NtRp3580
(dp3581
g54
(dp3582
sg63
g3532
sg56
(lp3583
g49
(g70
g51
NtRp3584
(dp3585
g54
(dp3586
g74
g75
ssg63
g3580
sg56
(lp3587
S'last_visit'
p3588
asbag49
(g70
g51
NtRp3589
(dp3590
g54
(dp3591
g81
g82
ssg63
g3580
sg56
(lp3592
S':'
asbag49
(g70
g51
NtRp3593
(dp3594
g54
(dp3595
sg63
g3580
sg56
(lp3596
g49
(g50
g51
NtRp3597
(dp3598
g54
(dp3599
g62
I4
ssg63
g3593
sg56
(lp3600
S'datetime.datetime(2012, 11, 11, 15, 8, 19, 102000)'
p3601
asbasbasbag49
(g65
g51
NtRp3602
(dp3603
g54
(dp3604
sg63
g3532
sg56
(lp3605
g49
(g70
g51
NtRp3606
(dp3607
g54
(dp3608
g74
g75
ssg63
g3602
sg56
(lp3609
S'remember'
p3610
asbag49
(g70
g51
NtRp3611
(dp3612
g54
(dp3613
g81
g82
ssg63
g3602
sg56
(lp3614
S':'
asbag49
(g70
g51
NtRp3615
(dp3616
g54
(dp3617
sg63
g3602
sg56
(lp3618
g49
(g50
g51
NtRp3619
(dp3620
g54
(dp3621
g62
I4
ssg63
g3615
sg56
(lp3622
g92
asbasbasbag49
(g65
g51
NtRp3623
(dp3624
g54
(dp3625
sg63
g3532
sg56
(lp3626
g49
(g70
g51
NtRp3627
(dp3628
g54
(dp3629
g74
g75
ssg63
g3623
sg56
(lp3630
S'user'
p3631
asbag49
(g70
g51
NtRp3632
(dp3633
g54
(dp3634
g81
g82
ssg63
g3623
sg56
(lp3635
S':'
asbag49
(g70
g51
NtRp3636
(dp3637
g54
(dp3638
sg63
g3623
sg56
(lp3639
g49
(g50
g51
NtRp3640
(dp3641
g54
(dp3642
g62
I4
ssg63
g3636
sg56
(lp3643
g49
(g58
g51
NtRp3644
(dp3645
g54
(dp3646
g62
I3
ssg63
Nsg56
(lp3647
g49
(g65
g51
NtRp3648
(dp3649
g54
(dp3650
sg63
g3644
sg56
(lp3651
g49
(g70
g51
NtRp3652
(dp3653
g54
(dp3654
g74
g75
ssg63
g3648
sg56
(lp3655
S'dateCreated'
p3656
asbag49
(g70
g51
NtRp3657
(dp3658
g54
(dp3659
g81
g82
ssg63
g3648
sg56
(lp3660
S':'
asbag49
(g70
g51
NtRp3661
(dp3662
g54
(dp3663
sg63
g3648
sg56
(lp3664
g49
(g50
g51
NtRp3665
(dp3666
g54
(dp3667
g62
I3
ssg63
g3661
sg56
(lp3668
S'datetime.datetime(2012, 11, 11, 19, 41, 48)'
p3669
asbasbasbag49
(g65
g51
NtRp3670
(dp3671
g54
(dp3672
sg63
g3644
sg56
(lp3673
g49
(g70
g51
NtRp3674
(dp3675
g54
(dp3676
g74
g75
ssg63
g3670
sg56
(lp3677
S'email'
p3678
asbag49
(g70
g51
NtRp3679
(dp3680
g54
(dp3681
g81
g82
ssg63
g3670
sg56
(lp3682
S':'
asbag49
(g70
g51
NtRp3683
(dp3684
g54
(dp3685
sg63
g3670
sg56
(lp3686
g49
(g50
g51
NtRp3687
(dp3688
g54
(dp3689
g62
I3
ssg63
g3683
sg56
(lp3690
S'sukha620@yahoo.com'
p3691
asbasbasbag49
(g65
g51
NtRp3692
(dp3693
g54
(dp3694
sg63
g3644
sg56
(lp3695
g49
(g70
g51
NtRp3696
(dp3697
g54
(dp3698
g74
g75
ssg63
g3692
sg56
(lp3699
S'first_name'
p3700
asbag49
(g70
g51
NtRp3701
(dp3702
g54
(dp3703
g81
g82
ssg63
g3692
sg56
(lp3704
S':'
asbag49
(g70
g51
NtRp3705
(dp3706
g54
(dp3707
sg63
g3692
sg56
(lp3708
g49
(g50
g51
NtRp3709
(dp3710
g54
(dp3711
g62
I3
ssg63
g3705
sg56
(lp3712
S'Sukhraj'
p3713
asbasbasbag49
(g65
g51
NtRp3714
(dp3715
g54
(dp3716
sg63
g3644
sg56
(lp3717
g49
(g70
g51
NtRp3718
(dp3719
g54
(dp3720
g74
g75
ssg63
g3714
sg56
(lp3721
S'id'
p3722
asbag49
(g70
g51
NtRp3723
(dp3724
g54
(dp3725
g81
g82
ssg63
g3714
sg56
(lp3726
S':'
asbag49
(g70
g51
NtRp3727
(dp3728
g54
(dp3729
sg63
g3714
sg56
(lp3730
g49
(g50
g51
NtRp3731
(dp3732
g54
(dp3733
g62
I3
ssg63
g3727
sg56
(lp3734
S'2'
asbasbasbag49
(g65
g51
NtRp3735
(dp3736
g54
(dp3737
sg63
g3644
sg56
(lp3738
g49
(g70
g51
NtRp3739
(dp3740
g54
(dp3741
g74
g75
ssg63
g3735
sg56
(lp3742
S'last_name'
p3743
asbag49
(g70
g51
NtRp3744
(dp3745
g54
(dp3746
g81
g82
ssg63
g3735
sg56
(lp3747
S':'
asbag49
(g70
g51
NtRp3748
(dp3749
g54
(dp3750
sg63
g3735
sg56
(lp3751
g49
(g50
g51
NtRp3752
(dp3753
g54
(dp3754
g62
I3
ssg63
g3748
sg56
(lp3755
S'Singh'
p3756
asbasbasbag49
(g65
g51
NtRp3757
(dp3758
g54
(dp3759
sg63
g3644
sg56
(lp3760
g49
(g70
g51
NtRp3761
(dp3762
g54
(dp3763
g74
g75
ssg63
g3757
sg56
(lp3764
S'password'
p3765
asbag49
(g70
g51
NtRp3766
(dp3767
g54
(dp3768
g81
g82
ssg63
g3757
sg56
(lp3769
S':'
asbag49
(g70
g51
NtRp3770
(dp3771
g54
(dp3772
sg63
g3757
sg56
(lp3773
g49
(g50
g51
NtRp3774
(dp3775
g54
(dp3776
g62
I3
ssg63
g3770
sg56
(lp3777
S'd82bdd86eff736d398dfae05281ad449'
p3778
asbasbasbag49
(g65
g51
NtRp3779
(dp3780
g54
(dp3781
sg63
g3644
sg56
(lp3782
g49
(g70
g51
NtRp3783
(dp3784
g54
(dp3785
g74
g75
ssg63
g3779
sg56
(lp3786
S'registration_id'
p3787
asbag49
(g70
g51
NtRp3788
(dp3789
g54
(dp3790
g81
g82
ssg63
g3779
sg56
(lp3791
S':'
asbag49
(g70
g51
NtRp3792
(dp3793
g54
(dp3794
sg63
g3779
sg56
(lp3795
g49
(g50
g51
NtRp3796
(dp3797
g54
(dp3798
g62
I3
ssg63
g3792
sg56
(lp3799
S''
asbasbasbag49
(g65
g51
NtRp3800
(dp3801
g54
(dp3802
sg63
g3644
sg56
(lp3803
g49
(g70
g51
NtRp3804
(dp3805
g54
(dp3806
g74
g75
ssg63
g3800
sg56
(lp3807
S'registration_key'
p3808
asbag49
(g70
g51
NtRp3809
(dp3810
g54
(dp3811
g81
g82
ssg63
g3800
sg56
(lp3812
S':'
asbag49
(g70
g51
NtRp3813
(dp3814
g54
(dp3815
sg63
g3800
sg56
(lp3816
g49
(g50
g51
NtRp3817
(dp3818
g54
(dp3819
g62
I3
ssg63
g3813
sg56
(lp3820
S''
asbasbasbag49
(g65
g51
NtRp3821
(dp3822
g54
(dp3823
sg63
g3644
sg56
(lp3824
g49
(g70
g51
NtRp3825
(dp3826
g54
(dp3827
g74
g75
ssg63
g3821
sg56
(lp3828
S'reset_password_key'
p3829
asbag49
(g70
g51
NtRp3830
(dp3831
g54
(dp3832
g81
g82
ssg63
g3821
sg56
(lp3833
S':'
asbag49
(g70
g51
NtRp3834
(dp3835
g54
(dp3836
sg63
g3821
sg56
(lp3837
g49
(g50
g51
NtRp3838
(dp3839
g54
(dp3840
g62
I3
ssg63
g3834
sg56
(lp3841
S''
asbasbasbag49
(g65
g51
NtRp3842
(dp3843
g54
(dp3844
sg63
g3644
sg56
(lp3845
g49
(g70
g51
NtRp3846
(dp3847
g54
(dp3848
g74
g75
ssg63
g3842
sg56
(lp3849
S'username'
p3850
asbag49
(g70
g51
NtRp3851
(dp3852
g54
(dp3853
g81
g82
ssg63
g3842
sg56
(lp3854
S':'
asbag49
(g70
g51
NtRp3855
(dp3856
g54
(dp3857
sg63
g3842
sg56
(lp3858
g49
(g50
g51
NtRp3859
(dp3860
g54
(dp3861
g62
I3
ssg63
g3855
sg56
(lp3862
S'5abi209'
p3863
asbasbasbasbasbasbasbag49
(g65
g51
NtRp3864
(dp3865
g54
(dp3866
sg63
g3532
sg56
(lp3867
g49
(g70
g51
NtRp3868
(dp3869
g54
(dp3870
g74
g75
ssg63
g3864
sg56
(lp3871
S'user_groups'
p3872
asbag49
(g70
g51
NtRp3873
(dp3874
g54
(dp3875
g81
g82
ssg63
g3864
sg56
(lp3876
S':'
asbag49
(g70
g51
NtRp3877
(dp3878
g54
(dp3879
sg63
g3864
sg56
(lp3880
g49
(g50
g51
NtRp3881
(dp3882
g54
(dp3883
g62
I4
ssg63
g3877
sg56
(lp3884
g49
(g58
g51
NtRp3885
(dp3886
g54
(dp3887
g62
I3
ssg63
Nsg56
(lp3888
g49
(g65
g51
NtRp3889
(dp3890
g54
(dp3891
sg63
g3885
sg56
(lp3892
g49
(g70
g51
NtRp3893
(dp3894
g54
(dp3895
g74
g75
ssg63
g3889
sg56
(lp3896
S'1'
asbag49
(g70
g51
NtRp3897
(dp3898
g54
(dp3899
g81
g82
ssg63
g3889
sg56
(lp3900
S':'
asbag49
(g70
g51
NtRp3901
(dp3902
g54
(dp3903
sg63
g3889
sg56
(lp3904
g49
(g50
g51
NtRp3905
(dp3906
g54
(dp3907
g62
I3
ssg63
g3901
sg56
(lp3908
S'user_2'
p3909
asbasbasbasbasbasbasbasbasbasbasbag49
(g65
g51
NtRp3910
(dp3911
g54
(dp3912
sg63
g3507
sg56
(lp3913
g49
(g70
g51
NtRp3914
(dp3915
g54
(dp3916
g74
g75
ssg63
g3910
sg56
(lp3917
S'last_query'
p3918
asbag49
(g70
g51
NtRp3919
(dp3920
g54
(dp3921
g81
g82
ssg63
g3910
sg56
(lp3922
S':'
asbag49
(g70
g51
NtRp3923
(dp3924
g54
(dp3925
sg63
g3910
sg56
(lp3926
g49
(g50
g51
NtRp3927
(dp3928
g54
(dp3929
g62
I5
ssg63
g3923
sg56
(lp3930
S'db.auth_user.id>0'
p3931
asbasbasbasbasbsS'etype'
p3932
S"<type 'exceptions.NameError'>"
p3933
sS'date'
p3934
S'Sun Nov 11 15:08:19 2012'
p3935
sS'response'
p3936
g49
(g50
g51
NtRp3937
(dp3938
g54
(dp3939
sg56
(lp3940
g49
(g58
g51
NtRp3941
(dp3942
g54
(dp3943
g62
I5
ssg63
Nsg56
(lp3944
g49
(g65
g51
NtRp3945
(dp3946
g54
(dp3947
sg63
g3941
sg56
(lp3948
g49
(g70
g51
NtRp3949
(dp3950
g54
(dp3951
g74
g75
ssg63
g3945
sg56
(lp3952
g147
asbag49
(g70
g51
NtRp3953
(dp3954
g54
(dp3955
g81
g82
ssg63
g3945
sg56
(lp3956
S':'
asbag49
(g70
g51
NtRp3957
(dp3958
g54
(dp3959
sg63
g3945
sg56
(lp3960
g49
(g50
g51
NtRp3961
(dp3962
g54
(dp3963
g62
I5
ssg63
g3957
sg56
(lp3964
S'<cStringIO.StringO object at 0x06272040>'
p3965
asbasbasbag49
(g65
g51
NtRp3966
(dp3967
g54
(dp3968
sg63
g3941
sg56
(lp3969
g49
(g70
g51
NtRp3970
(dp3971
g54
(dp3972
g74
g75
ssg63
g3966
sg56
(lp3973
g213
asbag49
(g70
g51
NtRp3974
(dp3975
g54
(dp3976
g81
g82
ssg63
g3966
sg56
(lp3977
S':'
asbag49
(g70
g51
NtRp3978
(dp3979
g54
(dp3980
sg63
g3966
sg56
(lp3981
g49
(g50
g51
NtRp3982
(dp3983
g54
(dp3984
g62
I5
ssg63
g3978
sg56
(lp3985
g49
(g58
g51
NtRp3986
(dp3987
g54
(dp3988
g62
I4
ssg63
Nsg56
(lp3989
g49
(g65
g51
NtRp3990
(dp3991
g54
(dp3992
sg63
g3986
sg56
(lp3993
g49
(g70
g51
NtRp3994
(dp3995
g54
(dp3996
g74
g75
ssg63
g3990
sg56
(lp3997
S'session_id_slugbarter'
p3998
asbag49
(g70
g51
NtRp3999
(dp4000
g54
(dp4001
g81
g82
ssg63
g3990
sg56
(lp4002
S':'
asbag49
(g70
g51
NtRp4003
(dp4004
g54
(dp4005
sg63
g3990
sg56
(lp4006
g49
(g50
g51
NtRp4007
(dp4008
g54
(dp4009
g62
I4
ssg63
g4003
sg56
(lp4010
g49
(g58
g51
NtRp4011
(dp4012
g54
(dp4013
g62
I3
ssg63
Nsg56
(lp4014
g49
(g65
g51
NtRp4015
(dp4016
g54
(dp4017
sg63
g4011
sg56
(lp4018
g49
(g70
g51
NtRp4019
(dp4020
g54
(dp4021
g74
g75
ssg63
g4015
sg56
(lp4022
g263
asbag49
(g70
g51
NtRp4023
(dp4024
g54
(dp4025
g81
g82
ssg63
g4015
sg56
(lp4026
S':'
asbag49
(g70
g51
NtRp4027
(dp4028
g54
(dp4029
sg63
g4015
sg56
(lp4030
g49
(g50
g51
NtRp4031
(dp4032
g54
(dp4033
g62
I3
ssg63
g4027
sg56
(lp4034
S''
asbasbasbag49
(g65
g51
NtRp4035
(dp4036
g54
(dp4037
sg63
g4011
sg56
(lp4038
g49
(g70
g51
NtRp4039
(dp4040
g54
(dp4041
g74
g75
ssg63
g4035
sg56
(lp4042
g284
asbag49
(g70
g51
NtRp4043
(dp4044
g54
(dp4045
g81
g82
ssg63
g4035
sg56
(lp4046
S':'
asbag49
(g70
g51
NtRp4047
(dp4048
g54
(dp4049
sg63
g4035
sg56
(lp4050
g49
(g50
g51
NtRp4051
(dp4052
g54
(dp4053
g62
I3
ssg63
g4047
sg56
(lp4054
S''
asbasbasbag49
(g65
g51
NtRp4055
(dp4056
g54
(dp4057
sg63
g4011
sg56
(lp4058
g49
(g70
g51
NtRp4059
(dp4060
g54
(dp4061
g74
g75
ssg63
g4055
sg56
(lp4062
g305
asbag49
(g70
g51
NtRp4063
(dp4064
g54
(dp4065
g81
g82
ssg63
g4055
sg56
(lp4066
S':'
asbag49
(g70
g51
NtRp4067
(dp4068
g54
(dp4069
sg63
g4055
sg56
(lp4070
g49
(g50
g51
NtRp4071
(dp4072
g54
(dp4073
g62
I3
ssg63
g4067
sg56
(lp4074
S''
asbasbasbag49
(g65
g51
NtRp4075
(dp4076
g54
(dp4077
sg63
g4011
sg56
(lp4078
g49
(g70
g51
NtRp4079
(dp4080
g54
(dp4081
g74
g75
ssg63
g4075
sg56
(lp4082
g326
asbag49
(g70
g51
NtRp4083
(dp4084
g54
(dp4085
g81
g82
ssg63
g4075
sg56
(lp4086
S':'
asbag49
(g70
g51
NtRp4087
(dp4088
g54
(dp4089
sg63
g4075
sg56
(lp4090
g49
(g50
g51
NtRp4091
(dp4092
g54
(dp4093
g62
I3
ssg63
g4087
sg56
(lp4094
S''
asbasbasbag49
(g65
g51
NtRp4095
(dp4096
g54
(dp4097
sg63
g4011
sg56
(lp4098
g49
(g70
g51
NtRp4099
(dp4100
g54
(dp4101
g74
g75
ssg63
g4095
sg56
(lp4102
g347
asbag49
(g70
g51
NtRp4103
(dp4104
g54
(dp4105
g81
g82
ssg63
g4095
sg56
(lp4106
S':'
asbag49
(g70
g51
NtRp4107
(dp4108
g54
(dp4109
sg63
g4095
sg56
(lp4110
g49
(g50
g51
NtRp4111
(dp4112
g54
(dp4113
g62
I3
ssg63
g4107
sg56
(lp4114
S'/'
asbasbasbag49
(g65
g51
NtRp4115
(dp4116
g54
(dp4117
sg63
g4011
sg56
(lp4118
g49
(g70
g51
NtRp4119
(dp4120
g54
(dp4121
g74
g75
ssg63
g4115
sg56
(lp4122
g368
asbag49
(g70
g51
NtRp4123
(dp4124
g54
(dp4125
g81
g82
ssg63
g4115
sg56
(lp4126
S':'
asbag49
(g70
g51
NtRp4127
(dp4128
g54
(dp4129
sg63
g4115
sg56
(lp4130
g49
(g50
g51
NtRp4131
(dp4132
g54
(dp4133
g62
I3
ssg63
g4127
sg56
(lp4134
S''
asbasbasbag49
(g65
g51
NtRp4135
(dp4136
g54
(dp4137
sg63
g4011
sg56
(lp4138
g49
(g70
g51
NtRp4139
(dp4140
g54
(dp4141
g74
g75
ssg63
g4135
sg56
(lp4142
g389
asbag49
(g70
g51
NtRp4143
(dp4144
g54
(dp4145
g81
g82
ssg63
g4135
sg56
(lp4146
S':'
asbag49
(g70
g51
NtRp4147
(dp4148
g54
(dp4149
sg63
g4135
sg56
(lp4150
g49
(g50
g51
NtRp4151
(dp4152
g54
(dp4153
g62
I3
ssg63
g4147
sg56
(lp4154
S''
asbasbasbasbasbasbasbasbasbasbasbag49
(g65
g51
NtRp4155
(dp4156
g54
(dp4157
sg63
g3941
sg56
(lp4158
g49
(g70
g51
NtRp4159
(dp4160
g54
(dp4161
g74
g75
ssg63
g4155
sg56
(lp4162
S'delimiters'
p4163
asbag49
(g70
g51
NtRp4164
(dp4165
g54
(dp4166
g81
g82
ssg63
g4155
sg56
(lp4167
S':'
asbag49
(g70
g51
NtRp4168
(dp4169
g54
(dp4170
sg63
g4155
sg56
(lp4171
g49
(g50
g51
NtRp4172
(dp4173
g54
(dp4174
g62
I5
ssg63
g4168
sg56
(lp4175
g49
(g58
g51
NtRp4176
(dp4177
g54
(dp4178
g62
I4
ssg63
Nsg56
(lp4179
g49
(g65
g51
NtRp4180
(dp4181
g54
(dp4182
sg63
g4176
sg56
(lp4183
g49
(g70
g51
NtRp4184
(dp4185
g54
(dp4186
sg63
g4180
sg56
(lp4187
g49
(g50
g51
NtRp4188
(dp4189
g54
(dp4190
g62
I4
ssg63
g4184
sg56
(lp4191
S'{{'
p4192
asbasbasbag49
(g65
g51
NtRp4193
(dp4194
g54
(dp4195
sg63
g4176
sg56
(lp4196
g49
(g70
g51
NtRp4197
(dp4198
g54
(dp4199
sg63
g4193
sg56
(lp4200
g49
(g50
g51
NtRp4201
(dp4202
g54
(dp4203
g62
I4
ssg63
g4197
sg56
(lp4204
S'}}'
p4205
asbasbasbasbasbasbasbag49
(g65
g51
NtRp4206
(dp4207
g54
(dp4208
sg63
g3941
sg56
(lp4209
g49
(g70
g51
NtRp4210
(dp4211
g54
(dp4212
g74
g75
ssg63
g4206
sg56
(lp4213
S'files'
p4214
asbag49
(g70
g51
NtRp4215
(dp4216
g54
(dp4217
g81
g82
ssg63
g4206
sg56
(lp4218
S':'
asbag49
(g70
g51
NtRp4219
(dp4220
g54
(dp4221
sg63
g4206
sg56
(lp4222
g49
(g50
g51
NtRp4223
(dp4224
g54
(dp4225
g62
I5
ssg63
g4219
sg56
(lp4226
g49
(g58
g51
NtRp4227
(dp4228
g54
(dp4229
g62
I4
ssg63
Nsg56
(lp4230
sbasbasbasbag49
(g65
g51
NtRp4231
(dp4232
g54
(dp4233
sg63
g3941
sg56
(lp4234
g49
(g70
g51
NtRp4235
(dp4236
g54
(dp4237
g74
g75
ssg63
g4231
sg56
(lp4238
S'flash'
p4239
asbag49
(g70
g51
NtRp4240
(dp4241
g54
(dp4242
g81
g82
ssg63
g4231
sg56
(lp4243
S':'
asbag49
(g70
g51
NtRp4244
(dp4245
g54
(dp4246
sg63
g4231
sg56
(lp4247
g49
(g50
g51
NtRp4248
(dp4249
g54
(dp4250
g62
I5
ssg63
g4244
sg56
(lp4251
S''
asbasbasbag49
(g65
g51
NtRp4252
(dp4253
g54
(dp4254
sg63
g3941
sg56
(lp4255
g49
(g70
g51
NtRp4256
(dp4257
g54
(dp4258
g74
g75
ssg63
g4252
sg56
(lp4259
S'generic_patterns'
p4260
asbag49
(g70
g51
NtRp4261
(dp4262
g54
(dp4263
g81
g82
ssg63
g4252
sg56
(lp4264
S':'
asbag49
(g70
g51
NtRp4265
(dp4266
g54
(dp4267
sg63
g4252
sg56
(lp4268
g49
(g50
g51
NtRp4269
(dp4270
g54
(dp4271
g62
I5
ssg63
g4265
sg56
(lp4272
g49
(g58
g51
NtRp4273
(dp4274
g54
(dp4275
g62
I4
ssg63
Nsg56
(lp4276
g49
(g65
g51
NtRp4277
(dp4278
g54
(dp4279
sg63
g4273
sg56
(lp4280
g49
(g70
g51
NtRp4281
(dp4282
g54
(dp4283
sg63
g4277
sg56
(lp4284
g49
(g50
g51
NtRp4285
(dp4286
g54
(dp4287
g62
I4
ssg63
g4281
sg56
(lp4288
S'*'
asbasbasbasbasbasbasbag49
(g65
g51
NtRp4289
(dp4290
g54
(dp4291
sg63
g3941
sg56
(lp4292
g49
(g70
g51
NtRp4293
(dp4294
g54
(dp4295
g74
g75
ssg63
g4289
sg56
(lp4296
S'headers'
p4297
asbag49
(g70
g51
NtRp4298
(dp4299
g54
(dp4300
g81
g82
ssg63
g4289
sg56
(lp4301
S':'
asbag49
(g70
g51
NtRp4302
(dp4303
g54
(dp4304
sg63
g4289
sg56
(lp4305
g49
(g50
g51
NtRp4306
(dp4307
g54
(dp4308
g62
I5
ssg63
g4302
sg56
(lp4309
g49
(g58
g51
NtRp4310
(dp4311
g54
(dp4312
g62
I4
ssg63
Nsg56
(lp4313
g49
(g65
g51
NtRp4314
(dp4315
g54
(dp4316
sg63
g4310
sg56
(lp4317
g49
(g70
g51
NtRp4318
(dp4319
g54
(dp4320
g74
g75
ssg63
g4314
sg56
(lp4321
S'Cache-Control'
p4322
asbag49
(g70
g51
NtRp4323
(dp4324
g54
(dp4325
g81
g82
ssg63
g4314
sg56
(lp4326
S':'
asbag49
(g70
g51
NtRp4327
(dp4328
g54
(dp4329
sg63
g4314
sg56
(lp4330
g49
(g50
g51
NtRp4331
(dp4332
g54
(dp4333
g62
I4
ssg63
g4327
sg56
(lp4334
S'no-store, no-cache, must-revalidate, post-check=0, pre-check=0'
p4335
asbasbasbag49
(g65
g51
NtRp4336
(dp4337
g54
(dp4338
sg63
g4310
sg56
(lp4339
g49
(g70
g51
NtRp4340
(dp4341
g54
(dp4342
g74
g75
ssg63
g4336
sg56
(lp4343
S'Content-Type'
p4344
asbag49
(g70
g51
NtRp4345
(dp4346
g54
(dp4347
g81
g82
ssg63
g4336
sg56
(lp4348
S':'
asbag49
(g70
g51
NtRp4349
(dp4350
g54
(dp4351
sg63
g4336
sg56
(lp4352
g49
(g50
g51
NtRp4353
(dp4354
g54
(dp4355
g62
I4
ssg63
g4349
sg56
(lp4356
S'text/html; charset=utf-8'
p4357
asbasbasbag49
(g65
g51
NtRp4358
(dp4359
g54
(dp4360
sg63
g4310
sg56
(lp4361
g49
(g70
g51
NtRp4362
(dp4363
g54
(dp4364
g74
g75
ssg63
g4358
sg56
(lp4365
S'Expires'
p4366
asbag49
(g70
g51
NtRp4367
(dp4368
g54
(dp4369
g81
g82
ssg63
g4358
sg56
(lp4370
S':'
asbag49
(g70
g51
NtRp4371
(dp4372
g54
(dp4373
sg63
g4358
sg56
(lp4374
g49
(g50
g51
NtRp4375
(dp4376
g54
(dp4377
g62
I4
ssg63
g4371
sg56
(lp4378
S'Sun, 11 Nov 2012 23:08:19 GMT'
p4379
asbasbasbag49
(g65
g51
NtRp4380
(dp4381
g54
(dp4382
sg63
g4310
sg56
(lp4383
g49
(g70
g51
NtRp4384
(dp4385
g54
(dp4386
g74
g75
ssg63
g4380
sg56
(lp4387
S'Pragma'
p4388
asbag49
(g70
g51
NtRp4389
(dp4390
g54
(dp4391
g81
g82
ssg63
g4380
sg56
(lp4392
S':'
asbag49
(g70
g51
NtRp4393
(dp4394
g54
(dp4395
sg63
g4380
sg56
(lp4396
g49
(g50
g51
NtRp4397
(dp4398
g54
(dp4399
g62
I4
ssg63
g4393
sg56
(lp4400
S'no-cache'
p4401
asbasbasbag49
(g65
g51
NtRp4402
(dp4403
g54
(dp4404
sg63
g4310
sg56
(lp4405
g49
(g70
g51
NtRp4406
(dp4407
g54
(dp4408
g74
g75
ssg63
g4402
sg56
(lp4409
S'X-Powered-By'
p4410
asbag49
(g70
g51
NtRp4411
(dp4412
g54
(dp4413
g81
g82
ssg63
g4402
sg56
(lp4414
S':'
asbag49
(g70
g51
NtRp4415
(dp4416
g54
(dp4417
sg63
g4402
sg56
(lp4418
g49
(g50
g51
NtRp4419
(dp4420
g54
(dp4421
g62
I4
ssg63
g4415
sg56
(lp4422
S'web2py'
p4423
asbasbasbasbasbasbasbag49
(g65
g51
NtRp4424
(dp4425
g54
(dp4426
sg63
g3941
sg56
(lp4427
g49
(g70
g51
NtRp4428
(dp4429
g54
(dp4430
g74
g75
ssg63
g4424
sg56
(lp4431
S'menu'
p4432
asbag49
(g70
g51
NtRp4433
(dp4434
g54
(dp4435
g81
g82
ssg63
g4424
sg56
(lp4436
S':'
asbag49
(g70
g51
NtRp4437
(dp4438
g54
(dp4439
sg63
g4424
sg56
(lp4440
g49
(g50
g51
NtRp4441
(dp4442
g54
(dp4443
g62
I5
ssg63
g4437
sg56
(lp4444
g49
(g58
g51
NtRp4445
(dp4446
g54
(dp4447
g62
I4
ssg63
Nsg56
(lp4448
g49
(g65
g51
NtRp4449
(dp4450
g54
(dp4451
sg63
g4445
sg56
(lp4452
g49
(g70
g51
NtRp4453
(dp4454
g54
(dp4455
sg63
g4449
sg56
(lp4456
g49
(g50
g51
NtRp4457
(dp4458
g54
(dp4459
g62
I4
ssg63
g4453
sg56
(lp4460
g49
(g58
g51
NtRp4461
(dp4462
g54
(dp4463
g62
I3
ssg63
Nsg56
(lp4464
g49
(g65
g51
NtRp4465
(dp4466
g54
(dp4467
sg63
g4461
sg56
(lp4468
g49
(g70
g51
NtRp4469
(dp4470
g54
(dp4471
sg63
g4465
sg56
(lp4472
g49
(g50
g51
NtRp4473
(dp4474
g54
(dp4475
g62
I3
ssg63
g4469
sg56
(lp4476
cgluon.languages
lazyT_unpickle
p4477
(S's\x04\x00\x00\x00Home'
tRp4478
asbasbasbag49
(g65
g51
NtRp4479
(dp4480
g54
(dp4481
sg63
g4461
sg56
(lp4482
g49
(g70
g51
NtRp4483
(dp4484
g54
(dp4485
sg63
g4479
sg56
(lp4486
g49
(g50
g51
NtRp4487
(dp4488
g54
(dp4489
g62
I3
ssg63
g4483
sg56
(lp4490
g92
asbasbasbag49
(g65
g51
NtRp4491
(dp4492
g54
(dp4493
sg63
g4461
sg56
(lp4494
g49
(g70
g51
NtRp4495
(dp4496
g54
(dp4497
sg63
g4491
sg56
(lp4498
g49
(g50
g51
NtRp4499
(dp4500
g54
(dp4501
g62
I3
ssg63
g4495
sg56
(lp4502
S'/SlugBarter/default/index'
p4503
asbasbasbag49
(g65
g51
NtRp4504
(dp4505
g54
(dp4506
sg63
g4461
sg56
(lp4507
g49
(g70
g51
NtRp4508
(dp4509
g54
(dp4510
sg63
g4504
sg56
(lp4511
g49
(g50
g51
NtRp4512
(dp4513
g54
(dp4514
g62
I3
ssg63
g4508
sg56
(lp4515
g49
(g58
g51
NtRp4516
(dp4517
g54
(dp4518
g62
I2
ssg63
Nsg56
(lp4519
sbasbasbasbasbasbasbasbag49
(g65
g51
NtRp4520
(dp4521
g54
(dp4522
sg63
g4445
sg56
(lp4523
g49
(g70
g51
NtRp4524
(dp4525
g54
(dp4526
sg63
g4520
sg56
(lp4527
g49
(g50
g51
NtRp4528
(dp4529
g54
(dp4530
g62
I4
ssg63
g4524
sg56
(lp4531
g49
(g58
g51
NtRp4532
(dp4533
g54
(dp4534
g62
I3
ssg63
Nsg56
(lp4535
g49
(g65
g51
NtRp4536
(dp4537
g54
(dp4538
sg63
g4532
sg56
(lp4539
g49
(g70
g51
NtRp4540
(dp4541
g54
(dp4542
sg63
g4536
sg56
(lp4543
g49
(g50
g51
NtRp4544
(dp4545
g54
(dp4546
g62
I3
ssg63
g4540
sg56
(lp4547
g49
(cgluon.html
SPAN
p4548
g51
NtRp4549
(dp4550
g54
(dp4551
g74
S'color:yellow'
p4552
ssg63
Nsg56
(lp4553
g4423
asbasbasbasbag49
(g65
g51
NtRp4554
(dp4555
g54
(dp4556
sg63
g4532
sg56
(lp4557
g49
(g70
g51
NtRp4558
(dp4559
g54
(dp4560
sg63
g4554
sg56
(lp4561
g49
(g50
g51
NtRp4562
(dp4563
g54
(dp4564
g62
I3
ssg63
g4558
sg56
(lp4565
g92
asbasbasbag49
(g65
g51
NtRp4566
(dp4567
g54
(dp4568
sg63
g4532
sg56
(lp4569
g49
(g70
g51
NtRp4570
(dp4571
g54
(dp4572
sg63
g4566
sg56
(lp4573
g49
(g50
g51
NtRp4574
(dp4575
g54
(dp4576
g62
I3
ssg63
g4570
sg56
(lp4577
S'None'
p4578
asbasbasbag49
(g65
g51
NtRp4579
(dp4580
g54
(dp4581
sg63
g4532
sg56
(lp4582
g49
(g70
g51
NtRp4583
(dp4584
g54
(dp4585
sg63
g4579
sg56
(lp4586
g49
(g50
g51
NtRp4587
(dp4588
g54
(dp4589
g62
I3
ssg63
g4583
sg56
(lp4590
g49
(g58
g51
NtRp4591
(dp4592
g54
(dp4593
g62
I2
ssg63
Nsg56
(lp4594
g49
(g65
g51
NtRp4595
(dp4596
g54
(dp4597
sg63
g4591
sg56
(lp4598
g49
(g70
g51
NtRp4599
(dp4600
g54
(dp4601
sg63
g4595
sg56
(lp4602
g49
(g50
g51
NtRp4603
(dp4604
g54
(dp4605
g62
I2
ssg63
g4599
sg56
(lp4606
g49
(g58
g51
NtRp4607
(dp4608
g54
(dp4609
g62
I1
ssg63
Nsg56
(lp4610
g49
(g65
g51
NtRp4611
(dp4612
g54
(dp4613
sg63
g4607
sg56
(lp4614
g49
(g70
g51
NtRp4615
(dp4616
g54
(dp4617
sg63
g4611
sg56
(lp4618
g49
(g50
g51
NtRp4619
(dp4620
g54
(dp4621
g62
I1
ssg63
g4615
sg56
(lp4622
g4477
(S's\x08\x00\x00\x00My Sites'
tRp4623
asbasbasbag49
(g65
g51
NtRp4624
(dp4625
g54
(dp4626
sg63
g4607
sg56
(lp4627
g49
(g70
g51
NtRp4628
(dp4629
g54
(dp4630
sg63
g4624
sg56
(lp4631
g49
(g50
g51
NtRp4632
(dp4633
g54
(dp4634
g62
I1
ssg63
g4628
sg56
(lp4635
I00
asbasbasbag49
(g65
g51
NtRp4636
(dp4637
g54
(dp4638
sg63
g4607
sg56
(lp4639
g49
(g70
g51
NtRp4640
(dp4641
g54
(dp4642
sg63
g4636
sg56
(lp4643
g49
(g50
g51
NtRp4644
(dp4645
g54
(dp4646
g62
I1
ssg63
g4640
sg56
(lp4647
S'/admin/default/site'
p4648
asbasbasbasbasbasbasbag49
(g65
g51
NtRp4649
(dp4650
g54
(dp4651
sg63
g4591
sg56
(lp4652
g49
(g70
g51
NtRp4653
(dp4654
g54
(dp4655
sg63
g4649
sg56
(lp4656
g49
(g50
g51
NtRp4657
(dp4658
g54
(dp4659
g62
I2
ssg63
g4653
sg56
(lp4660
g49
(g58
g51
NtRp4661
(dp4662
g54
(dp4663
g62
I1
ssg63
Nsg56
(lp4664
g49
(g65
g51
NtRp4665
(dp4666
g54
(dp4667
sg63
g4661
sg56
(lp4668
g49
(g70
g51
NtRp4669
(dp4670
g54
(dp4671
sg63
g4665
sg56
(lp4672
g49
(g50
g51
NtRp4673
(dp4674
g54
(dp4675
g62
I1
ssg63
g4669
sg56
(lp4676
g4477
(S's\x08\x00\x00\x00This App'
tRp4677
asbasbasbag49
(g65
g51
NtRp4678
(dp4679
g54
(dp4680
sg63
g4661
sg56
(lp4681
g49
(g70
g51
NtRp4682
(dp4683
g54
(dp4684
sg63
g4678
sg56
(lp4685
g49
(g50
g51
NtRp4686
(dp4687
g54
(dp4688
g62
I1
ssg63
g4682
sg56
(lp4689
I00
asbasbasbag49
(g65
g51
NtRp4690
(dp4691
g54
(dp4692
sg63
g4661
sg56
(lp4693
g49
(g70
g51
NtRp4694
(dp4695
g54
(dp4696
sg63
g4690
sg56
(lp4697
g49
(g50
g51
NtRp4698
(dp4699
g54
(dp4700
g62
I1
ssg63
g4694
sg56
(lp4701
S'/admin/default/design/SlugBarter'
p4702
asbasbasbag49
(g65
g51
NtRp4703
(dp4704
g54
(dp4705
sg63
g4661
sg56
(lp4706
g49
(g70
g51
NtRp4707
(dp4708
g54
(dp4709
sg63
g4703
sg56
(lp4710
g49
(g50
g51
NtRp4711
(dp4712
g54
(dp4713
g62
I1
ssg63
g4707
sg56
(lp4714
(lp4715
(g4477
(S's\n\x00\x00\x00Controller'
tRp4716
I00
S'/admin/default/edit/SlugBarter/controllers/default.py'
tp4717
a(g4477
(S's\x04\x00\x00\x00View'
tRp4718
I00
S'/admin/default/edit/SlugBarter/views/default/mypage.html'
tp4719
a(g4477
(S's\x06\x00\x00\x00Layout'
tRp4720
I00
S'/admin/default/edit/SlugBarter/views/layout.html'
tp4721
a(g4477
(S's\n\x00\x00\x00Stylesheet'
tRp4722
I00
S'/admin/default/edit/SlugBarter/static/css/web2py.css'
tp4723
a(g4477
(S's\x08\x00\x00\x00DB Model'
tRp4724
I00
S'/admin/default/edit/SlugBarter/models/db.py'
tp4725
a(g4477
(S's\n\x00\x00\x00Menu Model'
tRp4726
I00
S'/admin/default/edit/SlugBarter/models/menu.py'
tp4727
a(g4477
(S's\x08\x00\x00\x00Database'
tRp4728
I00
S'/SlugBarter/appadmin/index'
tp4729
a(g4477
(S's\x06\x00\x00\x00Errors'
tRp4730
I00
S'/admin/default/errors/SlugBarter'
tp4731
a(g4477
(S's\x05\x00\x00\x00About'
tRp4732
I00
S'/admin/default/about/SlugBarter'
tp4733
aasbasbasbasbasbasbasbag49
(g65
g51
NtRp4734
(dp4735
g54
(dp4736
sg63
g4591
sg56
(lp4737
g49
(g70
g51
NtRp4738
(dp4739
g54
(dp4740
sg63
g4734
sg56
(lp4741
g49
(g50
g51
NtRp4742
(dp4743
g54
(dp4744
g62
I2
ssg63
g4738
sg56
(lp4745
g49
(g58
g51
NtRp4746
(dp4747
g54
(dp4748
g62
I1
ssg63
Nsg56
(lp4749
g49
(g65
g51
NtRp4750
(dp4751
g54
(dp4752
sg63
g4746
sg56
(lp4753
g49
(g70
g51
NtRp4754
(dp4755
g54
(dp4756
sg63
g4750
sg56
(lp4757
g49
(g50
g51
NtRp4758
(dp4759
g54
(dp4760
g62
I1
ssg63
g4754
sg56
(lp4761
S'web2py.com'
p4762
asbasbasbag49
(g65
g51
NtRp4763
(dp4764
g54
(dp4765
sg63
g4746
sg56
(lp4766
g49
(g70
g51
NtRp4767
(dp4768
g54
(dp4769
sg63
g4763
sg56
(lp4770
g49
(g50
g51
NtRp4771
(dp4772
g54
(dp4773
g62
I1
ssg63
g4767
sg56
(lp4774
I00
asbasbasbag49
(g65
g51
NtRp4775
(dp4776
g54
(dp4777
sg63
g4746
sg56
(lp4778
g49
(g70
g51
NtRp4779
(dp4780
g54
(dp4781
sg63
g4775
sg56
(lp4782
g49
(g50
g51
NtRp4783
(dp4784
g54
(dp4785
g62
I1
ssg63
g4779
sg56
(lp4786
S'http://www.web2py.com'
p4787
asbasbasbag49
(g65
g51
NtRp4788
(dp4789
g54
(dp4790
sg63
g4746
sg56
(lp4791
g49
(g70
g51
NtRp4792
(dp4793
g54
(dp4794
sg63
g4788
sg56
(lp4795
g49
(g50
g51
NtRp4796
(dp4797
g54
(dp4798
g62
I1
ssg63
g4792
sg56
(lp4799
(lp4800
(g4477
(S's\x08\x00\x00\x00Download'
tRp4801
I00
S'http://www.web2py.com/examples/default/download'
p4802
tp4803
a(g4477
(S's\x07\x00\x00\x00Support'
tRp4804
I00
S'http://www.web2py.com/examples/default/support'
p4805
tp4806
a(g4477
(S's\x04\x00\x00\x00Demo'
tRp4807
I00
S'http://web2py.com/demo_admin'
p4808
tp4809
a(g4477
(S's\x0e\x00\x00\x00Quick Examples'
tRp4810
I00
S'http://web2py.com/examples/default/examples'
p4811
tp4812
a(g4477
(S's\x03\x00\x00\x00FAQ'
tRp4813
I00
S'http://web2py.com/AlterEgo'
p4814
tp4815
a(g4477
(S's\x06\x00\x00\x00Videos'
tRp4816
I00
S'http://www.web2py.com/examples/default/videos/'
p4817
tp4818
a(g4477
(S's\x11\x00\x00\x00Free Applications'
tRp4819
I00
S'http://web2py.com/appliances'
p4820
tp4821
a(g4477
(S's\x07\x00\x00\x00Plugins'
tRp4822
I00
S'http://web2py.com/plugins'
p4823
tp4824
a(g4477
(S's\x07\x00\x00\x00Layouts'
tRp4825
I00
S'http://web2py.com/layouts'
p4826
tp4827
a(g4477
(S's\x07\x00\x00\x00Recipes'
tRp4828
I00
S'http://web2pyslices.com/'
p4829
tp4830
a(g4477
(S's\x08\x00\x00\x00Semantic'
tRp4831
I00
S'http://web2py.com/semantic'
p4832
tp4833
aasbasbasbasbasbasbasbag49
(g65
g51
NtRp4834
(dp4835
g54
(dp4836
sg63
g4591
sg56
(lp4837
g49
(g70
g51
NtRp4838
(dp4839
g54
(dp4840
sg63
g4834
sg56
(lp4841
g49
(g50
g51
NtRp4842
(dp4843
g54
(dp4844
g62
I2
ssg63
g4838
sg56
(lp4845
g49
(g58
g51
NtRp4846
(dp4847
g54
(dp4848
g62
I1
ssg63
Nsg56
(lp4849
g49
(g65
g51
NtRp4850
(dp4851
g54
(dp4852
sg63
g4846
sg56
(lp4853
g49
(g70
g51
NtRp4854
(dp4855
g54
(dp4856
sg63
g4850
sg56
(lp4857
g49
(g50
g51
NtRp4858
(dp4859
g54
(dp4860
g62
I1
ssg63
g4854
sg56
(lp4861
g4477
(S's\r\x00\x00\x00Documentation'
tRp4862
asbasbasbag49
(g65
g51
NtRp4863
(dp4864
g54
(dp4865
sg63
g4846
sg56
(lp4866
g49
(g70
g51
NtRp4867
(dp4868
g54
(dp4869
sg63
g4863
sg56
(lp4870
g49
(g50
g51
NtRp4871
(dp4872
g54
(dp4873
g62
I1
ssg63
g4867
sg56
(lp4874
I00
asbasbasbag49
(g65
g51
NtRp4875
(dp4876
g54
(dp4877
sg63
g4846
sg56
(lp4878
g49
(g70
g51
NtRp4879
(dp4880
g54
(dp4881
sg63
g4875
sg56
(lp4882
g49
(g50
g51
NtRp4883
(dp4884
g54
(dp4885
g62
I1
ssg63
g4879
sg56
(lp4886
S'http://www.web2py.com/book'
p4887
asbasbasbag49
(g65
g51
NtRp4888
(dp4889
g54
(dp4890
sg63
g4846
sg56
(lp4891
g49
(g70
g51
NtRp4892
(dp4893
g54
(dp4894
sg63
g4888
sg56
(lp4895
g49
(g50
g51
NtRp4896
(dp4897
g54
(dp4898
g62
I1
ssg63
g4892
sg56
(lp4899
(lp4900
(g4477
(S's\x07\x00\x00\x00Preface'
tRp4901
I00
S'http://www.web2py.com/book/default/chapter/00'
p4902
tp4903
a(g4477
(S's\x0c\x00\x00\x00Introduction'
tRp4904
I00
S'http://www.web2py.com/book/default/chapter/01'
p4905
tp4906
a(g4477
(S's\x06\x00\x00\x00Python'
tRp4907
I00
S'http://www.web2py.com/book/default/chapter/02'
p4908
tp4909
a(g4477
(S's\x08\x00\x00\x00Overview'
tRp4910
I00
S'http://www.web2py.com/book/default/chapter/03'
p4911
tp4912
a(g4477
(S's\x08\x00\x00\x00The Core'
tRp4913
I00
S'http://www.web2py.com/book/default/chapter/04'
p4914
tp4915
a(g4477
(S's\t\x00\x00\x00The Views'
tRp4916
I00
S'http://www.web2py.com/book/default/chapter/05'
p4917
tp4918
a(g4477
(S's\x08\x00\x00\x00Database'
tRp4919
I00
S'http://www.web2py.com/book/default/chapter/06'
p4920
tp4921
a(g4477
(S's\x14\x00\x00\x00Forms and Validators'
tRp4922
I00
S'http://www.web2py.com/book/default/chapter/07'
p4923
tp4924
a(g4477
(S's\r\x00\x00\x00Email and SMS'
tRp4925
I00
S'http://www.web2py.com/book/default/chapter/08'
p4926
tp4927
a(g4477
(S's\x0e\x00\x00\x00Access Control'
tRp4928
I00
S'http://www.web2py.com/book/default/chapter/09'
p4929
tp4930
a(g4477
(S's\x08\x00\x00\x00Services'
tRp4931
I00
S'http://www.web2py.com/book/default/chapter/10'
p4932
tp4933
a(g4477
(S's\x0c\x00\x00\x00Ajax Recipes'
tRp4934
I00
S'http://www.web2py.com/book/default/chapter/11'
p4935
tp4936
a(g4477
(S's\x16\x00\x00\x00Components and Plugins'
tRp4937
I00
S'http://www.web2py.com/book/default/chapter/12'
p4938
tp4939
a(g4477
(S's\x12\x00\x00\x00Deployment Recipes'
tRp4940
I00
S'http://www.web2py.com/book/default/chapter/13'
p4941
tp4942
a(g4477
(S's\r\x00\x00\x00Other Recipes'
tRp4943
I00
S'http://www.web2py.com/book/default/chapter/14'
p4944
tp4945
a(g4477
(S's\r\x00\x00\x00Buy this book'
tRp4946
I00
S'http://stores.lulu.com/web2py'
p4947
tp4948
aasbasbasbasbasbasbasbag49
(g65
g51
NtRp4949
(dp4950
g54
(dp4951
sg63
g4591
sg56
(lp4952
g49
(g70
g51
NtRp4953
(dp4954
g54
(dp4955
sg63
g4949
sg56
(lp4956
g49
(g50
g51
NtRp4957
(dp4958
g54
(dp4959
g62
I2
ssg63
g4953
sg56
(lp4960
g49
(g58
g51
NtRp4961
(dp4962
g54
(dp4963
g62
I1
ssg63
Nsg56
(lp4964
g49
(g65
g51
NtRp4965
(dp4966
g54
(dp4967
sg63
g4961
sg56
(lp4968
g49
(g70
g51
NtRp4969
(dp4970
g54
(dp4971
sg63
g4965
sg56
(lp4972
g49
(g50
g51
NtRp4973
(dp4974
g54
(dp4975
g62
I1
ssg63
g4969
sg56
(lp4976
g4477
(S's\t\x00\x00\x00Community'
tRp4977
asbasbasbag49
(g65
g51
NtRp4978
(dp4979
g54
(dp4980
sg63
g4961
sg56
(lp4981
g49
(g70
g51
NtRp4982
(dp4983
g54
(dp4984
sg63
g4978
sg56
(lp4985
g49
(g50
g51
NtRp4986
(dp4987
g54
(dp4988
g62
I1
ssg63
g4982
sg56
(lp4989
I00
asbasbasbag49
(g65
g51
NtRp4990
(dp4991
g54
(dp4992
sg63
g4961
sg56
(lp4993
g49
(g70
g51
NtRp4994
(dp4995
g54
(dp4996
sg63
g4990
sg56
(lp4997
g49
(g50
g51
NtRp4998
(dp4999
g54
(dp5000
g62
I1
ssg63
g4994
sg56
(lp5001
Nasbasbasbag49
(g65
g51
NtRp5002
(dp5003
g54
(dp5004
sg63
g4961
sg56
(lp5005
g49
(g70
g51
NtRp5006
(dp5007
g54
(dp5008
sg63
g5002
sg56
(lp5009
g49
(g50
g51
NtRp5010
(dp5011
g54
(dp5012
g62
I1
ssg63
g5006
sg56
(lp5013
(lp5014
(g4477
(S's\x06\x00\x00\x00Groups'
tRp5015
I00
S'http://www.web2py.com/examples/default/usergroups'
p5016
tp5017
a(g4477
(S's\x07\x00\x00\x00Twitter'
tRp5018
I00
S'http://twitter.com/web2py'
p5019
tp5020
a(g4477
(S's\t\x00\x00\x00Live Chat'
tRp5021
I00
S'http://webchat.freenode.net/?channels=web2py'
p5022
tp5023
aasbasbasbasbasbasbasbag49
(g65
g51
NtRp5024
(dp5025
g54
(dp5026
sg63
g4591
sg56
(lp5027
g49
(g70
g51
NtRp5028
(dp5029
g54
(dp5030
sg63
g5024
sg56
(lp5031
g49
(g50
g51
NtRp5032
(dp5033
g54
(dp5034
g62
I2
ssg63
g5028
sg56
(lp5035
g49
(g58
g51
NtRp5036
(dp5037
g54
(dp5038
g62
I1
ssg63
Nsg56
(lp5039
g49
(g65
g51
NtRp5040
(dp5041
g54
(dp5042
sg63
g5036
sg56
(lp5043
g49
(g70
g51
NtRp5044
(dp5045
g54
(dp5046
sg63
g5040
sg56
(lp5047
g49
(g50
g51
NtRp5048
(dp5049
g54
(dp5050
g62
I1
ssg63
g5044
sg56
(lp5051
g4477
(S's\x07\x00\x00\x00Plugins'
tRp5052
asbasbasbag49
(g65
g51
NtRp5053
(dp5054
g54
(dp5055
sg63
g5036
sg56
(lp5056
g49
(g70
g51
NtRp5057
(dp5058
g54
(dp5059
sg63
g5053
sg56
(lp5060
g49
(g50
g51
NtRp5061
(dp5062
g54
(dp5063
g62
I1
ssg63
g5057
sg56
(lp5064
I00
asbasbasbag49
(g65
g51
NtRp5065
(dp5066
g54
(dp5067
sg63
g5036
sg56
(lp5068
g49
(g70
g51
NtRp5069
(dp5070
g54
(dp5071
sg63
g5065
sg56
(lp5072
g49
(g50
g51
NtRp5073
(dp5074
g54
(dp5075
g62
I1
ssg63
g5069
sg56
(lp5076
Nasbasbasbag49
(g65
g51
NtRp5077
(dp5078
g54
(dp5079
sg63
g5036
sg56
(lp5080
g49
(g70
g51
NtRp5081
(dp5082
g54
(dp5083
sg63
g5077
sg56
(lp5084
g49
(g50
g51
NtRp5085
(dp5086
g54
(dp5087
g62
I1
ssg63
g5081
sg56
(lp5088
(lp5089
(S'plugin_wiki'
p5090
I00
S'http://web2py.com/examples/default/download'
p5091
tp5092
a(g4477
(S's\r\x00\x00\x00Other Plugins'
tRp5093
I00
g4823
tp5094
a(g4477
(S's\x0e\x00\x00\x00Layout Plugins'
tRp5095
I00
g4826
tp5096
aasbasbasbasbasbasbasbasbasbasbasbasbasbasbasbasbasbasbasbag49
(g65
g51
NtRp5097
(dp5098
g54
(dp5099
sg63
g3941
sg56
(lp5100
g49
(g70
g51
NtRp5101
(dp5102
g54
(dp5103
g74
g75
ssg63
g5097
sg56
(lp5104
S'meta'
p5105
asbag49
(g70
g51
NtRp5106
(dp5107
g54
(dp5108
g81
g82
ssg63
g5097
sg56
(lp5109
S':'
asbag49
(g70
g51
NtRp5110
(dp5111
g54
(dp5112
sg63
g5097
sg56
(lp5113
g49
(g50
g51
NtRp5114
(dp5115
g54
(dp5116
g62
I5
ssg63
g5110
sg56
(lp5117
g49
(g58
g51
NtRp5118
(dp5119
g54
(dp5120
g62
I4
ssg63
Nsg56
(lp5121
g49
(g65
g51
NtRp5122
(dp5123
g54
(dp5124
sg63
g5118
sg56
(lp5125
g49
(g70
g51
NtRp5126
(dp5127
g54
(dp5128
g74
g75
ssg63
g5122
sg56
(lp5129
S'author'
p5130
asbag49
(g70
g51
NtRp5131
(dp5132
g54
(dp5133
g81
g82
ssg63
g5122
sg56
(lp5134
S':'
asbag49
(g70
g51
NtRp5135
(dp5136
g54
(dp5137
sg63
g5122
sg56
(lp5138
g49
(g50
g51
NtRp5139
(dp5140
g54
(dp5141
g62
I4
ssg63
g5135
sg56
(lp5142
S'Your Name <you@example.com>'
p5143
asbasbasbag49
(g65
g51
NtRp5144
(dp5145
g54
(dp5146
sg63
g5118
sg56
(lp5147
g49
(g70
g51
NtRp5148
(dp5149
g54
(dp5150
g74
g75
ssg63
g5144
sg56
(lp5151
S'copyright'
p5152
asbag49
(g70
g51
NtRp5153
(dp5154
g54
(dp5155
g81
g82
ssg63
g5144
sg56
(lp5156
S':'
asbag49
(g70
g51
NtRp5157
(dp5158
g54
(dp5159
sg63
g5144
sg56
(lp5160
g49
(g50
g51
NtRp5161
(dp5162
g54
(dp5163
g62
I4
ssg63
g5157
sg56
(lp5164
S'Copyright 2011'
p5165
asbasbasbag49
(g65
g51
NtRp5166
(dp5167
g54
(dp5168
sg63
g5118
sg56
(lp5169
g49
(g70
g51
NtRp5170
(dp5171
g54
(dp5172
g74
g75
ssg63
g5166
sg56
(lp5173
S'description'
p5174
asbag49
(g70
g51
NtRp5175
(dp5176
g54
(dp5177
g81
g82
ssg63
g5166
sg56
(lp5178
S':'
asbag49
(g70
g51
NtRp5179
(dp5180
g54
(dp5181
sg63
g5166
sg56
(lp5182
g49
(g50
g51
NtRp5183
(dp5184
g54
(dp5185
g62
I4
ssg63
g5179
sg56
(lp5186
S'a cool new app'
p5187
asbasbasbag49
(g65
g51
NtRp5188
(dp5189
g54
(dp5190
sg63
g5118
sg56
(lp5191
g49
(g70
g51
NtRp5192
(dp5193
g54
(dp5194
g74
g75
ssg63
g5188
sg56
(lp5195
S'generator'
p5196
asbag49
(g70
g51
NtRp5197
(dp5198
g54
(dp5199
g81
g82
ssg63
g5188
sg56
(lp5200
S':'
asbag49
(g70
g51
NtRp5201
(dp5202
g54
(dp5203
sg63
g5188
sg56
(lp5204
g49
(g50
g51
NtRp5205
(dp5206
g54
(dp5207
g62
I4
ssg63
g5201
sg56
(lp5208
S'Web2py Web Framework'
p5209
asbasbasbag49
(g65
g51
NtRp5210
(dp5211
g54
(dp5212
sg63
g5118
sg56
(lp5213
g49
(g70
g51
NtRp5214
(dp5215
g54
(dp5216
g74
g75
ssg63
g5210
sg56
(lp5217
S'keywords'
p5218
asbag49
(g70
g51
NtRp5219
(dp5220
g54
(dp5221
g81
g82
ssg63
g5210
sg56
(lp5222
S':'
asbag49
(g70
g51
NtRp5223
(dp5224
g54
(dp5225
sg63
g5210
sg56
(lp5226
g49
(g50
g51
NtRp5227
(dp5228
g54
(dp5229
g62
I4
ssg63
g5223
sg56
(lp5230
S'web2py, python, framework'
p5231
asbasbasbasbasbasbasbag49
(g65
g51
NtRp5232
(dp5233
g54
(dp5234
sg63
g3941
sg56
(lp5235
g49
(g70
g51
NtRp5236
(dp5237
g54
(dp5238
g74
g75
ssg63
g5232
sg56
(lp5239
S'postprocessing'
p5240
asbag49
(g70
g51
NtRp5241
(dp5242
g54
(dp5243
g81
g82
ssg63
g5232
sg56
(lp5244
S':'
asbag49
(g70
g51
NtRp5245
(dp5246
g54
(dp5247
sg63
g5232
sg56
(lp5248
g49
(g50
g51
NtRp5249
(dp5250
g54
(dp5251
g62
I5
ssg63
g5245
sg56
(lp5252
g49
(g58
g51
NtRp5253
(dp5254
g54
(dp5255
g62
I4
ssg63
Nsg56
(lp5256
sbasbasbasbag49
(g65
g51
NtRp5257
(dp5258
g54
(dp5259
sg63
g3941
sg56
(lp5260
g49
(g70
g51
NtRp5261
(dp5262
g54
(dp5263
g74
g75
ssg63
g5257
sg56
(lp5264
S'session_file'
p5265
asbag49
(g70
g51
NtRp5266
(dp5267
g54
(dp5268
g81
g82
ssg63
g5257
sg56
(lp5269
S':'
asbag49
(g70
g51
NtRp5270
(dp5271
g54
(dp5272
sg63
g5257
sg56
(lp5273
g49
(g50
g51
NtRp5274
(dp5275
g54
(dp5276
g62
I5
ssg63
g5270
sg56
(lp5277
S"<open file 'C:\\Users\\omkara\\Desktop\\web2py\\applications\\SlugBarter\\sessions\\127.0.0.1-e6ebae72-1bbc-48a5-9458-95dbb65a4e54', mode 'rb+' at 0x06535020>"
p5278
asbasbasbag49
(g65
g51
NtRp5279
(dp5280
g54
(dp5281
sg63
g3941
sg56
(lp5282
g49
(g70
g51
NtRp5283
(dp5284
g54
(dp5285
g74
g75
ssg63
g5279
sg56
(lp5286
S'session_filename'
p5287
asbag49
(g70
g51
NtRp5288
(dp5289
g54
(dp5290
g81
g82
ssg63
g5279
sg56
(lp5291
S':'
asbag49
(g70
g51
NtRp5292
(dp5293
g54
(dp5294
sg63
g5279
sg56
(lp5295
g49
(g50
g51
NtRp5296
(dp5297
g54
(dp5298
g62
I5
ssg63
g5292
sg56
(lp5299
S'C:\\Users\\omkara\\Desktop\\web2py\\applications\\SlugBarter\\sessions\\127.0.0.1-e6ebae72-1bbc-48a5-9458-95dbb65a4e54'
p5300
asbasbasbag49
(g65
g51
NtRp5301
(dp5302
g54
(dp5303
sg63
g3941
sg56
(lp5304
g49
(g70
g51
NtRp5305
(dp5306
g54
(dp5307
g74
g75
ssg63
g5301
sg56
(lp5308
S'session_id'
p5309
asbag49
(g70
g51
NtRp5310
(dp5311
g54
(dp5312
g81
g82
ssg63
g5301
sg56
(lp5313
S':'
asbag49
(g70
g51
NtRp5314
(dp5315
g54
(dp5316
sg63
g5301
sg56
(lp5317
g49
(g50
g51
NtRp5318
(dp5319
g54
(dp5320
g62
I5
ssg63
g5314
sg56
(lp5321
S'127.0.0.1-e6ebae72-1bbc-48a5-9458-95dbb65a4e54'
p5322
asbasbasbag49
(g65
g51
NtRp5323
(dp5324
g54
(dp5325
sg63
g3941
sg56
(lp5326
g49
(g70
g51
NtRp5327
(dp5328
g54
(dp5329
g74
g75
ssg63
g5323
sg56
(lp5330
S'session_id_name'
p5331
asbag49
(g70
g51
NtRp5332
(dp5333
g54
(dp5334
g81
g82
ssg63
g5323
sg56
(lp5335
S':'
asbag49
(g70
g51
NtRp5336
(dp5337
g54
(dp5338
sg63
g5323
sg56
(lp5339
g49
(g50
g51
NtRp5340
(dp5341
g54
(dp5342
g62
I5
ssg63
g5336
sg56
(lp5343
g3998
asbasbasbag49
(g65
g51
NtRp5344
(dp5345
g54
(dp5346
sg63
g3941
sg56
(lp5347
g49
(g70
g51
NtRp5348
(dp5349
g54
(dp5350
g74
g75
ssg63
g5344
sg56
(lp5351
S'session_locked'
p5352
asbag49
(g70
g51
NtRp5353
(dp5354
g54
(dp5355
g81
g82
ssg63
g5344
sg56
(lp5356
S':'
asbag49
(g70
g51
NtRp5357
(dp5358
g54
(dp5359
sg63
g5344
sg56
(lp5360
g49
(g50
g51
NtRp5361
(dp5362
g54
(dp5363
g62
I5
ssg63
g5357
sg56
(lp5364
g2126
asbasbasbag49
(g65
g51
NtRp5365
(dp5366
g54
(dp5367
sg63
g3941
sg56
(lp5368
g49
(g70
g51
NtRp5369
(dp5370
g54
(dp5371
g74
g75
ssg63
g5365
sg56
(lp5372
S'session_new'
p5373
asbag49
(g70
g51
NtRp5374
(dp5375
g54
(dp5376
g81
g82
ssg63
g5365
sg56
(lp5377
S':'
asbag49
(g70
g51
NtRp5378
(dp5379
g54
(dp5380
sg63
g5365
sg56
(lp5381
g49
(g50
g51
NtRp5382
(dp5383
g54
(dp5384
g62
I5
ssg63
g5378
sg56
(lp5385
g92
asbasbasbag49
(g65
g51
NtRp5386
(dp5387
g54
(dp5388
sg63
g3941
sg56
(lp5389
g49
(g70
g51
NtRp5390
(dp5391
g54
(dp5392
g74
g75
ssg63
g5386
sg56
(lp5393
S'status'
p5394
asbag49
(g70
g51
NtRp5395
(dp5396
g54
(dp5397
g81
g82
ssg63
g5386
sg56
(lp5398
S':'
asbag49
(g70
g51
NtRp5399
(dp5400
g54
(dp5401
sg63
g5386
sg56
(lp5402
g49
(g50
g51
NtRp5403
(dp5404
g54
(dp5405
g62
I5
ssg63
g5399
sg56
(lp5406
S'200'
p5407
asbasbasbag49
(g65
g51
NtRp5408
(dp5409
g54
(dp5410
sg63
g3941
sg56
(lp5411
g49
(g70
g51
NtRp5412
(dp5413
g54
(dp5414
g74
g75
ssg63
g5408
sg56
(lp5415
S'subtitle'
p5416
asbag49
(g70
g51
NtRp5417
(dp5418
g54
(dp5419
g81
g82
ssg63
g5408
sg56
(lp5420
S':'
asbag49
(g70
g51
NtRp5421
(dp5422
g54
(dp5423
sg63
g5408
sg56
(lp5424
g49
(g50
g51
NtRp5425
(dp5426
g54
(dp5427
g62
I5
ssg63
g5421
sg56
(lp5428
g4477
(S's\r\x00\x00\x00customize me!'
tRp5429
asbasbasbag49
(g65
g51
NtRp5430
(dp5431
g54
(dp5432
sg63
g3941
sg56
(lp5433
g49
(g70
g51
NtRp5434
(dp5435
g54
(dp5436
g74
g75
ssg63
g5430
sg56
(lp5437
S'title'
p5438
asbag49
(g70
g51
NtRp5439
(dp5440
g54
(dp5441
g81
g82
ssg63
g5430
sg56
(lp5442
S':'
asbag49
(g70
g51
NtRp5443
(dp5444
g54
(dp5445
sg63
g5430
sg56
(lp5446
g49
(g50
g51
NtRp5447
(dp5448
g54
(dp5449
g62
I5
ssg63
g5443
sg56
(lp5450
S'Slugbarter'
p5451
asbasbasbag49
(g65
g51
NtRp5452
(dp5453
g54
(dp5454
sg63
g3941
sg56
(lp5455
g49
(g70
g51
NtRp5456
(dp5457
g54
(dp5458
g74
g75
ssg63
g5452
sg56
(lp5459
g2790
asbag49
(g70
g51
NtRp5460
(dp5461
g54
(dp5462
g81
g82
ssg63
g5452
sg56
(lp5463
S':'
asbag49
(g70
g51
NtRp5464
(dp5465
g54
(dp5466
sg63
g5452
sg56
(lp5467
g49
(g50
g51
NtRp5468
(dp5469
g54
(dp5470
g62
I5
ssg63
g5464
sg56
(lp5471
g2803
asbasbasbag49
(g65
g51
NtRp5472
(dp5473
g54
(dp5474
sg63
g3941
sg56
(lp5475
g49
(g70
g51
NtRp5476
(dp5477
g54
(dp5478
g74
g75
ssg63
g5472
sg56
(lp5479
S'view'
p5480
asbag49
(g70
g51
NtRp5481
(dp5482
g54
(dp5483
g81
g82
ssg63
g5472
sg56
(lp5484
S':'
asbag49
(g70
g51
NtRp5485
(dp5486
g54
(dp5487
sg63
g5472
sg56
(lp5488
g49
(g50
g51
NtRp5489
(dp5490
g54
(dp5491
g62
I5
ssg63
g5485
sg56
(lp5492
S'default/mypage.html'
p5493
asbasbasbasbasbsS'locals'
p5494
(dp5495
S'Service'
p5496
S"<class 'gluon.tools.Service'>"
p5497
sS'OBJECT'
p5498
S"<class 'gluon.html.OBJECT'>"
p5499
sS'SQLDB'
p5500
S"<class 'gluon.dal.DAL'>"
p5501
sg3502
S"<Storage {'last_query': 'db.auth_user.id>0', '_f...reate]': 'b03e2190-eaa9-4917-83d6-eb825ad9ff09'}>"
p5502
sS'LINK'
p5503
S"<class 'gluon.html.LINK'>"
p5504
sS'BR'
p5505
S"<class 'gluon.html.BR'>"
p5506
sS'local_import'
p5507
S'<function <lambda> at 0x061F9330>'
p5508
sS'OPTGROUP'
p5509
S"<class 'gluon.html.OPTGROUP'>"
p5510
sS'PRE'
p5511
S"<class 'gluon.html.PRE'>"
p5512
sS'IS_INT_IN_RANGE'
p5513
S"<class 'gluon.validators.IS_INT_IN_RANGE'>"
p5514
sS'IS_LOWER'
p5515
S"<class 'gluon.validators.IS_LOWER'>"
p5516
sS'IS_STRONG'
p5517
S"<class 'gluon.validators.IS_STRONG'>"
p5518
sS'cache'
p5519
S'<gluon.cache.Cache object at 0x06A7B310>'
p5520
sS'IS_IN_DB'
p5521
S"<class 'gluon.validators.IS_IN_DB'>"
p5522
sS'TAG'
p5523
S'<gluon.html.__TAG__ object at 0x01E7FD50>'
p5524
sS'SQLField'
p5525
S"<class 'gluon.dal.Field'>"
p5526
sS'mail'
p5527
S'<gluon.tools.Mail object at 0x06A7BC10>'
p5528
sS'BODY'
p5529
S"<class 'gluon.html.BODY'>"
p5530
sS'IS_DATE_IN_RANGE'
p5531
S"<class 'gluon.validators.IS_DATE_IN_RANGE'>"
p5532
sS'IFRAME'
p5533
S"<class 'gluon.html.IFRAME'>"
p5534
sS'URL'
p5535
S'<function URL at 0x01EE7DF0>'
p5536
sS'__file__'
p5537
S"r'C:\\Users\\omkara\\Desktop\\web2py\\applications\\SlugBarter\\models\\registerForm.py'"
p5538
sS'db'
p5539
S"<DAL {'_migrate_enabled': True, '_lastsql': '', ...'_uri_hash': 'c8b669d15150d7109e5f7ab36744a5b7'}>"
p5540
sS'auth'
p5541
S'<gluon.tools.Auth object at 0x06086C30>'
p5542
sS'P'
S"<class 'gluon.html.P'>"
p5543
sS'TFOOT'
p5544
S"<class 'gluon.html.TFOOT'>"
p5545
sS'XHTML'
p5546
S"<class 'gluon.html.XHTML'>"
p5547
sS'datetime'
p5548
S"<type 'datetime.datetime'>"
p5549
sS'ON'
p5550
g2126
sS'OL'
p5551
S"<class 'gluon.html.OL'>"
p5552
sS'TEXTAREA'
p5553
S"<class 'gluon.html.TEXTAREA'>"
p5554
sS'MENU'
p5555
S"<class 'gluon.html.MENU'>"
p5556
sS'EM'
p5557
S"<class 'gluon.html.EM'>"
p5558
sS'CODE'
p5559
S"<class 'gluon.html.CODE'>"
p5560
sS'HTTP'
p5561
S"<class 'gluon.http.HTTP'>"
p5562
sS'HR'
p5563
S"<class 'gluon.html.HR'>"
p5564
sS'IS_DATETIME'
p5565
S"<class 'gluon.validators.IS_DATETIME'>"
p5566
sS'STYLE'
p5567
S"<class 'gluon.html.STYLE'>"
p5568
sS'LABEL'
p5569
S"<class 'gluon.html.LABEL'>"
p5570
sS'META'
p5571
S"<class 'gluon.html.META'>"
p5572
sS'plugins'
p5573
S'<gluon.tools.PluginManager object at 0x0296F150>'
p5574
sS'SELECT'
p5575
S"<class 'gluon.html.SELECT'>"
p5576
sS'use_janrain'
p5577
S'<function use_janrain at 0x02974570>'
p5578
sS'CENTER'
p5579
S"<class 'gluon.html.CENTER'>"
p5580
sS'prettydate'
p5581
S'<function prettydate at 0x0296BB70>'
p5582
sS'Crud'
p5583
S"<class 'gluon.tools.Crud'>"
p5584
sS'Auth'
p5585
S"<class 'gluon.tools.Auth'>"
p5586
sS'__builtins__'
p5587
S"{'ArithmeticError': <type 'exceptions.ArithmeticError'>, 'AssertionError': <type 'exceptions.AssertionError'>, 'AttributeError': <type 'exceptions.AttributeError'>, 'BaseException': <type 'exceptions.BaseException'>, 'DeprecationWarning': <type 'exceptions.DeprecationWarning'>, 'EOFError': <type 'exceptions.EOFError'>, 'Ellipsis': Ellipsis, 'EnvironmentError': <type 'exceptions.EnvironmentError'>, 'Exception': <type 'exceptions.Exception'>, 'False': False, ...}"
p5588
sS'HTML'
p5589
S"<class 'gluon.html.HTML'>"
p5590
sS'SQLFORM'
p5591
S"<class 'gluon.sqlhtml.SQLFORM'>"
p5592
sS'LOAD'
p5593
S'<function LOAD at 0x0212A6F0>'
p5594
sS'redirect'
p5595
S'<function redirect at 0x01B42AB0>'
p5596
sS'FIELDSET'
p5597
S"<class 'gluon.html.FIELDSET'>"
p5598
sS'IS_EQUAL_TO'
p5599
S"<class 'gluon.validators.IS_EQUAL_TO'>"
p5600
sS'embed64'
p5601
S'<function embed64 at 0x01EF5930>'
p5602
sS'IS_LIST_OF'
p5603
S"<class 'gluon.validators.IS_LIST_OF'>"
p5604
sS'INPUT'
p5605
S"<class 'gluon.html.INPUT'>"
p5606
sS'EMBED'
p5607
S"<class 'gluon.html.EMBED'>"
p5608
sS'_'
S'<function _ at 0x061F92B0>'
p5609
sS'FORM'
p5610
S"<class 'gluon.html.FORM'>"
p5611
sS'H2'
p5612
S"<class 'gluon.html.H2'>"
p5613
sS'H3'
p5614
S"<class 'gluon.html.H3'>"
p5615
sS'BUTTON'
p5616
S"<class 'gluon.html.BUTTON'>"
p5617
sS'H1'
p5618
S"<class 'gluon.html.H1'>"
p5619
sS'H6'
p5620
S"<class 'gluon.html.H6'>"
p5621
sS'H4'
p5622
S"<class 'gluon.html.H4'>"
p5623
sS'H5'
p5624
S"<class 'gluon.html.H5'>"
p5625
sS'UL'
p5626
S"<class 'gluon.html.UL'>"
p5627
sS'IS_UPPER'
p5628
S"<class 'gluon.validators.IS_UPPER'>"
p5629
sS'xmlescape'
p5630
S'<function xmlescape at 0x01EE7D70>'
p5631
sS'IS_TIME'
p5632
S"<class 'gluon.validators.IS_TIME'>"
p5633
sS'OPTION'
p5634
S"<class 'gluon.html.OPTION'>"
p5635
sS'TITLE'
p5636
S"<class 'gluon.html.TITLE'>"
p5637
sS'CRYPT'
p5638
S"<class 'gluon.validators.CRYPT'>"
p5639
sS'IS_EMPTY_OR'
p5640
S"<class 'gluon.validators.IS_EMPTY_OR'>"
p5641
sS'MARKMIN'
p5642
S"<class 'gluon.html.MARKMIN'>"
p5643
sS'__name__'
p5644
S"'__restricted__'"
p5645
sS'COL'
p5646
S"<class 'gluon.html.COL'>"
p5647
sS'service'
p5648
S'<gluon.tools.Service object at 0x05ECCFF0>'
p5649
sS'SCRIPT'
p5650
S"<class 'gluon.html.SCRIPT'>"
p5651
sS'TABLE'
p5652
S"<class 'gluon.html.TABLE'>"
p5653
sS'IS_IPV4'
p5654
S"<class 'gluon.validators.IS_IPV4'>"
p5655
sS'IS_LENGTH'
p5656
S"<class 'gluon.validators.IS_LENGTH'>"
p5657
sS'XML'
p5658
S"<class 'gluon.html.XML'>"
p5659
sS'B'
S"<class 'gluon.html.B'>"
p5660
sS'IMG'
p5661
S"<class 'gluon.html.IMG'>"
p5662
sS'SQLTABLE'
p5663
S"<class 'gluon.sqlhtml.SQLTABLE'>"
p5664
sS'IS_MATCH'
p5665
S"<class 'gluon.validators.IS_MATCH'>"
p5666
sS'IS_ALPHANUMERIC'
p5667
S"<class 'gluon.validators.IS_ALPHANUMERIC'>"
p5668
sS'SPAN'
p5669
S"<class 'gluon.html.SPAN'>"
p5670
sS'IS_SLUG'
p5671
S"<class 'gluon.validators.IS_SLUG'>"
p5672
sS'CLEANUP'
p5673
S"<class 'gluon.validators.CLEANUP'>"
p5674
sS'IS_DATE'
p5675
S"<class 'gluon.validators.IS_DATE'>"
p5676
sS'IS_EMAIL'
p5677
S"<class 'gluon.validators.IS_EMAIL'>"
p5678
sS'IS_NOT_EMPTY'
p5679
S"<class 'gluon.validators.IS_NOT_EMPTY'>"
p5680
sS'IS_FLOAT_IN_RANGE'
p5681
S"<class 'gluon.validators.IS_FLOAT_IN_RANGE'>"
p5682
sS'BEAUTIFY'
p5683
S"<class 'gluon.html.BEAUTIFY'>"
p5684
sS'TBODY'
p5685
S"<class 'gluon.html.TBODY'>"
p5686
sS'CAT'
p5687
S"<class 'gluon.html.CAT'>"
p5688
sS'Field'
p5689
S"<class 'gluon.dal.Field'>"
p5690
sS'DIV'
p5691
S"<class 'gluon.html.DIV'>"
p5692
sS'LEGEND'
p5693
S"<class 'gluon.html.LEGEND'>"
p5694
sS'COLGROUP'
p5695
S"<class 'gluon.html.COLGROUP'>"
p5696
sS'DAL'
p5697
S"<class 'gluon.dal.DAL'>"
p5698
sS'TT'
p5699
S"<class 'gluon.html.TT'>"
p5700
sS'TR'
p5701
S"<class 'gluon.html.TR'>"
p5702
sS'LI'
p5703
S"<class 'gluon.html.LI'>"
p5704
sS'TH'
p5705
S"<class 'gluon.html.TH'>"
p5706
sS'TD'
p5707
S"<class 'gluon.html.TD'>"
p5708
sS'PluginManager'
p5709
S"<class 'gluon.tools.PluginManager'>"
p5710
sS'IS_URL'
p5711
S"<class 'gluon.validators.IS_URL'>"
p5712
sS'A'
S"<class 'gluon.html.A'>"
p5713
sS'HEAD'
p5714
S"<class 'gluon.html.HEAD'>"
p5715
sS'IS_DATETIME_IN_RANGE'
p5716
S"<class 'gluon.validators.IS_DATETIME_IN_RANGE'>"
p5717
sS'IS_IMAGE'
p5718
S"<class 'gluon.validators.IS_IMAGE'>"
p5719
sS'I'
S"<class 'gluon.html.I'>"
p5720
sS'crud'
p5721
S'<gluon.tools.Crud object at 0x063E2E90>'
p5722
sS'IS_NOT_IN_DB'
p5723
S"<class 'gluon.validators.IS_NOT_IN_DB'>"
p5724
sg3936
S"<Storage {'body': <cStringIO.StringO object at 0...> at 0x0638BA30>, 'view': 'default/mypage.html'}>"
p5725
sS'THEAD'
p5726
S"<class 'gluon.html.THEAD'>"
p5727
sS'IS_NULL_OR'
p5728
S"<class 'gluon.validators.IS_EMPTY_OR'>"
p5729
sg48
S"<Storage {'body': <cStringIO.StringO object at 0..._vars': <Storage {}>, 'post_vars': <Storage {}>}>"
p5730
sS'IS_EXPR'
p5731
S"<class 'gluon.validators.IS_EXPR'>"
p5732
sS'IS_IN_SET'
p5733
S"<class 'gluon.validators.IS_IN_SET'>"
p5734
sS'IS_UPLOAD_FILENAME'
p5735
S"<class 'gluon.validators.IS_UPLOAD_FILENAME'>"
p5736
sS'IS_DECIMAL_IN_RANGE'
p5737
S"<class 'gluon.validators.IS_DECIMAL_IN_RANGE'>"
p5738
sS'T'
S'<gluon.languages.translator object at 0x06A7B250>'
p5739
sssS'traceback'
p5740
S'Traceback (most recent call last):\n  File "gluon/restricted.py", line 205, in restricted\n  File "C:\\Users\\omkara\\Desktop\\web2py\\applications\\SlugBarter\\models\\registerForm.py", line 11, in <module>\nNameError: name \'form\' is not defined\n'
p5741
s.