(dp1
S'output'
p2
S"<type 'exceptions.NameError'> name 'datetime' is not defined"
p3
sS'layer'
p4
S'C:\\Users\\omkara\\Desktop\\web2py\\applications\\SlugBarter\\models\\registerForm.py'
p5
sS'code'
p6
S"#Needed for authenticating users\n#from datetime import datetime\nfrom gluon.tools import Auth\nauth = Auth(db)\n\nauth.settings.extra_fields['auth_user']=[\n    Field('username', 'string',label = 'Username: '),\n    Field('dateCreated', 'string', default = datetime.utcnow())\n]\nauth.define_tables()\n"
p7
sS'snapshot'
p8
(dp9
S'exception'
p10
(dp11
S'__hash__'
p12
S"<method-wrapper '__hash__' of exceptions.NameError object at 0x05CE9120>"
p13
sS'__setattr__'
p14
S"<method-wrapper '__setattr__' of exceptions.NameError object at 0x05CE9120>"
p15
sS'__reduce_ex__'
p16
S'<built-in method __reduce_ex__ of exceptions.NameError object at 0x05CE9120>'
p17
sS'__getslice__'
p18
S"<method-wrapper '__getslice__' of exceptions.NameError object at 0x05CE9120>"
p19
sS'__getitem__'
p20
S"<method-wrapper '__getitem__' of exceptions.NameError object at 0x05CE9120>"
p21
sS'__setstate__'
p22
S'<built-in method __setstate__ of exceptions.NameError object at 0x05CE9120>'
p23
sS'__reduce__'
p24
S'<built-in method __reduce__ of exceptions.NameError object at 0x05CE9120>'
p25
sS'__str__'
p26
S"<method-wrapper '__str__' of exceptions.NameError object at 0x05CE9120>"
p27
sS'args'
p28
S'("name \'datetime\' is not defined",)'
p29
sS'__getattribute__'
p30
S"<method-wrapper '__getattribute__' of exceptions.NameError object at 0x05CE9120>"
p31
sS'__class__'
p32
S"<type 'exceptions.NameError'>"
p33
sS'__delattr__'
p34
S"<method-wrapper '__delattr__' of exceptions.NameError object at 0x05CE9120>"
p35
sS'__repr__'
p36
S"<method-wrapper '__repr__' of exceptions.NameError object at 0x05CE9120>"
p37
sS'__dict__'
p38
S'{}'
p39
sS'__doc__'
p40
S"'Name not found globally.'"
p41
sS'__init__'
p42
S"<method-wrapper '__init__' of exceptions.NameError object at 0x05CE9120>"
p43
sS'__new__'
p44
S'<built-in method __new__ of type object at 0x1E1CD8D8>'
p45
ssS'evalue'
p46
S"name 'datetime' is not defined"
p47
sS'request'
p48
ccopy_reg
_reconstructor
p49
(cgluon.html
BEAUTIFY
p50
c__builtin__
object
p51
NtRp52
(dp53
S'attributes'
p54
(dp55
sS'components'
p56
(lp57
g49
(cgluon.html
TABLE
p58
g51
NtRp59
(dp60
g54
(dp61
S'level'
p62
I5
ssS'parent'
p63
Nsg56
(lp64
g49
(cgluon.html
TR
p65
g51
NtRp66
(dp67
g54
(dp68
sg63
g59
sg56
(lp69
g49
(cgluon.html
TD
p70
g51
NtRp71
(dp72
g54
(dp73
S'_style'
p74
S'font-weight:bold;vertical-align:top'
p75
ssg63
g66
sg56
(lp76
S'ajax'
p77
asbag49
(g70
g51
NtRp78
(dp79
g54
(dp80
S'_valign'
p81
S'top'
p82
ssg63
g66
sg56
(lp83
S':'
asbag49
(g70
g51
NtRp84
(dp85
g54
(dp86
sg63
g66
sg56
(lp87
g49
(g50
g51
NtRp88
(dp89
g54
(dp90
g62
I5
ssg63
g84
sg56
(lp91
S'False'
p92
asbasbasbag49
(g65
g51
NtRp93
(dp94
g54
(dp95
sg63
g59
sg56
(lp96
g49
(g70
g51
NtRp97
(dp98
g54
(dp99
g74
g75
ssg63
g93
sg56
(lp100
S'application'
p101
asbag49
(g70
g51
NtRp102
(dp103
g54
(dp104
g81
g82
ssg63
g93
sg56
(lp105
S':'
asbag49
(g70
g51
NtRp106
(dp107
g54
(dp108
sg63
g93
sg56
(lp109
g49
(g50
g51
NtRp110
(dp111
g54
(dp112
g62
I5
ssg63
g106
sg56
(lp113
S'SlugBarter'
p114
asbasbasbag49
(g65
g51
NtRp115
(dp116
g54
(dp117
sg63
g59
sg56
(lp118
g49
(g70
g51
NtRp119
(dp120
g54
(dp121
g74
g75
ssg63
g115
sg56
(lp122
g28
asbag49
(g70
g51
NtRp123
(dp124
g54
(dp125
g81
g82
ssg63
g115
sg56
(lp126
S':'
asbag49
(g70
g51
NtRp127
(dp128
g54
(dp129
sg63
g115
sg56
(lp130
g49
(g50
g51
NtRp131
(dp132
g54
(dp133
g62
I5
ssg63
g127
sg56
(lp134
g49
(g58
g51
NtRp135
(dp136
g54
(dp137
g62
I4
ssg63
Nsg56
(lp138
sbasbasbasbag49
(g65
g51
NtRp139
(dp140
g54
(dp141
sg63
g59
sg56
(lp142
g49
(g70
g51
NtRp143
(dp144
g54
(dp145
g74
g75
ssg63
g139
sg56
(lp146
S'body'
p147
asbag49
(g70
g51
NtRp148
(dp149
g54
(dp150
g81
g82
ssg63
g139
sg56
(lp151
S':'
asbag49
(g70
g51
NtRp152
(dp153
g54
(dp154
sg63
g139
sg56
(lp155
g49
(g50
g51
NtRp156
(dp157
g54
(dp158
g62
I5
ssg63
g152
sg56
(lp159
S'<cStringIO.StringO object at 0x05D2D180>'
p160
asbasbasbag49
(g65
g51
NtRp161
(dp162
g54
(dp163
sg63
g59
sg56
(lp164
g49
(g70
g51
NtRp165
(dp166
g54
(dp167
g74
g75
ssg63
g161
sg56
(lp168
S'client'
p169
asbag49
(g70
g51
NtRp170
(dp171
g54
(dp172
g81
g82
ssg63
g161
sg56
(lp173
S':'
asbag49
(g70
g51
NtRp174
(dp175
g54
(dp176
sg63
g161
sg56
(lp177
g49
(g50
g51
NtRp178
(dp179
g54
(dp180
g62
I5
ssg63
g174
sg56
(lp181
S'127.0.0.1'
p182
asbasbasbag49
(g65
g51
NtRp183
(dp184
g54
(dp185
sg63
g59
sg56
(lp186
g49
(g70
g51
NtRp187
(dp188
g54
(dp189
g74
g75
ssg63
g183
sg56
(lp190
S'controller'
p191
asbag49
(g70
g51
NtRp192
(dp193
g54
(dp194
g81
g82
ssg63
g183
sg56
(lp195
S':'
asbag49
(g70
g51
NtRp196
(dp197
g54
(dp198
sg63
g183
sg56
(lp199
g49
(g50
g51
NtRp200
(dp201
g54
(dp202
g62
I5
ssg63
g196
sg56
(lp203
S'default'
p204
asbasbasbag49
(g65
g51
NtRp205
(dp206
g54
(dp207
sg63
g59
sg56
(lp208
g49
(g70
g51
NtRp209
(dp210
g54
(dp211
g74
g75
ssg63
g205
sg56
(lp212
S'cookies'
p213
asbag49
(g70
g51
NtRp214
(dp215
g54
(dp216
g81
g82
ssg63
g205
sg56
(lp217
S':'
asbag49
(g70
g51
NtRp218
(dp219
g54
(dp220
sg63
g205
sg56
(lp221
g49
(g50
g51
NtRp222
(dp223
g54
(dp224
g62
I5
ssg63
g218
sg56
(lp225
g49
(g58
g51
NtRp226
(dp227
g54
(dp228
g62
I4
ssg63
Nsg56
(lp229
g49
(g65
g51
NtRp230
(dp231
g54
(dp232
sg63
g226
sg56
(lp233
g49
(g70
g51
NtRp234
(dp235
g54
(dp236
g74
g75
ssg63
g230
sg56
(lp237
S'session_id_admin'
p238
asbag49
(g70
g51
NtRp239
(dp240
g54
(dp241
g81
g82
ssg63
g230
sg56
(lp242
S':'
asbag49
(g70
g51
NtRp243
(dp244
g54
(dp245
sg63
g230
sg56
(lp246
g49
(g50
g51
NtRp247
(dp248
g54
(dp249
g62
I4
ssg63
g243
sg56
(lp250
g49
(g58
g51
NtRp251
(dp252
g54
(dp253
g62
I3
ssg63
Nsg56
(lp254
g49
(g65
g51
NtRp255
(dp256
g54
(dp257
sg63
g251
sg56
(lp258
g49
(g70
g51
NtRp259
(dp260
g54
(dp261
g74
g75
ssg63
g255
sg56
(lp262
S'comment'
p263
asbag49
(g70
g51
NtRp264
(dp265
g54
(dp266
g81
g82
ssg63
g255
sg56
(lp267
S':'
asbag49
(g70
g51
NtRp268
(dp269
g54
(dp270
sg63
g255
sg56
(lp271
g49
(g50
g51
NtRp272
(dp273
g54
(dp274
g62
I3
ssg63
g268
sg56
(lp275
S''
asbasbasbag49
(g65
g51
NtRp276
(dp277
g54
(dp278
sg63
g251
sg56
(lp279
g49
(g70
g51
NtRp280
(dp281
g54
(dp282
g74
g75
ssg63
g276
sg56
(lp283
S'domain'
p284
asbag49
(g70
g51
NtRp285
(dp286
g54
(dp287
g81
g82
ssg63
g276
sg56
(lp288
S':'
asbag49
(g70
g51
NtRp289
(dp290
g54
(dp291
sg63
g276
sg56
(lp292
g49
(g50
g51
NtRp293
(dp294
g54
(dp295
g62
I3
ssg63
g289
sg56
(lp296
S''
asbasbasbag49
(g65
g51
NtRp297
(dp298
g54
(dp299
sg63
g251
sg56
(lp300
g49
(g70
g51
NtRp301
(dp302
g54
(dp303
g74
g75
ssg63
g297
sg56
(lp304
S'expires'
p305
asbag49
(g70
g51
NtRp306
(dp307
g54
(dp308
g81
g82
ssg63
g297
sg56
(lp309
S':'
asbag49
(g70
g51
NtRp310
(dp311
g54
(dp312
sg63
g297
sg56
(lp313
g49
(g50
g51
NtRp314
(dp315
g54
(dp316
g62
I3
ssg63
g310
sg56
(lp317
S''
asbasbasbag49
(g65
g51
NtRp318
(dp319
g54
(dp320
sg63
g251
sg56
(lp321
g49
(g70
g51
NtRp322
(dp323
g54
(dp324
g74
g75
ssg63
g318
sg56
(lp325
S'max-age'
p326
asbag49
(g70
g51
NtRp327
(dp328
g54
(dp329
g81
g82
ssg63
g318
sg56
(lp330
S':'
asbag49
(g70
g51
NtRp331
(dp332
g54
(dp333
sg63
g318
sg56
(lp334
g49
(g50
g51
NtRp335
(dp336
g54
(dp337
g62
I3
ssg63
g331
sg56
(lp338
S''
asbasbasbag49
(g65
g51
NtRp339
(dp340
g54
(dp341
sg63
g251
sg56
(lp342
g49
(g70
g51
NtRp343
(dp344
g54
(dp345
g74
g75
ssg63
g339
sg56
(lp346
S'path'
p347
asbag49
(g70
g51
NtRp348
(dp349
g54
(dp350
g81
g82
ssg63
g339
sg56
(lp351
S':'
asbag49
(g70
g51
NtRp352
(dp353
g54
(dp354
sg63
g339
sg56
(lp355
g49
(g50
g51
NtRp356
(dp357
g54
(dp358
g62
I3
ssg63
g352
sg56
(lp359
S''
asbasbasbag49
(g65
g51
NtRp360
(dp361
g54
(dp362
sg63
g251
sg56
(lp363
g49
(g70
g51
NtRp364
(dp365
g54
(dp366
g74
g75
ssg63
g360
sg56
(lp367
S'secure'
p368
asbag49
(g70
g51
NtRp369
(dp370
g54
(dp371
g81
g82
ssg63
g360
sg56
(lp372
S':'
asbag49
(g70
g51
NtRp373
(dp374
g54
(dp375
sg63
g360
sg56
(lp376
g49
(g50
g51
NtRp377
(dp378
g54
(dp379
g62
I3
ssg63
g373
sg56
(lp380
S''
asbasbasbag49
(g65
g51
NtRp381
(dp382
g54
(dp383
sg63
g251
sg56
(lp384
g49
(g70
g51
NtRp385
(dp386
g54
(dp387
g74
g75
ssg63
g381
sg56
(lp388
S'version'
p389
asbag49
(g70
g51
NtRp390
(dp391
g54
(dp392
g81
g82
ssg63
g381
sg56
(lp393
S':'
asbag49
(g70
g51
NtRp394
(dp395
g54
(dp396
sg63
g381
sg56
(lp397
g49
(g50
g51
NtRp398
(dp399
g54
(dp400
g62
I3
ssg63
g394
sg56
(lp401
S''
asbasbasbasbasbasbasbag49
(g65
g51
NtRp402
(dp403
g54
(dp404
sg63
g226
sg56
(lp405
g49
(g70
g51
NtRp406
(dp407
g54
(dp408
g74
g75
ssg63
g402
sg56
(lp409
S'session_id_slugbarter'
p410
asbag49
(g70
g51
NtRp411
(dp412
g54
(dp413
g81
g82
ssg63
g402
sg56
(lp414
S':'
asbag49
(g70
g51
NtRp415
(dp416
g54
(dp417
sg63
g402
sg56
(lp418
g49
(g50
g51
NtRp419
(dp420
g54
(dp421
g62
I4
ssg63
g415
sg56
(lp422
g49
(g58
g51
NtRp423
(dp424
g54
(dp425
g62
I3
ssg63
Nsg56
(lp426
g49
(g65
g51
NtRp427
(dp428
g54
(dp429
sg63
g423
sg56
(lp430
g49
(g70
g51
NtRp431
(dp432
g54
(dp433
g74
g75
ssg63
g427
sg56
(lp434
g263
asbag49
(g70
g51
NtRp435
(dp436
g54
(dp437
g81
g82
ssg63
g427
sg56
(lp438
S':'
asbag49
(g70
g51
NtRp439
(dp440
g54
(dp441
sg63
g427
sg56
(lp442
g49
(g50
g51
NtRp443
(dp444
g54
(dp445
g62
I3
ssg63
g439
sg56
(lp446
S''
asbasbasbag49
(g65
g51
NtRp447
(dp448
g54
(dp449
sg63
g423
sg56
(lp450
g49
(g70
g51
NtRp451
(dp452
g54
(dp453
g74
g75
ssg63
g447
sg56
(lp454
g284
asbag49
(g70
g51
NtRp455
(dp456
g54
(dp457
g81
g82
ssg63
g447
sg56
(lp458
S':'
asbag49
(g70
g51
NtRp459
(dp460
g54
(dp461
sg63
g447
sg56
(lp462
g49
(g50
g51
NtRp463
(dp464
g54
(dp465
g62
I3
ssg63
g459
sg56
(lp466
S''
asbasbasbag49
(g65
g51
NtRp467
(dp468
g54
(dp469
sg63
g423
sg56
(lp470
g49
(g70
g51
NtRp471
(dp472
g54
(dp473
g74
g75
ssg63
g467
sg56
(lp474
g305
asbag49
(g70
g51
NtRp475
(dp476
g54
(dp477
g81
g82
ssg63
g467
sg56
(lp478
S':'
asbag49
(g70
g51
NtRp479
(dp480
g54
(dp481
sg63
g467
sg56
(lp482
g49
(g50
g51
NtRp483
(dp484
g54
(dp485
g62
I3
ssg63
g479
sg56
(lp486
S''
asbasbasbag49
(g65
g51
NtRp487
(dp488
g54
(dp489
sg63
g423
sg56
(lp490
g49
(g70
g51
NtRp491
(dp492
g54
(dp493
g74
g75
ssg63
g487
sg56
(lp494
g326
asbag49
(g70
g51
NtRp495
(dp496
g54
(dp497
g81
g82
ssg63
g487
sg56
(lp498
S':'
asbag49
(g70
g51
NtRp499
(dp500
g54
(dp501
sg63
g487
sg56
(lp502
g49
(g50
g51
NtRp503
(dp504
g54
(dp505
g62
I3
ssg63
g499
sg56
(lp506
S''
asbasbasbag49
(g65
g51
NtRp507
(dp508
g54
(dp509
sg63
g423
sg56
(lp510
g49
(g70
g51
NtRp511
(dp512
g54
(dp513
g74
g75
ssg63
g507
sg56
(lp514
g347
asbag49
(g70
g51
NtRp515
(dp516
g54
(dp517
g81
g82
ssg63
g507
sg56
(lp518
S':'
asbag49
(g70
g51
NtRp519
(dp520
g54
(dp521
sg63
g507
sg56
(lp522
g49
(g50
g51
NtRp523
(dp524
g54
(dp525
g62
I3
ssg63
g519
sg56
(lp526
S''
asbasbasbag49
(g65
g51
NtRp527
(dp528
g54
(dp529
sg63
g423
sg56
(lp530
g49
(g70
g51
NtRp531
(dp532
g54
(dp533
g74
g75
ssg63
g527
sg56
(lp534
g368
asbag49
(g70
g51
NtRp535
(dp536
g54
(dp537
g81
g82
ssg63
g527
sg56
(lp538
S':'
asbag49
(g70
g51
NtRp539
(dp540
g54
(dp541
sg63
g527
sg56
(lp542
g49
(g50
g51
NtRp543
(dp544
g54
(dp545
g62
I3
ssg63
g539
sg56
(lp546
S''
asbasbasbag49
(g65
g51
NtRp547
(dp548
g54
(dp549
sg63
g423
sg56
(lp550
g49
(g70
g51
NtRp551
(dp552
g54
(dp553
g74
g75
ssg63
g547
sg56
(lp554
g389
asbag49
(g70
g51
NtRp555
(dp556
g54
(dp557
g81
g82
ssg63
g547
sg56
(lp558
S':'
asbag49
(g70
g51
NtRp559
(dp560
g54
(dp561
sg63
g547
sg56
(lp562
g49
(g50
g51
NtRp563
(dp564
g54
(dp565
g62
I3
ssg63
g559
sg56
(lp566
S''
asbasbasbasbasbasbasbag49
(g65
g51
NtRp567
(dp568
g54
(dp569
sg63
g226
sg56
(lp570
g49
(g70
g51
NtRp571
(dp572
g54
(dp573
g74
g75
ssg63
g567
sg56
(lp574
S'session_id_welcome'
p575
asbag49
(g70
g51
NtRp576
(dp577
g54
(dp578
g81
g82
ssg63
g567
sg56
(lp579
S':'
asbag49
(g70
g51
NtRp580
(dp581
g54
(dp582
sg63
g567
sg56
(lp583
g49
(g50
g51
NtRp584
(dp585
g54
(dp586
g62
I4
ssg63
g580
sg56
(lp587
g49
(g58
g51
NtRp588
(dp589
g54
(dp590
g62
I3
ssg63
Nsg56
(lp591
g49
(g65
g51
NtRp592
(dp593
g54
(dp594
sg63
g588
sg56
(lp595
g49
(g70
g51
NtRp596
(dp597
g54
(dp598
g74
g75
ssg63
g592
sg56
(lp599
g263
asbag49
(g70
g51
NtRp600
(dp601
g54
(dp602
g81
g82
ssg63
g592
sg56
(lp603
S':'
asbag49
(g70
g51
NtRp604
(dp605
g54
(dp606
sg63
g592
sg56
(lp607
g49
(g50
g51
NtRp608
(dp609
g54
(dp610
g62
I3
ssg63
g604
sg56
(lp611
S''
asbasbasbag49
(g65
g51
NtRp612
(dp613
g54
(dp614
sg63
g588
sg56
(lp615
g49
(g70
g51
NtRp616
(dp617
g54
(dp618
g74
g75
ssg63
g612
sg56
(lp619
g284
asbag49
(g70
g51
NtRp620
(dp621
g54
(dp622
g81
g82
ssg63
g612
sg56
(lp623
S':'
asbag49
(g70
g51
NtRp624
(dp625
g54
(dp626
sg63
g612
sg56
(lp627
g49
(g50
g51
NtRp628
(dp629
g54
(dp630
g62
I3
ssg63
g624
sg56
(lp631
S''
asbasbasbag49
(g65
g51
NtRp632
(dp633
g54
(dp634
sg63
g588
sg56
(lp635
g49
(g70
g51
NtRp636
(dp637
g54
(dp638
g74
g75
ssg63
g632
sg56
(lp639
g305
asbag49
(g70
g51
NtRp640
(dp641
g54
(dp642
g81
g82
ssg63
g632
sg56
(lp643
S':'
asbag49
(g70
g51
NtRp644
(dp645
g54
(dp646
sg63
g632
sg56
(lp647
g49
(g50
g51
NtRp648
(dp649
g54
(dp650
g62
I3
ssg63
g644
sg56
(lp651
S''
asbasbasbag49
(g65
g51
NtRp652
(dp653
g54
(dp654
sg63
g588
sg56
(lp655
g49
(g70
g51
NtRp656
(dp657
g54
(dp658
g74
g75
ssg63
g652
sg56
(lp659
g326
asbag49
(g70
g51
NtRp660
(dp661
g54
(dp662
g81
g82
ssg63
g652
sg56
(lp663
S':'
asbag49
(g70
g51
NtRp664
(dp665
g54
(dp666
sg63
g652
sg56
(lp667
g49
(g50
g51
NtRp668
(dp669
g54
(dp670
g62
I3
ssg63
g664
sg56
(lp671
S''
asbasbasbag49
(g65
g51
NtRp672
(dp673
g54
(dp674
sg63
g588
sg56
(lp675
g49
(g70
g51
NtRp676
(dp677
g54
(dp678
g74
g75
ssg63
g672
sg56
(lp679
g347
asbag49
(g70
g51
NtRp680
(dp681
g54
(dp682
g81
g82
ssg63
g672
sg56
(lp683
S':'
asbag49
(g70
g51
NtRp684
(dp685
g54
(dp686
sg63
g672
sg56
(lp687
g49
(g50
g51
NtRp688
(dp689
g54
(dp690
g62
I3
ssg63
g684
sg56
(lp691
S''
asbasbasbag49
(g65
g51
NtRp692
(dp693
g54
(dp694
sg63
g588
sg56
(lp695
g49
(g70
g51
NtRp696
(dp697
g54
(dp698
g74
g75
ssg63
g692
sg56
(lp699
g368
asbag49
(g70
g51
NtRp700
(dp701
g54
(dp702
g81
g82
ssg63
g692
sg56
(lp703
S':'
asbag49
(g70
g51
NtRp704
(dp705
g54
(dp706
sg63
g692
sg56
(lp707
g49
(g50
g51
NtRp708
(dp709
g54
(dp710
g62
I3
ssg63
g704
sg56
(lp711
S''
asbasbasbag49
(g65
g51
NtRp712
(dp713
g54
(dp714
sg63
g588
sg56
(lp715
g49
(g70
g51
NtRp716
(dp717
g54
(dp718
g74
g75
ssg63
g712
sg56
(lp719
g389
asbag49
(g70
g51
NtRp720
(dp721
g54
(dp722
g81
g82
ssg63
g712
sg56
(lp723
S':'
asbag49
(g70
g51
NtRp724
(dp725
g54
(dp726
sg63
g712
sg56
(lp727
g49
(g50
g51
NtRp728
(dp729
g54
(dp730
g62
I3
ssg63
g724
sg56
(lp731
S''
asbasbasbasbasbasbasbasbasbasbasbag49
(g65
g51
NtRp732
(dp733
g54
(dp734
sg63
g59
sg56
(lp735
g49
(g70
g51
NtRp736
(dp737
g54
(dp738
g74
g75
ssg63
g732
sg56
(lp739
S'env'
p740
asbag49
(g70
g51
NtRp741
(dp742
g54
(dp743
g81
g82
ssg63
g732
sg56
(lp744
S':'
asbag49
(g70
g51
NtRp745
(dp746
g54
(dp747
sg63
g732
sg56
(lp748
g49
(g50
g51
NtRp749
(dp750
g54
(dp751
g62
I5
ssg63
g745
sg56
(lp752
g49
(g58
g51
NtRp753
(dp754
g54
(dp755
g62
I4
ssg63
Nsg56
(lp756
g49
(g65
g51
NtRp757
(dp758
g54
(dp759
sg63
g753
sg56
(lp760
g49
(g70
g51
NtRp761
(dp762
g54
(dp763
g74
g75
ssg63
g757
sg56
(lp764
S'app_folders'
p765
asbag49
(g70
g51
NtRp766
(dp767
g54
(dp768
g81
g82
ssg63
g757
sg56
(lp769
S':'
asbag49
(g70
g51
NtRp770
(dp771
g54
(dp772
sg63
g757
sg56
(lp773
g49
(g50
g51
NtRp774
(dp775
g54
(dp776
g62
I4
ssg63
g770
sg56
(lp777
S"set(['C:\\\\Users\\\\omkara\\\\Desktop\\\\web2py\\\\applications\\\\admin\\\\', 'C:\\\\Users\\\\omkara\\\\Desktop\\\\web2py\\\\applications\\\\welcome\\\\', 'C:\\\\Users\\\\omkara\\\\Desktop\\\\web2py\\\\applications\\\\SlugBarter\\\\'])"
p778
asbasbasbag49
(g65
g51
NtRp779
(dp780
g54
(dp781
sg63
g753
sg56
(lp782
g49
(g70
g51
NtRp783
(dp784
g54
(dp785
g74
g75
ssg63
g779
sg56
(lp786
S'applications_parent'
p787
asbag49
(g70
g51
NtRp788
(dp789
g54
(dp790
g81
g82
ssg63
g779
sg56
(lp791
S':'
asbag49
(g70
g51
NtRp792
(dp793
g54
(dp794
sg63
g779
sg56
(lp795
g49
(g50
g51
NtRp796
(dp797
g54
(dp798
g62
I4
ssg63
g792
sg56
(lp799
S'C:\\Users\\omkara\\Desktop\\web2py'
p800
asbasbasbag49
(g65
g51
NtRp801
(dp802
g54
(dp803
sg63
g753
sg56
(lp804
g49
(g70
g51
NtRp805
(dp806
g54
(dp807
g74
g75
ssg63
g801
sg56
(lp808
S'cmd_args'
p809
asbag49
(g70
g51
NtRp810
(dp811
g54
(dp812
g81
g82
ssg63
g801
sg56
(lp813
S':'
asbag49
(g70
g51
NtRp814
(dp815
g54
(dp816
sg63
g801
sg56
(lp817
g49
(g50
g51
NtRp818
(dp819
g54
(dp820
g62
I4
ssg63
g814
sg56
(lp821
g49
(g58
g51
NtRp822
(dp823
g54
(dp824
g62
I3
ssg63
Nsg56
(lp825
sbasbasbasbag49
(g65
g51
NtRp826
(dp827
g54
(dp828
sg63
g753
sg56
(lp829
g49
(g70
g51
NtRp830
(dp831
g54
(dp832
g74
g75
ssg63
g826
sg56
(lp833
S'cmd_options'
p834
asbag49
(g70
g51
NtRp835
(dp836
g54
(dp837
g81
g82
ssg63
g826
sg56
(lp838
S':'
asbag49
(g70
g51
NtRp839
(dp840
g54
(dp841
sg63
g826
sg56
(lp842
g49
(g50
g51
NtRp843
(dp844
g54
(dp845
g62
I4
ssg63
g839
sg56
(lp846
S"<Values at 0x27a30f8: {'verbose': False, 'ip': '127.0.0.1', 'shutdown_timeout': 5, 'taskbar': False, 'nocron': False, 'pid_filename': 'httpserver.pid', 'maxthreads': None, 'softcron': False, 'server_name': 'omkara-PC', 'bpython': False, 'nogui': False, 'port': 8000, 'extcron': False, 'debuglevel': 30, 'test': None, 'folder': 'C:\\\\Users\\\\omkara\\\\Desktop\\\\web2py', 'config': '', 'import_models': False, 'winservice': '', 'shell': None, 'run': '', 'log_filename': 'httpserver.log', 'args': [''], 'socket_timeout': 5, 'ssl_ca_certificate': None, 'scheduler': None, 'profiler_filename': None, 'ssl_private_key': '', 'password': '<ask>', 'request_queue_size': 5, 'ssl_certificate': '', 'cronjob': False, 'numthreads': None, 'quiet': False, 'interfaces': None, 'minthreads': None, 'timeout': 10, 'plain': False, 'nobanner': False}>"
p847
asbasbasbag49
(g65
g51
NtRp848
(dp849
g54
(dp850
sg63
g753
sg56
(lp851
g49
(g70
g51
NtRp852
(dp853
g54
(dp854
g74
g75
ssg63
g848
sg56
(lp855
S'db_sessions'
p856
asbag49
(g70
g51
NtRp857
(dp858
g54
(dp859
g81
g82
ssg63
g848
sg56
(lp860
S':'
asbag49
(g70
g51
NtRp861
(dp862
g54
(dp863
sg63
g848
sg56
(lp864
g49
(g50
g51
NtRp865
(dp866
g54
(dp867
g62
I4
ssg63
g861
sg56
(lp868
S'set([])'
p869
asbasbasbag49
(g65
g51
NtRp870
(dp871
g54
(dp872
sg63
g753
sg56
(lp873
g49
(g70
g51
NtRp874
(dp875
g54
(dp876
g74
g75
ssg63
g870
sg56
(lp877
S'debugging'
p878
asbag49
(g70
g51
NtRp879
(dp880
g54
(dp881
g81
g82
ssg63
g870
sg56
(lp882
S':'
asbag49
(g70
g51
NtRp883
(dp884
g54
(dp885
sg63
g870
sg56
(lp886
g49
(g50
g51
NtRp887
(dp888
g54
(dp889
g62
I4
ssg63
g883
sg56
(lp890
g92
asbasbasbag49
(g65
g51
NtRp891
(dp892
g54
(dp893
sg63
g753
sg56
(lp894
g49
(g70
g51
NtRp895
(dp896
g54
(dp897
g74
g75
ssg63
g891
sg56
(lp898
S'gluon_parent'
p899
asbag49
(g70
g51
NtRp900
(dp901
g54
(dp902
g81
g82
ssg63
g891
sg56
(lp903
S':'
asbag49
(g70
g51
NtRp904
(dp905
g54
(dp906
sg63
g891
sg56
(lp907
g49
(g50
g51
NtRp908
(dp909
g54
(dp910
g62
I4
ssg63
g904
sg56
(lp911
S'C:\\Users\\omkara\\Desktop\\web2py'
p912
asbasbasbag49
(g65
g51
NtRp913
(dp914
g54
(dp915
sg63
g753
sg56
(lp916
g49
(g70
g51
NtRp917
(dp918
g54
(dp919
g74
g75
ssg63
g913
sg56
(lp920
S'http_accept'
p921
asbag49
(g70
g51
NtRp922
(dp923
g54
(dp924
g81
g82
ssg63
g913
sg56
(lp925
S':'
asbag49
(g70
g51
NtRp926
(dp927
g54
(dp928
sg63
g913
sg56
(lp929
g49
(g50
g51
NtRp930
(dp931
g54
(dp932
g62
I4
ssg63
g926
sg56
(lp933
S'text/html,application/xhtml+xml,application/xml;q=0.9,*/*;q=0.8'
p934
asbasbasbag49
(g65
g51
NtRp935
(dp936
g54
(dp937
sg63
g753
sg56
(lp938
g49
(g70
g51
NtRp939
(dp940
g54
(dp941
g74
g75
ssg63
g935
sg56
(lp942
S'http_accept_charset'
p943
asbag49
(g70
g51
NtRp944
(dp945
g54
(dp946
g81
g82
ssg63
g935
sg56
(lp947
S':'
asbag49
(g70
g51
NtRp948
(dp949
g54
(dp950
sg63
g935
sg56
(lp951
g49
(g50
g51
NtRp952
(dp953
g54
(dp954
g62
I4
ssg63
g948
sg56
(lp955
S'ISO-8859-1,utf-8;q=0.7,*;q=0.3'
p956
asbasbasbag49
(g65
g51
NtRp957
(dp958
g54
(dp959
sg63
g753
sg56
(lp960
g49
(g70
g51
NtRp961
(dp962
g54
(dp963
g74
g75
ssg63
g957
sg56
(lp964
S'http_accept_encoding'
p965
asbag49
(g70
g51
NtRp966
(dp967
g54
(dp968
g81
g82
ssg63
g957
sg56
(lp969
S':'
asbag49
(g70
g51
NtRp970
(dp971
g54
(dp972
sg63
g957
sg56
(lp973
g49
(g50
g51
NtRp974
(dp975
g54
(dp976
g62
I4
ssg63
g970
sg56
(lp977
S'gzip,deflate,sdch'
p978
asbasbasbag49
(g65
g51
NtRp979
(dp980
g54
(dp981
sg63
g753
sg56
(lp982
g49
(g70
g51
NtRp983
(dp984
g54
(dp985
g74
g75
ssg63
g979
sg56
(lp986
S'http_accept_language'
p987
asbag49
(g70
g51
NtRp988
(dp989
g54
(dp990
g81
g82
ssg63
g979
sg56
(lp991
S':'
asbag49
(g70
g51
NtRp992
(dp993
g54
(dp994
sg63
g979
sg56
(lp995
g49
(g50
g51
NtRp996
(dp997
g54
(dp998
g62
I4
ssg63
g992
sg56
(lp999
S'en-US,en;q=0.8'
p1000
asbasbasbag49
(g65
g51
NtRp1001
(dp1002
g54
(dp1003
sg63
g753
sg56
(lp1004
g49
(g70
g51
NtRp1005
(dp1006
g54
(dp1007
g74
g75
ssg63
g1001
sg56
(lp1008
S'http_cache_control'
p1009
asbag49
(g70
g51
NtRp1010
(dp1011
g54
(dp1012
g81
g82
ssg63
g1001
sg56
(lp1013
S':'
asbag49
(g70
g51
NtRp1014
(dp1015
g54
(dp1016
sg63
g1001
sg56
(lp1017
g49
(g50
g51
NtRp1018
(dp1019
g54
(dp1020
g62
I4
ssg63
g1014
sg56
(lp1021
S'max-age=0'
p1022
asbasbasbag49
(g65
g51
NtRp1023
(dp1024
g54
(dp1025
sg63
g753
sg56
(lp1026
g49
(g70
g51
NtRp1027
(dp1028
g54
(dp1029
g74
g75
ssg63
g1023
sg56
(lp1030
S'http_connection'
p1031
asbag49
(g70
g51
NtRp1032
(dp1033
g54
(dp1034
g81
g82
ssg63
g1023
sg56
(lp1035
S':'
asbag49
(g70
g51
NtRp1036
(dp1037
g54
(dp1038
sg63
g1023
sg56
(lp1039
g49
(g50
g51
NtRp1040
(dp1041
g54
(dp1042
g62
I4
ssg63
g1036
sg56
(lp1043
S'keep-alive'
p1044
asbasbasbag49
(g65
g51
NtRp1045
(dp1046
g54
(dp1047
sg63
g753
sg56
(lp1048
g49
(g70
g51
NtRp1049
(dp1050
g54
(dp1051
g74
g75
ssg63
g1045
sg56
(lp1052
S'http_cookie'
p1053
asbag49
(g70
g51
NtRp1054
(dp1055
g54
(dp1056
g81
g82
ssg63
g1045
sg56
(lp1057
S':'
asbag49
(g70
g51
NtRp1058
(dp1059
g54
(dp1060
sg63
g1045
sg56
(lp1061
g49
(g50
g51
NtRp1062
(dp1063
g54
(dp1064
g62
I4
ssg63
g1058
sg56
(lp1065
S'session_id_welcome=127.0.0.1-a1b3016b-66b8-408b-ae8e-37231f35f16e; session_id_slugbarter=127.0.0.1-e6ebae72-1bbc-48a5-9458-95dbb65a4e54; session_id_admin=127.0.0.1-3b1553ef-7186-4588-80e8-d2bbbaa88c9f'
p1066
asbasbasbag49
(g65
g51
NtRp1067
(dp1068
g54
(dp1069
sg63
g753
sg56
(lp1070
g49
(g70
g51
NtRp1071
(dp1072
g54
(dp1073
g74
g75
ssg63
g1067
sg56
(lp1074
S'http_host'
p1075
asbag49
(g70
g51
NtRp1076
(dp1077
g54
(dp1078
g81
g82
ssg63
g1067
sg56
(lp1079
S':'
asbag49
(g70
g51
NtRp1080
(dp1081
g54
(dp1082
sg63
g1067
sg56
(lp1083
g49
(g50
g51
NtRp1084
(dp1085
g54
(dp1086
g62
I4
ssg63
g1080
sg56
(lp1087
S'127.0.0.1:8000'
p1088
asbasbasbag49
(g65
g51
NtRp1089
(dp1090
g54
(dp1091
sg63
g753
sg56
(lp1092
g49
(g70
g51
NtRp1093
(dp1094
g54
(dp1095
g74
g75
ssg63
g1089
sg56
(lp1096
S'http_referer'
p1097
asbag49
(g70
g51
NtRp1098
(dp1099
g54
(dp1100
g81
g82
ssg63
g1089
sg56
(lp1101
S':'
asbag49
(g70
g51
NtRp1102
(dp1103
g54
(dp1104
sg63
g1089
sg56
(lp1105
g49
(g50
g51
NtRp1106
(dp1107
g54
(dp1108
g62
I4
ssg63
g1102
sg56
(lp1109
S'http://127.0.0.1:8000/SlugBarter/default/index'
p1110
asbasbasbag49
(g65
g51
NtRp1111
(dp1112
g54
(dp1113
sg63
g753
sg56
(lp1114
g49
(g70
g51
NtRp1115
(dp1116
g54
(dp1117
g74
g75
ssg63
g1111
sg56
(lp1118
S'http_user_agent'
p1119
asbag49
(g70
g51
NtRp1120
(dp1121
g54
(dp1122
g81
g82
ssg63
g1111
sg56
(lp1123
S':'
asbag49
(g70
g51
NtRp1124
(dp1125
g54
(dp1126
sg63
g1111
sg56
(lp1127
g49
(g50
g51
NtRp1128
(dp1129
g54
(dp1130
g62
I4
ssg63
g1124
sg56
(lp1131
S'Mozilla/5.0 (Windows NT 6.1) AppleWebKit/537.11 (KHTML, like Gecko) Chrome/23.0.1271.64 Safari/537.11'
p1132
asbasbasbag49
(g65
g51
NtRp1133
(dp1134
g54
(dp1135
sg63
g753
sg56
(lp1136
g49
(g70
g51
NtRp1137
(dp1138
g54
(dp1139
g74
g75
ssg63
g1133
sg56
(lp1140
S'is_jython'
p1141
asbag49
(g70
g51
NtRp1142
(dp1143
g54
(dp1144
g81
g82
ssg63
g1133
sg56
(lp1145
S':'
asbag49
(g70
g51
NtRp1146
(dp1147
g54
(dp1148
sg63
g1133
sg56
(lp1149
g49
(g50
g51
NtRp1150
(dp1151
g54
(dp1152
g62
I4
ssg63
g1146
sg56
(lp1153
g92
asbasbasbag49
(g65
g51
NtRp1154
(dp1155
g54
(dp1156
sg63
g753
sg56
(lp1157
g49
(g70
g51
NtRp1158
(dp1159
g54
(dp1160
g74
g75
ssg63
g1154
sg56
(lp1161
S'is_pypy'
p1162
asbag49
(g70
g51
NtRp1163
(dp1164
g54
(dp1165
g81
g82
ssg63
g1154
sg56
(lp1166
S':'
asbag49
(g70
g51
NtRp1167
(dp1168
g54
(dp1169
sg63
g1154
sg56
(lp1170
g49
(g50
g51
NtRp1171
(dp1172
g54
(dp1173
g62
I4
ssg63
g1167
sg56
(lp1174
g92
asbasbasbag49
(g65
g51
NtRp1175
(dp1176
g54
(dp1177
sg63
g753
sg56
(lp1178
g49
(g70
g51
NtRp1179
(dp1180
g54
(dp1181
g74
g75
ssg63
g1175
sg56
(lp1182
S'path_info'
p1183
asbag49
(g70
g51
NtRp1184
(dp1185
g54
(dp1186
g81
g82
ssg63
g1175
sg56
(lp1187
S':'
asbag49
(g70
g51
NtRp1188
(dp1189
g54
(dp1190
sg63
g1175
sg56
(lp1191
g49
(g50
g51
NtRp1192
(dp1193
g54
(dp1194
g62
I4
ssg63
g1188
sg56
(lp1195
S'/SlugBarter/default/register'
p1196
asbasbasbag49
(g65
g51
NtRp1197
(dp1198
g54
(dp1199
sg63
g753
sg56
(lp1200
g49
(g70
g51
NtRp1201
(dp1202
g54
(dp1203
g74
g75
ssg63
g1197
sg56
(lp1204
S'query_string'
p1205
asbag49
(g70
g51
NtRp1206
(dp1207
g54
(dp1208
g81
g82
ssg63
g1197
sg56
(lp1209
S':'
asbag49
(g70
g51
NtRp1210
(dp1211
g54
(dp1212
sg63
g1197
sg56
(lp1213
g49
(g50
g51
NtRp1214
(dp1215
g54
(dp1216
g62
I4
ssg63
g1210
sg56
(lp1217
S''
asbasbasbag49
(g65
g51
NtRp1218
(dp1219
g54
(dp1220
sg63
g753
sg56
(lp1221
g49
(g70
g51
NtRp1222
(dp1223
g54
(dp1224
g74
g75
ssg63
g1218
sg56
(lp1225
S'remote_addr'
p1226
asbag49
(g70
g51
NtRp1227
(dp1228
g54
(dp1229
g81
g82
ssg63
g1218
sg56
(lp1230
S':'
asbag49
(g70
g51
NtRp1231
(dp1232
g54
(dp1233
sg63
g1218
sg56
(lp1234
g49
(g50
g51
NtRp1235
(dp1236
g54
(dp1237
g62
I4
ssg63
g1231
sg56
(lp1238
g182
asbasbasbag49
(g65
g51
NtRp1239
(dp1240
g54
(dp1241
sg63
g753
sg56
(lp1242
g49
(g70
g51
NtRp1243
(dp1244
g54
(dp1245
g74
g75
ssg63
g1239
sg56
(lp1246
S'remote_port'
p1247
asbag49
(g70
g51
NtRp1248
(dp1249
g54
(dp1250
g81
g82
ssg63
g1239
sg56
(lp1251
S':'
asbag49
(g70
g51
NtRp1252
(dp1253
g54
(dp1254
sg63
g1239
sg56
(lp1255
g49
(g50
g51
NtRp1256
(dp1257
g54
(dp1258
g62
I4
ssg63
g1252
sg56
(lp1259
S'55890'
p1260
asbasbasbag49
(g65
g51
NtRp1261
(dp1262
g54
(dp1263
sg63
g753
sg56
(lp1264
g49
(g70
g51
NtRp1265
(dp1266
g54
(dp1267
g74
g75
ssg63
g1261
sg56
(lp1268
S'request_method'
p1269
asbag49
(g70
g51
NtRp1270
(dp1271
g54
(dp1272
g81
g82
ssg63
g1261
sg56
(lp1273
S':'
asbag49
(g70
g51
NtRp1274
(dp1275
g54
(dp1276
sg63
g1261
sg56
(lp1277
g49
(g50
g51
NtRp1278
(dp1279
g54
(dp1280
g62
I4
ssg63
g1274
sg56
(lp1281
S'GET'
p1282
asbasbasbag49
(g65
g51
NtRp1283
(dp1284
g54
(dp1285
sg63
g753
sg56
(lp1286
g49
(g70
g51
NtRp1287
(dp1288
g54
(dp1289
g74
g75
ssg63
g1283
sg56
(lp1290
S'script_name'
p1291
asbag49
(g70
g51
NtRp1292
(dp1293
g54
(dp1294
g81
g82
ssg63
g1283
sg56
(lp1295
S':'
asbag49
(g70
g51
NtRp1296
(dp1297
g54
(dp1298
sg63
g1283
sg56
(lp1299
g49
(g50
g51
NtRp1300
(dp1301
g54
(dp1302
g62
I4
ssg63
g1296
sg56
(lp1303
S''
asbasbasbag49
(g65
g51
NtRp1304
(dp1305
g54
(dp1306
sg63
g753
sg56
(lp1307
g49
(g70
g51
NtRp1308
(dp1309
g54
(dp1310
g74
g75
ssg63
g1304
sg56
(lp1311
S'server_name'
p1312
asbag49
(g70
g51
NtRp1313
(dp1314
g54
(dp1315
g81
g82
ssg63
g1304
sg56
(lp1316
S':'
asbag49
(g70
g51
NtRp1317
(dp1318
g54
(dp1319
sg63
g1304
sg56
(lp1320
g49
(g50
g51
NtRp1321
(dp1322
g54
(dp1323
g62
I4
ssg63
g1317
sg56
(lp1324
S'omkara-PC'
p1325
asbasbasbag49
(g65
g51
NtRp1326
(dp1327
g54
(dp1328
sg63
g753
sg56
(lp1329
g49
(g70
g51
NtRp1330
(dp1331
g54
(dp1332
g74
g75
ssg63
g1326
sg56
(lp1333
S'server_port'
p1334
asbag49
(g70
g51
NtRp1335
(dp1336
g54
(dp1337
g81
g82
ssg63
g1326
sg56
(lp1338
S':'
asbag49
(g70
g51
NtRp1339
(dp1340
g54
(dp1341
sg63
g1326
sg56
(lp1342
g49
(g50
g51
NtRp1343
(dp1344
g54
(dp1345
g62
I4
ssg63
g1339
sg56
(lp1346
S'8000'
p1347
asbasbasbag49
(g65
g51
NtRp1348
(dp1349
g54
(dp1350
sg63
g753
sg56
(lp1351
g49
(g70
g51
NtRp1352
(dp1353
g54
(dp1354
g74
g75
ssg63
g1348
sg56
(lp1355
S'server_protocol'
p1356
asbag49
(g70
g51
NtRp1357
(dp1358
g54
(dp1359
g81
g82
ssg63
g1348
sg56
(lp1360
S':'
asbag49
(g70
g51
NtRp1361
(dp1362
g54
(dp1363
sg63
g1348
sg56
(lp1364
g49
(g50
g51
NtRp1365
(dp1366
g54
(dp1367
g62
I4
ssg63
g1361
sg56
(lp1368
S'HTTP/1.1'
p1369
asbasbasbag49
(g65
g51
NtRp1370
(dp1371
g54
(dp1372
sg63
g753
sg56
(lp1373
g49
(g70
g51
NtRp1374
(dp1375
g54
(dp1376
g74
g75
ssg63
g1370
sg56
(lp1377
S'server_software'
p1378
asbag49
(g70
g51
NtRp1379
(dp1380
g54
(dp1381
g81
g82
ssg63
g1370
sg56
(lp1382
S':'
asbag49
(g70
g51
NtRp1383
(dp1384
g54
(dp1385
sg63
g1370
sg56
(lp1386
g49
(g50
g51
NtRp1387
(dp1388
g54
(dp1389
g62
I4
ssg63
g1383
sg56
(lp1390
S'Rocket 1.2.4'
p1391
asbasbasbag49
(g65
g51
NtRp1392
(dp1393
g54
(dp1394
sg63
g753
sg56
(lp1395
g49
(g70
g51
NtRp1396
(dp1397
g54
(dp1398
g74
g75
ssg63
g1392
sg56
(lp1399
S'web2py_crontype'
p1400
asbag49
(g70
g51
NtRp1401
(dp1402
g54
(dp1403
g81
g82
ssg63
g1392
sg56
(lp1404
S':'
asbag49
(g70
g51
NtRp1405
(dp1406
g54
(dp1407
sg63
g1392
sg56
(lp1408
g49
(g50
g51
NtRp1409
(dp1410
g54
(dp1411
g62
I4
ssg63
g1405
sg56
(lp1412
S'hard'
p1413
asbasbasbag49
(g65
g51
NtRp1414
(dp1415
g54
(dp1416
sg63
g753
sg56
(lp1417
g49
(g70
g51
NtRp1418
(dp1419
g54
(dp1420
g74
g75
ssg63
g1414
sg56
(lp1421
S'web2py_path'
p1422
asbag49
(g70
g51
NtRp1423
(dp1424
g54
(dp1425
g81
g82
ssg63
g1414
sg56
(lp1426
S':'
asbag49
(g70
g51
NtRp1427
(dp1428
g54
(dp1429
sg63
g1414
sg56
(lp1430
g49
(g50
g51
NtRp1431
(dp1432
g54
(dp1433
g62
I4
ssg63
g1427
sg56
(lp1434
g800
asbasbasbag49
(g65
g51
NtRp1435
(dp1436
g54
(dp1437
sg63
g753
sg56
(lp1438
g49
(g70
g51
NtRp1439
(dp1440
g54
(dp1441
g74
g75
ssg63
g1435
sg56
(lp1442
S'web2py_version'
p1443
asbag49
(g70
g51
NtRp1444
(dp1445
g54
(dp1446
g81
g82
ssg63
g1435
sg56
(lp1447
S':'
asbag49
(g70
g51
NtRp1448
(dp1449
g54
(dp1450
sg63
g1435
sg56
(lp1451
g49
(g50
g51
NtRp1452
(dp1453
g54
(dp1454
g62
I4
ssg63
g1448
sg56
(lp1455
g49
(g58
g51
NtRp1456
(dp1457
g54
(dp1458
g62
I3
ssg63
Nsg56
(lp1459
g49
(g65
g51
NtRp1460
(dp1461
g54
(dp1462
sg63
g1456
sg56
(lp1463
g49
(g70
g51
NtRp1464
(dp1465
g54
(dp1466
sg63
g1460
sg56
(lp1467
g49
(g50
g51
NtRp1468
(dp1469
g54
(dp1470
g62
I3
ssg63
g1464
sg56
(lp1471
S'1'
asbasbasbag49
(g65
g51
NtRp1472
(dp1473
g54
(dp1474
sg63
g1456
sg56
(lp1475
g49
(g70
g51
NtRp1476
(dp1477
g54
(dp1478
sg63
g1472
sg56
(lp1479
g49
(g50
g51
NtRp1480
(dp1481
g54
(dp1482
g62
I3
ssg63
g1476
sg56
(lp1483
S'99'
p1484
asbasbasbag49
(g65
g51
NtRp1485
(dp1486
g54
(dp1487
sg63
g1456
sg56
(lp1488
g49
(g70
g51
NtRp1489
(dp1490
g54
(dp1491
sg63
g1485
sg56
(lp1492
g49
(g50
g51
NtRp1493
(dp1494
g54
(dp1495
g62
I3
ssg63
g1489
sg56
(lp1496
S'7'
asbasbasbag49
(g65
g51
NtRp1497
(dp1498
g54
(dp1499
sg63
g1456
sg56
(lp1500
g49
(g70
g51
NtRp1501
(dp1502
g54
(dp1503
sg63
g1497
sg56
(lp1504
g49
(g50
g51
NtRp1505
(dp1506
g54
(dp1507
g62
I3
ssg63
g1501
sg56
(lp1508
S'datetime.datetime(2012, 3, 4, 22, 12, 8)'
p1509
asbasbasbag49
(g65
g51
NtRp1510
(dp1511
g54
(dp1512
sg63
g1456
sg56
(lp1513
g49
(g70
g51
NtRp1514
(dp1515
g54
(dp1516
sg63
g1510
sg56
(lp1517
g49
(g50
g51
NtRp1518
(dp1519
g54
(dp1520
g62
I3
ssg63
g1514
sg56
(lp1521
S'stable'
p1522
asbasbasbasbasbasbasbag49
(g65
g51
NtRp1523
(dp1524
g54
(dp1525
sg63
g753
sg56
(lp1526
g49
(g70
g51
NtRp1527
(dp1528
g54
(dp1529
g74
g75
ssg63
g1523
sg56
(lp1530
S'wsgi_errors'
p1531
asbag49
(g70
g51
NtRp1532
(dp1533
g54
(dp1534
g81
g82
ssg63
g1523
sg56
(lp1535
S':'
asbag49
(g70
g51
NtRp1536
(dp1537
g54
(dp1538
sg63
g1523
sg56
(lp1539
g49
(g50
g51
NtRp1540
(dp1541
g54
(dp1542
g62
I4
ssg63
g1536
sg56
(lp1543
S'<__main__.Stderr object at 0x01667670>'
p1544
asbasbasbag49
(g65
g51
NtRp1545
(dp1546
g54
(dp1547
sg63
g753
sg56
(lp1548
g49
(g70
g51
NtRp1549
(dp1550
g54
(dp1551
g74
g75
ssg63
g1545
sg56
(lp1552
S'wsgi_file_wrapper'
p1553
asbag49
(g70
g51
NtRp1554
(dp1555
g54
(dp1556
g81
g82
ssg63
g1545
sg56
(lp1557
S':'
asbag49
(g70
g51
NtRp1558
(dp1559
g54
(dp1560
sg63
g1545
sg56
(lp1561
g49
(g50
g51
NtRp1562
(dp1563
g54
(dp1564
g62
I4
ssg63
g1558
sg56
(lp1565
S'<class wsgiref.util.FileWrapper at 0x02532210>'
p1566
asbasbasbag49
(g65
g51
NtRp1567
(dp1568
g54
(dp1569
sg63
g753
sg56
(lp1570
g49
(g70
g51
NtRp1571
(dp1572
g54
(dp1573
g74
g75
ssg63
g1567
sg56
(lp1574
S'wsgi_input'
p1575
asbag49
(g70
g51
NtRp1576
(dp1577
g54
(dp1578
g81
g82
ssg63
g1567
sg56
(lp1579
S':'
asbag49
(g70
g51
NtRp1580
(dp1581
g54
(dp1582
sg63
g1567
sg56
(lp1583
g49
(g50
g51
NtRp1584
(dp1585
g54
(dp1586
g62
I4
ssg63
g1580
sg56
(lp1587
S'<socket._fileobject object at 0x05D07A30>'
p1588
asbasbasbag49
(g65
g51
NtRp1589
(dp1590
g54
(dp1591
sg63
g753
sg56
(lp1592
g49
(g70
g51
NtRp1593
(dp1594
g54
(dp1595
g74
g75
ssg63
g1589
sg56
(lp1596
S'wsgi_multiprocess'
p1597
asbag49
(g70
g51
NtRp1598
(dp1599
g54
(dp1600
g81
g82
ssg63
g1589
sg56
(lp1601
S':'
asbag49
(g70
g51
NtRp1602
(dp1603
g54
(dp1604
sg63
g1589
sg56
(lp1605
g49
(g50
g51
NtRp1606
(dp1607
g54
(dp1608
g62
I4
ssg63
g1602
sg56
(lp1609
g92
asbasbasbag49
(g65
g51
NtRp1610
(dp1611
g54
(dp1612
sg63
g753
sg56
(lp1613
g49
(g70
g51
NtRp1614
(dp1615
g54
(dp1616
g74
g75
ssg63
g1610
sg56
(lp1617
S'wsgi_multithread'
p1618
asbag49
(g70
g51
NtRp1619
(dp1620
g54
(dp1621
g81
g82
ssg63
g1610
sg56
(lp1622
S':'
asbag49
(g70
g51
NtRp1623
(dp1624
g54
(dp1625
sg63
g1610
sg56
(lp1626
g49
(g50
g51
NtRp1627
(dp1628
g54
(dp1629
g62
I4
ssg63
g1623
sg56
(lp1630
S'True'
p1631
asbasbasbag49
(g65
g51
NtRp1632
(dp1633
g54
(dp1634
sg63
g753
sg56
(lp1635
g49
(g70
g51
NtRp1636
(dp1637
g54
(dp1638
g74
g75
ssg63
g1632
sg56
(lp1639
S'wsgi_run_once'
p1640
asbag49
(g70
g51
NtRp1641
(dp1642
g54
(dp1643
g81
g82
ssg63
g1632
sg56
(lp1644
S':'
asbag49
(g70
g51
NtRp1645
(dp1646
g54
(dp1647
sg63
g1632
sg56
(lp1648
g49
(g50
g51
NtRp1649
(dp1650
g54
(dp1651
g62
I4
ssg63
g1645
sg56
(lp1652
g92
asbasbasbag49
(g65
g51
NtRp1653
(dp1654
g54
(dp1655
sg63
g753
sg56
(lp1656
g49
(g70
g51
NtRp1657
(dp1658
g54
(dp1659
g74
g75
ssg63
g1653
sg56
(lp1660
S'wsgi_url_scheme'
p1661
asbag49
(g70
g51
NtRp1662
(dp1663
g54
(dp1664
g81
g82
ssg63
g1653
sg56
(lp1665
S':'
asbag49
(g70
g51
NtRp1666
(dp1667
g54
(dp1668
sg63
g1653
sg56
(lp1669
g49
(g50
g51
NtRp1670
(dp1671
g54
(dp1672
g62
I4
ssg63
g1666
sg56
(lp1673
S'http'
p1674
asbasbasbag49
(g65
g51
NtRp1675
(dp1676
g54
(dp1677
sg63
g753
sg56
(lp1678
g49
(g70
g51
NtRp1679
(dp1680
g54
(dp1681
g74
g75
ssg63
g1675
sg56
(lp1682
S'wsgi_version'
p1683
asbag49
(g70
g51
NtRp1684
(dp1685
g54
(dp1686
g81
g82
ssg63
g1675
sg56
(lp1687
S':'
asbag49
(g70
g51
NtRp1688
(dp1689
g54
(dp1690
sg63
g1675
sg56
(lp1691
g49
(g50
g51
NtRp1692
(dp1693
g54
(dp1694
g62
I4
ssg63
g1688
sg56
(lp1695
g49
(g58
g51
NtRp1696
(dp1697
g54
(dp1698
g62
I3
ssg63
Nsg56
(lp1699
g49
(g65
g51
NtRp1700
(dp1701
g54
(dp1702
sg63
g1696
sg56
(lp1703
g49
(g70
g51
NtRp1704
(dp1705
g54
(dp1706
sg63
g1700
sg56
(lp1707
g49
(g50
g51
NtRp1708
(dp1709
g54
(dp1710
g62
I3
ssg63
g1704
sg56
(lp1711
S'1'
asbasbasbag49
(g65
g51
NtRp1712
(dp1713
g54
(dp1714
sg63
g1696
sg56
(lp1715
g49
(g70
g51
NtRp1716
(dp1717
g54
(dp1718
sg63
g1712
sg56
(lp1719
g49
(g50
g51
NtRp1720
(dp1721
g54
(dp1722
g62
I3
ssg63
g1716
sg56
(lp1723
S'0'
asbasbasbasbasbasbasbasbasbasbasbag49
(g65
g51
NtRp1724
(dp1725
g54
(dp1726
sg63
g59
sg56
(lp1727
g49
(g70
g51
NtRp1728
(dp1729
g54
(dp1730
g74
g75
ssg63
g1724
sg56
(lp1731
S'extension'
p1732
asbag49
(g70
g51
NtRp1733
(dp1734
g54
(dp1735
g81
g82
ssg63
g1724
sg56
(lp1736
S':'
asbag49
(g70
g51
NtRp1737
(dp1738
g54
(dp1739
sg63
g1724
sg56
(lp1740
g49
(g50
g51
NtRp1741
(dp1742
g54
(dp1743
g62
I5
ssg63
g1737
sg56
(lp1744
S'html'
p1745
asbasbasbag49
(g65
g51
NtRp1746
(dp1747
g54
(dp1748
sg63
g59
sg56
(lp1749
g49
(g70
g51
NtRp1750
(dp1751
g54
(dp1752
g74
g75
ssg63
g1746
sg56
(lp1753
S'folder'
p1754
asbag49
(g70
g51
NtRp1755
(dp1756
g54
(dp1757
g81
g82
ssg63
g1746
sg56
(lp1758
S':'
asbag49
(g70
g51
NtRp1759
(dp1760
g54
(dp1761
sg63
g1746
sg56
(lp1762
g49
(g50
g51
NtRp1763
(dp1764
g54
(dp1765
g62
I5
ssg63
g1759
sg56
(lp1766
S'C:\\Users\\omkara\\Desktop\\web2py\\applications\\SlugBarter\\'
p1767
asbasbasbag49
(g65
g51
NtRp1768
(dp1769
g54
(dp1770
sg63
g59
sg56
(lp1771
g49
(g70
g51
NtRp1772
(dp1773
g54
(dp1774
g74
g75
ssg63
g1768
sg56
(lp1775
S'function'
p1776
asbag49
(g70
g51
NtRp1777
(dp1778
g54
(dp1779
g81
g82
ssg63
g1768
sg56
(lp1780
S':'
asbag49
(g70
g51
NtRp1781
(dp1782
g54
(dp1783
sg63
g1768
sg56
(lp1784
g49
(g50
g51
NtRp1785
(dp1786
g54
(dp1787
g62
I5
ssg63
g1781
sg56
(lp1788
S'register'
p1789
asbasbasbag49
(g65
g51
NtRp1790
(dp1791
g54
(dp1792
sg63
g59
sg56
(lp1793
g49
(g70
g51
NtRp1794
(dp1795
g54
(dp1796
g74
g75
ssg63
g1790
sg56
(lp1797
S'get_vars'
p1798
asbag49
(g70
g51
NtRp1799
(dp1800
g54
(dp1801
g81
g82
ssg63
g1790
sg56
(lp1802
S':'
asbag49
(g70
g51
NtRp1803
(dp1804
g54
(dp1805
sg63
g1790
sg56
(lp1806
g49
(g50
g51
NtRp1807
(dp1808
g54
(dp1809
g62
I5
ssg63
g1803
sg56
(lp1810
g49
(g58
g51
NtRp1811
(dp1812
g54
(dp1813
g62
I4
ssg63
Nsg56
(lp1814
sbasbasbasbag49
(g65
g51
NtRp1815
(dp1816
g54
(dp1817
sg63
g59
sg56
(lp1818
g49
(g70
g51
NtRp1819
(dp1820
g54
(dp1821
g74
g75
ssg63
g1815
sg56
(lp1822
S'global_settings'
p1823
asbag49
(g70
g51
NtRp1824
(dp1825
g54
(dp1826
g81
g82
ssg63
g1815
sg56
(lp1827
S':'
asbag49
(g70
g51
NtRp1828
(dp1829
g54
(dp1830
sg63
g1815
sg56
(lp1831
g49
(g50
g51
NtRp1832
(dp1833
g54
(dp1834
g62
I5
ssg63
g1828
sg56
(lp1835
g49
(g58
g51
NtRp1836
(dp1837
g54
(dp1838
g62
I4
ssg63
Nsg56
(lp1839
g49
(g65
g51
NtRp1840
(dp1841
g54
(dp1842
sg63
g1836
sg56
(lp1843
g49
(g70
g51
NtRp1844
(dp1845
g54
(dp1846
g74
g75
ssg63
g1840
sg56
(lp1847
g765
asbag49
(g70
g51
NtRp1848
(dp1849
g54
(dp1850
g81
g82
ssg63
g1840
sg56
(lp1851
S':'
asbag49
(g70
g51
NtRp1852
(dp1853
g54
(dp1854
sg63
g1840
sg56
(lp1855
g49
(g50
g51
NtRp1856
(dp1857
g54
(dp1858
g62
I4
ssg63
g1852
sg56
(lp1859
S"set(['C:\\\\Users\\\\omkara\\\\Desktop\\\\web2py\\\\applications\\\\admin\\\\', 'C:\\\\Users\\\\omkara\\\\Desktop\\\\web2py\\\\applications\\\\welcome\\\\', 'C:\\\\Users\\\\omkara\\\\Desktop\\\\web2py\\\\applications\\\\SlugBarter\\\\'])"
p1860
asbasbasbag49
(g65
g51
NtRp1861
(dp1862
g54
(dp1863
sg63
g1836
sg56
(lp1864
g49
(g70
g51
NtRp1865
(dp1866
g54
(dp1867
g74
g75
ssg63
g1861
sg56
(lp1868
g787
asbag49
(g70
g51
NtRp1869
(dp1870
g54
(dp1871
g81
g82
ssg63
g1861
sg56
(lp1872
S':'
asbag49
(g70
g51
NtRp1873
(dp1874
g54
(dp1875
sg63
g1861
sg56
(lp1876
g49
(g50
g51
NtRp1877
(dp1878
g54
(dp1879
g62
I4
ssg63
g1873
sg56
(lp1880
g800
asbasbasbag49
(g65
g51
NtRp1881
(dp1882
g54
(dp1883
sg63
g1836
sg56
(lp1884
g49
(g70
g51
NtRp1885
(dp1886
g54
(dp1887
g74
g75
ssg63
g1881
sg56
(lp1888
g809
asbag49
(g70
g51
NtRp1889
(dp1890
g54
(dp1891
g81
g82
ssg63
g1881
sg56
(lp1892
S':'
asbag49
(g70
g51
NtRp1893
(dp1894
g54
(dp1895
sg63
g1881
sg56
(lp1896
g49
(g50
g51
NtRp1897
(dp1898
g54
(dp1899
g62
I4
ssg63
g1893
sg56
(lp1900
g49
(g58
g51
NtRp1901
(dp1902
g54
(dp1903
g62
I3
ssg63
Nsg56
(lp1904
sbasbasbasbag49
(g65
g51
NtRp1905
(dp1906
g54
(dp1907
sg63
g1836
sg56
(lp1908
g49
(g70
g51
NtRp1909
(dp1910
g54
(dp1911
g74
g75
ssg63
g1905
sg56
(lp1912
g834
asbag49
(g70
g51
NtRp1913
(dp1914
g54
(dp1915
g81
g82
ssg63
g1905
sg56
(lp1916
S':'
asbag49
(g70
g51
NtRp1917
(dp1918
g54
(dp1919
sg63
g1905
sg56
(lp1920
g49
(g50
g51
NtRp1921
(dp1922
g54
(dp1923
g62
I4
ssg63
g1917
sg56
(lp1924
S"<Values at 0x27a30f8: {'verbose': False, 'ip': '127.0.0.1', 'shutdown_timeout': 5, 'taskbar': False, 'nocron': False, 'pid_filename': 'httpserver.pid', 'maxthreads': None, 'softcron': False, 'server_name': 'omkara-PC', 'bpython': False, 'nogui': False, 'port': 8000, 'extcron': False, 'debuglevel': 30, 'test': None, 'folder': 'C:\\\\Users\\\\omkara\\\\Desktop\\\\web2py', 'config': '', 'import_models': False, 'winservice': '', 'shell': None, 'run': '', 'log_filename': 'httpserver.log', 'args': [''], 'socket_timeout': 5, 'ssl_ca_certificate': None, 'scheduler': None, 'profiler_filename': None, 'ssl_private_key': '', 'password': '<ask>', 'request_queue_size': 5, 'ssl_certificate': '', 'cronjob': False, 'numthreads': None, 'quiet': False, 'interfaces': None, 'minthreads': None, 'timeout': 10, 'plain': False, 'nobanner': False}>"
p1925
asbasbasbag49
(g65
g51
NtRp1926
(dp1927
g54
(dp1928
sg63
g1836
sg56
(lp1929
g49
(g70
g51
NtRp1930
(dp1931
g54
(dp1932
g74
g75
ssg63
g1926
sg56
(lp1933
g856
asbag49
(g70
g51
NtRp1934
(dp1935
g54
(dp1936
g81
g82
ssg63
g1926
sg56
(lp1937
S':'
asbag49
(g70
g51
NtRp1938
(dp1939
g54
(dp1940
sg63
g1926
sg56
(lp1941
g49
(g50
g51
NtRp1942
(dp1943
g54
(dp1944
g62
I4
ssg63
g1938
sg56
(lp1945
S'set([])'
p1946
asbasbasbag49
(g65
g51
NtRp1947
(dp1948
g54
(dp1949
sg63
g1836
sg56
(lp1950
g49
(g70
g51
NtRp1951
(dp1952
g54
(dp1953
g74
g75
ssg63
g1947
sg56
(lp1954
g878
asbag49
(g70
g51
NtRp1955
(dp1956
g54
(dp1957
g81
g82
ssg63
g1947
sg56
(lp1958
S':'
asbag49
(g70
g51
NtRp1959
(dp1960
g54
(dp1961
sg63
g1947
sg56
(lp1962
g49
(g50
g51
NtRp1963
(dp1964
g54
(dp1965
g62
I4
ssg63
g1959
sg56
(lp1966
g92
asbasbasbag49
(g65
g51
NtRp1967
(dp1968
g54
(dp1969
sg63
g1836
sg56
(lp1970
g49
(g70
g51
NtRp1971
(dp1972
g54
(dp1973
g74
g75
ssg63
g1967
sg56
(lp1974
g899
asbag49
(g70
g51
NtRp1975
(dp1976
g54
(dp1977
g81
g82
ssg63
g1967
sg56
(lp1978
S':'
asbag49
(g70
g51
NtRp1979
(dp1980
g54
(dp1981
sg63
g1967
sg56
(lp1982
g49
(g50
g51
NtRp1983
(dp1984
g54
(dp1985
g62
I4
ssg63
g1979
sg56
(lp1986
g912
asbasbasbag49
(g65
g51
NtRp1987
(dp1988
g54
(dp1989
sg63
g1836
sg56
(lp1990
g49
(g70
g51
NtRp1991
(dp1992
g54
(dp1993
g74
g75
ssg63
g1987
sg56
(lp1994
g1141
asbag49
(g70
g51
NtRp1995
(dp1996
g54
(dp1997
g81
g82
ssg63
g1987
sg56
(lp1998
S':'
asbag49
(g70
g51
NtRp1999
(dp2000
g54
(dp2001
sg63
g1987
sg56
(lp2002
g49
(g50
g51
NtRp2003
(dp2004
g54
(dp2005
g62
I4
ssg63
g1999
sg56
(lp2006
g92
asbasbasbag49
(g65
g51
NtRp2007
(dp2008
g54
(dp2009
sg63
g1836
sg56
(lp2010
g49
(g70
g51
NtRp2011
(dp2012
g54
(dp2013
g74
g75
ssg63
g2007
sg56
(lp2014
g1162
asbag49
(g70
g51
NtRp2015
(dp2016
g54
(dp2017
g81
g82
ssg63
g2007
sg56
(lp2018
S':'
asbag49
(g70
g51
NtRp2019
(dp2020
g54
(dp2021
sg63
g2007
sg56
(lp2022
g49
(g50
g51
NtRp2023
(dp2024
g54
(dp2025
g62
I4
ssg63
g2019
sg56
(lp2026
g92
asbasbasbag49
(g65
g51
NtRp2027
(dp2028
g54
(dp2029
sg63
g1836
sg56
(lp2030
g49
(g70
g51
NtRp2031
(dp2032
g54
(dp2033
g74
g75
ssg63
g2027
sg56
(lp2034
g1400
asbag49
(g70
g51
NtRp2035
(dp2036
g54
(dp2037
g81
g82
ssg63
g2027
sg56
(lp2038
S':'
asbag49
(g70
g51
NtRp2039
(dp2040
g54
(dp2041
sg63
g2027
sg56
(lp2042
g49
(g50
g51
NtRp2043
(dp2044
g54
(dp2045
g62
I4
ssg63
g2039
sg56
(lp2046
g1413
asbasbasbag49
(g65
g51
NtRp2047
(dp2048
g54
(dp2049
sg63
g1836
sg56
(lp2050
g49
(g70
g51
NtRp2051
(dp2052
g54
(dp2053
g74
g75
ssg63
g2047
sg56
(lp2054
g1443
asbag49
(g70
g51
NtRp2055
(dp2056
g54
(dp2057
g81
g82
ssg63
g2047
sg56
(lp2058
S':'
asbag49
(g70
g51
NtRp2059
(dp2060
g54
(dp2061
sg63
g2047
sg56
(lp2062
g49
(g50
g51
NtRp2063
(dp2064
g54
(dp2065
g62
I4
ssg63
g2059
sg56
(lp2066
g49
(g58
g51
NtRp2067
(dp2068
g54
(dp2069
g62
I3
ssg63
Nsg56
(lp2070
g49
(g65
g51
NtRp2071
(dp2072
g54
(dp2073
sg63
g2067
sg56
(lp2074
g49
(g70
g51
NtRp2075
(dp2076
g54
(dp2077
sg63
g2071
sg56
(lp2078
g49
(g50
g51
NtRp2079
(dp2080
g54
(dp2081
g62
I3
ssg63
g2075
sg56
(lp2082
S'1'
asbasbasbag49
(g65
g51
NtRp2083
(dp2084
g54
(dp2085
sg63
g2067
sg56
(lp2086
g49
(g70
g51
NtRp2087
(dp2088
g54
(dp2089
sg63
g2083
sg56
(lp2090
g49
(g50
g51
NtRp2091
(dp2092
g54
(dp2093
g62
I3
ssg63
g2087
sg56
(lp2094
S'99'
p2095
asbasbasbag49
(g65
g51
NtRp2096
(dp2097
g54
(dp2098
sg63
g2067
sg56
(lp2099
g49
(g70
g51
NtRp2100
(dp2101
g54
(dp2102
sg63
g2096
sg56
(lp2103
g49
(g50
g51
NtRp2104
(dp2105
g54
(dp2106
g62
I3
ssg63
g2100
sg56
(lp2107
S'7'
asbasbasbag49
(g65
g51
NtRp2108
(dp2109
g54
(dp2110
sg63
g2067
sg56
(lp2111
g49
(g70
g51
NtRp2112
(dp2113
g54
(dp2114
sg63
g2108
sg56
(lp2115
g49
(g50
g51
NtRp2116
(dp2117
g54
(dp2118
g62
I3
ssg63
g2112
sg56
(lp2119
S'datetime.datetime(2012, 3, 4, 22, 12, 8)'
p2120
asbasbasbag49
(g65
g51
NtRp2121
(dp2122
g54
(dp2123
sg63
g2067
sg56
(lp2124
g49
(g70
g51
NtRp2125
(dp2126
g54
(dp2127
sg63
g2121
sg56
(lp2128
g49
(g50
g51
NtRp2129
(dp2130
g54
(dp2131
g62
I3
ssg63
g2125
sg56
(lp2132
g1522
asbasbasbasbasbasbasbasbasbasbasbag49
(g65
g51
NtRp2133
(dp2134
g54
(dp2135
sg63
g59
sg56
(lp2136
g49
(g70
g51
NtRp2137
(dp2138
g54
(dp2139
g74
g75
ssg63
g2133
sg56
(lp2140
S'is_https'
p2141
asbag49
(g70
g51
NtRp2142
(dp2143
g54
(dp2144
g81
g82
ssg63
g2133
sg56
(lp2145
S':'
asbag49
(g70
g51
NtRp2146
(dp2147
g54
(dp2148
sg63
g2133
sg56
(lp2149
g49
(g50
g51
NtRp2150
(dp2151
g54
(dp2152
g62
I5
ssg63
g2146
sg56
(lp2153
g92
asbasbasbag49
(g65
g51
NtRp2154
(dp2155
g54
(dp2156
sg63
g59
sg56
(lp2157
g49
(g70
g51
NtRp2158
(dp2159
g54
(dp2160
g74
g75
ssg63
g2154
sg56
(lp2161
S'is_local'
p2162
asbag49
(g70
g51
NtRp2163
(dp2164
g54
(dp2165
g81
g82
ssg63
g2154
sg56
(lp2166
S':'
asbag49
(g70
g51
NtRp2167
(dp2168
g54
(dp2169
sg63
g2154
sg56
(lp2170
g49
(g50
g51
NtRp2171
(dp2172
g54
(dp2173
g62
I5
ssg63
g2167
sg56
(lp2174
g1631
asbasbasbag49
(g65
g51
NtRp2175
(dp2176
g54
(dp2177
sg63
g59
sg56
(lp2178
g49
(g70
g51
NtRp2179
(dp2180
g54
(dp2181
g74
g75
ssg63
g2175
sg56
(lp2182
S'is_restful'
p2183
asbag49
(g70
g51
NtRp2184
(dp2185
g54
(dp2186
g81
g82
ssg63
g2175
sg56
(lp2187
S':'
asbag49
(g70
g51
NtRp2188
(dp2189
g54
(dp2190
sg63
g2175
sg56
(lp2191
g49
(g50
g51
NtRp2192
(dp2193
g54
(dp2194
g62
I5
ssg63
g2188
sg56
(lp2195
g92
asbasbasbag49
(g65
g51
NtRp2196
(dp2197
g54
(dp2198
sg63
g59
sg56
(lp2199
g49
(g70
g51
NtRp2200
(dp2201
g54
(dp2202
g74
g75
ssg63
g2196
sg56
(lp2203
S'now'
p2204
asbag49
(g70
g51
NtRp2205
(dp2206
g54
(dp2207
g81
g82
ssg63
g2196
sg56
(lp2208
S':'
asbag49
(g70
g51
NtRp2209
(dp2210
g54
(dp2211
sg63
g2196
sg56
(lp2212
g49
(g50
g51
NtRp2213
(dp2214
g54
(dp2215
g62
I5
ssg63
g2209
sg56
(lp2216
S'datetime.datetime(2012, 11, 10, 10, 4, 15, 892000)'
p2217
asbasbasbag49
(g65
g51
NtRp2218
(dp2219
g54
(dp2220
sg63
g59
sg56
(lp2221
g49
(g70
g51
NtRp2222
(dp2223
g54
(dp2224
g74
g75
ssg63
g2218
sg56
(lp2225
S'post_vars'
p2226
asbag49
(g70
g51
NtRp2227
(dp2228
g54
(dp2229
g81
g82
ssg63
g2218
sg56
(lp2230
S':'
asbag49
(g70
g51
NtRp2231
(dp2232
g54
(dp2233
sg63
g2218
sg56
(lp2234
g49
(g50
g51
NtRp2235
(dp2236
g54
(dp2237
g62
I5
ssg63
g2231
sg56
(lp2238
g49
(g58
g51
NtRp2239
(dp2240
g54
(dp2241
g62
I4
ssg63
Nsg56
(lp2242
sbasbasbasbag49
(g65
g51
NtRp2243
(dp2244
g54
(dp2245
sg63
g59
sg56
(lp2246
g49
(g70
g51
NtRp2247
(dp2248
g54
(dp2249
g74
g75
ssg63
g2243
sg56
(lp2250
S'url'
p2251
asbag49
(g70
g51
NtRp2252
(dp2253
g54
(dp2254
g81
g82
ssg63
g2243
sg56
(lp2255
S':'
asbag49
(g70
g51
NtRp2256
(dp2257
g54
(dp2258
sg63
g2243
sg56
(lp2259
g49
(g50
g51
NtRp2260
(dp2261
g54
(dp2262
g62
I5
ssg63
g2256
sg56
(lp2263
S'/SlugBarter/default/register'
p2264
asbasbasbag49
(g65
g51
NtRp2265
(dp2266
g54
(dp2267
sg63
g59
sg56
(lp2268
g49
(g70
g51
NtRp2269
(dp2270
g54
(dp2271
g74
g75
ssg63
g2265
sg56
(lp2272
S'utcnow'
p2273
asbag49
(g70
g51
NtRp2274
(dp2275
g54
(dp2276
g81
g82
ssg63
g2265
sg56
(lp2277
S':'
asbag49
(g70
g51
NtRp2278
(dp2279
g54
(dp2280
sg63
g2265
sg56
(lp2281
g49
(g50
g51
NtRp2282
(dp2283
g54
(dp2284
g62
I5
ssg63
g2278
sg56
(lp2285
S'datetime.datetime(2012, 11, 10, 18, 4, 15, 892000)'
p2286
asbasbasbag49
(g65
g51
NtRp2287
(dp2288
g54
(dp2289
sg63
g59
sg56
(lp2290
g49
(g70
g51
NtRp2291
(dp2292
g54
(dp2293
g74
g75
ssg63
g2287
sg56
(lp2294
S'uuid'
p2295
asbag49
(g70
g51
NtRp2296
(dp2297
g54
(dp2298
g81
g82
ssg63
g2287
sg56
(lp2299
S':'
asbag49
(g70
g51
NtRp2300
(dp2301
g54
(dp2302
sg63
g2287
sg56
(lp2303
g49
(g50
g51
NtRp2304
(dp2305
g54
(dp2306
g62
I5
ssg63
g2300
sg56
(lp2307
S'SlugBarter/127.0.0.1.2012-11-10.10-04-15.c2de6527-7304-41d1-b10f-f843f7964582'
p2308
asbasbasbag49
(g65
g51
NtRp2309
(dp2310
g54
(dp2311
sg63
g59
sg56
(lp2312
g49
(g70
g51
NtRp2313
(dp2314
g54
(dp2315
g74
g75
ssg63
g2309
sg56
(lp2316
S'vars'
p2317
asbag49
(g70
g51
NtRp2318
(dp2319
g54
(dp2320
g81
g82
ssg63
g2309
sg56
(lp2321
S':'
asbag49
(g70
g51
NtRp2322
(dp2323
g54
(dp2324
sg63
g2309
sg56
(lp2325
g49
(g50
g51
NtRp2326
(dp2327
g54
(dp2328
g62
I5
ssg63
g2322
sg56
(lp2329
g49
(g58
g51
NtRp2330
(dp2331
g54
(dp2332
g62
I4
ssg63
Nsg56
(lp2333
sbasbasbasbag49
(g65
g51
NtRp2334
(dp2335
g54
(dp2336
sg63
g59
sg56
(lp2337
g49
(g70
g51
NtRp2338
(dp2339
g54
(dp2340
g74
g75
ssg63
g2334
sg56
(lp2341
S'wsgi'
p2342
asbag49
(g70
g51
NtRp2343
(dp2344
g54
(dp2345
g81
g82
ssg63
g2334
sg56
(lp2346
S':'
asbag49
(g70
g51
NtRp2347
(dp2348
g54
(dp2349
sg63
g2334
sg56
(lp2350
g49
(g50
g51
NtRp2351
(dp2352
g54
(dp2353
g62
I5
ssg63
g2347
sg56
(lp2354
g49
(g58
g51
NtRp2355
(dp2356
g54
(dp2357
g62
I4
ssg63
Nsg56
(lp2358
g49
(g65
g51
NtRp2359
(dp2360
g54
(dp2361
sg63
g2355
sg56
(lp2362
g49
(g70
g51
NtRp2363
(dp2364
g54
(dp2365
g74
g75
ssg63
g2359
sg56
(lp2366
S'environ'
p2367
asbag49
(g70
g51
NtRp2368
(dp2369
g54
(dp2370
g81
g82
ssg63
g2359
sg56
(lp2371
S':'
asbag49
(g70
g51
NtRp2372
(dp2373
g54
(dp2374
sg63
g2359
sg56
(lp2375
g49
(g50
g51
NtRp2376
(dp2377
g54
(dp2378
g62
I4
ssg63
g2372
sg56
(lp2379
g49
(g58
g51
NtRp2380
(dp2381
g54
(dp2382
g62
I3
ssg63
Nsg56
(lp2383
g49
(g65
g51
NtRp2384
(dp2385
g54
(dp2386
sg63
g2380
sg56
(lp2387
g49
(g70
g51
NtRp2388
(dp2389
g54
(dp2390
g74
g75
ssg63
g2384
sg56
(lp2391
S'HTTP_ACCEPT'
p2392
asbag49
(g70
g51
NtRp2393
(dp2394
g54
(dp2395
g81
g82
ssg63
g2384
sg56
(lp2396
S':'
asbag49
(g70
g51
NtRp2397
(dp2398
g54
(dp2399
sg63
g2384
sg56
(lp2400
g49
(g50
g51
NtRp2401
(dp2402
g54
(dp2403
g62
I3
ssg63
g2397
sg56
(lp2404
g934
asbasbasbag49
(g65
g51
NtRp2405
(dp2406
g54
(dp2407
sg63
g2380
sg56
(lp2408
g49
(g70
g51
NtRp2409
(dp2410
g54
(dp2411
g74
g75
ssg63
g2405
sg56
(lp2412
S'HTTP_ACCEPT_CHARSET'
p2413
asbag49
(g70
g51
NtRp2414
(dp2415
g54
(dp2416
g81
g82
ssg63
g2405
sg56
(lp2417
S':'
asbag49
(g70
g51
NtRp2418
(dp2419
g54
(dp2420
sg63
g2405
sg56
(lp2421
g49
(g50
g51
NtRp2422
(dp2423
g54
(dp2424
g62
I3
ssg63
g2418
sg56
(lp2425
g956
asbasbasbag49
(g65
g51
NtRp2426
(dp2427
g54
(dp2428
sg63
g2380
sg56
(lp2429
g49
(g70
g51
NtRp2430
(dp2431
g54
(dp2432
g74
g75
ssg63
g2426
sg56
(lp2433
S'HTTP_ACCEPT_ENCODING'
p2434
asbag49
(g70
g51
NtRp2435
(dp2436
g54
(dp2437
g81
g82
ssg63
g2426
sg56
(lp2438
S':'
asbag49
(g70
g51
NtRp2439
(dp2440
g54
(dp2441
sg63
g2426
sg56
(lp2442
g49
(g50
g51
NtRp2443
(dp2444
g54
(dp2445
g62
I3
ssg63
g2439
sg56
(lp2446
g978
asbasbasbag49
(g65
g51
NtRp2447
(dp2448
g54
(dp2449
sg63
g2380
sg56
(lp2450
g49
(g70
g51
NtRp2451
(dp2452
g54
(dp2453
g74
g75
ssg63
g2447
sg56
(lp2454
S'HTTP_ACCEPT_LANGUAGE'
p2455
asbag49
(g70
g51
NtRp2456
(dp2457
g54
(dp2458
g81
g82
ssg63
g2447
sg56
(lp2459
S':'
asbag49
(g70
g51
NtRp2460
(dp2461
g54
(dp2462
sg63
g2447
sg56
(lp2463
g49
(g50
g51
NtRp2464
(dp2465
g54
(dp2466
g62
I3
ssg63
g2460
sg56
(lp2467
g1000
asbasbasbag49
(g65
g51
NtRp2468
(dp2469
g54
(dp2470
sg63
g2380
sg56
(lp2471
g49
(g70
g51
NtRp2472
(dp2473
g54
(dp2474
g74
g75
ssg63
g2468
sg56
(lp2475
S'HTTP_CACHE_CONTROL'
p2476
asbag49
(g70
g51
NtRp2477
(dp2478
g54
(dp2479
g81
g82
ssg63
g2468
sg56
(lp2480
S':'
asbag49
(g70
g51
NtRp2481
(dp2482
g54
(dp2483
sg63
g2468
sg56
(lp2484
g49
(g50
g51
NtRp2485
(dp2486
g54
(dp2487
g62
I3
ssg63
g2481
sg56
(lp2488
g1022
asbasbasbag49
(g65
g51
NtRp2489
(dp2490
g54
(dp2491
sg63
g2380
sg56
(lp2492
g49
(g70
g51
NtRp2493
(dp2494
g54
(dp2495
g74
g75
ssg63
g2489
sg56
(lp2496
S'HTTP_CONNECTION'
p2497
asbag49
(g70
g51
NtRp2498
(dp2499
g54
(dp2500
g81
g82
ssg63
g2489
sg56
(lp2501
S':'
asbag49
(g70
g51
NtRp2502
(dp2503
g54
(dp2504
sg63
g2489
sg56
(lp2505
g49
(g50
g51
NtRp2506
(dp2507
g54
(dp2508
g62
I3
ssg63
g2502
sg56
(lp2509
g1044
asbasbasbag49
(g65
g51
NtRp2510
(dp2511
g54
(dp2512
sg63
g2380
sg56
(lp2513
g49
(g70
g51
NtRp2514
(dp2515
g54
(dp2516
g74
g75
ssg63
g2510
sg56
(lp2517
S'HTTP_COOKIE'
p2518
asbag49
(g70
g51
NtRp2519
(dp2520
g54
(dp2521
g81
g82
ssg63
g2510
sg56
(lp2522
S':'
asbag49
(g70
g51
NtRp2523
(dp2524
g54
(dp2525
sg63
g2510
sg56
(lp2526
g49
(g50
g51
NtRp2527
(dp2528
g54
(dp2529
g62
I3
ssg63
g2523
sg56
(lp2530
g1066
asbasbasbag49
(g65
g51
NtRp2531
(dp2532
g54
(dp2533
sg63
g2380
sg56
(lp2534
g49
(g70
g51
NtRp2535
(dp2536
g54
(dp2537
g74
g75
ssg63
g2531
sg56
(lp2538
S'HTTP_HOST'
p2539
asbag49
(g70
g51
NtRp2540
(dp2541
g54
(dp2542
g81
g82
ssg63
g2531
sg56
(lp2543
S':'
asbag49
(g70
g51
NtRp2544
(dp2545
g54
(dp2546
sg63
g2531
sg56
(lp2547
g49
(g50
g51
NtRp2548
(dp2549
g54
(dp2550
g62
I3
ssg63
g2544
sg56
(lp2551
g1088
asbasbasbag49
(g65
g51
NtRp2552
(dp2553
g54
(dp2554
sg63
g2380
sg56
(lp2555
g49
(g70
g51
NtRp2556
(dp2557
g54
(dp2558
g74
g75
ssg63
g2552
sg56
(lp2559
S'HTTP_REFERER'
p2560
asbag49
(g70
g51
NtRp2561
(dp2562
g54
(dp2563
g81
g82
ssg63
g2552
sg56
(lp2564
S':'
asbag49
(g70
g51
NtRp2565
(dp2566
g54
(dp2567
sg63
g2552
sg56
(lp2568
g49
(g50
g51
NtRp2569
(dp2570
g54
(dp2571
g62
I3
ssg63
g2565
sg56
(lp2572
g1110
asbasbasbag49
(g65
g51
NtRp2573
(dp2574
g54
(dp2575
sg63
g2380
sg56
(lp2576
g49
(g70
g51
NtRp2577
(dp2578
g54
(dp2579
g74
g75
ssg63
g2573
sg56
(lp2580
S'HTTP_USER_AGENT'
p2581
asbag49
(g70
g51
NtRp2582
(dp2583
g54
(dp2584
g81
g82
ssg63
g2573
sg56
(lp2585
S':'
asbag49
(g70
g51
NtRp2586
(dp2587
g54
(dp2588
sg63
g2573
sg56
(lp2589
g49
(g50
g51
NtRp2590
(dp2591
g54
(dp2592
g62
I3
ssg63
g2586
sg56
(lp2593
g1132
asbasbasbag49
(g65
g51
NtRp2594
(dp2595
g54
(dp2596
sg63
g2380
sg56
(lp2597
g49
(g70
g51
NtRp2598
(dp2599
g54
(dp2600
g74
g75
ssg63
g2594
sg56
(lp2601
S'PATH_INFO'
p2602
asbag49
(g70
g51
NtRp2603
(dp2604
g54
(dp2605
g81
g82
ssg63
g2594
sg56
(lp2606
S':'
asbag49
(g70
g51
NtRp2607
(dp2608
g54
(dp2609
sg63
g2594
sg56
(lp2610
g49
(g50
g51
NtRp2611
(dp2612
g54
(dp2613
g62
I3
ssg63
g2607
sg56
(lp2614
g1196
asbasbasbag49
(g65
g51
NtRp2615
(dp2616
g54
(dp2617
sg63
g2380
sg56
(lp2618
g49
(g70
g51
NtRp2619
(dp2620
g54
(dp2621
g74
g75
ssg63
g2615
sg56
(lp2622
S'QUERY_STRING'
p2623
asbag49
(g70
g51
NtRp2624
(dp2625
g54
(dp2626
g81
g82
ssg63
g2615
sg56
(lp2627
S':'
asbag49
(g70
g51
NtRp2628
(dp2629
g54
(dp2630
sg63
g2615
sg56
(lp2631
g49
(g50
g51
NtRp2632
(dp2633
g54
(dp2634
g62
I3
ssg63
g2628
sg56
(lp2635
S''
asbasbasbag49
(g65
g51
NtRp2636
(dp2637
g54
(dp2638
sg63
g2380
sg56
(lp2639
g49
(g70
g51
NtRp2640
(dp2641
g54
(dp2642
g74
g75
ssg63
g2636
sg56
(lp2643
S'REMOTE_ADDR'
p2644
asbag49
(g70
g51
NtRp2645
(dp2646
g54
(dp2647
g81
g82
ssg63
g2636
sg56
(lp2648
S':'
asbag49
(g70
g51
NtRp2649
(dp2650
g54
(dp2651
sg63
g2636
sg56
(lp2652
g49
(g50
g51
NtRp2653
(dp2654
g54
(dp2655
g62
I3
ssg63
g2649
sg56
(lp2656
g182
asbasbasbag49
(g65
g51
NtRp2657
(dp2658
g54
(dp2659
sg63
g2380
sg56
(lp2660
g49
(g70
g51
NtRp2661
(dp2662
g54
(dp2663
g74
g75
ssg63
g2657
sg56
(lp2664
S'REMOTE_PORT'
p2665
asbag49
(g70
g51
NtRp2666
(dp2667
g54
(dp2668
g81
g82
ssg63
g2657
sg56
(lp2669
S':'
asbag49
(g70
g51
NtRp2670
(dp2671
g54
(dp2672
sg63
g2657
sg56
(lp2673
g49
(g50
g51
NtRp2674
(dp2675
g54
(dp2676
g62
I3
ssg63
g2670
sg56
(lp2677
g1260
asbasbasbag49
(g65
g51
NtRp2678
(dp2679
g54
(dp2680
sg63
g2380
sg56
(lp2681
g49
(g70
g51
NtRp2682
(dp2683
g54
(dp2684
g74
g75
ssg63
g2678
sg56
(lp2685
S'REQUEST_METHOD'
p2686
asbag49
(g70
g51
NtRp2687
(dp2688
g54
(dp2689
g81
g82
ssg63
g2678
sg56
(lp2690
S':'
asbag49
(g70
g51
NtRp2691
(dp2692
g54
(dp2693
sg63
g2678
sg56
(lp2694
g49
(g50
g51
NtRp2695
(dp2696
g54
(dp2697
g62
I3
ssg63
g2691
sg56
(lp2698
g1282
asbasbasbag49
(g65
g51
NtRp2699
(dp2700
g54
(dp2701
sg63
g2380
sg56
(lp2702
g49
(g70
g51
NtRp2703
(dp2704
g54
(dp2705
g74
g75
ssg63
g2699
sg56
(lp2706
S'SCRIPT_NAME'
p2707
asbag49
(g70
g51
NtRp2708
(dp2709
g54
(dp2710
g81
g82
ssg63
g2699
sg56
(lp2711
S':'
asbag49
(g70
g51
NtRp2712
(dp2713
g54
(dp2714
sg63
g2699
sg56
(lp2715
g49
(g50
g51
NtRp2716
(dp2717
g54
(dp2718
g62
I3
ssg63
g2712
sg56
(lp2719
S''
asbasbasbag49
(g65
g51
NtRp2720
(dp2721
g54
(dp2722
sg63
g2380
sg56
(lp2723
g49
(g70
g51
NtRp2724
(dp2725
g54
(dp2726
g74
g75
ssg63
g2720
sg56
(lp2727
S'SERVER_NAME'
p2728
asbag49
(g70
g51
NtRp2729
(dp2730
g54
(dp2731
g81
g82
ssg63
g2720
sg56
(lp2732
S':'
asbag49
(g70
g51
NtRp2733
(dp2734
g54
(dp2735
sg63
g2720
sg56
(lp2736
g49
(g50
g51
NtRp2737
(dp2738
g54
(dp2739
g62
I3
ssg63
g2733
sg56
(lp2740
g1325
asbasbasbag49
(g65
g51
NtRp2741
(dp2742
g54
(dp2743
sg63
g2380
sg56
(lp2744
g49
(g70
g51
NtRp2745
(dp2746
g54
(dp2747
g74
g75
ssg63
g2741
sg56
(lp2748
S'SERVER_PORT'
p2749
asbag49
(g70
g51
NtRp2750
(dp2751
g54
(dp2752
g81
g82
ssg63
g2741
sg56
(lp2753
S':'
asbag49
(g70
g51
NtRp2754
(dp2755
g54
(dp2756
sg63
g2741
sg56
(lp2757
g49
(g50
g51
NtRp2758
(dp2759
g54
(dp2760
g62
I3
ssg63
g2754
sg56
(lp2761
g1347
asbasbasbag49
(g65
g51
NtRp2762
(dp2763
g54
(dp2764
sg63
g2380
sg56
(lp2765
g49
(g70
g51
NtRp2766
(dp2767
g54
(dp2768
g74
g75
ssg63
g2762
sg56
(lp2769
S'SERVER_PROTOCOL'
p2770
asbag49
(g70
g51
NtRp2771
(dp2772
g54
(dp2773
g81
g82
ssg63
g2762
sg56
(lp2774
S':'
asbag49
(g70
g51
NtRp2775
(dp2776
g54
(dp2777
sg63
g2762
sg56
(lp2778
g49
(g50
g51
NtRp2779
(dp2780
g54
(dp2781
g62
I3
ssg63
g2775
sg56
(lp2782
g1369
asbasbasbag49
(g65
g51
NtRp2783
(dp2784
g54
(dp2785
sg63
g2380
sg56
(lp2786
g49
(g70
g51
NtRp2787
(dp2788
g54
(dp2789
g74
g75
ssg63
g2783
sg56
(lp2790
S'SERVER_SOFTWARE'
p2791
asbag49
(g70
g51
NtRp2792
(dp2793
g54
(dp2794
g81
g82
ssg63
g2783
sg56
(lp2795
S':'
asbag49
(g70
g51
NtRp2796
(dp2797
g54
(dp2798
sg63
g2783
sg56
(lp2799
g49
(g50
g51
NtRp2800
(dp2801
g54
(dp2802
g62
I3
ssg63
g2796
sg56
(lp2803
g1391
asbasbasbag49
(g65
g51
NtRp2804
(dp2805
g54
(dp2806
sg63
g2380
sg56
(lp2807
g49
(g70
g51
NtRp2808
(dp2809
g54
(dp2810
g74
g75
ssg63
g2804
sg56
(lp2811
S'wsgi.errors'
p2812
asbag49
(g70
g51
NtRp2813
(dp2814
g54
(dp2815
g81
g82
ssg63
g2804
sg56
(lp2816
S':'
asbag49
(g70
g51
NtRp2817
(dp2818
g54
(dp2819
sg63
g2804
sg56
(lp2820
g49
(g50
g51
NtRp2821
(dp2822
g54
(dp2823
g62
I3
ssg63
g2817
sg56
(lp2824
S'<__main__.Stderr object at 0x01667670>'
p2825
asbasbasbag49
(g65
g51
NtRp2826
(dp2827
g54
(dp2828
sg63
g2380
sg56
(lp2829
g49
(g70
g51
NtRp2830
(dp2831
g54
(dp2832
g74
g75
ssg63
g2826
sg56
(lp2833
S'wsgi.file_wrapper'
p2834
asbag49
(g70
g51
NtRp2835
(dp2836
g54
(dp2837
g81
g82
ssg63
g2826
sg56
(lp2838
S':'
asbag49
(g70
g51
NtRp2839
(dp2840
g54
(dp2841
sg63
g2826
sg56
(lp2842
g49
(g50
g51
NtRp2843
(dp2844
g54
(dp2845
g62
I3
ssg63
g2839
sg56
(lp2846
S'<class wsgiref.util.FileWrapper at 0x02532210>'
p2847
asbasbasbag49
(g65
g51
NtRp2848
(dp2849
g54
(dp2850
sg63
g2380
sg56
(lp2851
g49
(g70
g51
NtRp2852
(dp2853
g54
(dp2854
g74
g75
ssg63
g2848
sg56
(lp2855
S'wsgi.input'
p2856
asbag49
(g70
g51
NtRp2857
(dp2858
g54
(dp2859
g81
g82
ssg63
g2848
sg56
(lp2860
S':'
asbag49
(g70
g51
NtRp2861
(dp2862
g54
(dp2863
sg63
g2848
sg56
(lp2864
g49
(g50
g51
NtRp2865
(dp2866
g54
(dp2867
g62
I3
ssg63
g2861
sg56
(lp2868
S'<cStringIO.StringO object at 0x05D2D180>'
p2869
asbasbasbag49
(g65
g51
NtRp2870
(dp2871
g54
(dp2872
sg63
g2380
sg56
(lp2873
g49
(g70
g51
NtRp2874
(dp2875
g54
(dp2876
g74
g75
ssg63
g2870
sg56
(lp2877
S'wsgi.multiprocess'
p2878
asbag49
(g70
g51
NtRp2879
(dp2880
g54
(dp2881
g81
g82
ssg63
g2870
sg56
(lp2882
S':'
asbag49
(g70
g51
NtRp2883
(dp2884
g54
(dp2885
sg63
g2870
sg56
(lp2886
g49
(g50
g51
NtRp2887
(dp2888
g54
(dp2889
g62
I3
ssg63
g2883
sg56
(lp2890
g92
asbasbasbag49
(g65
g51
NtRp2891
(dp2892
g54
(dp2893
sg63
g2380
sg56
(lp2894
g49
(g70
g51
NtRp2895
(dp2896
g54
(dp2897
g74
g75
ssg63
g2891
sg56
(lp2898
S'wsgi.multithread'
p2899
asbag49
(g70
g51
NtRp2900
(dp2901
g54
(dp2902
g81
g82
ssg63
g2891
sg56
(lp2903
S':'
asbag49
(g70
g51
NtRp2904
(dp2905
g54
(dp2906
sg63
g2891
sg56
(lp2907
g49
(g50
g51
NtRp2908
(dp2909
g54
(dp2910
g62
I3
ssg63
g2904
sg56
(lp2911
g1631
asbasbasbag49
(g65
g51
NtRp2912
(dp2913
g54
(dp2914
sg63
g2380
sg56
(lp2915
g49
(g70
g51
NtRp2916
(dp2917
g54
(dp2918
g74
g75
ssg63
g2912
sg56
(lp2919
S'wsgi.run_once'
p2920
asbag49
(g70
g51
NtRp2921
(dp2922
g54
(dp2923
g81
g82
ssg63
g2912
sg56
(lp2924
S':'
asbag49
(g70
g51
NtRp2925
(dp2926
g54
(dp2927
sg63
g2912
sg56
(lp2928
g49
(g50
g51
NtRp2929
(dp2930
g54
(dp2931
g62
I3
ssg63
g2925
sg56
(lp2932
g92
asbasbasbag49
(g65
g51
NtRp2933
(dp2934
g54
(dp2935
sg63
g2380
sg56
(lp2936
g49
(g70
g51
NtRp2937
(dp2938
g54
(dp2939
g74
g75
ssg63
g2933
sg56
(lp2940
S'wsgi.url_scheme'
p2941
asbag49
(g70
g51
NtRp2942
(dp2943
g54
(dp2944
g81
g82
ssg63
g2933
sg56
(lp2945
S':'
asbag49
(g70
g51
NtRp2946
(dp2947
g54
(dp2948
sg63
g2933
sg56
(lp2949
g49
(g50
g51
NtRp2950
(dp2951
g54
(dp2952
g62
I3
ssg63
g2946
sg56
(lp2953
g1674
asbasbasbag49
(g65
g51
NtRp2954
(dp2955
g54
(dp2956
sg63
g2380
sg56
(lp2957
g49
(g70
g51
NtRp2958
(dp2959
g54
(dp2960
g74
g75
ssg63
g2954
sg56
(lp2961
S'wsgi.version'
p2962
asbag49
(g70
g51
NtRp2963
(dp2964
g54
(dp2965
g81
g82
ssg63
g2954
sg56
(lp2966
S':'
asbag49
(g70
g51
NtRp2967
(dp2968
g54
(dp2969
sg63
g2954
sg56
(lp2970
g49
(g50
g51
NtRp2971
(dp2972
g54
(dp2973
g62
I3
ssg63
g2967
sg56
(lp2974
S'1'
asbasbasbasbasbasbasbasbasbasbasbasbasbsS'frames'
p2975
(lp2976
(dp2977
S'file'
p2978
S'C:\\Users\\omkara\\Desktop\\web2py\\gluon\\restricted.py'
p2979
sS'dump'
p2980
(dp2981
sS'lnum'
p2982
I205
sS'lines'
p2983
(dp2984
sS'call'
p2985
S"(code='#Needed for authenticating users\\n#from datetime ...ault = datetime.utcnow())\\n]\\nauth.define_tables()\\n', environment={'A': <class 'gluon.html.A'>, 'Auth': <class 'gluon.tools.Auth'>, 'B': <class 'gluon.html.B'>, 'BEAUTIFY': <class 'gluon.html.BEAUTIFY'>, 'BODY': <class 'gluon.html.BODY'>, 'BR': <class 'gluon.html.BR'>, 'BUTTON': <class 'gluon.html.BUTTON'>, 'CAT': <class 'gluon.html.CAT'>, 'CENTER': <class 'gluon.html.CENTER'>, 'CLEANUP': <class 'gluon.validators.CLEANUP'>, ...}, layer=r'C:\\Users\\omkara\\Desktop\\web2py\\applications\\SlugBarter\\models\\registerForm.py')"
p2986
sS'func'
p2987
S'restricted'
p2988
sa(dp2989
g2978
S'C:\\Users\\omkara\\Desktop\\web2py\\applications\\SlugBarter\\models\\registerForm.py'
p2990
sg2980
(dp2991
sg2982
I8
sg2983
(dp2992
I1
S'#Needed for authenticating users'
p2993
sI2
S'#from datetime import datetime'
p2994
sI3
S'from gluon.tools import Auth'
p2995
sI4
S'auth = Auth(db)'
p2996
sI5
S''
sI6
S"auth.settings.extra_fields['auth_user']=["
p2997
sI7
S"    Field('username', 'string',label = 'Username: '),"
p2998
sI8
S"    Field('dateCreated', 'string', default = datetime.utcnow())"
p2999
sI9
S']'
sI10
S'auth.define_tables()'
p3000
ssg2985
S'()'
p3001
sg2987
S'<module>'
p3002
sasS'pyver'
p3003
S'Python 2.5.4: C:\\Users\\omkara\\Desktop\\web2py\\web2py_no_console.exe'
p3004
sS'session'
p3005
g49
(g50
g51
NtRp3006
(dp3007
g54
(dp3008
sg56
(lp3009
g49
(g58
g51
NtRp3010
(dp3011
g54
(dp3012
g62
I5
ssg63
Nsg56
(lp3013
sbasbsS'etype'
p3014
S"<type 'exceptions.NameError'>"
p3015
sS'date'
p3016
S'Sat Nov 10 10:04:15 2012'
p3017
sS'response'
p3018
g49
(g50
g51
NtRp3019
(dp3020
g54
(dp3021
sg56
(lp3022
g49
(g58
g51
NtRp3023
(dp3024
g54
(dp3025
g62
I5
ssg63
Nsg56
(lp3026
g49
(g65
g51
NtRp3027
(dp3028
g54
(dp3029
sg63
g3023
sg56
(lp3030
g49
(g70
g51
NtRp3031
(dp3032
g54
(dp3033
g74
g75
ssg63
g3027
sg56
(lp3034
g147
asbag49
(g70
g51
NtRp3035
(dp3036
g54
(dp3037
g81
g82
ssg63
g3027
sg56
(lp3038
S':'
asbag49
(g70
g51
NtRp3039
(dp3040
g54
(dp3041
sg63
g3027
sg56
(lp3042
g49
(g50
g51
NtRp3043
(dp3044
g54
(dp3045
g62
I5
ssg63
g3039
sg56
(lp3046
S'<cStringIO.StringO object at 0x061C0CA0>'
p3047
asbasbasbag49
(g65
g51
NtRp3048
(dp3049
g54
(dp3050
sg63
g3023
sg56
(lp3051
g49
(g70
g51
NtRp3052
(dp3053
g54
(dp3054
g74
g75
ssg63
g3048
sg56
(lp3055
g213
asbag49
(g70
g51
NtRp3056
(dp3057
g54
(dp3058
g81
g82
ssg63
g3048
sg56
(lp3059
S':'
asbag49
(g70
g51
NtRp3060
(dp3061
g54
(dp3062
sg63
g3048
sg56
(lp3063
g49
(g50
g51
NtRp3064
(dp3065
g54
(dp3066
g62
I5
ssg63
g3060
sg56
(lp3067
g49
(g58
g51
NtRp3068
(dp3069
g54
(dp3070
g62
I4
ssg63
Nsg56
(lp3071
g49
(g65
g51
NtRp3072
(dp3073
g54
(dp3074
sg63
g3068
sg56
(lp3075
g49
(g70
g51
NtRp3076
(dp3077
g54
(dp3078
g74
g75
ssg63
g3072
sg56
(lp3079
S'session_id_slugbarter'
p3080
asbag49
(g70
g51
NtRp3081
(dp3082
g54
(dp3083
g81
g82
ssg63
g3072
sg56
(lp3084
S':'
asbag49
(g70
g51
NtRp3085
(dp3086
g54
(dp3087
sg63
g3072
sg56
(lp3088
g49
(g50
g51
NtRp3089
(dp3090
g54
(dp3091
g62
I4
ssg63
g3085
sg56
(lp3092
g49
(g58
g51
NtRp3093
(dp3094
g54
(dp3095
g62
I3
ssg63
Nsg56
(lp3096
g49
(g65
g51
NtRp3097
(dp3098
g54
(dp3099
sg63
g3093
sg56
(lp3100
g49
(g70
g51
NtRp3101
(dp3102
g54
(dp3103
g74
g75
ssg63
g3097
sg56
(lp3104
g263
asbag49
(g70
g51
NtRp3105
(dp3106
g54
(dp3107
g81
g82
ssg63
g3097
sg56
(lp3108
S':'
asbag49
(g70
g51
NtRp3109
(dp3110
g54
(dp3111
sg63
g3097
sg56
(lp3112
g49
(g50
g51
NtRp3113
(dp3114
g54
(dp3115
g62
I3
ssg63
g3109
sg56
(lp3116
S''
asbasbasbag49
(g65
g51
NtRp3117
(dp3118
g54
(dp3119
sg63
g3093
sg56
(lp3120
g49
(g70
g51
NtRp3121
(dp3122
g54
(dp3123
g74
g75
ssg63
g3117
sg56
(lp3124
g284
asbag49
(g70
g51
NtRp3125
(dp3126
g54
(dp3127
g81
g82
ssg63
g3117
sg56
(lp3128
S':'
asbag49
(g70
g51
NtRp3129
(dp3130
g54
(dp3131
sg63
g3117
sg56
(lp3132
g49
(g50
g51
NtRp3133
(dp3134
g54
(dp3135
g62
I3
ssg63
g3129
sg56
(lp3136
S''
asbasbasbag49
(g65
g51
NtRp3137
(dp3138
g54
(dp3139
sg63
g3093
sg56
(lp3140
g49
(g70
g51
NtRp3141
(dp3142
g54
(dp3143
g74
g75
ssg63
g3137
sg56
(lp3144
g305
asbag49
(g70
g51
NtRp3145
(dp3146
g54
(dp3147
g81
g82
ssg63
g3137
sg56
(lp3148
S':'
asbag49
(g70
g51
NtRp3149
(dp3150
g54
(dp3151
sg63
g3137
sg56
(lp3152
g49
(g50
g51
NtRp3153
(dp3154
g54
(dp3155
g62
I3
ssg63
g3149
sg56
(lp3156
S''
asbasbasbag49
(g65
g51
NtRp3157
(dp3158
g54
(dp3159
sg63
g3093
sg56
(lp3160
g49
(g70
g51
NtRp3161
(dp3162
g54
(dp3163
g74
g75
ssg63
g3157
sg56
(lp3164
g326
asbag49
(g70
g51
NtRp3165
(dp3166
g54
(dp3167
g81
g82
ssg63
g3157
sg56
(lp3168
S':'
asbag49
(g70
g51
NtRp3169
(dp3170
g54
(dp3171
sg63
g3157
sg56
(lp3172
g49
(g50
g51
NtRp3173
(dp3174
g54
(dp3175
g62
I3
ssg63
g3169
sg56
(lp3176
S''
asbasbasbag49
(g65
g51
NtRp3177
(dp3178
g54
(dp3179
sg63
g3093
sg56
(lp3180
g49
(g70
g51
NtRp3181
(dp3182
g54
(dp3183
g74
g75
ssg63
g3177
sg56
(lp3184
g347
asbag49
(g70
g51
NtRp3185
(dp3186
g54
(dp3187
g81
g82
ssg63
g3177
sg56
(lp3188
S':'
asbag49
(g70
g51
NtRp3189
(dp3190
g54
(dp3191
sg63
g3177
sg56
(lp3192
g49
(g50
g51
NtRp3193
(dp3194
g54
(dp3195
g62
I3
ssg63
g3189
sg56
(lp3196
S'/'
asbasbasbag49
(g65
g51
NtRp3197
(dp3198
g54
(dp3199
sg63
g3093
sg56
(lp3200
g49
(g70
g51
NtRp3201
(dp3202
g54
(dp3203
g74
g75
ssg63
g3197
sg56
(lp3204
g368
asbag49
(g70
g51
NtRp3205
(dp3206
g54
(dp3207
g81
g82
ssg63
g3197
sg56
(lp3208
S':'
asbag49
(g70
g51
NtRp3209
(dp3210
g54
(dp3211
sg63
g3197
sg56
(lp3212
g49
(g50
g51
NtRp3213
(dp3214
g54
(dp3215
g62
I3
ssg63
g3209
sg56
(lp3216
S''
asbasbasbag49
(g65
g51
NtRp3217
(dp3218
g54
(dp3219
sg63
g3093
sg56
(lp3220
g49
(g70
g51
NtRp3221
(dp3222
g54
(dp3223
g74
g75
ssg63
g3217
sg56
(lp3224
g389
asbag49
(g70
g51
NtRp3225
(dp3226
g54
(dp3227
g81
g82
ssg63
g3217
sg56
(lp3228
S':'
asbag49
(g70
g51
NtRp3229
(dp3230
g54
(dp3231
sg63
g3217
sg56
(lp3232
g49
(g50
g51
NtRp3233
(dp3234
g54
(dp3235
g62
I3
ssg63
g3229
sg56
(lp3236
S''
asbasbasbasbasbasbasbasbasbasbasbag49
(g65
g51
NtRp3237
(dp3238
g54
(dp3239
sg63
g3023
sg56
(lp3240
g49
(g70
g51
NtRp3241
(dp3242
g54
(dp3243
g74
g75
ssg63
g3237
sg56
(lp3244
S'delimiters'
p3245
asbag49
(g70
g51
NtRp3246
(dp3247
g54
(dp3248
g81
g82
ssg63
g3237
sg56
(lp3249
S':'
asbag49
(g70
g51
NtRp3250
(dp3251
g54
(dp3252
sg63
g3237
sg56
(lp3253
g49
(g50
g51
NtRp3254
(dp3255
g54
(dp3256
g62
I5
ssg63
g3250
sg56
(lp3257
g49
(g58
g51
NtRp3258
(dp3259
g54
(dp3260
g62
I4
ssg63
Nsg56
(lp3261
g49
(g65
g51
NtRp3262
(dp3263
g54
(dp3264
sg63
g3258
sg56
(lp3265
g49
(g70
g51
NtRp3266
(dp3267
g54
(dp3268
sg63
g3262
sg56
(lp3269
g49
(g50
g51
NtRp3270
(dp3271
g54
(dp3272
g62
I4
ssg63
g3266
sg56
(lp3273
S'{{'
p3274
asbasbasbag49
(g65
g51
NtRp3275
(dp3276
g54
(dp3277
sg63
g3258
sg56
(lp3278
g49
(g70
g51
NtRp3279
(dp3280
g54
(dp3281
sg63
g3275
sg56
(lp3282
g49
(g50
g51
NtRp3283
(dp3284
g54
(dp3285
g62
I4
ssg63
g3279
sg56
(lp3286
S'}}'
p3287
asbasbasbasbasbasbasbag49
(g65
g51
NtRp3288
(dp3289
g54
(dp3290
sg63
g3023
sg56
(lp3291
g49
(g70
g51
NtRp3292
(dp3293
g54
(dp3294
g74
g75
ssg63
g3288
sg56
(lp3295
S'files'
p3296
asbag49
(g70
g51
NtRp3297
(dp3298
g54
(dp3299
g81
g82
ssg63
g3288
sg56
(lp3300
S':'
asbag49
(g70
g51
NtRp3301
(dp3302
g54
(dp3303
sg63
g3288
sg56
(lp3304
g49
(g50
g51
NtRp3305
(dp3306
g54
(dp3307
g62
I5
ssg63
g3301
sg56
(lp3308
g49
(g58
g51
NtRp3309
(dp3310
g54
(dp3311
g62
I4
ssg63
Nsg56
(lp3312
sbasbasbasbag49
(g65
g51
NtRp3313
(dp3314
g54
(dp3315
sg63
g3023
sg56
(lp3316
g49
(g70
g51
NtRp3317
(dp3318
g54
(dp3319
g74
g75
ssg63
g3313
sg56
(lp3320
S'flash'
p3321
asbag49
(g70
g51
NtRp3322
(dp3323
g54
(dp3324
g81
g82
ssg63
g3313
sg56
(lp3325
S':'
asbag49
(g70
g51
NtRp3326
(dp3327
g54
(dp3328
sg63
g3313
sg56
(lp3329
g49
(g50
g51
NtRp3330
(dp3331
g54
(dp3332
g62
I5
ssg63
g3326
sg56
(lp3333
S''
asbasbasbag49
(g65
g51
NtRp3334
(dp3335
g54
(dp3336
sg63
g3023
sg56
(lp3337
g49
(g70
g51
NtRp3338
(dp3339
g54
(dp3340
g74
g75
ssg63
g3334
sg56
(lp3341
S'generic_patterns'
p3342
asbag49
(g70
g51
NtRp3343
(dp3344
g54
(dp3345
g81
g82
ssg63
g3334
sg56
(lp3346
S':'
asbag49
(g70
g51
NtRp3347
(dp3348
g54
(dp3349
sg63
g3334
sg56
(lp3350
g49
(g50
g51
NtRp3351
(dp3352
g54
(dp3353
g62
I5
ssg63
g3347
sg56
(lp3354
g49
(g58
g51
NtRp3355
(dp3356
g54
(dp3357
g62
I4
ssg63
Nsg56
(lp3358
g49
(g65
g51
NtRp3359
(dp3360
g54
(dp3361
sg63
g3355
sg56
(lp3362
g49
(g70
g51
NtRp3363
(dp3364
g54
(dp3365
sg63
g3359
sg56
(lp3366
g49
(g50
g51
NtRp3367
(dp3368
g54
(dp3369
g62
I4
ssg63
g3363
sg56
(lp3370
S'*'
asbasbasbasbasbasbasbag49
(g65
g51
NtRp3371
(dp3372
g54
(dp3373
sg63
g3023
sg56
(lp3374
g49
(g70
g51
NtRp3375
(dp3376
g54
(dp3377
g74
g75
ssg63
g3371
sg56
(lp3378
S'headers'
p3379
asbag49
(g70
g51
NtRp3380
(dp3381
g54
(dp3382
g81
g82
ssg63
g3371
sg56
(lp3383
S':'
asbag49
(g70
g51
NtRp3384
(dp3385
g54
(dp3386
sg63
g3371
sg56
(lp3387
g49
(g50
g51
NtRp3388
(dp3389
g54
(dp3390
g62
I5
ssg63
g3384
sg56
(lp3391
g49
(g58
g51
NtRp3392
(dp3393
g54
(dp3394
g62
I4
ssg63
Nsg56
(lp3395
g49
(g65
g51
NtRp3396
(dp3397
g54
(dp3398
sg63
g3392
sg56
(lp3399
g49
(g70
g51
NtRp3400
(dp3401
g54
(dp3402
g74
g75
ssg63
g3396
sg56
(lp3403
S'Cache-Control'
p3404
asbag49
(g70
g51
NtRp3405
(dp3406
g54
(dp3407
g81
g82
ssg63
g3396
sg56
(lp3408
S':'
asbag49
(g70
g51
NtRp3409
(dp3410
g54
(dp3411
sg63
g3396
sg56
(lp3412
g49
(g50
g51
NtRp3413
(dp3414
g54
(dp3415
g62
I4
ssg63
g3409
sg56
(lp3416
S'no-store, no-cache, must-revalidate, post-check=0, pre-check=0'
p3417
asbasbasbag49
(g65
g51
NtRp3418
(dp3419
g54
(dp3420
sg63
g3392
sg56
(lp3421
g49
(g70
g51
NtRp3422
(dp3423
g54
(dp3424
g74
g75
ssg63
g3418
sg56
(lp3425
S'Content-Type'
p3426
asbag49
(g70
g51
NtRp3427
(dp3428
g54
(dp3429
g81
g82
ssg63
g3418
sg56
(lp3430
S':'
asbag49
(g70
g51
NtRp3431
(dp3432
g54
(dp3433
sg63
g3418
sg56
(lp3434
g49
(g50
g51
NtRp3435
(dp3436
g54
(dp3437
g62
I4
ssg63
g3431
sg56
(lp3438
S'text/html; charset=utf-8'
p3439
asbasbasbag49
(g65
g51
NtRp3440
(dp3441
g54
(dp3442
sg63
g3392
sg56
(lp3443
g49
(g70
g51
NtRp3444
(dp3445
g54
(dp3446
g74
g75
ssg63
g3440
sg56
(lp3447
S'Expires'
p3448
asbag49
(g70
g51
NtRp3449
(dp3450
g54
(dp3451
g81
g82
ssg63
g3440
sg56
(lp3452
S':'
asbag49
(g70
g51
NtRp3453
(dp3454
g54
(dp3455
sg63
g3440
sg56
(lp3456
g49
(g50
g51
NtRp3457
(dp3458
g54
(dp3459
g62
I4
ssg63
g3453
sg56
(lp3460
S'Sat, 10 Nov 2012 18:04:15 GMT'
p3461
asbasbasbag49
(g65
g51
NtRp3462
(dp3463
g54
(dp3464
sg63
g3392
sg56
(lp3465
g49
(g70
g51
NtRp3466
(dp3467
g54
(dp3468
g74
g75
ssg63
g3462
sg56
(lp3469
S'Pragma'
p3470
asbag49
(g70
g51
NtRp3471
(dp3472
g54
(dp3473
g81
g82
ssg63
g3462
sg56
(lp3474
S':'
asbag49
(g70
g51
NtRp3475
(dp3476
g54
(dp3477
sg63
g3462
sg56
(lp3478
g49
(g50
g51
NtRp3479
(dp3480
g54
(dp3481
g62
I4
ssg63
g3475
sg56
(lp3482
S'no-cache'
p3483
asbasbasbag49
(g65
g51
NtRp3484
(dp3485
g54
(dp3486
sg63
g3392
sg56
(lp3487
g49
(g70
g51
NtRp3488
(dp3489
g54
(dp3490
g74
g75
ssg63
g3484
sg56
(lp3491
S'X-Powered-By'
p3492
asbag49
(g70
g51
NtRp3493
(dp3494
g54
(dp3495
g81
g82
ssg63
g3484
sg56
(lp3496
S':'
asbag49
(g70
g51
NtRp3497
(dp3498
g54
(dp3499
sg63
g3484
sg56
(lp3500
g49
(g50
g51
NtRp3501
(dp3502
g54
(dp3503
g62
I4
ssg63
g3497
sg56
(lp3504
S'web2py'
p3505
asbasbasbasbasbasbasbag49
(g65
g51
NtRp3506
(dp3507
g54
(dp3508
sg63
g3023
sg56
(lp3509
g49
(g70
g51
NtRp3510
(dp3511
g54
(dp3512
g74
g75
ssg63
g3506
sg56
(lp3513
S'menu'
p3514
asbag49
(g70
g51
NtRp3515
(dp3516
g54
(dp3517
g81
g82
ssg63
g3506
sg56
(lp3518
S':'
asbag49
(g70
g51
NtRp3519
(dp3520
g54
(dp3521
sg63
g3506
sg56
(lp3522
g49
(g50
g51
NtRp3523
(dp3524
g54
(dp3525
g62
I5
ssg63
g3519
sg56
(lp3526
g49
(g58
g51
NtRp3527
(dp3528
g54
(dp3529
g62
I4
ssg63
Nsg56
(lp3530
g49
(g65
g51
NtRp3531
(dp3532
g54
(dp3533
sg63
g3527
sg56
(lp3534
g49
(g70
g51
NtRp3535
(dp3536
g54
(dp3537
sg63
g3531
sg56
(lp3538
g49
(g50
g51
NtRp3539
(dp3540
g54
(dp3541
g62
I4
ssg63
g3535
sg56
(lp3542
g49
(g58
g51
NtRp3543
(dp3544
g54
(dp3545
g62
I3
ssg63
Nsg56
(lp3546
g49
(g65
g51
NtRp3547
(dp3548
g54
(dp3549
sg63
g3543
sg56
(lp3550
g49
(g70
g51
NtRp3551
(dp3552
g54
(dp3553
sg63
g3547
sg56
(lp3554
g49
(g50
g51
NtRp3555
(dp3556
g54
(dp3557
g62
I3
ssg63
g3551
sg56
(lp3558
cgluon.languages
lazyT_unpickle
p3559
(S's\x04\x00\x00\x00Home'
tRp3560
asbasbasbag49
(g65
g51
NtRp3561
(dp3562
g54
(dp3563
sg63
g3543
sg56
(lp3564
g49
(g70
g51
NtRp3565
(dp3566
g54
(dp3567
sg63
g3561
sg56
(lp3568
g49
(g50
g51
NtRp3569
(dp3570
g54
(dp3571
g62
I3
ssg63
g3565
sg56
(lp3572
g92
asbasbasbag49
(g65
g51
NtRp3573
(dp3574
g54
(dp3575
sg63
g3543
sg56
(lp3576
g49
(g70
g51
NtRp3577
(dp3578
g54
(dp3579
sg63
g3573
sg56
(lp3580
g49
(g50
g51
NtRp3581
(dp3582
g54
(dp3583
g62
I3
ssg63
g3577
sg56
(lp3584
S'/SlugBarter/default/index'
p3585
asbasbasbag49
(g65
g51
NtRp3586
(dp3587
g54
(dp3588
sg63
g3543
sg56
(lp3589
g49
(g70
g51
NtRp3590
(dp3591
g54
(dp3592
sg63
g3586
sg56
(lp3593
g49
(g50
g51
NtRp3594
(dp3595
g54
(dp3596
g62
I3
ssg63
g3590
sg56
(lp3597
g49
(g58
g51
NtRp3598
(dp3599
g54
(dp3600
g62
I2
ssg63
Nsg56
(lp3601
sbasbasbasbasbasbasbasbag49
(g65
g51
NtRp3602
(dp3603
g54
(dp3604
sg63
g3527
sg56
(lp3605
g49
(g70
g51
NtRp3606
(dp3607
g54
(dp3608
sg63
g3602
sg56
(lp3609
g49
(g50
g51
NtRp3610
(dp3611
g54
(dp3612
g62
I4
ssg63
g3606
sg56
(lp3613
g49
(g58
g51
NtRp3614
(dp3615
g54
(dp3616
g62
I3
ssg63
Nsg56
(lp3617
g49
(g65
g51
NtRp3618
(dp3619
g54
(dp3620
sg63
g3614
sg56
(lp3621
g49
(g70
g51
NtRp3622
(dp3623
g54
(dp3624
sg63
g3618
sg56
(lp3625
g49
(g50
g51
NtRp3626
(dp3627
g54
(dp3628
g62
I3
ssg63
g3622
sg56
(lp3629
g49
(cgluon.html
SPAN
p3630
g51
NtRp3631
(dp3632
g54
(dp3633
g74
S'color:yellow'
p3634
ssg63
Nsg56
(lp3635
g3505
asbasbasbasbag49
(g65
g51
NtRp3636
(dp3637
g54
(dp3638
sg63
g3614
sg56
(lp3639
g49
(g70
g51
NtRp3640
(dp3641
g54
(dp3642
sg63
g3636
sg56
(lp3643
g49
(g50
g51
NtRp3644
(dp3645
g54
(dp3646
g62
I3
ssg63
g3640
sg56
(lp3647
g92
asbasbasbag49
(g65
g51
NtRp3648
(dp3649
g54
(dp3650
sg63
g3614
sg56
(lp3651
g49
(g70
g51
NtRp3652
(dp3653
g54
(dp3654
sg63
g3648
sg56
(lp3655
g49
(g50
g51
NtRp3656
(dp3657
g54
(dp3658
g62
I3
ssg63
g3652
sg56
(lp3659
S'None'
p3660
asbasbasbag49
(g65
g51
NtRp3661
(dp3662
g54
(dp3663
sg63
g3614
sg56
(lp3664
g49
(g70
g51
NtRp3665
(dp3666
g54
(dp3667
sg63
g3661
sg56
(lp3668
g49
(g50
g51
NtRp3669
(dp3670
g54
(dp3671
g62
I3
ssg63
g3665
sg56
(lp3672
g49
(g58
g51
NtRp3673
(dp3674
g54
(dp3675
g62
I2
ssg63
Nsg56
(lp3676
g49
(g65
g51
NtRp3677
(dp3678
g54
(dp3679
sg63
g3673
sg56
(lp3680
g49
(g70
g51
NtRp3681
(dp3682
g54
(dp3683
sg63
g3677
sg56
(lp3684
g49
(g50
g51
NtRp3685
(dp3686
g54
(dp3687
g62
I2
ssg63
g3681
sg56
(lp3688
g49
(g58
g51
NtRp3689
(dp3690
g54
(dp3691
g62
I1
ssg63
Nsg56
(lp3692
g49
(g65
g51
NtRp3693
(dp3694
g54
(dp3695
sg63
g3689
sg56
(lp3696
g49
(g70
g51
NtRp3697
(dp3698
g54
(dp3699
sg63
g3693
sg56
(lp3700
g49
(g50
g51
NtRp3701
(dp3702
g54
(dp3703
g62
I1
ssg63
g3697
sg56
(lp3704
g3559
(S's\x08\x00\x00\x00My Sites'
tRp3705
asbasbasbag49
(g65
g51
NtRp3706
(dp3707
g54
(dp3708
sg63
g3689
sg56
(lp3709
g49
(g70
g51
NtRp3710
(dp3711
g54
(dp3712
sg63
g3706
sg56
(lp3713
g49
(g50
g51
NtRp3714
(dp3715
g54
(dp3716
g62
I1
ssg63
g3710
sg56
(lp3717
I00
asbasbasbag49
(g65
g51
NtRp3718
(dp3719
g54
(dp3720
sg63
g3689
sg56
(lp3721
g49
(g70
g51
NtRp3722
(dp3723
g54
(dp3724
sg63
g3718
sg56
(lp3725
g49
(g50
g51
NtRp3726
(dp3727
g54
(dp3728
g62
I1
ssg63
g3722
sg56
(lp3729
S'/admin/default/site'
p3730
asbasbasbasbasbasbasbag49
(g65
g51
NtRp3731
(dp3732
g54
(dp3733
sg63
g3673
sg56
(lp3734
g49
(g70
g51
NtRp3735
(dp3736
g54
(dp3737
sg63
g3731
sg56
(lp3738
g49
(g50
g51
NtRp3739
(dp3740
g54
(dp3741
g62
I2
ssg63
g3735
sg56
(lp3742
g49
(g58
g51
NtRp3743
(dp3744
g54
(dp3745
g62
I1
ssg63
Nsg56
(lp3746
g49
(g65
g51
NtRp3747
(dp3748
g54
(dp3749
sg63
g3743
sg56
(lp3750
g49
(g70
g51
NtRp3751
(dp3752
g54
(dp3753
sg63
g3747
sg56
(lp3754
g49
(g50
g51
NtRp3755
(dp3756
g54
(dp3757
g62
I1
ssg63
g3751
sg56
(lp3758
g3559
(S's\x08\x00\x00\x00This App'
tRp3759
asbasbasbag49
(g65
g51
NtRp3760
(dp3761
g54
(dp3762
sg63
g3743
sg56
(lp3763
g49
(g70
g51
NtRp3764
(dp3765
g54
(dp3766
sg63
g3760
sg56
(lp3767
g49
(g50
g51
NtRp3768
(dp3769
g54
(dp3770
g62
I1
ssg63
g3764
sg56
(lp3771
I00
asbasbasbag49
(g65
g51
NtRp3772
(dp3773
g54
(dp3774
sg63
g3743
sg56
(lp3775
g49
(g70
g51
NtRp3776
(dp3777
g54
(dp3778
sg63
g3772
sg56
(lp3779
g49
(g50
g51
NtRp3780
(dp3781
g54
(dp3782
g62
I1
ssg63
g3776
sg56
(lp3783
S'/admin/default/design/SlugBarter'
p3784
asbasbasbag49
(g65
g51
NtRp3785
(dp3786
g54
(dp3787
sg63
g3743
sg56
(lp3788
g49
(g70
g51
NtRp3789
(dp3790
g54
(dp3791
sg63
g3785
sg56
(lp3792
g49
(g50
g51
NtRp3793
(dp3794
g54
(dp3795
g62
I1
ssg63
g3789
sg56
(lp3796
(lp3797
(g3559
(S's\n\x00\x00\x00Controller'
tRp3798
I00
S'/admin/default/edit/SlugBarter/controllers/default.py'
tp3799
a(g3559
(S's\x04\x00\x00\x00View'
tRp3800
I00
S'/admin/default/edit/SlugBarter/views/default/register.html'
tp3801
a(g3559
(S's\x06\x00\x00\x00Layout'
tRp3802
I00
S'/admin/default/edit/SlugBarter/views/layout.html'
tp3803
a(g3559
(S's\n\x00\x00\x00Stylesheet'
tRp3804
I00
S'/admin/default/edit/SlugBarter/static/css/web2py.css'
tp3805
a(g3559
(S's\x08\x00\x00\x00DB Model'
tRp3806
I00
S'/admin/default/edit/SlugBarter/models/db.py'
tp3807
a(g3559
(S's\n\x00\x00\x00Menu Model'
tRp3808
I00
S'/admin/default/edit/SlugBarter/models/menu.py'
tp3809
a(g3559
(S's\x08\x00\x00\x00Database'
tRp3810
I00
S'/SlugBarter/appadmin/index'
tp3811
a(g3559
(S's\x06\x00\x00\x00Errors'
tRp3812
I00
S'/admin/default/errors/SlugBarter'
tp3813
a(g3559
(S's\x05\x00\x00\x00About'
tRp3814
I00
S'/admin/default/about/SlugBarter'
tp3815
aasbasbasbasbasbasbasbag49
(g65
g51
NtRp3816
(dp3817
g54
(dp3818
sg63
g3673
sg56
(lp3819
g49
(g70
g51
NtRp3820
(dp3821
g54
(dp3822
sg63
g3816
sg56
(lp3823
g49
(g50
g51
NtRp3824
(dp3825
g54
(dp3826
g62
I2
ssg63
g3820
sg56
(lp3827
g49
(g58
g51
NtRp3828
(dp3829
g54
(dp3830
g62
I1
ssg63
Nsg56
(lp3831
g49
(g65
g51
NtRp3832
(dp3833
g54
(dp3834
sg63
g3828
sg56
(lp3835
g49
(g70
g51
NtRp3836
(dp3837
g54
(dp3838
sg63
g3832
sg56
(lp3839
g49
(g50
g51
NtRp3840
(dp3841
g54
(dp3842
g62
I1
ssg63
g3836
sg56
(lp3843
S'web2py.com'
p3844
asbasbasbag49
(g65
g51
NtRp3845
(dp3846
g54
(dp3847
sg63
g3828
sg56
(lp3848
g49
(g70
g51
NtRp3849
(dp3850
g54
(dp3851
sg63
g3845
sg56
(lp3852
g49
(g50
g51
NtRp3853
(dp3854
g54
(dp3855
g62
I1
ssg63
g3849
sg56
(lp3856
I00
asbasbasbag49
(g65
g51
NtRp3857
(dp3858
g54
(dp3859
sg63
g3828
sg56
(lp3860
g49
(g70
g51
NtRp3861
(dp3862
g54
(dp3863
sg63
g3857
sg56
(lp3864
g49
(g50
g51
NtRp3865
(dp3866
g54
(dp3867
g62
I1
ssg63
g3861
sg56
(lp3868
S'http://www.web2py.com'
p3869
asbasbasbag49
(g65
g51
NtRp3870
(dp3871
g54
(dp3872
sg63
g3828
sg56
(lp3873
g49
(g70
g51
NtRp3874
(dp3875
g54
(dp3876
sg63
g3870
sg56
(lp3877
g49
(g50
g51
NtRp3878
(dp3879
g54
(dp3880
g62
I1
ssg63
g3874
sg56
(lp3881
(lp3882
(g3559
(S's\x08\x00\x00\x00Download'
tRp3883
I00
S'http://www.web2py.com/examples/default/download'
p3884
tp3885
a(g3559
(S's\x07\x00\x00\x00Support'
tRp3886
I00
S'http://www.web2py.com/examples/default/support'
p3887
tp3888
a(g3559
(S's\x04\x00\x00\x00Demo'
tRp3889
I00
S'http://web2py.com/demo_admin'
p3890
tp3891
a(g3559
(S's\x0e\x00\x00\x00Quick Examples'
tRp3892
I00
S'http://web2py.com/examples/default/examples'
p3893
tp3894
a(g3559
(S's\x03\x00\x00\x00FAQ'
tRp3895
I00
S'http://web2py.com/AlterEgo'
p3896
tp3897
a(g3559
(S's\x06\x00\x00\x00Videos'
tRp3898
I00
S'http://www.web2py.com/examples/default/videos/'
p3899
tp3900
a(g3559
(S's\x11\x00\x00\x00Free Applications'
tRp3901
I00
S'http://web2py.com/appliances'
p3902
tp3903
a(g3559
(S's\x07\x00\x00\x00Plugins'
tRp3904
I00
S'http://web2py.com/plugins'
p3905
tp3906
a(g3559
(S's\x07\x00\x00\x00Layouts'
tRp3907
I00
S'http://web2py.com/layouts'
p3908
tp3909
a(g3559
(S's\x07\x00\x00\x00Recipes'
tRp3910
I00
S'http://web2pyslices.com/'
p3911
tp3912
a(g3559
(S's\x08\x00\x00\x00Semantic'
tRp3913
I00
S'http://web2py.com/semantic'
p3914
tp3915
aasbasbasbasbasbasbasbag49
(g65
g51
NtRp3916
(dp3917
g54
(dp3918
sg63
g3673
sg56
(lp3919
g49
(g70
g51
NtRp3920
(dp3921
g54
(dp3922
sg63
g3916
sg56
(lp3923
g49
(g50
g51
NtRp3924
(dp3925
g54
(dp3926
g62
I2
ssg63
g3920
sg56
(lp3927
g49
(g58
g51
NtRp3928
(dp3929
g54
(dp3930
g62
I1
ssg63
Nsg56
(lp3931
g49
(g65
g51
NtRp3932
(dp3933
g54
(dp3934
sg63
g3928
sg56
(lp3935
g49
(g70
g51
NtRp3936
(dp3937
g54
(dp3938
sg63
g3932
sg56
(lp3939
g49
(g50
g51
NtRp3940
(dp3941
g54
(dp3942
g62
I1
ssg63
g3936
sg56
(lp3943
g3559
(S's\r\x00\x00\x00Documentation'
tRp3944
asbasbasbag49
(g65
g51
NtRp3945
(dp3946
g54
(dp3947
sg63
g3928
sg56
(lp3948
g49
(g70
g51
NtRp3949
(dp3950
g54
(dp3951
sg63
g3945
sg56
(lp3952
g49
(g50
g51
NtRp3953
(dp3954
g54
(dp3955
g62
I1
ssg63
g3949
sg56
(lp3956
I00
asbasbasbag49
(g65
g51
NtRp3957
(dp3958
g54
(dp3959
sg63
g3928
sg56
(lp3960
g49
(g70
g51
NtRp3961
(dp3962
g54
(dp3963
sg63
g3957
sg56
(lp3964
g49
(g50
g51
NtRp3965
(dp3966
g54
(dp3967
g62
I1
ssg63
g3961
sg56
(lp3968
S'http://www.web2py.com/book'
p3969
asbasbasbag49
(g65
g51
NtRp3970
(dp3971
g54
(dp3972
sg63
g3928
sg56
(lp3973
g49
(g70
g51
NtRp3974
(dp3975
g54
(dp3976
sg63
g3970
sg56
(lp3977
g49
(g50
g51
NtRp3978
(dp3979
g54
(dp3980
g62
I1
ssg63
g3974
sg56
(lp3981
(lp3982
(g3559
(S's\x07\x00\x00\x00Preface'
tRp3983
I00
S'http://www.web2py.com/book/default/chapter/00'
p3984
tp3985
a(g3559
(S's\x0c\x00\x00\x00Introduction'
tRp3986
I00
S'http://www.web2py.com/book/default/chapter/01'
p3987
tp3988
a(g3559
(S's\x06\x00\x00\x00Python'
tRp3989
I00
S'http://www.web2py.com/book/default/chapter/02'
p3990
tp3991
a(g3559
(S's\x08\x00\x00\x00Overview'
tRp3992
I00
S'http://www.web2py.com/book/default/chapter/03'
p3993
tp3994
a(g3559
(S's\x08\x00\x00\x00The Core'
tRp3995
I00
S'http://www.web2py.com/book/default/chapter/04'
p3996
tp3997
a(g3559
(S's\t\x00\x00\x00The Views'
tRp3998
I00
S'http://www.web2py.com/book/default/chapter/05'
p3999
tp4000
a(g3559
(S's\x08\x00\x00\x00Database'
tRp4001
I00
S'http://www.web2py.com/book/default/chapter/06'
p4002
tp4003
a(g3559
(S's\x14\x00\x00\x00Forms and Validators'
tRp4004
I00
S'http://www.web2py.com/book/default/chapter/07'
p4005
tp4006
a(g3559
(S's\r\x00\x00\x00Email and SMS'
tRp4007
I00
S'http://www.web2py.com/book/default/chapter/08'
p4008
tp4009
a(g3559
(S's\x0e\x00\x00\x00Access Control'
tRp4010
I00
S'http://www.web2py.com/book/default/chapter/09'
p4011
tp4012
a(g3559
(S's\x08\x00\x00\x00Services'
tRp4013
I00
S'http://www.web2py.com/book/default/chapter/10'
p4014
tp4015
a(g3559
(S's\x0c\x00\x00\x00Ajax Recipes'
tRp4016
I00
S'http://www.web2py.com/book/default/chapter/11'
p4017
tp4018
a(g3559
(S's\x16\x00\x00\x00Components and Plugins'
tRp4019
I00
S'http://www.web2py.com/book/default/chapter/12'
p4020
tp4021
a(g3559
(S's\x12\x00\x00\x00Deployment Recipes'
tRp4022
I00
S'http://www.web2py.com/book/default/chapter/13'
p4023
tp4024
a(g3559
(S's\r\x00\x00\x00Other Recipes'
tRp4025
I00
S'http://www.web2py.com/book/default/chapter/14'
p4026
tp4027
a(g3559
(S's\r\x00\x00\x00Buy this book'
tRp4028
I00
S'http://stores.lulu.com/web2py'
p4029
tp4030
aasbasbasbasbasbasbasbag49
(g65
g51
NtRp4031
(dp4032
g54
(dp4033
sg63
g3673
sg56
(lp4034
g49
(g70
g51
NtRp4035
(dp4036
g54
(dp4037
sg63
g4031
sg56
(lp4038
g49
(g50
g51
NtRp4039
(dp4040
g54
(dp4041
g62
I2
ssg63
g4035
sg56
(lp4042
g49
(g58
g51
NtRp4043
(dp4044
g54
(dp4045
g62
I1
ssg63
Nsg56
(lp4046
g49
(g65
g51
NtRp4047
(dp4048
g54
(dp4049
sg63
g4043
sg56
(lp4050
g49
(g70
g51
NtRp4051
(dp4052
g54
(dp4053
sg63
g4047
sg56
(lp4054
g49
(g50
g51
NtRp4055
(dp4056
g54
(dp4057
g62
I1
ssg63
g4051
sg56
(lp4058
g3559
(S's\t\x00\x00\x00Community'
tRp4059
asbasbasbag49
(g65
g51
NtRp4060
(dp4061
g54
(dp4062
sg63
g4043
sg56
(lp4063
g49
(g70
g51
NtRp4064
(dp4065
g54
(dp4066
sg63
g4060
sg56
(lp4067
g49
(g50
g51
NtRp4068
(dp4069
g54
(dp4070
g62
I1
ssg63
g4064
sg56
(lp4071
I00
asbasbasbag49
(g65
g51
NtRp4072
(dp4073
g54
(dp4074
sg63
g4043
sg56
(lp4075
g49
(g70
g51
NtRp4076
(dp4077
g54
(dp4078
sg63
g4072
sg56
(lp4079
g49
(g50
g51
NtRp4080
(dp4081
g54
(dp4082
g62
I1
ssg63
g4076
sg56
(lp4083
Nasbasbasbag49
(g65
g51
NtRp4084
(dp4085
g54
(dp4086
sg63
g4043
sg56
(lp4087
g49
(g70
g51
NtRp4088
(dp4089
g54
(dp4090
sg63
g4084
sg56
(lp4091
g49
(g50
g51
NtRp4092
(dp4093
g54
(dp4094
g62
I1
ssg63
g4088
sg56
(lp4095
(lp4096
(g3559
(S's\x06\x00\x00\x00Groups'
tRp4097
I00
S'http://www.web2py.com/examples/default/usergroups'
p4098
tp4099
a(g3559
(S's\x07\x00\x00\x00Twitter'
tRp4100
I00
S'http://twitter.com/web2py'
p4101
tp4102
a(g3559
(S's\t\x00\x00\x00Live Chat'
tRp4103
I00
S'http://webchat.freenode.net/?channels=web2py'
p4104
tp4105
aasbasbasbasbasbasbasbag49
(g65
g51
NtRp4106
(dp4107
g54
(dp4108
sg63
g3673
sg56
(lp4109
g49
(g70
g51
NtRp4110
(dp4111
g54
(dp4112
sg63
g4106
sg56
(lp4113
g49
(g50
g51
NtRp4114
(dp4115
g54
(dp4116
g62
I2
ssg63
g4110
sg56
(lp4117
g49
(g58
g51
NtRp4118
(dp4119
g54
(dp4120
g62
I1
ssg63
Nsg56
(lp4121
g49
(g65
g51
NtRp4122
(dp4123
g54
(dp4124
sg63
g4118
sg56
(lp4125
g49
(g70
g51
NtRp4126
(dp4127
g54
(dp4128
sg63
g4122
sg56
(lp4129
g49
(g50
g51
NtRp4130
(dp4131
g54
(dp4132
g62
I1
ssg63
g4126
sg56
(lp4133
g3559
(S's\x07\x00\x00\x00Plugins'
tRp4134
asbasbasbag49
(g65
g51
NtRp4135
(dp4136
g54
(dp4137
sg63
g4118
sg56
(lp4138
g49
(g70
g51
NtRp4139
(dp4140
g54
(dp4141
sg63
g4135
sg56
(lp4142
g49
(g50
g51
NtRp4143
(dp4144
g54
(dp4145
g62
I1
ssg63
g4139
sg56
(lp4146
I00
asbasbasbag49
(g65
g51
NtRp4147
(dp4148
g54
(dp4149
sg63
g4118
sg56
(lp4150
g49
(g70
g51
NtRp4151
(dp4152
g54
(dp4153
sg63
g4147
sg56
(lp4154
g49
(g50
g51
NtRp4155
(dp4156
g54
(dp4157
g62
I1
ssg63
g4151
sg56
(lp4158
Nasbasbasbag49
(g65
g51
NtRp4159
(dp4160
g54
(dp4161
sg63
g4118
sg56
(lp4162
g49
(g70
g51
NtRp4163
(dp4164
g54
(dp4165
sg63
g4159
sg56
(lp4166
g49
(g50
g51
NtRp4167
(dp4168
g54
(dp4169
g62
I1
ssg63
g4163
sg56
(lp4170
(lp4171
(S'plugin_wiki'
p4172
I00
S'http://web2py.com/examples/default/download'
p4173
tp4174
a(g3559
(S's\r\x00\x00\x00Other Plugins'
tRp4175
I00
g3905
tp4176
a(g3559
(S's\x0e\x00\x00\x00Layout Plugins'
tRp4177
I00
g3908
tp4178
aasbasbasbasbasbasbasbasbasbasbasbasbasbasbasbasbasbasbasbag49
(g65
g51
NtRp4179
(dp4180
g54
(dp4181
sg63
g3023
sg56
(lp4182
g49
(g70
g51
NtRp4183
(dp4184
g54
(dp4185
g74
g75
ssg63
g4179
sg56
(lp4186
S'meta'
p4187
asbag49
(g70
g51
NtRp4188
(dp4189
g54
(dp4190
g81
g82
ssg63
g4179
sg56
(lp4191
S':'
asbag49
(g70
g51
NtRp4192
(dp4193
g54
(dp4194
sg63
g4179
sg56
(lp4195
g49
(g50
g51
NtRp4196
(dp4197
g54
(dp4198
g62
I5
ssg63
g4192
sg56
(lp4199
g49
(g58
g51
NtRp4200
(dp4201
g54
(dp4202
g62
I4
ssg63
Nsg56
(lp4203
g49
(g65
g51
NtRp4204
(dp4205
g54
(dp4206
sg63
g4200
sg56
(lp4207
g49
(g70
g51
NtRp4208
(dp4209
g54
(dp4210
g74
g75
ssg63
g4204
sg56
(lp4211
S'author'
p4212
asbag49
(g70
g51
NtRp4213
(dp4214
g54
(dp4215
g81
g82
ssg63
g4204
sg56
(lp4216
S':'
asbag49
(g70
g51
NtRp4217
(dp4218
g54
(dp4219
sg63
g4204
sg56
(lp4220
g49
(g50
g51
NtRp4221
(dp4222
g54
(dp4223
g62
I4
ssg63
g4217
sg56
(lp4224
S'Your Name <you@example.com>'
p4225
asbasbasbag49
(g65
g51
NtRp4226
(dp4227
g54
(dp4228
sg63
g4200
sg56
(lp4229
g49
(g70
g51
NtRp4230
(dp4231
g54
(dp4232
g74
g75
ssg63
g4226
sg56
(lp4233
S'copyright'
p4234
asbag49
(g70
g51
NtRp4235
(dp4236
g54
(dp4237
g81
g82
ssg63
g4226
sg56
(lp4238
S':'
asbag49
(g70
g51
NtRp4239
(dp4240
g54
(dp4241
sg63
g4226
sg56
(lp4242
g49
(g50
g51
NtRp4243
(dp4244
g54
(dp4245
g62
I4
ssg63
g4239
sg56
(lp4246
S'Copyright 2011'
p4247
asbasbasbag49
(g65
g51
NtRp4248
(dp4249
g54
(dp4250
sg63
g4200
sg56
(lp4251
g49
(g70
g51
NtRp4252
(dp4253
g54
(dp4254
g74
g75
ssg63
g4248
sg56
(lp4255
S'description'
p4256
asbag49
(g70
g51
NtRp4257
(dp4258
g54
(dp4259
g81
g82
ssg63
g4248
sg56
(lp4260
S':'
asbag49
(g70
g51
NtRp4261
(dp4262
g54
(dp4263
sg63
g4248
sg56
(lp4264
g49
(g50
g51
NtRp4265
(dp4266
g54
(dp4267
g62
I4
ssg63
g4261
sg56
(lp4268
S'a cool new app'
p4269
asbasbasbag49
(g65
g51
NtRp4270
(dp4271
g54
(dp4272
sg63
g4200
sg56
(lp4273
g49
(g70
g51
NtRp4274
(dp4275
g54
(dp4276
g74
g75
ssg63
g4270
sg56
(lp4277
S'generator'
p4278
asbag49
(g70
g51
NtRp4279
(dp4280
g54
(dp4281
g81
g82
ssg63
g4270
sg56
(lp4282
S':'
asbag49
(g70
g51
NtRp4283
(dp4284
g54
(dp4285
sg63
g4270
sg56
(lp4286
g49
(g50
g51
NtRp4287
(dp4288
g54
(dp4289
g62
I4
ssg63
g4283
sg56
(lp4290
S'Web2py Web Framework'
p4291
asbasbasbag49
(g65
g51
NtRp4292
(dp4293
g54
(dp4294
sg63
g4200
sg56
(lp4295
g49
(g70
g51
NtRp4296
(dp4297
g54
(dp4298
g74
g75
ssg63
g4292
sg56
(lp4299
S'keywords'
p4300
asbag49
(g70
g51
NtRp4301
(dp4302
g54
(dp4303
g81
g82
ssg63
g4292
sg56
(lp4304
S':'
asbag49
(g70
g51
NtRp4305
(dp4306
g54
(dp4307
sg63
g4292
sg56
(lp4308
g49
(g50
g51
NtRp4309
(dp4310
g54
(dp4311
g62
I4
ssg63
g4305
sg56
(lp4312
S'web2py, python, framework'
p4313
asbasbasbasbasbasbasbag49
(g65
g51
NtRp4314
(dp4315
g54
(dp4316
sg63
g3023
sg56
(lp4317
g49
(g70
g51
NtRp4318
(dp4319
g54
(dp4320
g74
g75
ssg63
g4314
sg56
(lp4321
S'postprocessing'
p4322
asbag49
(g70
g51
NtRp4323
(dp4324
g54
(dp4325
g81
g82
ssg63
g4314
sg56
(lp4326
S':'
asbag49
(g70
g51
NtRp4327
(dp4328
g54
(dp4329
sg63
g4314
sg56
(lp4330
g49
(g50
g51
NtRp4331
(dp4332
g54
(dp4333
g62
I5
ssg63
g4327
sg56
(lp4334
g49
(g58
g51
NtRp4335
(dp4336
g54
(dp4337
g62
I4
ssg63
Nsg56
(lp4338
sbasbasbasbag49
(g65
g51
NtRp4339
(dp4340
g54
(dp4341
sg63
g3023
sg56
(lp4342
g49
(g70
g51
NtRp4343
(dp4344
g54
(dp4345
g74
g75
ssg63
g4339
sg56
(lp4346
S'session_file'
p4347
asbag49
(g70
g51
NtRp4348
(dp4349
g54
(dp4350
g81
g82
ssg63
g4339
sg56
(lp4351
S':'
asbag49
(g70
g51
NtRp4352
(dp4353
g54
(dp4354
sg63
g4339
sg56
(lp4355
g49
(g50
g51
NtRp4356
(dp4357
g54
(dp4358
g62
I5
ssg63
g4352
sg56
(lp4359
S"<open file 'C:\\Users\\omkara\\Desktop\\web2py\\applications\\SlugBarter\\sessions\\127.0.0.1-e6ebae72-1bbc-48a5-9458-95dbb65a4e54', mode 'rb+' at 0x05CDE608>"
p4360
asbasbasbag49
(g65
g51
NtRp4361
(dp4362
g54
(dp4363
sg63
g3023
sg56
(lp4364
g49
(g70
g51
NtRp4365
(dp4366
g54
(dp4367
g74
g75
ssg63
g4361
sg56
(lp4368
S'session_filename'
p4369
asbag49
(g70
g51
NtRp4370
(dp4371
g54
(dp4372
g81
g82
ssg63
g4361
sg56
(lp4373
S':'
asbag49
(g70
g51
NtRp4374
(dp4375
g54
(dp4376
sg63
g4361
sg56
(lp4377
g49
(g50
g51
NtRp4378
(dp4379
g54
(dp4380
g62
I5
ssg63
g4374
sg56
(lp4381
S'C:\\Users\\omkara\\Desktop\\web2py\\applications\\SlugBarter\\sessions\\127.0.0.1-e6ebae72-1bbc-48a5-9458-95dbb65a4e54'
p4382
asbasbasbag49
(g65
g51
NtRp4383
(dp4384
g54
(dp4385
sg63
g3023
sg56
(lp4386
g49
(g70
g51
NtRp4387
(dp4388
g54
(dp4389
g74
g75
ssg63
g4383
sg56
(lp4390
S'session_id'
p4391
asbag49
(g70
g51
NtRp4392
(dp4393
g54
(dp4394
g81
g82
ssg63
g4383
sg56
(lp4395
S':'
asbag49
(g70
g51
NtRp4396
(dp4397
g54
(dp4398
sg63
g4383
sg56
(lp4399
g49
(g50
g51
NtRp4400
(dp4401
g54
(dp4402
g62
I5
ssg63
g4396
sg56
(lp4403
S'127.0.0.1-e6ebae72-1bbc-48a5-9458-95dbb65a4e54'
p4404
asbasbasbag49
(g65
g51
NtRp4405
(dp4406
g54
(dp4407
sg63
g3023
sg56
(lp4408
g49
(g70
g51
NtRp4409
(dp4410
g54
(dp4411
g74
g75
ssg63
g4405
sg56
(lp4412
S'session_id_name'
p4413
asbag49
(g70
g51
NtRp4414
(dp4415
g54
(dp4416
g81
g82
ssg63
g4405
sg56
(lp4417
S':'
asbag49
(g70
g51
NtRp4418
(dp4419
g54
(dp4420
sg63
g4405
sg56
(lp4421
g49
(g50
g51
NtRp4422
(dp4423
g54
(dp4424
g62
I5
ssg63
g4418
sg56
(lp4425
g3080
asbasbasbag49
(g65
g51
NtRp4426
(dp4427
g54
(dp4428
sg63
g3023
sg56
(lp4429
g49
(g70
g51
NtRp4430
(dp4431
g54
(dp4432
g74
g75
ssg63
g4426
sg56
(lp4433
S'session_locked'
p4434
asbag49
(g70
g51
NtRp4435
(dp4436
g54
(dp4437
g81
g82
ssg63
g4426
sg56
(lp4438
S':'
asbag49
(g70
g51
NtRp4439
(dp4440
g54
(dp4441
sg63
g4426
sg56
(lp4442
g49
(g50
g51
NtRp4443
(dp4444
g54
(dp4445
g62
I5
ssg63
g4439
sg56
(lp4446
g1631
asbasbasbag49
(g65
g51
NtRp4447
(dp4448
g54
(dp4449
sg63
g3023
sg56
(lp4450
g49
(g70
g51
NtRp4451
(dp4452
g54
(dp4453
g74
g75
ssg63
g4447
sg56
(lp4454
S'session_new'
p4455
asbag49
(g70
g51
NtRp4456
(dp4457
g54
(dp4458
g81
g82
ssg63
g4447
sg56
(lp4459
S':'
asbag49
(g70
g51
NtRp4460
(dp4461
g54
(dp4462
sg63
g4447
sg56
(lp4463
g49
(g50
g51
NtRp4464
(dp4465
g54
(dp4466
g62
I5
ssg63
g4460
sg56
(lp4467
g92
asbasbasbag49
(g65
g51
NtRp4468
(dp4469
g54
(dp4470
sg63
g3023
sg56
(lp4471
g49
(g70
g51
NtRp4472
(dp4473
g54
(dp4474
g74
g75
ssg63
g4468
sg56
(lp4475
S'status'
p4476
asbag49
(g70
g51
NtRp4477
(dp4478
g54
(dp4479
g81
g82
ssg63
g4468
sg56
(lp4480
S':'
asbag49
(g70
g51
NtRp4481
(dp4482
g54
(dp4483
sg63
g4468
sg56
(lp4484
g49
(g50
g51
NtRp4485
(dp4486
g54
(dp4487
g62
I5
ssg63
g4481
sg56
(lp4488
S'200'
p4489
asbasbasbag49
(g65
g51
NtRp4490
(dp4491
g54
(dp4492
sg63
g3023
sg56
(lp4493
g49
(g70
g51
NtRp4494
(dp4495
g54
(dp4496
g74
g75
ssg63
g4490
sg56
(lp4497
S'subtitle'
p4498
asbag49
(g70
g51
NtRp4499
(dp4500
g54
(dp4501
g81
g82
ssg63
g4490
sg56
(lp4502
S':'
asbag49
(g70
g51
NtRp4503
(dp4504
g54
(dp4505
sg63
g4490
sg56
(lp4506
g49
(g50
g51
NtRp4507
(dp4508
g54
(dp4509
g62
I5
ssg63
g4503
sg56
(lp4510
g3559
(S's\r\x00\x00\x00customize me!'
tRp4511
asbasbasbag49
(g65
g51
NtRp4512
(dp4513
g54
(dp4514
sg63
g3023
sg56
(lp4515
g49
(g70
g51
NtRp4516
(dp4517
g54
(dp4518
g74
g75
ssg63
g4512
sg56
(lp4519
S'title'
p4520
asbag49
(g70
g51
NtRp4521
(dp4522
g54
(dp4523
g81
g82
ssg63
g4512
sg56
(lp4524
S':'
asbag49
(g70
g51
NtRp4525
(dp4526
g54
(dp4527
sg63
g4512
sg56
(lp4528
g49
(g50
g51
NtRp4529
(dp4530
g54
(dp4531
g62
I5
ssg63
g4525
sg56
(lp4532
S'Slugbarter'
p4533
asbasbasbag49
(g65
g51
NtRp4534
(dp4535
g54
(dp4536
sg63
g3023
sg56
(lp4537
g49
(g70
g51
NtRp4538
(dp4539
g54
(dp4540
g74
g75
ssg63
g4534
sg56
(lp4541
g2295
asbag49
(g70
g51
NtRp4542
(dp4543
g54
(dp4544
g81
g82
ssg63
g4534
sg56
(lp4545
S':'
asbag49
(g70
g51
NtRp4546
(dp4547
g54
(dp4548
sg63
g4534
sg56
(lp4549
g49
(g50
g51
NtRp4550
(dp4551
g54
(dp4552
g62
I5
ssg63
g4546
sg56
(lp4553
g2308
asbasbasbag49
(g65
g51
NtRp4554
(dp4555
g54
(dp4556
sg63
g3023
sg56
(lp4557
g49
(g70
g51
NtRp4558
(dp4559
g54
(dp4560
g74
g75
ssg63
g4554
sg56
(lp4561
S'view'
p4562
asbag49
(g70
g51
NtRp4563
(dp4564
g54
(dp4565
g81
g82
ssg63
g4554
sg56
(lp4566
S':'
asbag49
(g70
g51
NtRp4567
(dp4568
g54
(dp4569
sg63
g4554
sg56
(lp4570
g49
(g50
g51
NtRp4571
(dp4572
g54
(dp4573
g62
I5
ssg63
g4567
sg56
(lp4574
S'default/register.html'
p4575
asbasbasbasbasbsS'locals'
p4576
(dp4577
S'Service'
p4578
S"<class 'gluon.tools.Service'>"
p4579
sS'OBJECT'
p4580
S"<class 'gluon.html.OBJECT'>"
p4581
sS'SQLDB'
p4582
S"<class 'gluon.dal.DAL'>"
p4583
sg3005
S"<Storage {'_Session__hash': 'o\\xc6\\x06Y\\x16\\x0c\\... {'version': '23.0.1271.64', 'name': 'Chrome'}}}>"
p4584
sS'LINK'
p4585
S"<class 'gluon.html.LINK'>"
p4586
sS'BR'
p4587
S"<class 'gluon.html.BR'>"
p4588
sS'local_import'
p4589
S'<function <lambda> at 0x05D07BB0>'
p4590
sS'OPTGROUP'
p4591
S"<class 'gluon.html.OPTGROUP'>"
p4592
sS'PRE'
p4593
S"<class 'gluon.html.PRE'>"
p4594
sS'IS_INT_IN_RANGE'
p4595
S"<class 'gluon.validators.IS_INT_IN_RANGE'>"
p4596
sS'IS_LOWER'
p4597
S"<class 'gluon.validators.IS_LOWER'>"
p4598
sS'IS_STRONG'
p4599
S"<class 'gluon.validators.IS_STRONG'>"
p4600
sS'cache'
p4601
S'<gluon.cache.Cache object at 0x05D2DB70>'
p4602
sS'IS_IN_DB'
p4603
S"<class 'gluon.validators.IS_IN_DB'>"
p4604
sS'TAG'
p4605
S'<gluon.html.__TAG__ object at 0x01E7FD70>'
p4606
sS'SQLField'
p4607
S"<class 'gluon.dal.Field'>"
p4608
sS'mail'
p4609
S'<gluon.tools.Mail object at 0x05D2DA50>'
p4610
sS'BODY'
p4611
S"<class 'gluon.html.BODY'>"
p4612
sS'IS_DATE_IN_RANGE'
p4613
S"<class 'gluon.validators.IS_DATE_IN_RANGE'>"
p4614
sS'IFRAME'
p4615
S"<class 'gluon.html.IFRAME'>"
p4616
sS'URL'
p4617
S'<function URL at 0x01EE7EF0>'
p4618
sS'__file__'
p4619
S"r'C:\\Users\\omkara\\Desktop\\web2py\\applications\\SlugBarter\\models\\registerForm.py'"
p4620
sS'db'
p4621
S"<DAL {'auth_event': <Table {'origin': <gluon.dal..._key': <gluon.dal.Field object at 0x060BA570>}>}>"
p4622
sS'auth'
p4623
S'<gluon.tools.Auth object at 0x061F1710>'
p4624
sS'P'
S"<class 'gluon.html.P'>"
p4625
sS'TFOOT'
p4626
S"<class 'gluon.html.TFOOT'>"
p4627
sS'XHTML'
p4628
S"<class 'gluon.html.XHTML'>"
p4629
sS'ON'
p4630
g1631
sS'OL'
p4631
S"<class 'gluon.html.OL'>"
p4632
sS'TEXTAREA'
p4633
S"<class 'gluon.html.TEXTAREA'>"
p4634
sS'MENU'
p4635
S"<class 'gluon.html.MENU'>"
p4636
sS'EM'
p4637
S"<class 'gluon.html.EM'>"
p4638
sS'CODE'
p4639
S"<class 'gluon.html.CODE'>"
p4640
sS'HTTP'
p4641
S"<class 'gluon.http.HTTP'>"
p4642
sS'HR'
p4643
S"<class 'gluon.html.HR'>"
p4644
sS'IS_DATETIME'
p4645
S"<class 'gluon.validators.IS_DATETIME'>"
p4646
sS'STYLE'
p4647
S"<class 'gluon.html.STYLE'>"
p4648
sS'LABEL'
p4649
S"<class 'gluon.html.LABEL'>"
p4650
sS'META'
p4651
S"<class 'gluon.html.META'>"
p4652
sS'plugins'
p4653
S'<gluon.tools.PluginManager object at 0x060BA2D0>'
p4654
sS'SELECT'
p4655
S"<class 'gluon.html.SELECT'>"
p4656
sS'use_janrain'
p4657
S'<function use_janrain at 0x02957730>'
p4658
sS'CENTER'
p4659
S"<class 'gluon.html.CENTER'>"
p4660
sS'prettydate'
p4661
S'<function prettydate at 0x02954D30>'
p4662
sS'Crud'
p4663
S"<class 'gluon.tools.Crud'>"
p4664
sS'Auth'
p4665
S"<class 'gluon.tools.Auth'>"
p4666
sS'__builtins__'
p4667
S"{'ArithmeticError': <type 'exceptions.ArithmeticError'>, 'AssertionError': <type 'exceptions.AssertionError'>, 'AttributeError': <type 'exceptions.AttributeError'>, 'BaseException': <type 'exceptions.BaseException'>, 'DeprecationWarning': <type 'exceptions.DeprecationWarning'>, 'EOFError': <type 'exceptions.EOFError'>, 'Ellipsis': Ellipsis, 'EnvironmentError': <type 'exceptions.EnvironmentError'>, 'Exception': <type 'exceptions.Exception'>, 'False': False, ...}"
p4668
sS'HTML'
p4669
S"<class 'gluon.html.HTML'>"
p4670
sS'SQLFORM'
p4671
S"<class 'gluon.sqlhtml.SQLFORM'>"
p4672
sS'LOAD'
p4673
S'<function LOAD at 0x021297F0>'
p4674
sS'redirect'
p4675
S'<function redirect at 0x01BEFBB0>'
p4676
sS'FIELDSET'
p4677
S"<class 'gluon.html.FIELDSET'>"
p4678
sS'IS_EQUAL_TO'
p4679
S"<class 'gluon.validators.IS_EQUAL_TO'>"
p4680
sS'embed64'
p4681
S'<function embed64 at 0x01EF6A30>'
p4682
sS'IS_LIST_OF'
p4683
S"<class 'gluon.validators.IS_LIST_OF'>"
p4684
sS'INPUT'
p4685
S"<class 'gluon.html.INPUT'>"
p4686
sS'EMBED'
p4687
S"<class 'gluon.html.EMBED'>"
p4688
sS'_'
S'<function _ at 0x05D07B70>'
p4689
sS'FORM'
p4690
S"<class 'gluon.html.FORM'>"
p4691
sS'H2'
p4692
S"<class 'gluon.html.H2'>"
p4693
sS'H3'
p4694
S"<class 'gluon.html.H3'>"
p4695
sS'BUTTON'
p4696
S"<class 'gluon.html.BUTTON'>"
p4697
sS'H1'
p4698
S"<class 'gluon.html.H1'>"
p4699
sS'H6'
p4700
S"<class 'gluon.html.H6'>"
p4701
sS'H4'
p4702
S"<class 'gluon.html.H4'>"
p4703
sS'H5'
p4704
S"<class 'gluon.html.H5'>"
p4705
sS'UL'
p4706
S"<class 'gluon.html.UL'>"
p4707
sS'IS_UPPER'
p4708
S"<class 'gluon.validators.IS_UPPER'>"
p4709
sS'xmlescape'
p4710
S'<function xmlescape at 0x01EE7E70>'
p4711
sS'IS_TIME'
p4712
S"<class 'gluon.validators.IS_TIME'>"
p4713
sS'OPTION'
p4714
S"<class 'gluon.html.OPTION'>"
p4715
sS'TITLE'
p4716
S"<class 'gluon.html.TITLE'>"
p4717
sS'CRYPT'
p4718
S"<class 'gluon.validators.CRYPT'>"
p4719
sS'IS_EMPTY_OR'
p4720
S"<class 'gluon.validators.IS_EMPTY_OR'>"
p4721
sS'MARKMIN'
p4722
S"<class 'gluon.html.MARKMIN'>"
p4723
sS'__name__'
p4724
S"'__restricted__'"
p4725
sS'COL'
p4726
S"<class 'gluon.html.COL'>"
p4727
sS'service'
p4728
S'<gluon.tools.Service object at 0x060BA250>'
p4729
sS'SCRIPT'
p4730
S"<class 'gluon.html.SCRIPT'>"
p4731
sS'TABLE'
p4732
S"<class 'gluon.html.TABLE'>"
p4733
sS'IS_IPV4'
p4734
S"<class 'gluon.validators.IS_IPV4'>"
p4735
sS'IS_LENGTH'
p4736
S"<class 'gluon.validators.IS_LENGTH'>"
p4737
sS'XML'
p4738
S"<class 'gluon.html.XML'>"
p4739
sS'B'
S"<class 'gluon.html.B'>"
p4740
sS'IMG'
p4741
S"<class 'gluon.html.IMG'>"
p4742
sS'SQLTABLE'
p4743
S"<class 'gluon.sqlhtml.SQLTABLE'>"
p4744
sS'IS_MATCH'
p4745
S"<class 'gluon.validators.IS_MATCH'>"
p4746
sS'IS_ALPHANUMERIC'
p4747
S"<class 'gluon.validators.IS_ALPHANUMERIC'>"
p4748
sS'SPAN'
p4749
S"<class 'gluon.html.SPAN'>"
p4750
sS'IS_SLUG'
p4751
S"<class 'gluon.validators.IS_SLUG'>"
p4752
sS'CLEANUP'
p4753
S"<class 'gluon.validators.CLEANUP'>"
p4754
sS'IS_DATE'
p4755
S"<class 'gluon.validators.IS_DATE'>"
p4756
sS'IS_EMAIL'
p4757
S"<class 'gluon.validators.IS_EMAIL'>"
p4758
sS'IS_NOT_EMPTY'
p4759
S"<class 'gluon.validators.IS_NOT_EMPTY'>"
p4760
sS'IS_FLOAT_IN_RANGE'
p4761
S"<class 'gluon.validators.IS_FLOAT_IN_RANGE'>"
p4762
sS'BEAUTIFY'
p4763
S"<class 'gluon.html.BEAUTIFY'>"
p4764
sS'TBODY'
p4765
S"<class 'gluon.html.TBODY'>"
p4766
sS'CAT'
p4767
S"<class 'gluon.html.CAT'>"
p4768
sS'Field'
p4769
S"<class 'gluon.dal.Field'>"
p4770
sS'DIV'
p4771
S"<class 'gluon.html.DIV'>"
p4772
sS'LEGEND'
p4773
S"<class 'gluon.html.LEGEND'>"
p4774
sS'COLGROUP'
p4775
S"<class 'gluon.html.COLGROUP'>"
p4776
sS'DAL'
p4777
S"<class 'gluon.dal.DAL'>"
p4778
sS'TT'
p4779
S"<class 'gluon.html.TT'>"
p4780
sS'TR'
p4781
S"<class 'gluon.html.TR'>"
p4782
sS'LI'
p4783
S"<class 'gluon.html.LI'>"
p4784
sS'TH'
p4785
S"<class 'gluon.html.TH'>"
p4786
sS'TD'
p4787
S"<class 'gluon.html.TD'>"
p4788
sS'PluginManager'
p4789
S"<class 'gluon.tools.PluginManager'>"
p4790
sS'IS_URL'
p4791
S"<class 'gluon.validators.IS_URL'>"
p4792
sS'A'
S"<class 'gluon.html.A'>"
p4793
sS'HEAD'
p4794
S"<class 'gluon.html.HEAD'>"
p4795
sS'IS_DATETIME_IN_RANGE'
p4796
S"<class 'gluon.validators.IS_DATETIME_IN_RANGE'>"
p4797
sS'IS_IMAGE'
p4798
S"<class 'gluon.validators.IS_IMAGE'>"
p4799
sS'I'
S"<class 'gluon.html.I'>"
p4800
sS'crud'
p4801
S'<gluon.tools.Crud object at 0x060BAB30>'
p4802
sS'IS_NOT_IN_DB'
p4803
S"<class 'gluon.validators.IS_NOT_IN_DB'>"
p4804
sg3018
S"<Storage {'body': <cStringIO.StringO object at 0...at 0x05E306F0>, 'view': 'default/register.html'}>"
p4805
sS'THEAD'
p4806
S"<class 'gluon.html.THEAD'>"
p4807
sS'IS_NULL_OR'
p4808
S"<class 'gluon.validators.IS_EMPTY_OR'>"
p4809
sg48
S"<Storage {'body': <cStringIO.StringO object at 0..._vars': <Storage {}>, 'post_vars': <Storage {}>}>"
p4810
sS'IS_EXPR'
p4811
S"<class 'gluon.validators.IS_EXPR'>"
p4812
sS'IS_IN_SET'
p4813
S"<class 'gluon.validators.IS_IN_SET'>"
p4814
sS'IS_UPLOAD_FILENAME'
p4815
S"<class 'gluon.validators.IS_UPLOAD_FILENAME'>"
p4816
sS'IS_DECIMAL_IN_RANGE'
p4817
S"<class 'gluon.validators.IS_DECIMAL_IN_RANGE'>"
p4818
sS'T'
S'<gluon.languages.translator object at 0x05D2DC70>'
p4819
sssS'traceback'
p4820
S'Traceback (most recent call last):\n  File "gluon/restricted.py", line 205, in restricted\n  File "C:\\Users\\omkara\\Desktop\\web2py\\applications\\SlugBarter\\models\\registerForm.py", line 8, in <module>\nNameError: name \'datetime\' is not defined\n'
p4821
s.