(dp1
S'output'
p2
S'<type \'exceptions.RuntimeError\'> Failure to connect, tried 5 times:\nTraceback (most recent call last):\n  File "gluon/dal.py", line 5955, in __init__\n  File "gluon/dal.py", line 1886, in __init__\n  File "gluon/dal.py", line 465, in pool_connection\n  File "gluon/dal.py", line 1885, in connect\n  File "gluon/contrib/pymysql/__init__.py", line 93, in Connect\n  File "gluon/contrib/pymysql/connections.py", line 513, in __init__\n  File "gluon/contrib/pymysql/connections.py", line 667, in _connect\n  File "gluon/contrib/pymysql/connections.py", line 720, in _request_authentication\n  File "gluon/contrib/pymysql/connections.py", line 766, in _send_authentication\n  File "gluon/contrib/pymysql/connections.py", line 331, in check_error\n  File "gluon/contrib/pymysql/err.py", line 135, in raise_mysql_exception\n  File "gluon/contrib/pymysql/err.py", line 131, in _check_mysql_exception\nInternalError: (1049, u"Unknown database \'critic\'")\n'
p3
sS'layer'
p4
S'C:\\Users\\omkara\\Desktop\\web2py\\applications\\SlugBarter\\models\\registerForm.py'
p5
sS'code'
p6
S"# coding: utf8\ndb = DAL('mysql://root:@localhost/critic')\nfrom gluon.tools import Auth\nauth = Auth(globals(), db)\n\ndb.define_table(\n    'user',\n    Field('first_name', length=128, default=''),\n    Field('last_name', length=128, default=''),\n    Field('email', length=128, unique=True),\n    Field('username', length=100, unique=True),\n    Field('password', 'password', length=512, readable=False, label='Password'),\n    Field('registration_key', length=512, writable=False, readable=False, default=''),\n    Field('reset_password_key', length=512, writable=False, readable=False, default=''),\n    Field('registration_id', length=512, writable=False, readable=False, default='')      )\n\ncustom_auth_table = db['user']\n\ncustom_auth_table.first_name.requires = IS_NOT_EMPTY(error_message = auth.messages.is_empty)\ncustom_auth_table.last_name.requires = IS_NOT_EMPTY(error_message = auth.messages.is_empty)\ncustom_auth_table.email.requires = IS_NOT_IN_DB(db, custom_auth_table.email)\ncustom_auth_table.password.requires = [IS_STRONG(), CRYPT()]\ncustom_auth_table.email.requires = [ IS_EMAIL(error_message = auth.messages.invalid_email), IS_NOT_IN_DB(db, custom_auth_table.email)]\n\nauth.settings.table_user = custom_auth_table\nauth.settings.table_user_name = 'user'    #Very important to mention\nauth.settings.table_group_name = 'user_group'\nauth.settings.table_membership_name = 'user_membership'\nauth.settings.table_permission_name = 'user_permission'\nauth.settings.table_event_name = 'user_event'\n\nauth.settings.login_userfield = 'email'        #the loginfield will be email instead of username\n\nauth.define_tables(username=False)    #Creating the table\n"
p7
sS'snapshot'
p8
(dp9
S'exception'
p10
(dp11
S'__hash__'
p12
S"<method-wrapper '__hash__' of exceptions.RuntimeError object at 0x0608D5F8>"
p13
sS'__setattr__'
p14
S"<method-wrapper '__setattr__' of exceptions.RuntimeError object at 0x0608D5F8>"
p15
sS'__reduce_ex__'
p16
S'<built-in method __reduce_ex__ of exceptions.RuntimeError object at 0x0608D5F8>'
p17
sS'__getslice__'
p18
S"<method-wrapper '__getslice__' of exceptions.RuntimeError object at 0x0608D5F8>"
p19
sS'__getitem__'
p20
S"<method-wrapper '__getitem__' of exceptions.RuntimeError object at 0x0608D5F8>"
p21
sS'__setstate__'
p22
S'<built-in method __setstate__ of exceptions.RuntimeError object at 0x0608D5F8>'
p23
sS'__reduce__'
p24
S'<built-in method __reduce__ of exceptions.RuntimeError object at 0x0608D5F8>'
p25
sS'__str__'
p26
S"<method-wrapper '__str__' of exceptions.RuntimeError object at 0x0608D5F8>"
p27
sS'args'
p28
S'(\'Failure to connect, tried 5 times:\\nTraceback (mo...ernalError: (1049, u"Unknown database \\\'critic\\\'")\\n\',)'
p29
sS'__getattribute__'
p30
S"<method-wrapper '__getattribute__' of exceptions.RuntimeError object at 0x0608D5F8>"
p31
sS'__class__'
p32
S"<type 'exceptions.RuntimeError'>"
p33
sS'__delattr__'
p34
S"<method-wrapper '__delattr__' of exceptions.RuntimeError object at 0x0608D5F8>"
p35
sS'__repr__'
p36
S"<method-wrapper '__repr__' of exceptions.RuntimeError object at 0x0608D5F8>"
p37
sS'__dict__'
p38
S'{}'
p39
sS'__doc__'
p40
S"'Unspecified run-time error.'"
p41
sS'__init__'
p42
S"<method-wrapper '__init__' of exceptions.RuntimeError object at 0x0608D5F8>"
p43
sS'__new__'
p44
S'<built-in method __new__ of type object at 0x1E1CD748>'
p45
ssS'evalue'
p46
S'Failure to connect, tried 5 times:\nTraceback (most recent call last):\n  File "gluon/dal.py", line 5955, in __init__\n  File "gluon/dal.py", line 1886, in __init__\n  File "gluon/dal.py", line 465, in pool_connection\n  File "gluon/dal.py", line 1885, in connect\n  File "gluon/contrib/pymysql/__init__.py", line 93, in Connect\n  File "gluon/contrib/pymysql/connections.py", line 513, in __init__\n  File "gluon/contrib/pymysql/connections.py", line 667, in _connect\n  File "gluon/contrib/pymysql/connections.py", line 720, in _request_authentication\n  File "gluon/contrib/pymysql/connections.py", line 766, in _send_authentication\n  File "gluon/contrib/pymysql/connections.py", line 331, in check_error\n  File "gluon/contrib/pymysql/err.py", line 135, in raise_mysql_exception\n  File "gluon/contrib/pymysql/err.py", line 131, in _check_mysql_exception\nInternalError: (1049, u"Unknown database \'critic\'")\n'
p47
sS'request'
p48
ccopy_reg
_reconstructor
p49
(cgluon.html
BEAUTIFY
p50
c__builtin__
object
p51
NtRp52
(dp53
S'attributes'
p54
(dp55
sS'components'
p56
(lp57
g49
(cgluon.html
TABLE
p58
g51
NtRp59
(dp60
g54
(dp61
S'level'
p62
I5
ssS'parent'
p63
Nsg56
(lp64
g49
(cgluon.html
TR
p65
g51
NtRp66
(dp67
g54
(dp68
sg63
g59
sg56
(lp69
g49
(cgluon.html
TD
p70
g51
NtRp71
(dp72
g54
(dp73
S'_style'
p74
S'font-weight:bold;vertical-align:top'
p75
ssg63
g66
sg56
(lp76
S'ajax'
p77
asbag49
(g70
g51
NtRp78
(dp79
g54
(dp80
S'_valign'
p81
S'top'
p82
ssg63
g66
sg56
(lp83
S':'
asbag49
(g70
g51
NtRp84
(dp85
g54
(dp86
sg63
g66
sg56
(lp87
g49
(g50
g51
NtRp88
(dp89
g54
(dp90
g62
I5
ssg63
g84
sg56
(lp91
S'False'
p92
asbasbasbag49
(g65
g51
NtRp93
(dp94
g54
(dp95
sg63
g59
sg56
(lp96
g49
(g70
g51
NtRp97
(dp98
g54
(dp99
g74
g75
ssg63
g93
sg56
(lp100
S'application'
p101
asbag49
(g70
g51
NtRp102
(dp103
g54
(dp104
g81
g82
ssg63
g93
sg56
(lp105
S':'
asbag49
(g70
g51
NtRp106
(dp107
g54
(dp108
sg63
g93
sg56
(lp109
g49
(g50
g51
NtRp110
(dp111
g54
(dp112
g62
I5
ssg63
g106
sg56
(lp113
S'SlugBarter'
p114
asbasbasbag49
(g65
g51
NtRp115
(dp116
g54
(dp117
sg63
g59
sg56
(lp118
g49
(g70
g51
NtRp119
(dp120
g54
(dp121
g74
g75
ssg63
g115
sg56
(lp122
g28
asbag49
(g70
g51
NtRp123
(dp124
g54
(dp125
g81
g82
ssg63
g115
sg56
(lp126
S':'
asbag49
(g70
g51
NtRp127
(dp128
g54
(dp129
sg63
g115
sg56
(lp130
g49
(g50
g51
NtRp131
(dp132
g54
(dp133
g62
I5
ssg63
g127
sg56
(lp134
g49
(g58
g51
NtRp135
(dp136
g54
(dp137
g62
I4
ssg63
Nsg56
(lp138
sbasbasbasbag49
(g65
g51
NtRp139
(dp140
g54
(dp141
sg63
g59
sg56
(lp142
g49
(g70
g51
NtRp143
(dp144
g54
(dp145
g74
g75
ssg63
g139
sg56
(lp146
S'body'
p147
asbag49
(g70
g51
NtRp148
(dp149
g54
(dp150
g81
g82
ssg63
g139
sg56
(lp151
S':'
asbag49
(g70
g51
NtRp152
(dp153
g54
(dp154
sg63
g139
sg56
(lp155
g49
(g50
g51
NtRp156
(dp157
g54
(dp158
g62
I5
ssg63
g152
sg56
(lp159
S'<cStringIO.StringO object at 0x059CDE60>'
p160
asbasbasbag49
(g65
g51
NtRp161
(dp162
g54
(dp163
sg63
g59
sg56
(lp164
g49
(g70
g51
NtRp165
(dp166
g54
(dp167
g74
g75
ssg63
g161
sg56
(lp168
S'client'
p169
asbag49
(g70
g51
NtRp170
(dp171
g54
(dp172
g81
g82
ssg63
g161
sg56
(lp173
S':'
asbag49
(g70
g51
NtRp174
(dp175
g54
(dp176
sg63
g161
sg56
(lp177
g49
(g50
g51
NtRp178
(dp179
g54
(dp180
g62
I5
ssg63
g174
sg56
(lp181
S'127.0.0.1'
p182
asbasbasbag49
(g65
g51
NtRp183
(dp184
g54
(dp185
sg63
g59
sg56
(lp186
g49
(g70
g51
NtRp187
(dp188
g54
(dp189
g74
g75
ssg63
g183
sg56
(lp190
S'controller'
p191
asbag49
(g70
g51
NtRp192
(dp193
g54
(dp194
g81
g82
ssg63
g183
sg56
(lp195
S':'
asbag49
(g70
g51
NtRp196
(dp197
g54
(dp198
sg63
g183
sg56
(lp199
g49
(g50
g51
NtRp200
(dp201
g54
(dp202
g62
I5
ssg63
g196
sg56
(lp203
S'default'
p204
asbasbasbag49
(g65
g51
NtRp205
(dp206
g54
(dp207
sg63
g59
sg56
(lp208
g49
(g70
g51
NtRp209
(dp210
g54
(dp211
g74
g75
ssg63
g205
sg56
(lp212
S'cookies'
p213
asbag49
(g70
g51
NtRp214
(dp215
g54
(dp216
g81
g82
ssg63
g205
sg56
(lp217
S':'
asbag49
(g70
g51
NtRp218
(dp219
g54
(dp220
sg63
g205
sg56
(lp221
g49
(g50
g51
NtRp222
(dp223
g54
(dp224
g62
I5
ssg63
g218
sg56
(lp225
g49
(g58
g51
NtRp226
(dp227
g54
(dp228
g62
I4
ssg63
Nsg56
(lp229
g49
(g65
g51
NtRp230
(dp231
g54
(dp232
sg63
g226
sg56
(lp233
g49
(g70
g51
NtRp234
(dp235
g54
(dp236
g74
g75
ssg63
g230
sg56
(lp237
S'session_id_admin'
p238
asbag49
(g70
g51
NtRp239
(dp240
g54
(dp241
g81
g82
ssg63
g230
sg56
(lp242
S':'
asbag49
(g70
g51
NtRp243
(dp244
g54
(dp245
sg63
g230
sg56
(lp246
g49
(g50
g51
NtRp247
(dp248
g54
(dp249
g62
I4
ssg63
g243
sg56
(lp250
g49
(g58
g51
NtRp251
(dp252
g54
(dp253
g62
I3
ssg63
Nsg56
(lp254
g49
(g65
g51
NtRp255
(dp256
g54
(dp257
sg63
g251
sg56
(lp258
g49
(g70
g51
NtRp259
(dp260
g54
(dp261
g74
g75
ssg63
g255
sg56
(lp262
S'comment'
p263
asbag49
(g70
g51
NtRp264
(dp265
g54
(dp266
g81
g82
ssg63
g255
sg56
(lp267
S':'
asbag49
(g70
g51
NtRp268
(dp269
g54
(dp270
sg63
g255
sg56
(lp271
g49
(g50
g51
NtRp272
(dp273
g54
(dp274
g62
I3
ssg63
g268
sg56
(lp275
S''
asbasbasbag49
(g65
g51
NtRp276
(dp277
g54
(dp278
sg63
g251
sg56
(lp279
g49
(g70
g51
NtRp280
(dp281
g54
(dp282
g74
g75
ssg63
g276
sg56
(lp283
S'domain'
p284
asbag49
(g70
g51
NtRp285
(dp286
g54
(dp287
g81
g82
ssg63
g276
sg56
(lp288
S':'
asbag49
(g70
g51
NtRp289
(dp290
g54
(dp291
sg63
g276
sg56
(lp292
g49
(g50
g51
NtRp293
(dp294
g54
(dp295
g62
I3
ssg63
g289
sg56
(lp296
S''
asbasbasbag49
(g65
g51
NtRp297
(dp298
g54
(dp299
sg63
g251
sg56
(lp300
g49
(g70
g51
NtRp301
(dp302
g54
(dp303
g74
g75
ssg63
g297
sg56
(lp304
S'expires'
p305
asbag49
(g70
g51
NtRp306
(dp307
g54
(dp308
g81
g82
ssg63
g297
sg56
(lp309
S':'
asbag49
(g70
g51
NtRp310
(dp311
g54
(dp312
sg63
g297
sg56
(lp313
g49
(g50
g51
NtRp314
(dp315
g54
(dp316
g62
I3
ssg63
g310
sg56
(lp317
S''
asbasbasbag49
(g65
g51
NtRp318
(dp319
g54
(dp320
sg63
g251
sg56
(lp321
g49
(g70
g51
NtRp322
(dp323
g54
(dp324
g74
g75
ssg63
g318
sg56
(lp325
S'max-age'
p326
asbag49
(g70
g51
NtRp327
(dp328
g54
(dp329
g81
g82
ssg63
g318
sg56
(lp330
S':'
asbag49
(g70
g51
NtRp331
(dp332
g54
(dp333
sg63
g318
sg56
(lp334
g49
(g50
g51
NtRp335
(dp336
g54
(dp337
g62
I3
ssg63
g331
sg56
(lp338
S''
asbasbasbag49
(g65
g51
NtRp339
(dp340
g54
(dp341
sg63
g251
sg56
(lp342
g49
(g70
g51
NtRp343
(dp344
g54
(dp345
g74
g75
ssg63
g339
sg56
(lp346
S'path'
p347
asbag49
(g70
g51
NtRp348
(dp349
g54
(dp350
g81
g82
ssg63
g339
sg56
(lp351
S':'
asbag49
(g70
g51
NtRp352
(dp353
g54
(dp354
sg63
g339
sg56
(lp355
g49
(g50
g51
NtRp356
(dp357
g54
(dp358
g62
I3
ssg63
g352
sg56
(lp359
S''
asbasbasbag49
(g65
g51
NtRp360
(dp361
g54
(dp362
sg63
g251
sg56
(lp363
g49
(g70
g51
NtRp364
(dp365
g54
(dp366
g74
g75
ssg63
g360
sg56
(lp367
S'secure'
p368
asbag49
(g70
g51
NtRp369
(dp370
g54
(dp371
g81
g82
ssg63
g360
sg56
(lp372
S':'
asbag49
(g70
g51
NtRp373
(dp374
g54
(dp375
sg63
g360
sg56
(lp376
g49
(g50
g51
NtRp377
(dp378
g54
(dp379
g62
I3
ssg63
g373
sg56
(lp380
S''
asbasbasbag49
(g65
g51
NtRp381
(dp382
g54
(dp383
sg63
g251
sg56
(lp384
g49
(g70
g51
NtRp385
(dp386
g54
(dp387
g74
g75
ssg63
g381
sg56
(lp388
S'version'
p389
asbag49
(g70
g51
NtRp390
(dp391
g54
(dp392
g81
g82
ssg63
g381
sg56
(lp393
S':'
asbag49
(g70
g51
NtRp394
(dp395
g54
(dp396
sg63
g381
sg56
(lp397
g49
(g50
g51
NtRp398
(dp399
g54
(dp400
g62
I3
ssg63
g394
sg56
(lp401
S''
asbasbasbasbasbasbasbag49
(g65
g51
NtRp402
(dp403
g54
(dp404
sg63
g226
sg56
(lp405
g49
(g70
g51
NtRp406
(dp407
g54
(dp408
g74
g75
ssg63
g402
sg56
(lp409
S'session_id_onlinenotes_p1_'
p410
asbag49
(g70
g51
NtRp411
(dp412
g54
(dp413
g81
g82
ssg63
g402
sg56
(lp414
S':'
asbag49
(g70
g51
NtRp415
(dp416
g54
(dp417
sg63
g402
sg56
(lp418
g49
(g50
g51
NtRp419
(dp420
g54
(dp421
g62
I4
ssg63
g415
sg56
(lp422
g49
(g58
g51
NtRp423
(dp424
g54
(dp425
g62
I3
ssg63
Nsg56
(lp426
g49
(g65
g51
NtRp427
(dp428
g54
(dp429
sg63
g423
sg56
(lp430
g49
(g70
g51
NtRp431
(dp432
g54
(dp433
g74
g75
ssg63
g427
sg56
(lp434
g263
asbag49
(g70
g51
NtRp435
(dp436
g54
(dp437
g81
g82
ssg63
g427
sg56
(lp438
S':'
asbag49
(g70
g51
NtRp439
(dp440
g54
(dp441
sg63
g427
sg56
(lp442
g49
(g50
g51
NtRp443
(dp444
g54
(dp445
g62
I3
ssg63
g439
sg56
(lp446
S''
asbasbasbag49
(g65
g51
NtRp447
(dp448
g54
(dp449
sg63
g423
sg56
(lp450
g49
(g70
g51
NtRp451
(dp452
g54
(dp453
g74
g75
ssg63
g447
sg56
(lp454
g284
asbag49
(g70
g51
NtRp455
(dp456
g54
(dp457
g81
g82
ssg63
g447
sg56
(lp458
S':'
asbag49
(g70
g51
NtRp459
(dp460
g54
(dp461
sg63
g447
sg56
(lp462
g49
(g50
g51
NtRp463
(dp464
g54
(dp465
g62
I3
ssg63
g459
sg56
(lp466
S''
asbasbasbag49
(g65
g51
NtRp467
(dp468
g54
(dp469
sg63
g423
sg56
(lp470
g49
(g70
g51
NtRp471
(dp472
g54
(dp473
g74
g75
ssg63
g467
sg56
(lp474
g305
asbag49
(g70
g51
NtRp475
(dp476
g54
(dp477
g81
g82
ssg63
g467
sg56
(lp478
S':'
asbag49
(g70
g51
NtRp479
(dp480
g54
(dp481
sg63
g467
sg56
(lp482
g49
(g50
g51
NtRp483
(dp484
g54
(dp485
g62
I3
ssg63
g479
sg56
(lp486
S''
asbasbasbag49
(g65
g51
NtRp487
(dp488
g54
(dp489
sg63
g423
sg56
(lp490
g49
(g70
g51
NtRp491
(dp492
g54
(dp493
g74
g75
ssg63
g487
sg56
(lp494
g326
asbag49
(g70
g51
NtRp495
(dp496
g54
(dp497
g81
g82
ssg63
g487
sg56
(lp498
S':'
asbag49
(g70
g51
NtRp499
(dp500
g54
(dp501
sg63
g487
sg56
(lp502
g49
(g50
g51
NtRp503
(dp504
g54
(dp505
g62
I3
ssg63
g499
sg56
(lp506
S''
asbasbasbag49
(g65
g51
NtRp507
(dp508
g54
(dp509
sg63
g423
sg56
(lp510
g49
(g70
g51
NtRp511
(dp512
g54
(dp513
g74
g75
ssg63
g507
sg56
(lp514
g347
asbag49
(g70
g51
NtRp515
(dp516
g54
(dp517
g81
g82
ssg63
g507
sg56
(lp518
S':'
asbag49
(g70
g51
NtRp519
(dp520
g54
(dp521
sg63
g507
sg56
(lp522
g49
(g50
g51
NtRp523
(dp524
g54
(dp525
g62
I3
ssg63
g519
sg56
(lp526
S''
asbasbasbag49
(g65
g51
NtRp527
(dp528
g54
(dp529
sg63
g423
sg56
(lp530
g49
(g70
g51
NtRp531
(dp532
g54
(dp533
g74
g75
ssg63
g527
sg56
(lp534
g368
asbag49
(g70
g51
NtRp535
(dp536
g54
(dp537
g81
g82
ssg63
g527
sg56
(lp538
S':'
asbag49
(g70
g51
NtRp539
(dp540
g54
(dp541
sg63
g527
sg56
(lp542
g49
(g50
g51
NtRp543
(dp544
g54
(dp545
g62
I3
ssg63
g539
sg56
(lp546
S''
asbasbasbag49
(g65
g51
NtRp547
(dp548
g54
(dp549
sg63
g423
sg56
(lp550
g49
(g70
g51
NtRp551
(dp552
g54
(dp553
g74
g75
ssg63
g547
sg56
(lp554
g389
asbag49
(g70
g51
NtRp555
(dp556
g54
(dp557
g81
g82
ssg63
g547
sg56
(lp558
S':'
asbag49
(g70
g51
NtRp559
(dp560
g54
(dp561
sg63
g547
sg56
(lp562
g49
(g50
g51
NtRp563
(dp564
g54
(dp565
g62
I3
ssg63
g559
sg56
(lp566
S''
asbasbasbasbasbasbasbag49
(g65
g51
NtRp567
(dp568
g54
(dp569
sg63
g226
sg56
(lp570
g49
(g70
g51
NtRp571
(dp572
g54
(dp573
g74
g75
ssg63
g567
sg56
(lp574
S'session_id_slugbarter'
p575
asbag49
(g70
g51
NtRp576
(dp577
g54
(dp578
g81
g82
ssg63
g567
sg56
(lp579
S':'
asbag49
(g70
g51
NtRp580
(dp581
g54
(dp582
sg63
g567
sg56
(lp583
g49
(g50
g51
NtRp584
(dp585
g54
(dp586
g62
I4
ssg63
g580
sg56
(lp587
g49
(g58
g51
NtRp588
(dp589
g54
(dp590
g62
I3
ssg63
Nsg56
(lp591
g49
(g65
g51
NtRp592
(dp593
g54
(dp594
sg63
g588
sg56
(lp595
g49
(g70
g51
NtRp596
(dp597
g54
(dp598
g74
g75
ssg63
g592
sg56
(lp599
g263
asbag49
(g70
g51
NtRp600
(dp601
g54
(dp602
g81
g82
ssg63
g592
sg56
(lp603
S':'
asbag49
(g70
g51
NtRp604
(dp605
g54
(dp606
sg63
g592
sg56
(lp607
g49
(g50
g51
NtRp608
(dp609
g54
(dp610
g62
I3
ssg63
g604
sg56
(lp611
S''
asbasbasbag49
(g65
g51
NtRp612
(dp613
g54
(dp614
sg63
g588
sg56
(lp615
g49
(g70
g51
NtRp616
(dp617
g54
(dp618
g74
g75
ssg63
g612
sg56
(lp619
g284
asbag49
(g70
g51
NtRp620
(dp621
g54
(dp622
g81
g82
ssg63
g612
sg56
(lp623
S':'
asbag49
(g70
g51
NtRp624
(dp625
g54
(dp626
sg63
g612
sg56
(lp627
g49
(g50
g51
NtRp628
(dp629
g54
(dp630
g62
I3
ssg63
g624
sg56
(lp631
S''
asbasbasbag49
(g65
g51
NtRp632
(dp633
g54
(dp634
sg63
g588
sg56
(lp635
g49
(g70
g51
NtRp636
(dp637
g54
(dp638
g74
g75
ssg63
g632
sg56
(lp639
g305
asbag49
(g70
g51
NtRp640
(dp641
g54
(dp642
g81
g82
ssg63
g632
sg56
(lp643
S':'
asbag49
(g70
g51
NtRp644
(dp645
g54
(dp646
sg63
g632
sg56
(lp647
g49
(g50
g51
NtRp648
(dp649
g54
(dp650
g62
I3
ssg63
g644
sg56
(lp651
S''
asbasbasbag49
(g65
g51
NtRp652
(dp653
g54
(dp654
sg63
g588
sg56
(lp655
g49
(g70
g51
NtRp656
(dp657
g54
(dp658
g74
g75
ssg63
g652
sg56
(lp659
g326
asbag49
(g70
g51
NtRp660
(dp661
g54
(dp662
g81
g82
ssg63
g652
sg56
(lp663
S':'
asbag49
(g70
g51
NtRp664
(dp665
g54
(dp666
sg63
g652
sg56
(lp667
g49
(g50
g51
NtRp668
(dp669
g54
(dp670
g62
I3
ssg63
g664
sg56
(lp671
S''
asbasbasbag49
(g65
g51
NtRp672
(dp673
g54
(dp674
sg63
g588
sg56
(lp675
g49
(g70
g51
NtRp676
(dp677
g54
(dp678
g74
g75
ssg63
g672
sg56
(lp679
g347
asbag49
(g70
g51
NtRp680
(dp681
g54
(dp682
g81
g82
ssg63
g672
sg56
(lp683
S':'
asbag49
(g70
g51
NtRp684
(dp685
g54
(dp686
sg63
g672
sg56
(lp687
g49
(g50
g51
NtRp688
(dp689
g54
(dp690
g62
I3
ssg63
g684
sg56
(lp691
S''
asbasbasbag49
(g65
g51
NtRp692
(dp693
g54
(dp694
sg63
g588
sg56
(lp695
g49
(g70
g51
NtRp696
(dp697
g54
(dp698
g74
g75
ssg63
g692
sg56
(lp699
g368
asbag49
(g70
g51
NtRp700
(dp701
g54
(dp702
g81
g82
ssg63
g692
sg56
(lp703
S':'
asbag49
(g70
g51
NtRp704
(dp705
g54
(dp706
sg63
g692
sg56
(lp707
g49
(g50
g51
NtRp708
(dp709
g54
(dp710
g62
I3
ssg63
g704
sg56
(lp711
S''
asbasbasbag49
(g65
g51
NtRp712
(dp713
g54
(dp714
sg63
g588
sg56
(lp715
g49
(g70
g51
NtRp716
(dp717
g54
(dp718
g74
g75
ssg63
g712
sg56
(lp719
g389
asbag49
(g70
g51
NtRp720
(dp721
g54
(dp722
g81
g82
ssg63
g712
sg56
(lp723
S':'
asbag49
(g70
g51
NtRp724
(dp725
g54
(dp726
sg63
g712
sg56
(lp727
g49
(g50
g51
NtRp728
(dp729
g54
(dp730
g62
I3
ssg63
g724
sg56
(lp731
S''
asbasbasbasbasbasbasbag49
(g65
g51
NtRp732
(dp733
g54
(dp734
sg63
g226
sg56
(lp735
g49
(g70
g51
NtRp736
(dp737
g54
(dp738
g74
g75
ssg63
g732
sg56
(lp739
S'session_id_welcome'
p740
asbag49
(g70
g51
NtRp741
(dp742
g54
(dp743
g81
g82
ssg63
g732
sg56
(lp744
S':'
asbag49
(g70
g51
NtRp745
(dp746
g54
(dp747
sg63
g732
sg56
(lp748
g49
(g50
g51
NtRp749
(dp750
g54
(dp751
g62
I4
ssg63
g745
sg56
(lp752
g49
(g58
g51
NtRp753
(dp754
g54
(dp755
g62
I3
ssg63
Nsg56
(lp756
g49
(g65
g51
NtRp757
(dp758
g54
(dp759
sg63
g753
sg56
(lp760
g49
(g70
g51
NtRp761
(dp762
g54
(dp763
g74
g75
ssg63
g757
sg56
(lp764
g263
asbag49
(g70
g51
NtRp765
(dp766
g54
(dp767
g81
g82
ssg63
g757
sg56
(lp768
S':'
asbag49
(g70
g51
NtRp769
(dp770
g54
(dp771
sg63
g757
sg56
(lp772
g49
(g50
g51
NtRp773
(dp774
g54
(dp775
g62
I3
ssg63
g769
sg56
(lp776
S''
asbasbasbag49
(g65
g51
NtRp777
(dp778
g54
(dp779
sg63
g753
sg56
(lp780
g49
(g70
g51
NtRp781
(dp782
g54
(dp783
g74
g75
ssg63
g777
sg56
(lp784
g284
asbag49
(g70
g51
NtRp785
(dp786
g54
(dp787
g81
g82
ssg63
g777
sg56
(lp788
S':'
asbag49
(g70
g51
NtRp789
(dp790
g54
(dp791
sg63
g777
sg56
(lp792
g49
(g50
g51
NtRp793
(dp794
g54
(dp795
g62
I3
ssg63
g789
sg56
(lp796
S''
asbasbasbag49
(g65
g51
NtRp797
(dp798
g54
(dp799
sg63
g753
sg56
(lp800
g49
(g70
g51
NtRp801
(dp802
g54
(dp803
g74
g75
ssg63
g797
sg56
(lp804
g305
asbag49
(g70
g51
NtRp805
(dp806
g54
(dp807
g81
g82
ssg63
g797
sg56
(lp808
S':'
asbag49
(g70
g51
NtRp809
(dp810
g54
(dp811
sg63
g797
sg56
(lp812
g49
(g50
g51
NtRp813
(dp814
g54
(dp815
g62
I3
ssg63
g809
sg56
(lp816
S''
asbasbasbag49
(g65
g51
NtRp817
(dp818
g54
(dp819
sg63
g753
sg56
(lp820
g49
(g70
g51
NtRp821
(dp822
g54
(dp823
g74
g75
ssg63
g817
sg56
(lp824
g326
asbag49
(g70
g51
NtRp825
(dp826
g54
(dp827
g81
g82
ssg63
g817
sg56
(lp828
S':'
asbag49
(g70
g51
NtRp829
(dp830
g54
(dp831
sg63
g817
sg56
(lp832
g49
(g50
g51
NtRp833
(dp834
g54
(dp835
g62
I3
ssg63
g829
sg56
(lp836
S''
asbasbasbag49
(g65
g51
NtRp837
(dp838
g54
(dp839
sg63
g753
sg56
(lp840
g49
(g70
g51
NtRp841
(dp842
g54
(dp843
g74
g75
ssg63
g837
sg56
(lp844
g347
asbag49
(g70
g51
NtRp845
(dp846
g54
(dp847
g81
g82
ssg63
g837
sg56
(lp848
S':'
asbag49
(g70
g51
NtRp849
(dp850
g54
(dp851
sg63
g837
sg56
(lp852
g49
(g50
g51
NtRp853
(dp854
g54
(dp855
g62
I3
ssg63
g849
sg56
(lp856
S''
asbasbasbag49
(g65
g51
NtRp857
(dp858
g54
(dp859
sg63
g753
sg56
(lp860
g49
(g70
g51
NtRp861
(dp862
g54
(dp863
g74
g75
ssg63
g857
sg56
(lp864
g368
asbag49
(g70
g51
NtRp865
(dp866
g54
(dp867
g81
g82
ssg63
g857
sg56
(lp868
S':'
asbag49
(g70
g51
NtRp869
(dp870
g54
(dp871
sg63
g857
sg56
(lp872
g49
(g50
g51
NtRp873
(dp874
g54
(dp875
g62
I3
ssg63
g869
sg56
(lp876
S''
asbasbasbag49
(g65
g51
NtRp877
(dp878
g54
(dp879
sg63
g753
sg56
(lp880
g49
(g70
g51
NtRp881
(dp882
g54
(dp883
g74
g75
ssg63
g877
sg56
(lp884
g389
asbag49
(g70
g51
NtRp885
(dp886
g54
(dp887
g81
g82
ssg63
g877
sg56
(lp888
S':'
asbag49
(g70
g51
NtRp889
(dp890
g54
(dp891
sg63
g877
sg56
(lp892
g49
(g50
g51
NtRp893
(dp894
g54
(dp895
g62
I3
ssg63
g889
sg56
(lp896
S''
asbasbasbasbasbasbasbasbasbasbasbag49
(g65
g51
NtRp897
(dp898
g54
(dp899
sg63
g59
sg56
(lp900
g49
(g70
g51
NtRp901
(dp902
g54
(dp903
g74
g75
ssg63
g897
sg56
(lp904
S'env'
p905
asbag49
(g70
g51
NtRp906
(dp907
g54
(dp908
g81
g82
ssg63
g897
sg56
(lp909
S':'
asbag49
(g70
g51
NtRp910
(dp911
g54
(dp912
sg63
g897
sg56
(lp913
g49
(g50
g51
NtRp914
(dp915
g54
(dp916
g62
I5
ssg63
g910
sg56
(lp917
g49
(g58
g51
NtRp918
(dp919
g54
(dp920
g62
I4
ssg63
Nsg56
(lp921
g49
(g65
g51
NtRp922
(dp923
g54
(dp924
sg63
g918
sg56
(lp925
g49
(g70
g51
NtRp926
(dp927
g54
(dp928
g74
g75
ssg63
g922
sg56
(lp929
S'app_folders'
p930
asbag49
(g70
g51
NtRp931
(dp932
g54
(dp933
g81
g82
ssg63
g922
sg56
(lp934
S':'
asbag49
(g70
g51
NtRp935
(dp936
g54
(dp937
sg63
g922
sg56
(lp938
g49
(g50
g51
NtRp939
(dp940
g54
(dp941
g62
I4
ssg63
g935
sg56
(lp942
S"set(['C:\\\\Users\\\\omkara\\\\Desktop\\\\web2py\\\\applications\\\\admin\\\\', 'C:\\\\Users\\\\omkara\\\\Desktop\\\\web2py\\\\applications\\\\welcome\\\\', 'C:\\\\Users\\\\omkara\\\\Desktop\\\\web2py\\\\applications\\\\SlugBarter\\\\', 'C:\\\\Users\\\\omkara\\\\Desktop\\\\web2py\\\\applications\\\\OnlineNotes_p1_\\\\'])"
p943
asbasbasbag49
(g65
g51
NtRp944
(dp945
g54
(dp946
sg63
g918
sg56
(lp947
g49
(g70
g51
NtRp948
(dp949
g54
(dp950
g74
g75
ssg63
g944
sg56
(lp951
S'applications_parent'
p952
asbag49
(g70
g51
NtRp953
(dp954
g54
(dp955
g81
g82
ssg63
g944
sg56
(lp956
S':'
asbag49
(g70
g51
NtRp957
(dp958
g54
(dp959
sg63
g944
sg56
(lp960
g49
(g50
g51
NtRp961
(dp962
g54
(dp963
g62
I4
ssg63
g957
sg56
(lp964
S'C:\\Users\\omkara\\Desktop\\web2py'
p965
asbasbasbag49
(g65
g51
NtRp966
(dp967
g54
(dp968
sg63
g918
sg56
(lp969
g49
(g70
g51
NtRp970
(dp971
g54
(dp972
g74
g75
ssg63
g966
sg56
(lp973
S'cmd_args'
p974
asbag49
(g70
g51
NtRp975
(dp976
g54
(dp977
g81
g82
ssg63
g966
sg56
(lp978
S':'
asbag49
(g70
g51
NtRp979
(dp980
g54
(dp981
sg63
g966
sg56
(lp982
g49
(g50
g51
NtRp983
(dp984
g54
(dp985
g62
I4
ssg63
g979
sg56
(lp986
g49
(g58
g51
NtRp987
(dp988
g54
(dp989
g62
I3
ssg63
Nsg56
(lp990
sbasbasbasbag49
(g65
g51
NtRp991
(dp992
g54
(dp993
sg63
g918
sg56
(lp994
g49
(g70
g51
NtRp995
(dp996
g54
(dp997
g74
g75
ssg63
g991
sg56
(lp998
S'cmd_options'
p999
asbag49
(g70
g51
NtRp1000
(dp1001
g54
(dp1002
g81
g82
ssg63
g991
sg56
(lp1003
S':'
asbag49
(g70
g51
NtRp1004
(dp1005
g54
(dp1006
sg63
g991
sg56
(lp1007
g49
(g50
g51
NtRp1008
(dp1009
g54
(dp1010
g62
I4
ssg63
g1004
sg56
(lp1011
S"<Values at 0x27a30f8: {'verbose': False, 'ip': '127.0.0.1', 'shutdown_timeout': 5, 'taskbar': False, 'nocron': False, 'pid_filename': 'httpserver.pid', 'maxthreads': None, 'softcron': False, 'server_name': 'omkara-PC', 'bpython': False, 'nogui': False, 'port': 8000, 'extcron': False, 'debuglevel': 30, 'test': None, 'folder': 'C:\\\\Users\\\\omkara\\\\Desktop\\\\web2py', 'config': '', 'import_models': False, 'winservice': '', 'shell': None, 'run': '', 'log_filename': 'httpserver.log', 'args': [''], 'socket_timeout': 5, 'ssl_ca_certificate': None, 'scheduler': None, 'profiler_filename': None, 'ssl_private_key': '', 'password': '<ask>', 'request_queue_size': 5, 'ssl_certificate': '', 'cronjob': False, 'numthreads': None, 'quiet': False, 'interfaces': None, 'minthreads': None, 'timeout': 10, 'plain': False, 'nobanner': False}>"
p1012
asbasbasbag49
(g65
g51
NtRp1013
(dp1014
g54
(dp1015
sg63
g918
sg56
(lp1016
g49
(g70
g51
NtRp1017
(dp1018
g54
(dp1019
g74
g75
ssg63
g1013
sg56
(lp1020
S'db_sessions'
p1021
asbag49
(g70
g51
NtRp1022
(dp1023
g54
(dp1024
g81
g82
ssg63
g1013
sg56
(lp1025
S':'
asbag49
(g70
g51
NtRp1026
(dp1027
g54
(dp1028
sg63
g1013
sg56
(lp1029
g49
(g50
g51
NtRp1030
(dp1031
g54
(dp1032
g62
I4
ssg63
g1026
sg56
(lp1033
S'set([])'
p1034
asbasbasbag49
(g65
g51
NtRp1035
(dp1036
g54
(dp1037
sg63
g918
sg56
(lp1038
g49
(g70
g51
NtRp1039
(dp1040
g54
(dp1041
g74
g75
ssg63
g1035
sg56
(lp1042
S'debugging'
p1043
asbag49
(g70
g51
NtRp1044
(dp1045
g54
(dp1046
g81
g82
ssg63
g1035
sg56
(lp1047
S':'
asbag49
(g70
g51
NtRp1048
(dp1049
g54
(dp1050
sg63
g1035
sg56
(lp1051
g49
(g50
g51
NtRp1052
(dp1053
g54
(dp1054
g62
I4
ssg63
g1048
sg56
(lp1055
g92
asbasbasbag49
(g65
g51
NtRp1056
(dp1057
g54
(dp1058
sg63
g918
sg56
(lp1059
g49
(g70
g51
NtRp1060
(dp1061
g54
(dp1062
g74
g75
ssg63
g1056
sg56
(lp1063
S'gluon_parent'
p1064
asbag49
(g70
g51
NtRp1065
(dp1066
g54
(dp1067
g81
g82
ssg63
g1056
sg56
(lp1068
S':'
asbag49
(g70
g51
NtRp1069
(dp1070
g54
(dp1071
sg63
g1056
sg56
(lp1072
g49
(g50
g51
NtRp1073
(dp1074
g54
(dp1075
g62
I4
ssg63
g1069
sg56
(lp1076
S'C:\\Users\\omkara\\Desktop\\web2py'
p1077
asbasbasbag49
(g65
g51
NtRp1078
(dp1079
g54
(dp1080
sg63
g918
sg56
(lp1081
g49
(g70
g51
NtRp1082
(dp1083
g54
(dp1084
g74
g75
ssg63
g1078
sg56
(lp1085
S'http_accept'
p1086
asbag49
(g70
g51
NtRp1087
(dp1088
g54
(dp1089
g81
g82
ssg63
g1078
sg56
(lp1090
S':'
asbag49
(g70
g51
NtRp1091
(dp1092
g54
(dp1093
sg63
g1078
sg56
(lp1094
g49
(g50
g51
NtRp1095
(dp1096
g54
(dp1097
g62
I4
ssg63
g1091
sg56
(lp1098
S'text/html,application/xhtml+xml,application/xml;q=0.9,*/*;q=0.8'
p1099
asbasbasbag49
(g65
g51
NtRp1100
(dp1101
g54
(dp1102
sg63
g918
sg56
(lp1103
g49
(g70
g51
NtRp1104
(dp1105
g54
(dp1106
g74
g75
ssg63
g1100
sg56
(lp1107
S'http_accept_charset'
p1108
asbag49
(g70
g51
NtRp1109
(dp1110
g54
(dp1111
g81
g82
ssg63
g1100
sg56
(lp1112
S':'
asbag49
(g70
g51
NtRp1113
(dp1114
g54
(dp1115
sg63
g1100
sg56
(lp1116
g49
(g50
g51
NtRp1117
(dp1118
g54
(dp1119
g62
I4
ssg63
g1113
sg56
(lp1120
S'ISO-8859-1,utf-8;q=0.7,*;q=0.3'
p1121
asbasbasbag49
(g65
g51
NtRp1122
(dp1123
g54
(dp1124
sg63
g918
sg56
(lp1125
g49
(g70
g51
NtRp1126
(dp1127
g54
(dp1128
g74
g75
ssg63
g1122
sg56
(lp1129
S'http_accept_encoding'
p1130
asbag49
(g70
g51
NtRp1131
(dp1132
g54
(dp1133
g81
g82
ssg63
g1122
sg56
(lp1134
S':'
asbag49
(g70
g51
NtRp1135
(dp1136
g54
(dp1137
sg63
g1122
sg56
(lp1138
g49
(g50
g51
NtRp1139
(dp1140
g54
(dp1141
g62
I4
ssg63
g1135
sg56
(lp1142
S'gzip,deflate,sdch'
p1143
asbasbasbag49
(g65
g51
NtRp1144
(dp1145
g54
(dp1146
sg63
g918
sg56
(lp1147
g49
(g70
g51
NtRp1148
(dp1149
g54
(dp1150
g74
g75
ssg63
g1144
sg56
(lp1151
S'http_accept_language'
p1152
asbag49
(g70
g51
NtRp1153
(dp1154
g54
(dp1155
g81
g82
ssg63
g1144
sg56
(lp1156
S':'
asbag49
(g70
g51
NtRp1157
(dp1158
g54
(dp1159
sg63
g1144
sg56
(lp1160
g49
(g50
g51
NtRp1161
(dp1162
g54
(dp1163
g62
I4
ssg63
g1157
sg56
(lp1164
S'en-US,en;q=0.8'
p1165
asbasbasbag49
(g65
g51
NtRp1166
(dp1167
g54
(dp1168
sg63
g918
sg56
(lp1169
g49
(g70
g51
NtRp1170
(dp1171
g54
(dp1172
g74
g75
ssg63
g1166
sg56
(lp1173
S'http_cache_control'
p1174
asbag49
(g70
g51
NtRp1175
(dp1176
g54
(dp1177
g81
g82
ssg63
g1166
sg56
(lp1178
S':'
asbag49
(g70
g51
NtRp1179
(dp1180
g54
(dp1181
sg63
g1166
sg56
(lp1182
g49
(g50
g51
NtRp1183
(dp1184
g54
(dp1185
g62
I4
ssg63
g1179
sg56
(lp1186
S'max-age=0'
p1187
asbasbasbag49
(g65
g51
NtRp1188
(dp1189
g54
(dp1190
sg63
g918
sg56
(lp1191
g49
(g70
g51
NtRp1192
(dp1193
g54
(dp1194
g74
g75
ssg63
g1188
sg56
(lp1195
S'http_connection'
p1196
asbag49
(g70
g51
NtRp1197
(dp1198
g54
(dp1199
g81
g82
ssg63
g1188
sg56
(lp1200
S':'
asbag49
(g70
g51
NtRp1201
(dp1202
g54
(dp1203
sg63
g1188
sg56
(lp1204
g49
(g50
g51
NtRp1205
(dp1206
g54
(dp1207
g62
I4
ssg63
g1201
sg56
(lp1208
S'keep-alive'
p1209
asbasbasbag49
(g65
g51
NtRp1210
(dp1211
g54
(dp1212
sg63
g918
sg56
(lp1213
g49
(g70
g51
NtRp1214
(dp1215
g54
(dp1216
g74
g75
ssg63
g1210
sg56
(lp1217
S'http_cookie'
p1218
asbag49
(g70
g51
NtRp1219
(dp1220
g54
(dp1221
g81
g82
ssg63
g1210
sg56
(lp1222
S':'
asbag49
(g70
g51
NtRp1223
(dp1224
g54
(dp1225
sg63
g1210
sg56
(lp1226
g49
(g50
g51
NtRp1227
(dp1228
g54
(dp1229
g62
I4
ssg63
g1223
sg56
(lp1230
S'session_id_welcome=127.0.0.1-a1b3016b-66b8-408b-ae8e-37231f35f16e; session_id_onlinenotes_p1_=127.0.0.1-2b1a349f-aa95-4718-93d5-e7df1c85d951; session_id_slugbarter=127.0.0.1-e6ebae72-1bbc-48a5-9458-95dbb65a4e54; session_id_admin=127.0.0.1-3b1553ef-7186-4588-80e8-d2bbbaa88c9f'
p1231
asbasbasbag49
(g65
g51
NtRp1232
(dp1233
g54
(dp1234
sg63
g918
sg56
(lp1235
g49
(g70
g51
NtRp1236
(dp1237
g54
(dp1238
g74
g75
ssg63
g1232
sg56
(lp1239
S'http_host'
p1240
asbag49
(g70
g51
NtRp1241
(dp1242
g54
(dp1243
g81
g82
ssg63
g1232
sg56
(lp1244
S':'
asbag49
(g70
g51
NtRp1245
(dp1246
g54
(dp1247
sg63
g1232
sg56
(lp1248
g49
(g50
g51
NtRp1249
(dp1250
g54
(dp1251
g62
I4
ssg63
g1245
sg56
(lp1252
S'127.0.0.1:8000'
p1253
asbasbasbag49
(g65
g51
NtRp1254
(dp1255
g54
(dp1256
sg63
g918
sg56
(lp1257
g49
(g70
g51
NtRp1258
(dp1259
g54
(dp1260
g74
g75
ssg63
g1254
sg56
(lp1261
S'http_referer'
p1262
asbag49
(g70
g51
NtRp1263
(dp1264
g54
(dp1265
g81
g82
ssg63
g1254
sg56
(lp1266
S':'
asbag49
(g70
g51
NtRp1267
(dp1268
g54
(dp1269
sg63
g1254
sg56
(lp1270
g49
(g50
g51
NtRp1271
(dp1272
g54
(dp1273
g62
I4
ssg63
g1267
sg56
(lp1274
S'http://127.0.0.1:8000/SlugBarter/default/index'
p1275
asbasbasbag49
(g65
g51
NtRp1276
(dp1277
g54
(dp1278
sg63
g918
sg56
(lp1279
g49
(g70
g51
NtRp1280
(dp1281
g54
(dp1282
g74
g75
ssg63
g1276
sg56
(lp1283
S'http_user_agent'
p1284
asbag49
(g70
g51
NtRp1285
(dp1286
g54
(dp1287
g81
g82
ssg63
g1276
sg56
(lp1288
S':'
asbag49
(g70
g51
NtRp1289
(dp1290
g54
(dp1291
sg63
g1276
sg56
(lp1292
g49
(g50
g51
NtRp1293
(dp1294
g54
(dp1295
g62
I4
ssg63
g1289
sg56
(lp1296
S'Mozilla/5.0 (Windows NT 6.1) AppleWebKit/537.11 (KHTML, like Gecko) Chrome/23.0.1271.64 Safari/537.11'
p1297
asbasbasbag49
(g65
g51
NtRp1298
(dp1299
g54
(dp1300
sg63
g918
sg56
(lp1301
g49
(g70
g51
NtRp1302
(dp1303
g54
(dp1304
g74
g75
ssg63
g1298
sg56
(lp1305
S'is_jython'
p1306
asbag49
(g70
g51
NtRp1307
(dp1308
g54
(dp1309
g81
g82
ssg63
g1298
sg56
(lp1310
S':'
asbag49
(g70
g51
NtRp1311
(dp1312
g54
(dp1313
sg63
g1298
sg56
(lp1314
g49
(g50
g51
NtRp1315
(dp1316
g54
(dp1317
g62
I4
ssg63
g1311
sg56
(lp1318
g92
asbasbasbag49
(g65
g51
NtRp1319
(dp1320
g54
(dp1321
sg63
g918
sg56
(lp1322
g49
(g70
g51
NtRp1323
(dp1324
g54
(dp1325
g74
g75
ssg63
g1319
sg56
(lp1326
S'is_pypy'
p1327
asbag49
(g70
g51
NtRp1328
(dp1329
g54
(dp1330
g81
g82
ssg63
g1319
sg56
(lp1331
S':'
asbag49
(g70
g51
NtRp1332
(dp1333
g54
(dp1334
sg63
g1319
sg56
(lp1335
g49
(g50
g51
NtRp1336
(dp1337
g54
(dp1338
g62
I4
ssg63
g1332
sg56
(lp1339
g92
asbasbasbag49
(g65
g51
NtRp1340
(dp1341
g54
(dp1342
sg63
g918
sg56
(lp1343
g49
(g70
g51
NtRp1344
(dp1345
g54
(dp1346
g74
g75
ssg63
g1340
sg56
(lp1347
S'path_info'
p1348
asbag49
(g70
g51
NtRp1349
(dp1350
g54
(dp1351
g81
g82
ssg63
g1340
sg56
(lp1352
S':'
asbag49
(g70
g51
NtRp1353
(dp1354
g54
(dp1355
sg63
g1340
sg56
(lp1356
g49
(g50
g51
NtRp1357
(dp1358
g54
(dp1359
g62
I4
ssg63
g1353
sg56
(lp1360
S'/SlugBarter/default/register'
p1361
asbasbasbag49
(g65
g51
NtRp1362
(dp1363
g54
(dp1364
sg63
g918
sg56
(lp1365
g49
(g70
g51
NtRp1366
(dp1367
g54
(dp1368
g74
g75
ssg63
g1362
sg56
(lp1369
S'query_string'
p1370
asbag49
(g70
g51
NtRp1371
(dp1372
g54
(dp1373
g81
g82
ssg63
g1362
sg56
(lp1374
S':'
asbag49
(g70
g51
NtRp1375
(dp1376
g54
(dp1377
sg63
g1362
sg56
(lp1378
g49
(g50
g51
NtRp1379
(dp1380
g54
(dp1381
g62
I4
ssg63
g1375
sg56
(lp1382
S''
asbasbasbag49
(g65
g51
NtRp1383
(dp1384
g54
(dp1385
sg63
g918
sg56
(lp1386
g49
(g70
g51
NtRp1387
(dp1388
g54
(dp1389
g74
g75
ssg63
g1383
sg56
(lp1390
S'remote_addr'
p1391
asbag49
(g70
g51
NtRp1392
(dp1393
g54
(dp1394
g81
g82
ssg63
g1383
sg56
(lp1395
S':'
asbag49
(g70
g51
NtRp1396
(dp1397
g54
(dp1398
sg63
g1383
sg56
(lp1399
g49
(g50
g51
NtRp1400
(dp1401
g54
(dp1402
g62
I4
ssg63
g1396
sg56
(lp1403
g182
asbasbasbag49
(g65
g51
NtRp1404
(dp1405
g54
(dp1406
sg63
g918
sg56
(lp1407
g49
(g70
g51
NtRp1408
(dp1409
g54
(dp1410
g74
g75
ssg63
g1404
sg56
(lp1411
S'remote_port'
p1412
asbag49
(g70
g51
NtRp1413
(dp1414
g54
(dp1415
g81
g82
ssg63
g1404
sg56
(lp1416
S':'
asbag49
(g70
g51
NtRp1417
(dp1418
g54
(dp1419
sg63
g1404
sg56
(lp1420
g49
(g50
g51
NtRp1421
(dp1422
g54
(dp1423
g62
I4
ssg63
g1417
sg56
(lp1424
S'57833'
p1425
asbasbasbag49
(g65
g51
NtRp1426
(dp1427
g54
(dp1428
sg63
g918
sg56
(lp1429
g49
(g70
g51
NtRp1430
(dp1431
g54
(dp1432
g74
g75
ssg63
g1426
sg56
(lp1433
S'request_method'
p1434
asbag49
(g70
g51
NtRp1435
(dp1436
g54
(dp1437
g81
g82
ssg63
g1426
sg56
(lp1438
S':'
asbag49
(g70
g51
NtRp1439
(dp1440
g54
(dp1441
sg63
g1426
sg56
(lp1442
g49
(g50
g51
NtRp1443
(dp1444
g54
(dp1445
g62
I4
ssg63
g1439
sg56
(lp1446
S'GET'
p1447
asbasbasbag49
(g65
g51
NtRp1448
(dp1449
g54
(dp1450
sg63
g918
sg56
(lp1451
g49
(g70
g51
NtRp1452
(dp1453
g54
(dp1454
g74
g75
ssg63
g1448
sg56
(lp1455
S'script_name'
p1456
asbag49
(g70
g51
NtRp1457
(dp1458
g54
(dp1459
g81
g82
ssg63
g1448
sg56
(lp1460
S':'
asbag49
(g70
g51
NtRp1461
(dp1462
g54
(dp1463
sg63
g1448
sg56
(lp1464
g49
(g50
g51
NtRp1465
(dp1466
g54
(dp1467
g62
I4
ssg63
g1461
sg56
(lp1468
S''
asbasbasbag49
(g65
g51
NtRp1469
(dp1470
g54
(dp1471
sg63
g918
sg56
(lp1472
g49
(g70
g51
NtRp1473
(dp1474
g54
(dp1475
g74
g75
ssg63
g1469
sg56
(lp1476
S'server_name'
p1477
asbag49
(g70
g51
NtRp1478
(dp1479
g54
(dp1480
g81
g82
ssg63
g1469
sg56
(lp1481
S':'
asbag49
(g70
g51
NtRp1482
(dp1483
g54
(dp1484
sg63
g1469
sg56
(lp1485
g49
(g50
g51
NtRp1486
(dp1487
g54
(dp1488
g62
I4
ssg63
g1482
sg56
(lp1489
S'omkara-PC'
p1490
asbasbasbag49
(g65
g51
NtRp1491
(dp1492
g54
(dp1493
sg63
g918
sg56
(lp1494
g49
(g70
g51
NtRp1495
(dp1496
g54
(dp1497
g74
g75
ssg63
g1491
sg56
(lp1498
S'server_port'
p1499
asbag49
(g70
g51
NtRp1500
(dp1501
g54
(dp1502
g81
g82
ssg63
g1491
sg56
(lp1503
S':'
asbag49
(g70
g51
NtRp1504
(dp1505
g54
(dp1506
sg63
g1491
sg56
(lp1507
g49
(g50
g51
NtRp1508
(dp1509
g54
(dp1510
g62
I4
ssg63
g1504
sg56
(lp1511
S'8000'
p1512
asbasbasbag49
(g65
g51
NtRp1513
(dp1514
g54
(dp1515
sg63
g918
sg56
(lp1516
g49
(g70
g51
NtRp1517
(dp1518
g54
(dp1519
g74
g75
ssg63
g1513
sg56
(lp1520
S'server_protocol'
p1521
asbag49
(g70
g51
NtRp1522
(dp1523
g54
(dp1524
g81
g82
ssg63
g1513
sg56
(lp1525
S':'
asbag49
(g70
g51
NtRp1526
(dp1527
g54
(dp1528
sg63
g1513
sg56
(lp1529
g49
(g50
g51
NtRp1530
(dp1531
g54
(dp1532
g62
I4
ssg63
g1526
sg56
(lp1533
S'HTTP/1.1'
p1534
asbasbasbag49
(g65
g51
NtRp1535
(dp1536
g54
(dp1537
sg63
g918
sg56
(lp1538
g49
(g70
g51
NtRp1539
(dp1540
g54
(dp1541
g74
g75
ssg63
g1535
sg56
(lp1542
S'server_software'
p1543
asbag49
(g70
g51
NtRp1544
(dp1545
g54
(dp1546
g81
g82
ssg63
g1535
sg56
(lp1547
S':'
asbag49
(g70
g51
NtRp1548
(dp1549
g54
(dp1550
sg63
g1535
sg56
(lp1551
g49
(g50
g51
NtRp1552
(dp1553
g54
(dp1554
g62
I4
ssg63
g1548
sg56
(lp1555
S'Rocket 1.2.4'
p1556
asbasbasbag49
(g65
g51
NtRp1557
(dp1558
g54
(dp1559
sg63
g918
sg56
(lp1560
g49
(g70
g51
NtRp1561
(dp1562
g54
(dp1563
g74
g75
ssg63
g1557
sg56
(lp1564
S'web2py_crontype'
p1565
asbag49
(g70
g51
NtRp1566
(dp1567
g54
(dp1568
g81
g82
ssg63
g1557
sg56
(lp1569
S':'
asbag49
(g70
g51
NtRp1570
(dp1571
g54
(dp1572
sg63
g1557
sg56
(lp1573
g49
(g50
g51
NtRp1574
(dp1575
g54
(dp1576
g62
I4
ssg63
g1570
sg56
(lp1577
S'hard'
p1578
asbasbasbag49
(g65
g51
NtRp1579
(dp1580
g54
(dp1581
sg63
g918
sg56
(lp1582
g49
(g70
g51
NtRp1583
(dp1584
g54
(dp1585
g74
g75
ssg63
g1579
sg56
(lp1586
S'web2py_path'
p1587
asbag49
(g70
g51
NtRp1588
(dp1589
g54
(dp1590
g81
g82
ssg63
g1579
sg56
(lp1591
S':'
asbag49
(g70
g51
NtRp1592
(dp1593
g54
(dp1594
sg63
g1579
sg56
(lp1595
g49
(g50
g51
NtRp1596
(dp1597
g54
(dp1598
g62
I4
ssg63
g1592
sg56
(lp1599
g965
asbasbasbag49
(g65
g51
NtRp1600
(dp1601
g54
(dp1602
sg63
g918
sg56
(lp1603
g49
(g70
g51
NtRp1604
(dp1605
g54
(dp1606
g74
g75
ssg63
g1600
sg56
(lp1607
S'web2py_version'
p1608
asbag49
(g70
g51
NtRp1609
(dp1610
g54
(dp1611
g81
g82
ssg63
g1600
sg56
(lp1612
S':'
asbag49
(g70
g51
NtRp1613
(dp1614
g54
(dp1615
sg63
g1600
sg56
(lp1616
g49
(g50
g51
NtRp1617
(dp1618
g54
(dp1619
g62
I4
ssg63
g1613
sg56
(lp1620
g49
(g58
g51
NtRp1621
(dp1622
g54
(dp1623
g62
I3
ssg63
Nsg56
(lp1624
g49
(g65
g51
NtRp1625
(dp1626
g54
(dp1627
sg63
g1621
sg56
(lp1628
g49
(g70
g51
NtRp1629
(dp1630
g54
(dp1631
sg63
g1625
sg56
(lp1632
g49
(g50
g51
NtRp1633
(dp1634
g54
(dp1635
g62
I3
ssg63
g1629
sg56
(lp1636
S'1'
asbasbasbag49
(g65
g51
NtRp1637
(dp1638
g54
(dp1639
sg63
g1621
sg56
(lp1640
g49
(g70
g51
NtRp1641
(dp1642
g54
(dp1643
sg63
g1637
sg56
(lp1644
g49
(g50
g51
NtRp1645
(dp1646
g54
(dp1647
g62
I3
ssg63
g1641
sg56
(lp1648
S'99'
p1649
asbasbasbag49
(g65
g51
NtRp1650
(dp1651
g54
(dp1652
sg63
g1621
sg56
(lp1653
g49
(g70
g51
NtRp1654
(dp1655
g54
(dp1656
sg63
g1650
sg56
(lp1657
g49
(g50
g51
NtRp1658
(dp1659
g54
(dp1660
g62
I3
ssg63
g1654
sg56
(lp1661
S'7'
asbasbasbag49
(g65
g51
NtRp1662
(dp1663
g54
(dp1664
sg63
g1621
sg56
(lp1665
g49
(g70
g51
NtRp1666
(dp1667
g54
(dp1668
sg63
g1662
sg56
(lp1669
g49
(g50
g51
NtRp1670
(dp1671
g54
(dp1672
g62
I3
ssg63
g1666
sg56
(lp1673
S'datetime.datetime(2012, 3, 4, 22, 12, 8)'
p1674
asbasbasbag49
(g65
g51
NtRp1675
(dp1676
g54
(dp1677
sg63
g1621
sg56
(lp1678
g49
(g70
g51
NtRp1679
(dp1680
g54
(dp1681
sg63
g1675
sg56
(lp1682
g49
(g50
g51
NtRp1683
(dp1684
g54
(dp1685
g62
I3
ssg63
g1679
sg56
(lp1686
S'stable'
p1687
asbasbasbasbasbasbasbag49
(g65
g51
NtRp1688
(dp1689
g54
(dp1690
sg63
g918
sg56
(lp1691
g49
(g70
g51
NtRp1692
(dp1693
g54
(dp1694
g74
g75
ssg63
g1688
sg56
(lp1695
S'wsgi_errors'
p1696
asbag49
(g70
g51
NtRp1697
(dp1698
g54
(dp1699
g81
g82
ssg63
g1688
sg56
(lp1700
S':'
asbag49
(g70
g51
NtRp1701
(dp1702
g54
(dp1703
sg63
g1688
sg56
(lp1704
g49
(g50
g51
NtRp1705
(dp1706
g54
(dp1707
g62
I4
ssg63
g1701
sg56
(lp1708
S'<__main__.Stderr object at 0x01667670>'
p1709
asbasbasbag49
(g65
g51
NtRp1710
(dp1711
g54
(dp1712
sg63
g918
sg56
(lp1713
g49
(g70
g51
NtRp1714
(dp1715
g54
(dp1716
g74
g75
ssg63
g1710
sg56
(lp1717
S'wsgi_file_wrapper'
p1718
asbag49
(g70
g51
NtRp1719
(dp1720
g54
(dp1721
g81
g82
ssg63
g1710
sg56
(lp1722
S':'
asbag49
(g70
g51
NtRp1723
(dp1724
g54
(dp1725
sg63
g1710
sg56
(lp1726
g49
(g50
g51
NtRp1727
(dp1728
g54
(dp1729
g62
I4
ssg63
g1723
sg56
(lp1730
S'<class wsgiref.util.FileWrapper at 0x02532210>'
p1731
asbasbasbag49
(g65
g51
NtRp1732
(dp1733
g54
(dp1734
sg63
g918
sg56
(lp1735
g49
(g70
g51
NtRp1736
(dp1737
g54
(dp1738
g74
g75
ssg63
g1732
sg56
(lp1739
S'wsgi_input'
p1740
asbag49
(g70
g51
NtRp1741
(dp1742
g54
(dp1743
g81
g82
ssg63
g1732
sg56
(lp1744
S':'
asbag49
(g70
g51
NtRp1745
(dp1746
g54
(dp1747
sg63
g1732
sg56
(lp1748
g49
(g50
g51
NtRp1749
(dp1750
g54
(dp1751
g62
I4
ssg63
g1745
sg56
(lp1752
S'<socket._fileobject object at 0x05CFFA30>'
p1753
asbasbasbag49
(g65
g51
NtRp1754
(dp1755
g54
(dp1756
sg63
g918
sg56
(lp1757
g49
(g70
g51
NtRp1758
(dp1759
g54
(dp1760
g74
g75
ssg63
g1754
sg56
(lp1761
S'wsgi_multiprocess'
p1762
asbag49
(g70
g51
NtRp1763
(dp1764
g54
(dp1765
g81
g82
ssg63
g1754
sg56
(lp1766
S':'
asbag49
(g70
g51
NtRp1767
(dp1768
g54
(dp1769
sg63
g1754
sg56
(lp1770
g49
(g50
g51
NtRp1771
(dp1772
g54
(dp1773
g62
I4
ssg63
g1767
sg56
(lp1774
g92
asbasbasbag49
(g65
g51
NtRp1775
(dp1776
g54
(dp1777
sg63
g918
sg56
(lp1778
g49
(g70
g51
NtRp1779
(dp1780
g54
(dp1781
g74
g75
ssg63
g1775
sg56
(lp1782
S'wsgi_multithread'
p1783
asbag49
(g70
g51
NtRp1784
(dp1785
g54
(dp1786
g81
g82
ssg63
g1775
sg56
(lp1787
S':'
asbag49
(g70
g51
NtRp1788
(dp1789
g54
(dp1790
sg63
g1775
sg56
(lp1791
g49
(g50
g51
NtRp1792
(dp1793
g54
(dp1794
g62
I4
ssg63
g1788
sg56
(lp1795
S'True'
p1796
asbasbasbag49
(g65
g51
NtRp1797
(dp1798
g54
(dp1799
sg63
g918
sg56
(lp1800
g49
(g70
g51
NtRp1801
(dp1802
g54
(dp1803
g74
g75
ssg63
g1797
sg56
(lp1804
S'wsgi_run_once'
p1805
asbag49
(g70
g51
NtRp1806
(dp1807
g54
(dp1808
g81
g82
ssg63
g1797
sg56
(lp1809
S':'
asbag49
(g70
g51
NtRp1810
(dp1811
g54
(dp1812
sg63
g1797
sg56
(lp1813
g49
(g50
g51
NtRp1814
(dp1815
g54
(dp1816
g62
I4
ssg63
g1810
sg56
(lp1817
g92
asbasbasbag49
(g65
g51
NtRp1818
(dp1819
g54
(dp1820
sg63
g918
sg56
(lp1821
g49
(g70
g51
NtRp1822
(dp1823
g54
(dp1824
g74
g75
ssg63
g1818
sg56
(lp1825
S'wsgi_url_scheme'
p1826
asbag49
(g70
g51
NtRp1827
(dp1828
g54
(dp1829
g81
g82
ssg63
g1818
sg56
(lp1830
S':'
asbag49
(g70
g51
NtRp1831
(dp1832
g54
(dp1833
sg63
g1818
sg56
(lp1834
g49
(g50
g51
NtRp1835
(dp1836
g54
(dp1837
g62
I4
ssg63
g1831
sg56
(lp1838
S'http'
p1839
asbasbasbag49
(g65
g51
NtRp1840
(dp1841
g54
(dp1842
sg63
g918
sg56
(lp1843
g49
(g70
g51
NtRp1844
(dp1845
g54
(dp1846
g74
g75
ssg63
g1840
sg56
(lp1847
S'wsgi_version'
p1848
asbag49
(g70
g51
NtRp1849
(dp1850
g54
(dp1851
g81
g82
ssg63
g1840
sg56
(lp1852
S':'
asbag49
(g70
g51
NtRp1853
(dp1854
g54
(dp1855
sg63
g1840
sg56
(lp1856
g49
(g50
g51
NtRp1857
(dp1858
g54
(dp1859
g62
I4
ssg63
g1853
sg56
(lp1860
g49
(g58
g51
NtRp1861
(dp1862
g54
(dp1863
g62
I3
ssg63
Nsg56
(lp1864
g49
(g65
g51
NtRp1865
(dp1866
g54
(dp1867
sg63
g1861
sg56
(lp1868
g49
(g70
g51
NtRp1869
(dp1870
g54
(dp1871
sg63
g1865
sg56
(lp1872
g49
(g50
g51
NtRp1873
(dp1874
g54
(dp1875
g62
I3
ssg63
g1869
sg56
(lp1876
S'1'
asbasbasbag49
(g65
g51
NtRp1877
(dp1878
g54
(dp1879
sg63
g1861
sg56
(lp1880
g49
(g70
g51
NtRp1881
(dp1882
g54
(dp1883
sg63
g1877
sg56
(lp1884
g49
(g50
g51
NtRp1885
(dp1886
g54
(dp1887
g62
I3
ssg63
g1881
sg56
(lp1888
S'0'
asbasbasbasbasbasbasbasbasbasbasbag49
(g65
g51
NtRp1889
(dp1890
g54
(dp1891
sg63
g59
sg56
(lp1892
g49
(g70
g51
NtRp1893
(dp1894
g54
(dp1895
g74
g75
ssg63
g1889
sg56
(lp1896
S'extension'
p1897
asbag49
(g70
g51
NtRp1898
(dp1899
g54
(dp1900
g81
g82
ssg63
g1889
sg56
(lp1901
S':'
asbag49
(g70
g51
NtRp1902
(dp1903
g54
(dp1904
sg63
g1889
sg56
(lp1905
g49
(g50
g51
NtRp1906
(dp1907
g54
(dp1908
g62
I5
ssg63
g1902
sg56
(lp1909
S'html'
p1910
asbasbasbag49
(g65
g51
NtRp1911
(dp1912
g54
(dp1913
sg63
g59
sg56
(lp1914
g49
(g70
g51
NtRp1915
(dp1916
g54
(dp1917
g74
g75
ssg63
g1911
sg56
(lp1918
S'folder'
p1919
asbag49
(g70
g51
NtRp1920
(dp1921
g54
(dp1922
g81
g82
ssg63
g1911
sg56
(lp1923
S':'
asbag49
(g70
g51
NtRp1924
(dp1925
g54
(dp1926
sg63
g1911
sg56
(lp1927
g49
(g50
g51
NtRp1928
(dp1929
g54
(dp1930
g62
I5
ssg63
g1924
sg56
(lp1931
S'C:\\Users\\omkara\\Desktop\\web2py\\applications\\SlugBarter\\'
p1932
asbasbasbag49
(g65
g51
NtRp1933
(dp1934
g54
(dp1935
sg63
g59
sg56
(lp1936
g49
(g70
g51
NtRp1937
(dp1938
g54
(dp1939
g74
g75
ssg63
g1933
sg56
(lp1940
S'function'
p1941
asbag49
(g70
g51
NtRp1942
(dp1943
g54
(dp1944
g81
g82
ssg63
g1933
sg56
(lp1945
S':'
asbag49
(g70
g51
NtRp1946
(dp1947
g54
(dp1948
sg63
g1933
sg56
(lp1949
g49
(g50
g51
NtRp1950
(dp1951
g54
(dp1952
g62
I5
ssg63
g1946
sg56
(lp1953
S'register'
p1954
asbasbasbag49
(g65
g51
NtRp1955
(dp1956
g54
(dp1957
sg63
g59
sg56
(lp1958
g49
(g70
g51
NtRp1959
(dp1960
g54
(dp1961
g74
g75
ssg63
g1955
sg56
(lp1962
S'get_vars'
p1963
asbag49
(g70
g51
NtRp1964
(dp1965
g54
(dp1966
g81
g82
ssg63
g1955
sg56
(lp1967
S':'
asbag49
(g70
g51
NtRp1968
(dp1969
g54
(dp1970
sg63
g1955
sg56
(lp1971
g49
(g50
g51
NtRp1972
(dp1973
g54
(dp1974
g62
I5
ssg63
g1968
sg56
(lp1975
g49
(g58
g51
NtRp1976
(dp1977
g54
(dp1978
g62
I4
ssg63
Nsg56
(lp1979
sbasbasbasbag49
(g65
g51
NtRp1980
(dp1981
g54
(dp1982
sg63
g59
sg56
(lp1983
g49
(g70
g51
NtRp1984
(dp1985
g54
(dp1986
g74
g75
ssg63
g1980
sg56
(lp1987
S'global_settings'
p1988
asbag49
(g70
g51
NtRp1989
(dp1990
g54
(dp1991
g81
g82
ssg63
g1980
sg56
(lp1992
S':'
asbag49
(g70
g51
NtRp1993
(dp1994
g54
(dp1995
sg63
g1980
sg56
(lp1996
g49
(g50
g51
NtRp1997
(dp1998
g54
(dp1999
g62
I5
ssg63
g1993
sg56
(lp2000
g49
(g58
g51
NtRp2001
(dp2002
g54
(dp2003
g62
I4
ssg63
Nsg56
(lp2004
g49
(g65
g51
NtRp2005
(dp2006
g54
(dp2007
sg63
g2001
sg56
(lp2008
g49
(g70
g51
NtRp2009
(dp2010
g54
(dp2011
g74
g75
ssg63
g2005
sg56
(lp2012
g930
asbag49
(g70
g51
NtRp2013
(dp2014
g54
(dp2015
g81
g82
ssg63
g2005
sg56
(lp2016
S':'
asbag49
(g70
g51
NtRp2017
(dp2018
g54
(dp2019
sg63
g2005
sg56
(lp2020
g49
(g50
g51
NtRp2021
(dp2022
g54
(dp2023
g62
I4
ssg63
g2017
sg56
(lp2024
S"set(['C:\\\\Users\\\\omkara\\\\Desktop\\\\web2py\\\\applications\\\\admin\\\\', 'C:\\\\Users\\\\omkara\\\\Desktop\\\\web2py\\\\applications\\\\welcome\\\\', 'C:\\\\Users\\\\omkara\\\\Desktop\\\\web2py\\\\applications\\\\SlugBarter\\\\', 'C:\\\\Users\\\\omkara\\\\Desktop\\\\web2py\\\\applications\\\\OnlineNotes_p1_\\\\'])"
p2025
asbasbasbag49
(g65
g51
NtRp2026
(dp2027
g54
(dp2028
sg63
g2001
sg56
(lp2029
g49
(g70
g51
NtRp2030
(dp2031
g54
(dp2032
g74
g75
ssg63
g2026
sg56
(lp2033
g952
asbag49
(g70
g51
NtRp2034
(dp2035
g54
(dp2036
g81
g82
ssg63
g2026
sg56
(lp2037
S':'
asbag49
(g70
g51
NtRp2038
(dp2039
g54
(dp2040
sg63
g2026
sg56
(lp2041
g49
(g50
g51
NtRp2042
(dp2043
g54
(dp2044
g62
I4
ssg63
g2038
sg56
(lp2045
g965
asbasbasbag49
(g65
g51
NtRp2046
(dp2047
g54
(dp2048
sg63
g2001
sg56
(lp2049
g49
(g70
g51
NtRp2050
(dp2051
g54
(dp2052
g74
g75
ssg63
g2046
sg56
(lp2053
g974
asbag49
(g70
g51
NtRp2054
(dp2055
g54
(dp2056
g81
g82
ssg63
g2046
sg56
(lp2057
S':'
asbag49
(g70
g51
NtRp2058
(dp2059
g54
(dp2060
sg63
g2046
sg56
(lp2061
g49
(g50
g51
NtRp2062
(dp2063
g54
(dp2064
g62
I4
ssg63
g2058
sg56
(lp2065
g49
(g58
g51
NtRp2066
(dp2067
g54
(dp2068
g62
I3
ssg63
Nsg56
(lp2069
sbasbasbasbag49
(g65
g51
NtRp2070
(dp2071
g54
(dp2072
sg63
g2001
sg56
(lp2073
g49
(g70
g51
NtRp2074
(dp2075
g54
(dp2076
g74
g75
ssg63
g2070
sg56
(lp2077
g999
asbag49
(g70
g51
NtRp2078
(dp2079
g54
(dp2080
g81
g82
ssg63
g2070
sg56
(lp2081
S':'
asbag49
(g70
g51
NtRp2082
(dp2083
g54
(dp2084
sg63
g2070
sg56
(lp2085
g49
(g50
g51
NtRp2086
(dp2087
g54
(dp2088
g62
I4
ssg63
g2082
sg56
(lp2089
S"<Values at 0x27a30f8: {'verbose': False, 'ip': '127.0.0.1', 'shutdown_timeout': 5, 'taskbar': False, 'nocron': False, 'pid_filename': 'httpserver.pid', 'maxthreads': None, 'softcron': False, 'server_name': 'omkara-PC', 'bpython': False, 'nogui': False, 'port': 8000, 'extcron': False, 'debuglevel': 30, 'test': None, 'folder': 'C:\\\\Users\\\\omkara\\\\Desktop\\\\web2py', 'config': '', 'import_models': False, 'winservice': '', 'shell': None, 'run': '', 'log_filename': 'httpserver.log', 'args': [''], 'socket_timeout': 5, 'ssl_ca_certificate': None, 'scheduler': None, 'profiler_filename': None, 'ssl_private_key': '', 'password': '<ask>', 'request_queue_size': 5, 'ssl_certificate': '', 'cronjob': False, 'numthreads': None, 'quiet': False, 'interfaces': None, 'minthreads': None, 'timeout': 10, 'plain': False, 'nobanner': False}>"
p2090
asbasbasbag49
(g65
g51
NtRp2091
(dp2092
g54
(dp2093
sg63
g2001
sg56
(lp2094
g49
(g70
g51
NtRp2095
(dp2096
g54
(dp2097
g74
g75
ssg63
g2091
sg56
(lp2098
g1021
asbag49
(g70
g51
NtRp2099
(dp2100
g54
(dp2101
g81
g82
ssg63
g2091
sg56
(lp2102
S':'
asbag49
(g70
g51
NtRp2103
(dp2104
g54
(dp2105
sg63
g2091
sg56
(lp2106
g49
(g50
g51
NtRp2107
(dp2108
g54
(dp2109
g62
I4
ssg63
g2103
sg56
(lp2110
S'set([])'
p2111
asbasbasbag49
(g65
g51
NtRp2112
(dp2113
g54
(dp2114
sg63
g2001
sg56
(lp2115
g49
(g70
g51
NtRp2116
(dp2117
g54
(dp2118
g74
g75
ssg63
g2112
sg56
(lp2119
g1043
asbag49
(g70
g51
NtRp2120
(dp2121
g54
(dp2122
g81
g82
ssg63
g2112
sg56
(lp2123
S':'
asbag49
(g70
g51
NtRp2124
(dp2125
g54
(dp2126
sg63
g2112
sg56
(lp2127
g49
(g50
g51
NtRp2128
(dp2129
g54
(dp2130
g62
I4
ssg63
g2124
sg56
(lp2131
g92
asbasbasbag49
(g65
g51
NtRp2132
(dp2133
g54
(dp2134
sg63
g2001
sg56
(lp2135
g49
(g70
g51
NtRp2136
(dp2137
g54
(dp2138
g74
g75
ssg63
g2132
sg56
(lp2139
g1064
asbag49
(g70
g51
NtRp2140
(dp2141
g54
(dp2142
g81
g82
ssg63
g2132
sg56
(lp2143
S':'
asbag49
(g70
g51
NtRp2144
(dp2145
g54
(dp2146
sg63
g2132
sg56
(lp2147
g49
(g50
g51
NtRp2148
(dp2149
g54
(dp2150
g62
I4
ssg63
g2144
sg56
(lp2151
g1077
asbasbasbag49
(g65
g51
NtRp2152
(dp2153
g54
(dp2154
sg63
g2001
sg56
(lp2155
g49
(g70
g51
NtRp2156
(dp2157
g54
(dp2158
g74
g75
ssg63
g2152
sg56
(lp2159
g1306
asbag49
(g70
g51
NtRp2160
(dp2161
g54
(dp2162
g81
g82
ssg63
g2152
sg56
(lp2163
S':'
asbag49
(g70
g51
NtRp2164
(dp2165
g54
(dp2166
sg63
g2152
sg56
(lp2167
g49
(g50
g51
NtRp2168
(dp2169
g54
(dp2170
g62
I4
ssg63
g2164
sg56
(lp2171
g92
asbasbasbag49
(g65
g51
NtRp2172
(dp2173
g54
(dp2174
sg63
g2001
sg56
(lp2175
g49
(g70
g51
NtRp2176
(dp2177
g54
(dp2178
g74
g75
ssg63
g2172
sg56
(lp2179
g1327
asbag49
(g70
g51
NtRp2180
(dp2181
g54
(dp2182
g81
g82
ssg63
g2172
sg56
(lp2183
S':'
asbag49
(g70
g51
NtRp2184
(dp2185
g54
(dp2186
sg63
g2172
sg56
(lp2187
g49
(g50
g51
NtRp2188
(dp2189
g54
(dp2190
g62
I4
ssg63
g2184
sg56
(lp2191
g92
asbasbasbag49
(g65
g51
NtRp2192
(dp2193
g54
(dp2194
sg63
g2001
sg56
(lp2195
g49
(g70
g51
NtRp2196
(dp2197
g54
(dp2198
g74
g75
ssg63
g2192
sg56
(lp2199
g1565
asbag49
(g70
g51
NtRp2200
(dp2201
g54
(dp2202
g81
g82
ssg63
g2192
sg56
(lp2203
S':'
asbag49
(g70
g51
NtRp2204
(dp2205
g54
(dp2206
sg63
g2192
sg56
(lp2207
g49
(g50
g51
NtRp2208
(dp2209
g54
(dp2210
g62
I4
ssg63
g2204
sg56
(lp2211
g1578
asbasbasbag49
(g65
g51
NtRp2212
(dp2213
g54
(dp2214
sg63
g2001
sg56
(lp2215
g49
(g70
g51
NtRp2216
(dp2217
g54
(dp2218
g74
g75
ssg63
g2212
sg56
(lp2219
g1608
asbag49
(g70
g51
NtRp2220
(dp2221
g54
(dp2222
g81
g82
ssg63
g2212
sg56
(lp2223
S':'
asbag49
(g70
g51
NtRp2224
(dp2225
g54
(dp2226
sg63
g2212
sg56
(lp2227
g49
(g50
g51
NtRp2228
(dp2229
g54
(dp2230
g62
I4
ssg63
g2224
sg56
(lp2231
g49
(g58
g51
NtRp2232
(dp2233
g54
(dp2234
g62
I3
ssg63
Nsg56
(lp2235
g49
(g65
g51
NtRp2236
(dp2237
g54
(dp2238
sg63
g2232
sg56
(lp2239
g49
(g70
g51
NtRp2240
(dp2241
g54
(dp2242
sg63
g2236
sg56
(lp2243
g49
(g50
g51
NtRp2244
(dp2245
g54
(dp2246
g62
I3
ssg63
g2240
sg56
(lp2247
S'1'
asbasbasbag49
(g65
g51
NtRp2248
(dp2249
g54
(dp2250
sg63
g2232
sg56
(lp2251
g49
(g70
g51
NtRp2252
(dp2253
g54
(dp2254
sg63
g2248
sg56
(lp2255
g49
(g50
g51
NtRp2256
(dp2257
g54
(dp2258
g62
I3
ssg63
g2252
sg56
(lp2259
S'99'
p2260
asbasbasbag49
(g65
g51
NtRp2261
(dp2262
g54
(dp2263
sg63
g2232
sg56
(lp2264
g49
(g70
g51
NtRp2265
(dp2266
g54
(dp2267
sg63
g2261
sg56
(lp2268
g49
(g50
g51
NtRp2269
(dp2270
g54
(dp2271
g62
I3
ssg63
g2265
sg56
(lp2272
S'7'
asbasbasbag49
(g65
g51
NtRp2273
(dp2274
g54
(dp2275
sg63
g2232
sg56
(lp2276
g49
(g70
g51
NtRp2277
(dp2278
g54
(dp2279
sg63
g2273
sg56
(lp2280
g49
(g50
g51
NtRp2281
(dp2282
g54
(dp2283
g62
I3
ssg63
g2277
sg56
(lp2284
S'datetime.datetime(2012, 3, 4, 22, 12, 8)'
p2285
asbasbasbag49
(g65
g51
NtRp2286
(dp2287
g54
(dp2288
sg63
g2232
sg56
(lp2289
g49
(g70
g51
NtRp2290
(dp2291
g54
(dp2292
sg63
g2286
sg56
(lp2293
g49
(g50
g51
NtRp2294
(dp2295
g54
(dp2296
g62
I3
ssg63
g2290
sg56
(lp2297
g1687
asbasbasbasbasbasbasbasbasbasbasbag49
(g65
g51
NtRp2298
(dp2299
g54
(dp2300
sg63
g59
sg56
(lp2301
g49
(g70
g51
NtRp2302
(dp2303
g54
(dp2304
g74
g75
ssg63
g2298
sg56
(lp2305
S'is_https'
p2306
asbag49
(g70
g51
NtRp2307
(dp2308
g54
(dp2309
g81
g82
ssg63
g2298
sg56
(lp2310
S':'
asbag49
(g70
g51
NtRp2311
(dp2312
g54
(dp2313
sg63
g2298
sg56
(lp2314
g49
(g50
g51
NtRp2315
(dp2316
g54
(dp2317
g62
I5
ssg63
g2311
sg56
(lp2318
g92
asbasbasbag49
(g65
g51
NtRp2319
(dp2320
g54
(dp2321
sg63
g59
sg56
(lp2322
g49
(g70
g51
NtRp2323
(dp2324
g54
(dp2325
g74
g75
ssg63
g2319
sg56
(lp2326
S'is_local'
p2327
asbag49
(g70
g51
NtRp2328
(dp2329
g54
(dp2330
g81
g82
ssg63
g2319
sg56
(lp2331
S':'
asbag49
(g70
g51
NtRp2332
(dp2333
g54
(dp2334
sg63
g2319
sg56
(lp2335
g49
(g50
g51
NtRp2336
(dp2337
g54
(dp2338
g62
I5
ssg63
g2332
sg56
(lp2339
g1796
asbasbasbag49
(g65
g51
NtRp2340
(dp2341
g54
(dp2342
sg63
g59
sg56
(lp2343
g49
(g70
g51
NtRp2344
(dp2345
g54
(dp2346
g74
g75
ssg63
g2340
sg56
(lp2347
S'is_restful'
p2348
asbag49
(g70
g51
NtRp2349
(dp2350
g54
(dp2351
g81
g82
ssg63
g2340
sg56
(lp2352
S':'
asbag49
(g70
g51
NtRp2353
(dp2354
g54
(dp2355
sg63
g2340
sg56
(lp2356
g49
(g50
g51
NtRp2357
(dp2358
g54
(dp2359
g62
I5
ssg63
g2353
sg56
(lp2360
g92
asbasbasbag49
(g65
g51
NtRp2361
(dp2362
g54
(dp2363
sg63
g59
sg56
(lp2364
g49
(g70
g51
NtRp2365
(dp2366
g54
(dp2367
g74
g75
ssg63
g2361
sg56
(lp2368
S'now'
p2369
asbag49
(g70
g51
NtRp2370
(dp2371
g54
(dp2372
g81
g82
ssg63
g2361
sg56
(lp2373
S':'
asbag49
(g70
g51
NtRp2374
(dp2375
g54
(dp2376
sg63
g2361
sg56
(lp2377
g49
(g50
g51
NtRp2378
(dp2379
g54
(dp2380
g62
I5
ssg63
g2374
sg56
(lp2381
S'datetime.datetime(2012, 11, 10, 11, 24, 56, 751000)'
p2382
asbasbasbag49
(g65
g51
NtRp2383
(dp2384
g54
(dp2385
sg63
g59
sg56
(lp2386
g49
(g70
g51
NtRp2387
(dp2388
g54
(dp2389
g74
g75
ssg63
g2383
sg56
(lp2390
S'post_vars'
p2391
asbag49
(g70
g51
NtRp2392
(dp2393
g54
(dp2394
g81
g82
ssg63
g2383
sg56
(lp2395
S':'
asbag49
(g70
g51
NtRp2396
(dp2397
g54
(dp2398
sg63
g2383
sg56
(lp2399
g49
(g50
g51
NtRp2400
(dp2401
g54
(dp2402
g62
I5
ssg63
g2396
sg56
(lp2403
g49
(g58
g51
NtRp2404
(dp2405
g54
(dp2406
g62
I4
ssg63
Nsg56
(lp2407
sbasbasbasbag49
(g65
g51
NtRp2408
(dp2409
g54
(dp2410
sg63
g59
sg56
(lp2411
g49
(g70
g51
NtRp2412
(dp2413
g54
(dp2414
g74
g75
ssg63
g2408
sg56
(lp2415
S'url'
p2416
asbag49
(g70
g51
NtRp2417
(dp2418
g54
(dp2419
g81
g82
ssg63
g2408
sg56
(lp2420
S':'
asbag49
(g70
g51
NtRp2421
(dp2422
g54
(dp2423
sg63
g2408
sg56
(lp2424
g49
(g50
g51
NtRp2425
(dp2426
g54
(dp2427
g62
I5
ssg63
g2421
sg56
(lp2428
S'/SlugBarter/default/register'
p2429
asbasbasbag49
(g65
g51
NtRp2430
(dp2431
g54
(dp2432
sg63
g59
sg56
(lp2433
g49
(g70
g51
NtRp2434
(dp2435
g54
(dp2436
g74
g75
ssg63
g2430
sg56
(lp2437
S'utcnow'
p2438
asbag49
(g70
g51
NtRp2439
(dp2440
g54
(dp2441
g81
g82
ssg63
g2430
sg56
(lp2442
S':'
asbag49
(g70
g51
NtRp2443
(dp2444
g54
(dp2445
sg63
g2430
sg56
(lp2446
g49
(g50
g51
NtRp2447
(dp2448
g54
(dp2449
g62
I5
ssg63
g2443
sg56
(lp2450
S'datetime.datetime(2012, 11, 10, 19, 24, 56, 751000)'
p2451
asbasbasbag49
(g65
g51
NtRp2452
(dp2453
g54
(dp2454
sg63
g59
sg56
(lp2455
g49
(g70
g51
NtRp2456
(dp2457
g54
(dp2458
g74
g75
ssg63
g2452
sg56
(lp2459
S'uuid'
p2460
asbag49
(g70
g51
NtRp2461
(dp2462
g54
(dp2463
g81
g82
ssg63
g2452
sg56
(lp2464
S':'
asbag49
(g70
g51
NtRp2465
(dp2466
g54
(dp2467
sg63
g2452
sg56
(lp2468
g49
(g50
g51
NtRp2469
(dp2470
g54
(dp2471
g62
I5
ssg63
g2465
sg56
(lp2472
S'SlugBarter/127.0.0.1.2012-11-10.11-24-56.f4c51852-0a2b-49d4-8d9a-7be348505e2b'
p2473
asbasbasbag49
(g65
g51
NtRp2474
(dp2475
g54
(dp2476
sg63
g59
sg56
(lp2477
g49
(g70
g51
NtRp2478
(dp2479
g54
(dp2480
g74
g75
ssg63
g2474
sg56
(lp2481
S'vars'
p2482
asbag49
(g70
g51
NtRp2483
(dp2484
g54
(dp2485
g81
g82
ssg63
g2474
sg56
(lp2486
S':'
asbag49
(g70
g51
NtRp2487
(dp2488
g54
(dp2489
sg63
g2474
sg56
(lp2490
g49
(g50
g51
NtRp2491
(dp2492
g54
(dp2493
g62
I5
ssg63
g2487
sg56
(lp2494
g49
(g58
g51
NtRp2495
(dp2496
g54
(dp2497
g62
I4
ssg63
Nsg56
(lp2498
sbasbasbasbag49
(g65
g51
NtRp2499
(dp2500
g54
(dp2501
sg63
g59
sg56
(lp2502
g49
(g70
g51
NtRp2503
(dp2504
g54
(dp2505
g74
g75
ssg63
g2499
sg56
(lp2506
S'wsgi'
p2507
asbag49
(g70
g51
NtRp2508
(dp2509
g54
(dp2510
g81
g82
ssg63
g2499
sg56
(lp2511
S':'
asbag49
(g70
g51
NtRp2512
(dp2513
g54
(dp2514
sg63
g2499
sg56
(lp2515
g49
(g50
g51
NtRp2516
(dp2517
g54
(dp2518
g62
I5
ssg63
g2512
sg56
(lp2519
g49
(g58
g51
NtRp2520
(dp2521
g54
(dp2522
g62
I4
ssg63
Nsg56
(lp2523
g49
(g65
g51
NtRp2524
(dp2525
g54
(dp2526
sg63
g2520
sg56
(lp2527
g49
(g70
g51
NtRp2528
(dp2529
g54
(dp2530
g74
g75
ssg63
g2524
sg56
(lp2531
S'environ'
p2532
asbag49
(g70
g51
NtRp2533
(dp2534
g54
(dp2535
g81
g82
ssg63
g2524
sg56
(lp2536
S':'
asbag49
(g70
g51
NtRp2537
(dp2538
g54
(dp2539
sg63
g2524
sg56
(lp2540
g49
(g50
g51
NtRp2541
(dp2542
g54
(dp2543
g62
I4
ssg63
g2537
sg56
(lp2544
g49
(g58
g51
NtRp2545
(dp2546
g54
(dp2547
g62
I3
ssg63
Nsg56
(lp2548
g49
(g65
g51
NtRp2549
(dp2550
g54
(dp2551
sg63
g2545
sg56
(lp2552
g49
(g70
g51
NtRp2553
(dp2554
g54
(dp2555
g74
g75
ssg63
g2549
sg56
(lp2556
S'HTTP_ACCEPT'
p2557
asbag49
(g70
g51
NtRp2558
(dp2559
g54
(dp2560
g81
g82
ssg63
g2549
sg56
(lp2561
S':'
asbag49
(g70
g51
NtRp2562
(dp2563
g54
(dp2564
sg63
g2549
sg56
(lp2565
g49
(g50
g51
NtRp2566
(dp2567
g54
(dp2568
g62
I3
ssg63
g2562
sg56
(lp2569
g1099
asbasbasbag49
(g65
g51
NtRp2570
(dp2571
g54
(dp2572
sg63
g2545
sg56
(lp2573
g49
(g70
g51
NtRp2574
(dp2575
g54
(dp2576
g74
g75
ssg63
g2570
sg56
(lp2577
S'HTTP_ACCEPT_CHARSET'
p2578
asbag49
(g70
g51
NtRp2579
(dp2580
g54
(dp2581
g81
g82
ssg63
g2570
sg56
(lp2582
S':'
asbag49
(g70
g51
NtRp2583
(dp2584
g54
(dp2585
sg63
g2570
sg56
(lp2586
g49
(g50
g51
NtRp2587
(dp2588
g54
(dp2589
g62
I3
ssg63
g2583
sg56
(lp2590
g1121
asbasbasbag49
(g65
g51
NtRp2591
(dp2592
g54
(dp2593
sg63
g2545
sg56
(lp2594
g49
(g70
g51
NtRp2595
(dp2596
g54
(dp2597
g74
g75
ssg63
g2591
sg56
(lp2598
S'HTTP_ACCEPT_ENCODING'
p2599
asbag49
(g70
g51
NtRp2600
(dp2601
g54
(dp2602
g81
g82
ssg63
g2591
sg56
(lp2603
S':'
asbag49
(g70
g51
NtRp2604
(dp2605
g54
(dp2606
sg63
g2591
sg56
(lp2607
g49
(g50
g51
NtRp2608
(dp2609
g54
(dp2610
g62
I3
ssg63
g2604
sg56
(lp2611
g1143
asbasbasbag49
(g65
g51
NtRp2612
(dp2613
g54
(dp2614
sg63
g2545
sg56
(lp2615
g49
(g70
g51
NtRp2616
(dp2617
g54
(dp2618
g74
g75
ssg63
g2612
sg56
(lp2619
S'HTTP_ACCEPT_LANGUAGE'
p2620
asbag49
(g70
g51
NtRp2621
(dp2622
g54
(dp2623
g81
g82
ssg63
g2612
sg56
(lp2624
S':'
asbag49
(g70
g51
NtRp2625
(dp2626
g54
(dp2627
sg63
g2612
sg56
(lp2628
g49
(g50
g51
NtRp2629
(dp2630
g54
(dp2631
g62
I3
ssg63
g2625
sg56
(lp2632
g1165
asbasbasbag49
(g65
g51
NtRp2633
(dp2634
g54
(dp2635
sg63
g2545
sg56
(lp2636
g49
(g70
g51
NtRp2637
(dp2638
g54
(dp2639
g74
g75
ssg63
g2633
sg56
(lp2640
S'HTTP_CACHE_CONTROL'
p2641
asbag49
(g70
g51
NtRp2642
(dp2643
g54
(dp2644
g81
g82
ssg63
g2633
sg56
(lp2645
S':'
asbag49
(g70
g51
NtRp2646
(dp2647
g54
(dp2648
sg63
g2633
sg56
(lp2649
g49
(g50
g51
NtRp2650
(dp2651
g54
(dp2652
g62
I3
ssg63
g2646
sg56
(lp2653
g1187
asbasbasbag49
(g65
g51
NtRp2654
(dp2655
g54
(dp2656
sg63
g2545
sg56
(lp2657
g49
(g70
g51
NtRp2658
(dp2659
g54
(dp2660
g74
g75
ssg63
g2654
sg56
(lp2661
S'HTTP_CONNECTION'
p2662
asbag49
(g70
g51
NtRp2663
(dp2664
g54
(dp2665
g81
g82
ssg63
g2654
sg56
(lp2666
S':'
asbag49
(g70
g51
NtRp2667
(dp2668
g54
(dp2669
sg63
g2654
sg56
(lp2670
g49
(g50
g51
NtRp2671
(dp2672
g54
(dp2673
g62
I3
ssg63
g2667
sg56
(lp2674
g1209
asbasbasbag49
(g65
g51
NtRp2675
(dp2676
g54
(dp2677
sg63
g2545
sg56
(lp2678
g49
(g70
g51
NtRp2679
(dp2680
g54
(dp2681
g74
g75
ssg63
g2675
sg56
(lp2682
S'HTTP_COOKIE'
p2683
asbag49
(g70
g51
NtRp2684
(dp2685
g54
(dp2686
g81
g82
ssg63
g2675
sg56
(lp2687
S':'
asbag49
(g70
g51
NtRp2688
(dp2689
g54
(dp2690
sg63
g2675
sg56
(lp2691
g49
(g50
g51
NtRp2692
(dp2693
g54
(dp2694
g62
I3
ssg63
g2688
sg56
(lp2695
g1231
asbasbasbag49
(g65
g51
NtRp2696
(dp2697
g54
(dp2698
sg63
g2545
sg56
(lp2699
g49
(g70
g51
NtRp2700
(dp2701
g54
(dp2702
g74
g75
ssg63
g2696
sg56
(lp2703
S'HTTP_HOST'
p2704
asbag49
(g70
g51
NtRp2705
(dp2706
g54
(dp2707
g81
g82
ssg63
g2696
sg56
(lp2708
S':'
asbag49
(g70
g51
NtRp2709
(dp2710
g54
(dp2711
sg63
g2696
sg56
(lp2712
g49
(g50
g51
NtRp2713
(dp2714
g54
(dp2715
g62
I3
ssg63
g2709
sg56
(lp2716
g1253
asbasbasbag49
(g65
g51
NtRp2717
(dp2718
g54
(dp2719
sg63
g2545
sg56
(lp2720
g49
(g70
g51
NtRp2721
(dp2722
g54
(dp2723
g74
g75
ssg63
g2717
sg56
(lp2724
S'HTTP_REFERER'
p2725
asbag49
(g70
g51
NtRp2726
(dp2727
g54
(dp2728
g81
g82
ssg63
g2717
sg56
(lp2729
S':'
asbag49
(g70
g51
NtRp2730
(dp2731
g54
(dp2732
sg63
g2717
sg56
(lp2733
g49
(g50
g51
NtRp2734
(dp2735
g54
(dp2736
g62
I3
ssg63
g2730
sg56
(lp2737
g1275
asbasbasbag49
(g65
g51
NtRp2738
(dp2739
g54
(dp2740
sg63
g2545
sg56
(lp2741
g49
(g70
g51
NtRp2742
(dp2743
g54
(dp2744
g74
g75
ssg63
g2738
sg56
(lp2745
S'HTTP_USER_AGENT'
p2746
asbag49
(g70
g51
NtRp2747
(dp2748
g54
(dp2749
g81
g82
ssg63
g2738
sg56
(lp2750
S':'
asbag49
(g70
g51
NtRp2751
(dp2752
g54
(dp2753
sg63
g2738
sg56
(lp2754
g49
(g50
g51
NtRp2755
(dp2756
g54
(dp2757
g62
I3
ssg63
g2751
sg56
(lp2758
g1297
asbasbasbag49
(g65
g51
NtRp2759
(dp2760
g54
(dp2761
sg63
g2545
sg56
(lp2762
g49
(g70
g51
NtRp2763
(dp2764
g54
(dp2765
g74
g75
ssg63
g2759
sg56
(lp2766
S'PATH_INFO'
p2767
asbag49
(g70
g51
NtRp2768
(dp2769
g54
(dp2770
g81
g82
ssg63
g2759
sg56
(lp2771
S':'
asbag49
(g70
g51
NtRp2772
(dp2773
g54
(dp2774
sg63
g2759
sg56
(lp2775
g49
(g50
g51
NtRp2776
(dp2777
g54
(dp2778
g62
I3
ssg63
g2772
sg56
(lp2779
g1361
asbasbasbag49
(g65
g51
NtRp2780
(dp2781
g54
(dp2782
sg63
g2545
sg56
(lp2783
g49
(g70
g51
NtRp2784
(dp2785
g54
(dp2786
g74
g75
ssg63
g2780
sg56
(lp2787
S'QUERY_STRING'
p2788
asbag49
(g70
g51
NtRp2789
(dp2790
g54
(dp2791
g81
g82
ssg63
g2780
sg56
(lp2792
S':'
asbag49
(g70
g51
NtRp2793
(dp2794
g54
(dp2795
sg63
g2780
sg56
(lp2796
g49
(g50
g51
NtRp2797
(dp2798
g54
(dp2799
g62
I3
ssg63
g2793
sg56
(lp2800
S''
asbasbasbag49
(g65
g51
NtRp2801
(dp2802
g54
(dp2803
sg63
g2545
sg56
(lp2804
g49
(g70
g51
NtRp2805
(dp2806
g54
(dp2807
g74
g75
ssg63
g2801
sg56
(lp2808
S'REMOTE_ADDR'
p2809
asbag49
(g70
g51
NtRp2810
(dp2811
g54
(dp2812
g81
g82
ssg63
g2801
sg56
(lp2813
S':'
asbag49
(g70
g51
NtRp2814
(dp2815
g54
(dp2816
sg63
g2801
sg56
(lp2817
g49
(g50
g51
NtRp2818
(dp2819
g54
(dp2820
g62
I3
ssg63
g2814
sg56
(lp2821
g182
asbasbasbag49
(g65
g51
NtRp2822
(dp2823
g54
(dp2824
sg63
g2545
sg56
(lp2825
g49
(g70
g51
NtRp2826
(dp2827
g54
(dp2828
g74
g75
ssg63
g2822
sg56
(lp2829
S'REMOTE_PORT'
p2830
asbag49
(g70
g51
NtRp2831
(dp2832
g54
(dp2833
g81
g82
ssg63
g2822
sg56
(lp2834
S':'
asbag49
(g70
g51
NtRp2835
(dp2836
g54
(dp2837
sg63
g2822
sg56
(lp2838
g49
(g50
g51
NtRp2839
(dp2840
g54
(dp2841
g62
I3
ssg63
g2835
sg56
(lp2842
g1425
asbasbasbag49
(g65
g51
NtRp2843
(dp2844
g54
(dp2845
sg63
g2545
sg56
(lp2846
g49
(g70
g51
NtRp2847
(dp2848
g54
(dp2849
g74
g75
ssg63
g2843
sg56
(lp2850
S'REQUEST_METHOD'
p2851
asbag49
(g70
g51
NtRp2852
(dp2853
g54
(dp2854
g81
g82
ssg63
g2843
sg56
(lp2855
S':'
asbag49
(g70
g51
NtRp2856
(dp2857
g54
(dp2858
sg63
g2843
sg56
(lp2859
g49
(g50
g51
NtRp2860
(dp2861
g54
(dp2862
g62
I3
ssg63
g2856
sg56
(lp2863
g1447
asbasbasbag49
(g65
g51
NtRp2864
(dp2865
g54
(dp2866
sg63
g2545
sg56
(lp2867
g49
(g70
g51
NtRp2868
(dp2869
g54
(dp2870
g74
g75
ssg63
g2864
sg56
(lp2871
S'SCRIPT_NAME'
p2872
asbag49
(g70
g51
NtRp2873
(dp2874
g54
(dp2875
g81
g82
ssg63
g2864
sg56
(lp2876
S':'
asbag49
(g70
g51
NtRp2877
(dp2878
g54
(dp2879
sg63
g2864
sg56
(lp2880
g49
(g50
g51
NtRp2881
(dp2882
g54
(dp2883
g62
I3
ssg63
g2877
sg56
(lp2884
S''
asbasbasbag49
(g65
g51
NtRp2885
(dp2886
g54
(dp2887
sg63
g2545
sg56
(lp2888
g49
(g70
g51
NtRp2889
(dp2890
g54
(dp2891
g74
g75
ssg63
g2885
sg56
(lp2892
S'SERVER_NAME'
p2893
asbag49
(g70
g51
NtRp2894
(dp2895
g54
(dp2896
g81
g82
ssg63
g2885
sg56
(lp2897
S':'
asbag49
(g70
g51
NtRp2898
(dp2899
g54
(dp2900
sg63
g2885
sg56
(lp2901
g49
(g50
g51
NtRp2902
(dp2903
g54
(dp2904
g62
I3
ssg63
g2898
sg56
(lp2905
g1490
asbasbasbag49
(g65
g51
NtRp2906
(dp2907
g54
(dp2908
sg63
g2545
sg56
(lp2909
g49
(g70
g51
NtRp2910
(dp2911
g54
(dp2912
g74
g75
ssg63
g2906
sg56
(lp2913
S'SERVER_PORT'
p2914
asbag49
(g70
g51
NtRp2915
(dp2916
g54
(dp2917
g81
g82
ssg63
g2906
sg56
(lp2918
S':'
asbag49
(g70
g51
NtRp2919
(dp2920
g54
(dp2921
sg63
g2906
sg56
(lp2922
g49
(g50
g51
NtRp2923
(dp2924
g54
(dp2925
g62
I3
ssg63
g2919
sg56
(lp2926
g1512
asbasbasbag49
(g65
g51
NtRp2927
(dp2928
g54
(dp2929
sg63
g2545
sg56
(lp2930
g49
(g70
g51
NtRp2931
(dp2932
g54
(dp2933
g74
g75
ssg63
g2927
sg56
(lp2934
S'SERVER_PROTOCOL'
p2935
asbag49
(g70
g51
NtRp2936
(dp2937
g54
(dp2938
g81
g82
ssg63
g2927
sg56
(lp2939
S':'
asbag49
(g70
g51
NtRp2940
(dp2941
g54
(dp2942
sg63
g2927
sg56
(lp2943
g49
(g50
g51
NtRp2944
(dp2945
g54
(dp2946
g62
I3
ssg63
g2940
sg56
(lp2947
g1534
asbasbasbag49
(g65
g51
NtRp2948
(dp2949
g54
(dp2950
sg63
g2545
sg56
(lp2951
g49
(g70
g51
NtRp2952
(dp2953
g54
(dp2954
g74
g75
ssg63
g2948
sg56
(lp2955
S'SERVER_SOFTWARE'
p2956
asbag49
(g70
g51
NtRp2957
(dp2958
g54
(dp2959
g81
g82
ssg63
g2948
sg56
(lp2960
S':'
asbag49
(g70
g51
NtRp2961
(dp2962
g54
(dp2963
sg63
g2948
sg56
(lp2964
g49
(g50
g51
NtRp2965
(dp2966
g54
(dp2967
g62
I3
ssg63
g2961
sg56
(lp2968
g1556
asbasbasbag49
(g65
g51
NtRp2969
(dp2970
g54
(dp2971
sg63
g2545
sg56
(lp2972
g49
(g70
g51
NtRp2973
(dp2974
g54
(dp2975
g74
g75
ssg63
g2969
sg56
(lp2976
S'wsgi.errors'
p2977
asbag49
(g70
g51
NtRp2978
(dp2979
g54
(dp2980
g81
g82
ssg63
g2969
sg56
(lp2981
S':'
asbag49
(g70
g51
NtRp2982
(dp2983
g54
(dp2984
sg63
g2969
sg56
(lp2985
g49
(g50
g51
NtRp2986
(dp2987
g54
(dp2988
g62
I3
ssg63
g2982
sg56
(lp2989
S'<__main__.Stderr object at 0x01667670>'
p2990
asbasbasbag49
(g65
g51
NtRp2991
(dp2992
g54
(dp2993
sg63
g2545
sg56
(lp2994
g49
(g70
g51
NtRp2995
(dp2996
g54
(dp2997
g74
g75
ssg63
g2991
sg56
(lp2998
S'wsgi.file_wrapper'
p2999
asbag49
(g70
g51
NtRp3000
(dp3001
g54
(dp3002
g81
g82
ssg63
g2991
sg56
(lp3003
S':'
asbag49
(g70
g51
NtRp3004
(dp3005
g54
(dp3006
sg63
g2991
sg56
(lp3007
g49
(g50
g51
NtRp3008
(dp3009
g54
(dp3010
g62
I3
ssg63
g3004
sg56
(lp3011
S'<class wsgiref.util.FileWrapper at 0x02532210>'
p3012
asbasbasbag49
(g65
g51
NtRp3013
(dp3014
g54
(dp3015
sg63
g2545
sg56
(lp3016
g49
(g70
g51
NtRp3017
(dp3018
g54
(dp3019
g74
g75
ssg63
g3013
sg56
(lp3020
S'wsgi.input'
p3021
asbag49
(g70
g51
NtRp3022
(dp3023
g54
(dp3024
g81
g82
ssg63
g3013
sg56
(lp3025
S':'
asbag49
(g70
g51
NtRp3026
(dp3027
g54
(dp3028
sg63
g3013
sg56
(lp3029
g49
(g50
g51
NtRp3030
(dp3031
g54
(dp3032
g62
I3
ssg63
g3026
sg56
(lp3033
S'<cStringIO.StringO object at 0x059CDE60>'
p3034
asbasbasbag49
(g65
g51
NtRp3035
(dp3036
g54
(dp3037
sg63
g2545
sg56
(lp3038
g49
(g70
g51
NtRp3039
(dp3040
g54
(dp3041
g74
g75
ssg63
g3035
sg56
(lp3042
S'wsgi.multiprocess'
p3043
asbag49
(g70
g51
NtRp3044
(dp3045
g54
(dp3046
g81
g82
ssg63
g3035
sg56
(lp3047
S':'
asbag49
(g70
g51
NtRp3048
(dp3049
g54
(dp3050
sg63
g3035
sg56
(lp3051
g49
(g50
g51
NtRp3052
(dp3053
g54
(dp3054
g62
I3
ssg63
g3048
sg56
(lp3055
g92
asbasbasbag49
(g65
g51
NtRp3056
(dp3057
g54
(dp3058
sg63
g2545
sg56
(lp3059
g49
(g70
g51
NtRp3060
(dp3061
g54
(dp3062
g74
g75
ssg63
g3056
sg56
(lp3063
S'wsgi.multithread'
p3064
asbag49
(g70
g51
NtRp3065
(dp3066
g54
(dp3067
g81
g82
ssg63
g3056
sg56
(lp3068
S':'
asbag49
(g70
g51
NtRp3069
(dp3070
g54
(dp3071
sg63
g3056
sg56
(lp3072
g49
(g50
g51
NtRp3073
(dp3074
g54
(dp3075
g62
I3
ssg63
g3069
sg56
(lp3076
g1796
asbasbasbag49
(g65
g51
NtRp3077
(dp3078
g54
(dp3079
sg63
g2545
sg56
(lp3080
g49
(g70
g51
NtRp3081
(dp3082
g54
(dp3083
g74
g75
ssg63
g3077
sg56
(lp3084
S'wsgi.run_once'
p3085
asbag49
(g70
g51
NtRp3086
(dp3087
g54
(dp3088
g81
g82
ssg63
g3077
sg56
(lp3089
S':'
asbag49
(g70
g51
NtRp3090
(dp3091
g54
(dp3092
sg63
g3077
sg56
(lp3093
g49
(g50
g51
NtRp3094
(dp3095
g54
(dp3096
g62
I3
ssg63
g3090
sg56
(lp3097
g92
asbasbasbag49
(g65
g51
NtRp3098
(dp3099
g54
(dp3100
sg63
g2545
sg56
(lp3101
g49
(g70
g51
NtRp3102
(dp3103
g54
(dp3104
g74
g75
ssg63
g3098
sg56
(lp3105
S'wsgi.url_scheme'
p3106
asbag49
(g70
g51
NtRp3107
(dp3108
g54
(dp3109
g81
g82
ssg63
g3098
sg56
(lp3110
S':'
asbag49
(g70
g51
NtRp3111
(dp3112
g54
(dp3113
sg63
g3098
sg56
(lp3114
g49
(g50
g51
NtRp3115
(dp3116
g54
(dp3117
g62
I3
ssg63
g3111
sg56
(lp3118
g1839
asbasbasbag49
(g65
g51
NtRp3119
(dp3120
g54
(dp3121
sg63
g2545
sg56
(lp3122
g49
(g70
g51
NtRp3123
(dp3124
g54
(dp3125
g74
g75
ssg63
g3119
sg56
(lp3126
S'wsgi.version'
p3127
asbag49
(g70
g51
NtRp3128
(dp3129
g54
(dp3130
g81
g82
ssg63
g3119
sg56
(lp3131
S':'
asbag49
(g70
g51
NtRp3132
(dp3133
g54
(dp3134
sg63
g3119
sg56
(lp3135
g49
(g50
g51
NtRp3136
(dp3137
g54
(dp3138
g62
I3
ssg63
g3132
sg56
(lp3139
S'1'
asbasbasbasbasbasbasbasbasbasbasbasbasbsS'frames'
p3140
(lp3141
(dp3142
S'file'
p3143
S'C:\\Users\\omkara\\Desktop\\web2py\\gluon\\restricted.py'
p3144
sS'dump'
p3145
(dp3146
sS'lnum'
p3147
I205
sS'lines'
p3148
(dp3149
sS'call'
p3150
S'(code="# coding: utf8\\ndb = DAL(\'mysql://root:@localhost...ne_tables(username=False)    #Creating the table\\n", environment={\'A\': <class \'gluon.html.A\'>, \'Auth\': <class \'gluon.tools.Auth\'>, \'B\': <class \'gluon.html.B\'>, \'BEAUTIFY\': <class \'gluon.html.BEAUTIFY\'>, \'BODY\': <class \'gluon.html.BODY\'>, \'BR\': <class \'gluon.html.BR\'>, \'BUTTON\': <class \'gluon.html.BUTTON\'>, \'CAT\': <class \'gluon.html.CAT\'>, \'CENTER\': <class \'gluon.html.CENTER\'>, \'CLEANUP\': <class \'gluon.validators.CLEANUP\'>, ...}, layer=r\'C:\\Users\\omkara\\Desktop\\web2py\\applications\\SlugBarter\\models\\registerForm.py\')'
p3151
sS'func'
p3152
S'restricted'
p3153
sa(dp3154
g3143
S'C:\\Users\\omkara\\Desktop\\web2py\\applications\\SlugBarter\\models\\registerForm.py'
p3155
sg3145
(dp3156
sg3147
I2
sg3148
(dp3157
I2
S"db = DAL('mysql://root:@localhost/critic')"
p3158
sI3
S'from gluon.tools import Auth'
p3159
sI4
S'auth = Auth(globals(), db)'
p3160
sI5
S''
sI6
S'db.define_table('
p3161
sI7
S"    'user',"
p3162
sI8
S"    Field('first_name', length=128, default=''),"
p3163
sI9
S"    Field('last_name', length=128, default=''),"
p3164
sI10
S"    Field('email', length=128, unique=True),"
p3165
sI11
S"    Field('username', length=100, unique=True),"
p3166
ssg3150
S'()'
p3167
sg3152
S'<module>'
p3168
sa(dp3169
g3143
S'C:\\Users\\omkara\\Desktop\\web2py\\gluon\\dal.py'
p3170
sg3145
(dp3171
sg3147
I5968
sg3148
(dp3172
sg3150
S"(self=<DAL {'_lastsql': '', '_db_codec': 'UTF-8', '_ti...table)s', '_pool_size': 0, '_common_fields': []}>, uri='mysql://root:@localhost/critic', pool_size=0, folder=None, db_codec='UTF-8', check_reserved=None, migrate=True, fake_migrate=False, migrate_enabled=True, fake_migrate_all=False, decode_credentials=False, driver_args=None, adapter_args=None, attempts=5, auto_import=False)"
p3173
sg3152
g42
sasS'pyver'
p3174
S'Python 2.5.4: C:\\Users\\omkara\\Desktop\\web2py\\web2py_no_console.exe'
p3175
sS'session'
p3176
g49
(g50
g51
NtRp3177
(dp3178
g54
(dp3179
sg56
(lp3180
g49
(g58
g51
NtRp3181
(dp3182
g54
(dp3183
g62
I5
ssg63
Nsg56
(lp3184
g49
(g65
g51
NtRp3185
(dp3186
g54
(dp3187
sg63
g3181
sg56
(lp3188
g49
(g70
g51
NtRp3189
(dp3190
g54
(dp3191
g74
g75
ssg63
g3185
sg56
(lp3192
S'last_query'
p3193
asbag49
(g70
g51
NtRp3194
(dp3195
g54
(dp3196
g81
g82
ssg63
g3185
sg56
(lp3197
S':'
asbag49
(g70
g51
NtRp3198
(dp3199
g54
(dp3200
sg63
g3185
sg56
(lp3201
g49
(g50
g51
NtRp3202
(dp3203
g54
(dp3204
g62
I5
ssg63
g3198
sg56
(lp3205
S'db.auth_user.id>0'
p3206
asbasbasbasbasbsS'etype'
p3207
S"<type 'exceptions.RuntimeError'>"
p3208
sS'date'
p3209
S'Sat Nov 10 11:25:03 2012'
p3210
sS'response'
p3211
g49
(g50
g51
NtRp3212
(dp3213
g54
(dp3214
sg56
(lp3215
g49
(g58
g51
NtRp3216
(dp3217
g54
(dp3218
g62
I5
ssg63
Nsg56
(lp3219
g49
(g65
g51
NtRp3220
(dp3221
g54
(dp3222
sg63
g3216
sg56
(lp3223
g49
(g70
g51
NtRp3224
(dp3225
g54
(dp3226
g74
g75
ssg63
g3220
sg56
(lp3227
g147
asbag49
(g70
g51
NtRp3228
(dp3229
g54
(dp3230
g81
g82
ssg63
g3220
sg56
(lp3231
S':'
asbag49
(g70
g51
NtRp3232
(dp3233
g54
(dp3234
sg63
g3220
sg56
(lp3235
g49
(g50
g51
NtRp3236
(dp3237
g54
(dp3238
g62
I5
ssg63
g3232
sg56
(lp3239
S'<cStringIO.StringO object at 0x059CD360>'
p3240
asbasbasbag49
(g65
g51
NtRp3241
(dp3242
g54
(dp3243
sg63
g3216
sg56
(lp3244
g49
(g70
g51
NtRp3245
(dp3246
g54
(dp3247
g74
g75
ssg63
g3241
sg56
(lp3248
g213
asbag49
(g70
g51
NtRp3249
(dp3250
g54
(dp3251
g81
g82
ssg63
g3241
sg56
(lp3252
S':'
asbag49
(g70
g51
NtRp3253
(dp3254
g54
(dp3255
sg63
g3241
sg56
(lp3256
g49
(g50
g51
NtRp3257
(dp3258
g54
(dp3259
g62
I5
ssg63
g3253
sg56
(lp3260
g49
(g58
g51
NtRp3261
(dp3262
g54
(dp3263
g62
I4
ssg63
Nsg56
(lp3264
g49
(g65
g51
NtRp3265
(dp3266
g54
(dp3267
sg63
g3261
sg56
(lp3268
g49
(g70
g51
NtRp3269
(dp3270
g54
(dp3271
g74
g75
ssg63
g3265
sg56
(lp3272
S'session_id_slugbarter'
p3273
asbag49
(g70
g51
NtRp3274
(dp3275
g54
(dp3276
g81
g82
ssg63
g3265
sg56
(lp3277
S':'
asbag49
(g70
g51
NtRp3278
(dp3279
g54
(dp3280
sg63
g3265
sg56
(lp3281
g49
(g50
g51
NtRp3282
(dp3283
g54
(dp3284
g62
I4
ssg63
g3278
sg56
(lp3285
g49
(g58
g51
NtRp3286
(dp3287
g54
(dp3288
g62
I3
ssg63
Nsg56
(lp3289
g49
(g65
g51
NtRp3290
(dp3291
g54
(dp3292
sg63
g3286
sg56
(lp3293
g49
(g70
g51
NtRp3294
(dp3295
g54
(dp3296
g74
g75
ssg63
g3290
sg56
(lp3297
g263
asbag49
(g70
g51
NtRp3298
(dp3299
g54
(dp3300
g81
g82
ssg63
g3290
sg56
(lp3301
S':'
asbag49
(g70
g51
NtRp3302
(dp3303
g54
(dp3304
sg63
g3290
sg56
(lp3305
g49
(g50
g51
NtRp3306
(dp3307
g54
(dp3308
g62
I3
ssg63
g3302
sg56
(lp3309
S''
asbasbasbag49
(g65
g51
NtRp3310
(dp3311
g54
(dp3312
sg63
g3286
sg56
(lp3313
g49
(g70
g51
NtRp3314
(dp3315
g54
(dp3316
g74
g75
ssg63
g3310
sg56
(lp3317
g284
asbag49
(g70
g51
NtRp3318
(dp3319
g54
(dp3320
g81
g82
ssg63
g3310
sg56
(lp3321
S':'
asbag49
(g70
g51
NtRp3322
(dp3323
g54
(dp3324
sg63
g3310
sg56
(lp3325
g49
(g50
g51
NtRp3326
(dp3327
g54
(dp3328
g62
I3
ssg63
g3322
sg56
(lp3329
S''
asbasbasbag49
(g65
g51
NtRp3330
(dp3331
g54
(dp3332
sg63
g3286
sg56
(lp3333
g49
(g70
g51
NtRp3334
(dp3335
g54
(dp3336
g74
g75
ssg63
g3330
sg56
(lp3337
g305
asbag49
(g70
g51
NtRp3338
(dp3339
g54
(dp3340
g81
g82
ssg63
g3330
sg56
(lp3341
S':'
asbag49
(g70
g51
NtRp3342
(dp3343
g54
(dp3344
sg63
g3330
sg56
(lp3345
g49
(g50
g51
NtRp3346
(dp3347
g54
(dp3348
g62
I3
ssg63
g3342
sg56
(lp3349
S''
asbasbasbag49
(g65
g51
NtRp3350
(dp3351
g54
(dp3352
sg63
g3286
sg56
(lp3353
g49
(g70
g51
NtRp3354
(dp3355
g54
(dp3356
g74
g75
ssg63
g3350
sg56
(lp3357
g326
asbag49
(g70
g51
NtRp3358
(dp3359
g54
(dp3360
g81
g82
ssg63
g3350
sg56
(lp3361
S':'
asbag49
(g70
g51
NtRp3362
(dp3363
g54
(dp3364
sg63
g3350
sg56
(lp3365
g49
(g50
g51
NtRp3366
(dp3367
g54
(dp3368
g62
I3
ssg63
g3362
sg56
(lp3369
S''
asbasbasbag49
(g65
g51
NtRp3370
(dp3371
g54
(dp3372
sg63
g3286
sg56
(lp3373
g49
(g70
g51
NtRp3374
(dp3375
g54
(dp3376
g74
g75
ssg63
g3370
sg56
(lp3377
g347
asbag49
(g70
g51
NtRp3378
(dp3379
g54
(dp3380
g81
g82
ssg63
g3370
sg56
(lp3381
S':'
asbag49
(g70
g51
NtRp3382
(dp3383
g54
(dp3384
sg63
g3370
sg56
(lp3385
g49
(g50
g51
NtRp3386
(dp3387
g54
(dp3388
g62
I3
ssg63
g3382
sg56
(lp3389
S'/'
asbasbasbag49
(g65
g51
NtRp3390
(dp3391
g54
(dp3392
sg63
g3286
sg56
(lp3393
g49
(g70
g51
NtRp3394
(dp3395
g54
(dp3396
g74
g75
ssg63
g3390
sg56
(lp3397
g368
asbag49
(g70
g51
NtRp3398
(dp3399
g54
(dp3400
g81
g82
ssg63
g3390
sg56
(lp3401
S':'
asbag49
(g70
g51
NtRp3402
(dp3403
g54
(dp3404
sg63
g3390
sg56
(lp3405
g49
(g50
g51
NtRp3406
(dp3407
g54
(dp3408
g62
I3
ssg63
g3402
sg56
(lp3409
S''
asbasbasbag49
(g65
g51
NtRp3410
(dp3411
g54
(dp3412
sg63
g3286
sg56
(lp3413
g49
(g70
g51
NtRp3414
(dp3415
g54
(dp3416
g74
g75
ssg63
g3410
sg56
(lp3417
g389
asbag49
(g70
g51
NtRp3418
(dp3419
g54
(dp3420
g81
g82
ssg63
g3410
sg56
(lp3421
S':'
asbag49
(g70
g51
NtRp3422
(dp3423
g54
(dp3424
sg63
g3410
sg56
(lp3425
g49
(g50
g51
NtRp3426
(dp3427
g54
(dp3428
g62
I3
ssg63
g3422
sg56
(lp3429
S''
asbasbasbasbasbasbasbasbasbasbasbag49
(g65
g51
NtRp3430
(dp3431
g54
(dp3432
sg63
g3216
sg56
(lp3433
g49
(g70
g51
NtRp3434
(dp3435
g54
(dp3436
g74
g75
ssg63
g3430
sg56
(lp3437
S'delimiters'
p3438
asbag49
(g70
g51
NtRp3439
(dp3440
g54
(dp3441
g81
g82
ssg63
g3430
sg56
(lp3442
S':'
asbag49
(g70
g51
NtRp3443
(dp3444
g54
(dp3445
sg63
g3430
sg56
(lp3446
g49
(g50
g51
NtRp3447
(dp3448
g54
(dp3449
g62
I5
ssg63
g3443
sg56
(lp3450
g49
(g58
g51
NtRp3451
(dp3452
g54
(dp3453
g62
I4
ssg63
Nsg56
(lp3454
g49
(g65
g51
NtRp3455
(dp3456
g54
(dp3457
sg63
g3451
sg56
(lp3458
g49
(g70
g51
NtRp3459
(dp3460
g54
(dp3461
sg63
g3455
sg56
(lp3462
g49
(g50
g51
NtRp3463
(dp3464
g54
(dp3465
g62
I4
ssg63
g3459
sg56
(lp3466
S'{{'
p3467
asbasbasbag49
(g65
g51
NtRp3468
(dp3469
g54
(dp3470
sg63
g3451
sg56
(lp3471
g49
(g70
g51
NtRp3472
(dp3473
g54
(dp3474
sg63
g3468
sg56
(lp3475
g49
(g50
g51
NtRp3476
(dp3477
g54
(dp3478
g62
I4
ssg63
g3472
sg56
(lp3479
S'}}'
p3480
asbasbasbasbasbasbasbag49
(g65
g51
NtRp3481
(dp3482
g54
(dp3483
sg63
g3216
sg56
(lp3484
g49
(g70
g51
NtRp3485
(dp3486
g54
(dp3487
g74
g75
ssg63
g3481
sg56
(lp3488
S'files'
p3489
asbag49
(g70
g51
NtRp3490
(dp3491
g54
(dp3492
g81
g82
ssg63
g3481
sg56
(lp3493
S':'
asbag49
(g70
g51
NtRp3494
(dp3495
g54
(dp3496
sg63
g3481
sg56
(lp3497
g49
(g50
g51
NtRp3498
(dp3499
g54
(dp3500
g62
I5
ssg63
g3494
sg56
(lp3501
g49
(g58
g51
NtRp3502
(dp3503
g54
(dp3504
g62
I4
ssg63
Nsg56
(lp3505
sbasbasbasbag49
(g65
g51
NtRp3506
(dp3507
g54
(dp3508
sg63
g3216
sg56
(lp3509
g49
(g70
g51
NtRp3510
(dp3511
g54
(dp3512
g74
g75
ssg63
g3506
sg56
(lp3513
S'flash'
p3514
asbag49
(g70
g51
NtRp3515
(dp3516
g54
(dp3517
g81
g82
ssg63
g3506
sg56
(lp3518
S':'
asbag49
(g70
g51
NtRp3519
(dp3520
g54
(dp3521
sg63
g3506
sg56
(lp3522
g49
(g50
g51
NtRp3523
(dp3524
g54
(dp3525
g62
I5
ssg63
g3519
sg56
(lp3526
S''
asbasbasbag49
(g65
g51
NtRp3527
(dp3528
g54
(dp3529
sg63
g3216
sg56
(lp3530
g49
(g70
g51
NtRp3531
(dp3532
g54
(dp3533
g74
g75
ssg63
g3527
sg56
(lp3534
S'generic_patterns'
p3535
asbag49
(g70
g51
NtRp3536
(dp3537
g54
(dp3538
g81
g82
ssg63
g3527
sg56
(lp3539
S':'
asbag49
(g70
g51
NtRp3540
(dp3541
g54
(dp3542
sg63
g3527
sg56
(lp3543
g49
(g50
g51
NtRp3544
(dp3545
g54
(dp3546
g62
I5
ssg63
g3540
sg56
(lp3547
g49
(g58
g51
NtRp3548
(dp3549
g54
(dp3550
g62
I4
ssg63
Nsg56
(lp3551
g49
(g65
g51
NtRp3552
(dp3553
g54
(dp3554
sg63
g3548
sg56
(lp3555
g49
(g70
g51
NtRp3556
(dp3557
g54
(dp3558
sg63
g3552
sg56
(lp3559
g49
(g50
g51
NtRp3560
(dp3561
g54
(dp3562
g62
I4
ssg63
g3556
sg56
(lp3563
S'*'
asbasbasbasbasbasbasbag49
(g65
g51
NtRp3564
(dp3565
g54
(dp3566
sg63
g3216
sg56
(lp3567
g49
(g70
g51
NtRp3568
(dp3569
g54
(dp3570
g74
g75
ssg63
g3564
sg56
(lp3571
S'headers'
p3572
asbag49
(g70
g51
NtRp3573
(dp3574
g54
(dp3575
g81
g82
ssg63
g3564
sg56
(lp3576
S':'
asbag49
(g70
g51
NtRp3577
(dp3578
g54
(dp3579
sg63
g3564
sg56
(lp3580
g49
(g50
g51
NtRp3581
(dp3582
g54
(dp3583
g62
I5
ssg63
g3577
sg56
(lp3584
g49
(g58
g51
NtRp3585
(dp3586
g54
(dp3587
g62
I4
ssg63
Nsg56
(lp3588
g49
(g65
g51
NtRp3589
(dp3590
g54
(dp3591
sg63
g3585
sg56
(lp3592
g49
(g70
g51
NtRp3593
(dp3594
g54
(dp3595
g74
g75
ssg63
g3589
sg56
(lp3596
S'Cache-Control'
p3597
asbag49
(g70
g51
NtRp3598
(dp3599
g54
(dp3600
g81
g82
ssg63
g3589
sg56
(lp3601
S':'
asbag49
(g70
g51
NtRp3602
(dp3603
g54
(dp3604
sg63
g3589
sg56
(lp3605
g49
(g50
g51
NtRp3606
(dp3607
g54
(dp3608
g62
I4
ssg63
g3602
sg56
(lp3609
S'no-store, no-cache, must-revalidate, post-check=0, pre-check=0'
p3610
asbasbasbag49
(g65
g51
NtRp3611
(dp3612
g54
(dp3613
sg63
g3585
sg56
(lp3614
g49
(g70
g51
NtRp3615
(dp3616
g54
(dp3617
g74
g75
ssg63
g3611
sg56
(lp3618
S'Content-Type'
p3619
asbag49
(g70
g51
NtRp3620
(dp3621
g54
(dp3622
g81
g82
ssg63
g3611
sg56
(lp3623
S':'
asbag49
(g70
g51
NtRp3624
(dp3625
g54
(dp3626
sg63
g3611
sg56
(lp3627
g49
(g50
g51
NtRp3628
(dp3629
g54
(dp3630
g62
I4
ssg63
g3624
sg56
(lp3631
S'text/html; charset=utf-8'
p3632
asbasbasbag49
(g65
g51
NtRp3633
(dp3634
g54
(dp3635
sg63
g3585
sg56
(lp3636
g49
(g70
g51
NtRp3637
(dp3638
g54
(dp3639
g74
g75
ssg63
g3633
sg56
(lp3640
S'Expires'
p3641
asbag49
(g70
g51
NtRp3642
(dp3643
g54
(dp3644
g81
g82
ssg63
g3633
sg56
(lp3645
S':'
asbag49
(g70
g51
NtRp3646
(dp3647
g54
(dp3648
sg63
g3633
sg56
(lp3649
g49
(g50
g51
NtRp3650
(dp3651
g54
(dp3652
g62
I4
ssg63
g3646
sg56
(lp3653
S'Sat, 10 Nov 2012 19:24:56 GMT'
p3654
asbasbasbag49
(g65
g51
NtRp3655
(dp3656
g54
(dp3657
sg63
g3585
sg56
(lp3658
g49
(g70
g51
NtRp3659
(dp3660
g54
(dp3661
g74
g75
ssg63
g3655
sg56
(lp3662
S'Pragma'
p3663
asbag49
(g70
g51
NtRp3664
(dp3665
g54
(dp3666
g81
g82
ssg63
g3655
sg56
(lp3667
S':'
asbag49
(g70
g51
NtRp3668
(dp3669
g54
(dp3670
sg63
g3655
sg56
(lp3671
g49
(g50
g51
NtRp3672
(dp3673
g54
(dp3674
g62
I4
ssg63
g3668
sg56
(lp3675
S'no-cache'
p3676
asbasbasbag49
(g65
g51
NtRp3677
(dp3678
g54
(dp3679
sg63
g3585
sg56
(lp3680
g49
(g70
g51
NtRp3681
(dp3682
g54
(dp3683
g74
g75
ssg63
g3677
sg56
(lp3684
S'X-Powered-By'
p3685
asbag49
(g70
g51
NtRp3686
(dp3687
g54
(dp3688
g81
g82
ssg63
g3677
sg56
(lp3689
S':'
asbag49
(g70
g51
NtRp3690
(dp3691
g54
(dp3692
sg63
g3677
sg56
(lp3693
g49
(g50
g51
NtRp3694
(dp3695
g54
(dp3696
g62
I4
ssg63
g3690
sg56
(lp3697
S'web2py'
p3698
asbasbasbasbasbasbasbag49
(g65
g51
NtRp3699
(dp3700
g54
(dp3701
sg63
g3216
sg56
(lp3702
g49
(g70
g51
NtRp3703
(dp3704
g54
(dp3705
g74
g75
ssg63
g3699
sg56
(lp3706
S'menu'
p3707
asbag49
(g70
g51
NtRp3708
(dp3709
g54
(dp3710
g81
g82
ssg63
g3699
sg56
(lp3711
S':'
asbag49
(g70
g51
NtRp3712
(dp3713
g54
(dp3714
sg63
g3699
sg56
(lp3715
g49
(g50
g51
NtRp3716
(dp3717
g54
(dp3718
g62
I5
ssg63
g3712
sg56
(lp3719
g49
(g58
g51
NtRp3720
(dp3721
g54
(dp3722
g62
I4
ssg63
Nsg56
(lp3723
g49
(g65
g51
NtRp3724
(dp3725
g54
(dp3726
sg63
g3720
sg56
(lp3727
g49
(g70
g51
NtRp3728
(dp3729
g54
(dp3730
sg63
g3724
sg56
(lp3731
g49
(g50
g51
NtRp3732
(dp3733
g54
(dp3734
g62
I4
ssg63
g3728
sg56
(lp3735
g49
(g58
g51
NtRp3736
(dp3737
g54
(dp3738
g62
I3
ssg63
Nsg56
(lp3739
g49
(g65
g51
NtRp3740
(dp3741
g54
(dp3742
sg63
g3736
sg56
(lp3743
g49
(g70
g51
NtRp3744
(dp3745
g54
(dp3746
sg63
g3740
sg56
(lp3747
g49
(g50
g51
NtRp3748
(dp3749
g54
(dp3750
g62
I3
ssg63
g3744
sg56
(lp3751
cgluon.languages
lazyT_unpickle
p3752
(S's\x04\x00\x00\x00Home'
tRp3753
asbasbasbag49
(g65
g51
NtRp3754
(dp3755
g54
(dp3756
sg63
g3736
sg56
(lp3757
g49
(g70
g51
NtRp3758
(dp3759
g54
(dp3760
sg63
g3754
sg56
(lp3761
g49
(g50
g51
NtRp3762
(dp3763
g54
(dp3764
g62
I3
ssg63
g3758
sg56
(lp3765
g92
asbasbasbag49
(g65
g51
NtRp3766
(dp3767
g54
(dp3768
sg63
g3736
sg56
(lp3769
g49
(g70
g51
NtRp3770
(dp3771
g54
(dp3772
sg63
g3766
sg56
(lp3773
g49
(g50
g51
NtRp3774
(dp3775
g54
(dp3776
g62
I3
ssg63
g3770
sg56
(lp3777
S'/SlugBarter/default/index'
p3778
asbasbasbag49
(g65
g51
NtRp3779
(dp3780
g54
(dp3781
sg63
g3736
sg56
(lp3782
g49
(g70
g51
NtRp3783
(dp3784
g54
(dp3785
sg63
g3779
sg56
(lp3786
g49
(g50
g51
NtRp3787
(dp3788
g54
(dp3789
g62
I3
ssg63
g3783
sg56
(lp3790
g49
(g58
g51
NtRp3791
(dp3792
g54
(dp3793
g62
I2
ssg63
Nsg56
(lp3794
sbasbasbasbasbasbasbasbag49
(g65
g51
NtRp3795
(dp3796
g54
(dp3797
sg63
g3720
sg56
(lp3798
g49
(g70
g51
NtRp3799
(dp3800
g54
(dp3801
sg63
g3795
sg56
(lp3802
g49
(g50
g51
NtRp3803
(dp3804
g54
(dp3805
g62
I4
ssg63
g3799
sg56
(lp3806
g49
(g58
g51
NtRp3807
(dp3808
g54
(dp3809
g62
I3
ssg63
Nsg56
(lp3810
g49
(g65
g51
NtRp3811
(dp3812
g54
(dp3813
sg63
g3807
sg56
(lp3814
g49
(g70
g51
NtRp3815
(dp3816
g54
(dp3817
sg63
g3811
sg56
(lp3818
g49
(g50
g51
NtRp3819
(dp3820
g54
(dp3821
g62
I3
ssg63
g3815
sg56
(lp3822
g49
(cgluon.html
SPAN
p3823
g51
NtRp3824
(dp3825
g54
(dp3826
g74
S'color:yellow'
p3827
ssg63
Nsg56
(lp3828
g3698
asbasbasbasbag49
(g65
g51
NtRp3829
(dp3830
g54
(dp3831
sg63
g3807
sg56
(lp3832
g49
(g70
g51
NtRp3833
(dp3834
g54
(dp3835
sg63
g3829
sg56
(lp3836
g49
(g50
g51
NtRp3837
(dp3838
g54
(dp3839
g62
I3
ssg63
g3833
sg56
(lp3840
g92
asbasbasbag49
(g65
g51
NtRp3841
(dp3842
g54
(dp3843
sg63
g3807
sg56
(lp3844
g49
(g70
g51
NtRp3845
(dp3846
g54
(dp3847
sg63
g3841
sg56
(lp3848
g49
(g50
g51
NtRp3849
(dp3850
g54
(dp3851
g62
I3
ssg63
g3845
sg56
(lp3852
S'None'
p3853
asbasbasbag49
(g65
g51
NtRp3854
(dp3855
g54
(dp3856
sg63
g3807
sg56
(lp3857
g49
(g70
g51
NtRp3858
(dp3859
g54
(dp3860
sg63
g3854
sg56
(lp3861
g49
(g50
g51
NtRp3862
(dp3863
g54
(dp3864
g62
I3
ssg63
g3858
sg56
(lp3865
g49
(g58
g51
NtRp3866
(dp3867
g54
(dp3868
g62
I2
ssg63
Nsg56
(lp3869
g49
(g65
g51
NtRp3870
(dp3871
g54
(dp3872
sg63
g3866
sg56
(lp3873
g49
(g70
g51
NtRp3874
(dp3875
g54
(dp3876
sg63
g3870
sg56
(lp3877
g49
(g50
g51
NtRp3878
(dp3879
g54
(dp3880
g62
I2
ssg63
g3874
sg56
(lp3881
g49
(g58
g51
NtRp3882
(dp3883
g54
(dp3884
g62
I1
ssg63
Nsg56
(lp3885
g49
(g65
g51
NtRp3886
(dp3887
g54
(dp3888
sg63
g3882
sg56
(lp3889
g49
(g70
g51
NtRp3890
(dp3891
g54
(dp3892
sg63
g3886
sg56
(lp3893
g49
(g50
g51
NtRp3894
(dp3895
g54
(dp3896
g62
I1
ssg63
g3890
sg56
(lp3897
g3752
(S's\x08\x00\x00\x00My Sites'
tRp3898
asbasbasbag49
(g65
g51
NtRp3899
(dp3900
g54
(dp3901
sg63
g3882
sg56
(lp3902
g49
(g70
g51
NtRp3903
(dp3904
g54
(dp3905
sg63
g3899
sg56
(lp3906
g49
(g50
g51
NtRp3907
(dp3908
g54
(dp3909
g62
I1
ssg63
g3903
sg56
(lp3910
I00
asbasbasbag49
(g65
g51
NtRp3911
(dp3912
g54
(dp3913
sg63
g3882
sg56
(lp3914
g49
(g70
g51
NtRp3915
(dp3916
g54
(dp3917
sg63
g3911
sg56
(lp3918
g49
(g50
g51
NtRp3919
(dp3920
g54
(dp3921
g62
I1
ssg63
g3915
sg56
(lp3922
S'/admin/default/site'
p3923
asbasbasbasbasbasbasbag49
(g65
g51
NtRp3924
(dp3925
g54
(dp3926
sg63
g3866
sg56
(lp3927
g49
(g70
g51
NtRp3928
(dp3929
g54
(dp3930
sg63
g3924
sg56
(lp3931
g49
(g50
g51
NtRp3932
(dp3933
g54
(dp3934
g62
I2
ssg63
g3928
sg56
(lp3935
g49
(g58
g51
NtRp3936
(dp3937
g54
(dp3938
g62
I1
ssg63
Nsg56
(lp3939
g49
(g65
g51
NtRp3940
(dp3941
g54
(dp3942
sg63
g3936
sg56
(lp3943
g49
(g70
g51
NtRp3944
(dp3945
g54
(dp3946
sg63
g3940
sg56
(lp3947
g49
(g50
g51
NtRp3948
(dp3949
g54
(dp3950
g62
I1
ssg63
g3944
sg56
(lp3951
g3752
(S's\x08\x00\x00\x00This App'
tRp3952
asbasbasbag49
(g65
g51
NtRp3953
(dp3954
g54
(dp3955
sg63
g3936
sg56
(lp3956
g49
(g70
g51
NtRp3957
(dp3958
g54
(dp3959
sg63
g3953
sg56
(lp3960
g49
(g50
g51
NtRp3961
(dp3962
g54
(dp3963
g62
I1
ssg63
g3957
sg56
(lp3964
I00
asbasbasbag49
(g65
g51
NtRp3965
(dp3966
g54
(dp3967
sg63
g3936
sg56
(lp3968
g49
(g70
g51
NtRp3969
(dp3970
g54
(dp3971
sg63
g3965
sg56
(lp3972
g49
(g50
g51
NtRp3973
(dp3974
g54
(dp3975
g62
I1
ssg63
g3969
sg56
(lp3976
S'/admin/default/design/SlugBarter'
p3977
asbasbasbag49
(g65
g51
NtRp3978
(dp3979
g54
(dp3980
sg63
g3936
sg56
(lp3981
g49
(g70
g51
NtRp3982
(dp3983
g54
(dp3984
sg63
g3978
sg56
(lp3985
g49
(g50
g51
NtRp3986
(dp3987
g54
(dp3988
g62
I1
ssg63
g3982
sg56
(lp3989
(lp3990
(g3752
(S's\n\x00\x00\x00Controller'
tRp3991
I00
S'/admin/default/edit/SlugBarter/controllers/default.py'
tp3992
a(g3752
(S's\x04\x00\x00\x00View'
tRp3993
I00
S'/admin/default/edit/SlugBarter/views/default/register.html'
tp3994
a(g3752
(S's\x06\x00\x00\x00Layout'
tRp3995
I00
S'/admin/default/edit/SlugBarter/views/layout.html'
tp3996
a(g3752
(S's\n\x00\x00\x00Stylesheet'
tRp3997
I00
S'/admin/default/edit/SlugBarter/static/css/web2py.css'
tp3998
a(g3752
(S's\x08\x00\x00\x00DB Model'
tRp3999
I00
S'/admin/default/edit/SlugBarter/models/db.py'
tp4000
a(g3752
(S's\n\x00\x00\x00Menu Model'
tRp4001
I00
S'/admin/default/edit/SlugBarter/models/menu.py'
tp4002
a(g3752
(S's\x08\x00\x00\x00Database'
tRp4003
I00
S'/SlugBarter/appadmin/index'
tp4004
a(g3752
(S's\x06\x00\x00\x00Errors'
tRp4005
I00
S'/admin/default/errors/SlugBarter'
tp4006
a(g3752
(S's\x05\x00\x00\x00About'
tRp4007
I00
S'/admin/default/about/SlugBarter'
tp4008
aasbasbasbasbasbasbasbag49
(g65
g51
NtRp4009
(dp4010
g54
(dp4011
sg63
g3866
sg56
(lp4012
g49
(g70
g51
NtRp4013
(dp4014
g54
(dp4015
sg63
g4009
sg56
(lp4016
g49
(g50
g51
NtRp4017
(dp4018
g54
(dp4019
g62
I2
ssg63
g4013
sg56
(lp4020
g49
(g58
g51
NtRp4021
(dp4022
g54
(dp4023
g62
I1
ssg63
Nsg56
(lp4024
g49
(g65
g51
NtRp4025
(dp4026
g54
(dp4027
sg63
g4021
sg56
(lp4028
g49
(g70
g51
NtRp4029
(dp4030
g54
(dp4031
sg63
g4025
sg56
(lp4032
g49
(g50
g51
NtRp4033
(dp4034
g54
(dp4035
g62
I1
ssg63
g4029
sg56
(lp4036
S'web2py.com'
p4037
asbasbasbag49
(g65
g51
NtRp4038
(dp4039
g54
(dp4040
sg63
g4021
sg56
(lp4041
g49
(g70
g51
NtRp4042
(dp4043
g54
(dp4044
sg63
g4038
sg56
(lp4045
g49
(g50
g51
NtRp4046
(dp4047
g54
(dp4048
g62
I1
ssg63
g4042
sg56
(lp4049
I00
asbasbasbag49
(g65
g51
NtRp4050
(dp4051
g54
(dp4052
sg63
g4021
sg56
(lp4053
g49
(g70
g51
NtRp4054
(dp4055
g54
(dp4056
sg63
g4050
sg56
(lp4057
g49
(g50
g51
NtRp4058
(dp4059
g54
(dp4060
g62
I1
ssg63
g4054
sg56
(lp4061
S'http://www.web2py.com'
p4062
asbasbasbag49
(g65
g51
NtRp4063
(dp4064
g54
(dp4065
sg63
g4021
sg56
(lp4066
g49
(g70
g51
NtRp4067
(dp4068
g54
(dp4069
sg63
g4063
sg56
(lp4070
g49
(g50
g51
NtRp4071
(dp4072
g54
(dp4073
g62
I1
ssg63
g4067
sg56
(lp4074
(lp4075
(g3752
(S's\x08\x00\x00\x00Download'
tRp4076
I00
S'http://www.web2py.com/examples/default/download'
p4077
tp4078
a(g3752
(S's\x07\x00\x00\x00Support'
tRp4079
I00
S'http://www.web2py.com/examples/default/support'
p4080
tp4081
a(g3752
(S's\x04\x00\x00\x00Demo'
tRp4082
I00
S'http://web2py.com/demo_admin'
p4083
tp4084
a(g3752
(S's\x0e\x00\x00\x00Quick Examples'
tRp4085
I00
S'http://web2py.com/examples/default/examples'
p4086
tp4087
a(g3752
(S's\x03\x00\x00\x00FAQ'
tRp4088
I00
S'http://web2py.com/AlterEgo'
p4089
tp4090
a(g3752
(S's\x06\x00\x00\x00Videos'
tRp4091
I00
S'http://www.web2py.com/examples/default/videos/'
p4092
tp4093
a(g3752
(S's\x11\x00\x00\x00Free Applications'
tRp4094
I00
S'http://web2py.com/appliances'
p4095
tp4096
a(g3752
(S's\x07\x00\x00\x00Plugins'
tRp4097
I00
S'http://web2py.com/plugins'
p4098
tp4099
a(g3752
(S's\x07\x00\x00\x00Layouts'
tRp4100
I00
S'http://web2py.com/layouts'
p4101
tp4102
a(g3752
(S's\x07\x00\x00\x00Recipes'
tRp4103
I00
S'http://web2pyslices.com/'
p4104
tp4105
a(g3752
(S's\x08\x00\x00\x00Semantic'
tRp4106
I00
S'http://web2py.com/semantic'
p4107
tp4108
aasbasbasbasbasbasbasbag49
(g65
g51
NtRp4109
(dp4110
g54
(dp4111
sg63
g3866
sg56
(lp4112
g49
(g70
g51
NtRp4113
(dp4114
g54
(dp4115
sg63
g4109
sg56
(lp4116
g49
(g50
g51
NtRp4117
(dp4118
g54
(dp4119
g62
I2
ssg63
g4113
sg56
(lp4120
g49
(g58
g51
NtRp4121
(dp4122
g54
(dp4123
g62
I1
ssg63
Nsg56
(lp4124
g49
(g65
g51
NtRp4125
(dp4126
g54
(dp4127
sg63
g4121
sg56
(lp4128
g49
(g70
g51
NtRp4129
(dp4130
g54
(dp4131
sg63
g4125
sg56
(lp4132
g49
(g50
g51
NtRp4133
(dp4134
g54
(dp4135
g62
I1
ssg63
g4129
sg56
(lp4136
g3752
(S's\r\x00\x00\x00Documentation'
tRp4137
asbasbasbag49
(g65
g51
NtRp4138
(dp4139
g54
(dp4140
sg63
g4121
sg56
(lp4141
g49
(g70
g51
NtRp4142
(dp4143
g54
(dp4144
sg63
g4138
sg56
(lp4145
g49
(g50
g51
NtRp4146
(dp4147
g54
(dp4148
g62
I1
ssg63
g4142
sg56
(lp4149
I00
asbasbasbag49
(g65
g51
NtRp4150
(dp4151
g54
(dp4152
sg63
g4121
sg56
(lp4153
g49
(g70
g51
NtRp4154
(dp4155
g54
(dp4156
sg63
g4150
sg56
(lp4157
g49
(g50
g51
NtRp4158
(dp4159
g54
(dp4160
g62
I1
ssg63
g4154
sg56
(lp4161
S'http://www.web2py.com/book'
p4162
asbasbasbag49
(g65
g51
NtRp4163
(dp4164
g54
(dp4165
sg63
g4121
sg56
(lp4166
g49
(g70
g51
NtRp4167
(dp4168
g54
(dp4169
sg63
g4163
sg56
(lp4170
g49
(g50
g51
NtRp4171
(dp4172
g54
(dp4173
g62
I1
ssg63
g4167
sg56
(lp4174
(lp4175
(g3752
(S's\x07\x00\x00\x00Preface'
tRp4176
I00
S'http://www.web2py.com/book/default/chapter/00'
p4177
tp4178
a(g3752
(S's\x0c\x00\x00\x00Introduction'
tRp4179
I00
S'http://www.web2py.com/book/default/chapter/01'
p4180
tp4181
a(g3752
(S's\x06\x00\x00\x00Python'
tRp4182
I00
S'http://www.web2py.com/book/default/chapter/02'
p4183
tp4184
a(g3752
(S's\x08\x00\x00\x00Overview'
tRp4185
I00
S'http://www.web2py.com/book/default/chapter/03'
p4186
tp4187
a(g3752
(S's\x08\x00\x00\x00The Core'
tRp4188
I00
S'http://www.web2py.com/book/default/chapter/04'
p4189
tp4190
a(g3752
(S's\t\x00\x00\x00The Views'
tRp4191
I00
S'http://www.web2py.com/book/default/chapter/05'
p4192
tp4193
a(g3752
(S's\x08\x00\x00\x00Database'
tRp4194
I00
S'http://www.web2py.com/book/default/chapter/06'
p4195
tp4196
a(g3752
(S's\x14\x00\x00\x00Forms and Validators'
tRp4197
I00
S'http://www.web2py.com/book/default/chapter/07'
p4198
tp4199
a(g3752
(S's\r\x00\x00\x00Email and SMS'
tRp4200
I00
S'http://www.web2py.com/book/default/chapter/08'
p4201
tp4202
a(g3752
(S's\x0e\x00\x00\x00Access Control'
tRp4203
I00
S'http://www.web2py.com/book/default/chapter/09'
p4204
tp4205
a(g3752
(S's\x08\x00\x00\x00Services'
tRp4206
I00
S'http://www.web2py.com/book/default/chapter/10'
p4207
tp4208
a(g3752
(S's\x0c\x00\x00\x00Ajax Recipes'
tRp4209
I00
S'http://www.web2py.com/book/default/chapter/11'
p4210
tp4211
a(g3752
(S's\x16\x00\x00\x00Components and Plugins'
tRp4212
I00
S'http://www.web2py.com/book/default/chapter/12'
p4213
tp4214
a(g3752
(S's\x12\x00\x00\x00Deployment Recipes'
tRp4215
I00
S'http://www.web2py.com/book/default/chapter/13'
p4216
tp4217
a(g3752
(S's\r\x00\x00\x00Other Recipes'
tRp4218
I00
S'http://www.web2py.com/book/default/chapter/14'
p4219
tp4220
a(g3752
(S's\r\x00\x00\x00Buy this book'
tRp4221
I00
S'http://stores.lulu.com/web2py'
p4222
tp4223
aasbasbasbasbasbasbasbag49
(g65
g51
NtRp4224
(dp4225
g54
(dp4226
sg63
g3866
sg56
(lp4227
g49
(g70
g51
NtRp4228
(dp4229
g54
(dp4230
sg63
g4224
sg56
(lp4231
g49
(g50
g51
NtRp4232
(dp4233
g54
(dp4234
g62
I2
ssg63
g4228
sg56
(lp4235
g49
(g58
g51
NtRp4236
(dp4237
g54
(dp4238
g62
I1
ssg63
Nsg56
(lp4239
g49
(g65
g51
NtRp4240
(dp4241
g54
(dp4242
sg63
g4236
sg56
(lp4243
g49
(g70
g51
NtRp4244
(dp4245
g54
(dp4246
sg63
g4240
sg56
(lp4247
g49
(g50
g51
NtRp4248
(dp4249
g54
(dp4250
g62
I1
ssg63
g4244
sg56
(lp4251
g3752
(S's\t\x00\x00\x00Community'
tRp4252
asbasbasbag49
(g65
g51
NtRp4253
(dp4254
g54
(dp4255
sg63
g4236
sg56
(lp4256
g49
(g70
g51
NtRp4257
(dp4258
g54
(dp4259
sg63
g4253
sg56
(lp4260
g49
(g50
g51
NtRp4261
(dp4262
g54
(dp4263
g62
I1
ssg63
g4257
sg56
(lp4264
I00
asbasbasbag49
(g65
g51
NtRp4265
(dp4266
g54
(dp4267
sg63
g4236
sg56
(lp4268
g49
(g70
g51
NtRp4269
(dp4270
g54
(dp4271
sg63
g4265
sg56
(lp4272
g49
(g50
g51
NtRp4273
(dp4274
g54
(dp4275
g62
I1
ssg63
g4269
sg56
(lp4276
Nasbasbasbag49
(g65
g51
NtRp4277
(dp4278
g54
(dp4279
sg63
g4236
sg56
(lp4280
g49
(g70
g51
NtRp4281
(dp4282
g54
(dp4283
sg63
g4277
sg56
(lp4284
g49
(g50
g51
NtRp4285
(dp4286
g54
(dp4287
g62
I1
ssg63
g4281
sg56
(lp4288
(lp4289
(g3752
(S's\x06\x00\x00\x00Groups'
tRp4290
I00
S'http://www.web2py.com/examples/default/usergroups'
p4291
tp4292
a(g3752
(S's\x07\x00\x00\x00Twitter'
tRp4293
I00
S'http://twitter.com/web2py'
p4294
tp4295
a(g3752
(S's\t\x00\x00\x00Live Chat'
tRp4296
I00
S'http://webchat.freenode.net/?channels=web2py'
p4297
tp4298
aasbasbasbasbasbasbasbag49
(g65
g51
NtRp4299
(dp4300
g54
(dp4301
sg63
g3866
sg56
(lp4302
g49
(g70
g51
NtRp4303
(dp4304
g54
(dp4305
sg63
g4299
sg56
(lp4306
g49
(g50
g51
NtRp4307
(dp4308
g54
(dp4309
g62
I2
ssg63
g4303
sg56
(lp4310
g49
(g58
g51
NtRp4311
(dp4312
g54
(dp4313
g62
I1
ssg63
Nsg56
(lp4314
g49
(g65
g51
NtRp4315
(dp4316
g54
(dp4317
sg63
g4311
sg56
(lp4318
g49
(g70
g51
NtRp4319
(dp4320
g54
(dp4321
sg63
g4315
sg56
(lp4322
g49
(g50
g51
NtRp4323
(dp4324
g54
(dp4325
g62
I1
ssg63
g4319
sg56
(lp4326
g3752
(S's\x07\x00\x00\x00Plugins'
tRp4327
asbasbasbag49
(g65
g51
NtRp4328
(dp4329
g54
(dp4330
sg63
g4311
sg56
(lp4331
g49
(g70
g51
NtRp4332
(dp4333
g54
(dp4334
sg63
g4328
sg56
(lp4335
g49
(g50
g51
NtRp4336
(dp4337
g54
(dp4338
g62
I1
ssg63
g4332
sg56
(lp4339
I00
asbasbasbag49
(g65
g51
NtRp4340
(dp4341
g54
(dp4342
sg63
g4311
sg56
(lp4343
g49
(g70
g51
NtRp4344
(dp4345
g54
(dp4346
sg63
g4340
sg56
(lp4347
g49
(g50
g51
NtRp4348
(dp4349
g54
(dp4350
g62
I1
ssg63
g4344
sg56
(lp4351
Nasbasbasbag49
(g65
g51
NtRp4352
(dp4353
g54
(dp4354
sg63
g4311
sg56
(lp4355
g49
(g70
g51
NtRp4356
(dp4357
g54
(dp4358
sg63
g4352
sg56
(lp4359
g49
(g50
g51
NtRp4360
(dp4361
g54
(dp4362
g62
I1
ssg63
g4356
sg56
(lp4363
(lp4364
(S'plugin_wiki'
p4365
I00
S'http://web2py.com/examples/default/download'
p4366
tp4367
a(g3752
(S's\r\x00\x00\x00Other Plugins'
tRp4368
I00
g4098
tp4369
a(g3752
(S's\x0e\x00\x00\x00Layout Plugins'
tRp4370
I00
g4101
tp4371
aasbasbasbasbasbasbasbasbasbasbasbasbasbasbasbasbasbasbasbag49
(g65
g51
NtRp4372
(dp4373
g54
(dp4374
sg63
g3216
sg56
(lp4375
g49
(g70
g51
NtRp4376
(dp4377
g54
(dp4378
g74
g75
ssg63
g4372
sg56
(lp4379
S'meta'
p4380
asbag49
(g70
g51
NtRp4381
(dp4382
g54
(dp4383
g81
g82
ssg63
g4372
sg56
(lp4384
S':'
asbag49
(g70
g51
NtRp4385
(dp4386
g54
(dp4387
sg63
g4372
sg56
(lp4388
g49
(g50
g51
NtRp4389
(dp4390
g54
(dp4391
g62
I5
ssg63
g4385
sg56
(lp4392
g49
(g58
g51
NtRp4393
(dp4394
g54
(dp4395
g62
I4
ssg63
Nsg56
(lp4396
g49
(g65
g51
NtRp4397
(dp4398
g54
(dp4399
sg63
g4393
sg56
(lp4400
g49
(g70
g51
NtRp4401
(dp4402
g54
(dp4403
g74
g75
ssg63
g4397
sg56
(lp4404
S'author'
p4405
asbag49
(g70
g51
NtRp4406
(dp4407
g54
(dp4408
g81
g82
ssg63
g4397
sg56
(lp4409
S':'
asbag49
(g70
g51
NtRp4410
(dp4411
g54
(dp4412
sg63
g4397
sg56
(lp4413
g49
(g50
g51
NtRp4414
(dp4415
g54
(dp4416
g62
I4
ssg63
g4410
sg56
(lp4417
S'Your Name <you@example.com>'
p4418
asbasbasbag49
(g65
g51
NtRp4419
(dp4420
g54
(dp4421
sg63
g4393
sg56
(lp4422
g49
(g70
g51
NtRp4423
(dp4424
g54
(dp4425
g74
g75
ssg63
g4419
sg56
(lp4426
S'copyright'
p4427
asbag49
(g70
g51
NtRp4428
(dp4429
g54
(dp4430
g81
g82
ssg63
g4419
sg56
(lp4431
S':'
asbag49
(g70
g51
NtRp4432
(dp4433
g54
(dp4434
sg63
g4419
sg56
(lp4435
g49
(g50
g51
NtRp4436
(dp4437
g54
(dp4438
g62
I4
ssg63
g4432
sg56
(lp4439
S'Copyright 2011'
p4440
asbasbasbag49
(g65
g51
NtRp4441
(dp4442
g54
(dp4443
sg63
g4393
sg56
(lp4444
g49
(g70
g51
NtRp4445
(dp4446
g54
(dp4447
g74
g75
ssg63
g4441
sg56
(lp4448
S'description'
p4449
asbag49
(g70
g51
NtRp4450
(dp4451
g54
(dp4452
g81
g82
ssg63
g4441
sg56
(lp4453
S':'
asbag49
(g70
g51
NtRp4454
(dp4455
g54
(dp4456
sg63
g4441
sg56
(lp4457
g49
(g50
g51
NtRp4458
(dp4459
g54
(dp4460
g62
I4
ssg63
g4454
sg56
(lp4461
S'a cool new app'
p4462
asbasbasbag49
(g65
g51
NtRp4463
(dp4464
g54
(dp4465
sg63
g4393
sg56
(lp4466
g49
(g70
g51
NtRp4467
(dp4468
g54
(dp4469
g74
g75
ssg63
g4463
sg56
(lp4470
S'generator'
p4471
asbag49
(g70
g51
NtRp4472
(dp4473
g54
(dp4474
g81
g82
ssg63
g4463
sg56
(lp4475
S':'
asbag49
(g70
g51
NtRp4476
(dp4477
g54
(dp4478
sg63
g4463
sg56
(lp4479
g49
(g50
g51
NtRp4480
(dp4481
g54
(dp4482
g62
I4
ssg63
g4476
sg56
(lp4483
S'Web2py Web Framework'
p4484
asbasbasbag49
(g65
g51
NtRp4485
(dp4486
g54
(dp4487
sg63
g4393
sg56
(lp4488
g49
(g70
g51
NtRp4489
(dp4490
g54
(dp4491
g74
g75
ssg63
g4485
sg56
(lp4492
S'keywords'
p4493
asbag49
(g70
g51
NtRp4494
(dp4495
g54
(dp4496
g81
g82
ssg63
g4485
sg56
(lp4497
S':'
asbag49
(g70
g51
NtRp4498
(dp4499
g54
(dp4500
sg63
g4485
sg56
(lp4501
g49
(g50
g51
NtRp4502
(dp4503
g54
(dp4504
g62
I4
ssg63
g4498
sg56
(lp4505
S'web2py, python, framework'
p4506
asbasbasbasbasbasbasbag49
(g65
g51
NtRp4507
(dp4508
g54
(dp4509
sg63
g3216
sg56
(lp4510
g49
(g70
g51
NtRp4511
(dp4512
g54
(dp4513
g74
g75
ssg63
g4507
sg56
(lp4514
S'postprocessing'
p4515
asbag49
(g70
g51
NtRp4516
(dp4517
g54
(dp4518
g81
g82
ssg63
g4507
sg56
(lp4519
S':'
asbag49
(g70
g51
NtRp4520
(dp4521
g54
(dp4522
sg63
g4507
sg56
(lp4523
g49
(g50
g51
NtRp4524
(dp4525
g54
(dp4526
g62
I5
ssg63
g4520
sg56
(lp4527
g49
(g58
g51
NtRp4528
(dp4529
g54
(dp4530
g62
I4
ssg63
Nsg56
(lp4531
sbasbasbasbag49
(g65
g51
NtRp4532
(dp4533
g54
(dp4534
sg63
g3216
sg56
(lp4535
g49
(g70
g51
NtRp4536
(dp4537
g54
(dp4538
g74
g75
ssg63
g4532
sg56
(lp4539
S'session_file'
p4540
asbag49
(g70
g51
NtRp4541
(dp4542
g54
(dp4543
g81
g82
ssg63
g4532
sg56
(lp4544
S':'
asbag49
(g70
g51
NtRp4545
(dp4546
g54
(dp4547
sg63
g4532
sg56
(lp4548
g49
(g50
g51
NtRp4549
(dp4550
g54
(dp4551
g62
I5
ssg63
g4545
sg56
(lp4552
S"<open file 'C:\\Users\\omkara\\Desktop\\web2py\\applications\\SlugBarter\\sessions\\127.0.0.1-e6ebae72-1bbc-48a5-9458-95dbb65a4e54', mode 'rb+' at 0x05CDEF50>"
p4553
asbasbasbag49
(g65
g51
NtRp4554
(dp4555
g54
(dp4556
sg63
g3216
sg56
(lp4557
g49
(g70
g51
NtRp4558
(dp4559
g54
(dp4560
g74
g75
ssg63
g4554
sg56
(lp4561
S'session_filename'
p4562
asbag49
(g70
g51
NtRp4563
(dp4564
g54
(dp4565
g81
g82
ssg63
g4554
sg56
(lp4566
S':'
asbag49
(g70
g51
NtRp4567
(dp4568
g54
(dp4569
sg63
g4554
sg56
(lp4570
g49
(g50
g51
NtRp4571
(dp4572
g54
(dp4573
g62
I5
ssg63
g4567
sg56
(lp4574
S'C:\\Users\\omkara\\Desktop\\web2py\\applications\\SlugBarter\\sessions\\127.0.0.1-e6ebae72-1bbc-48a5-9458-95dbb65a4e54'
p4575
asbasbasbag49
(g65
g51
NtRp4576
(dp4577
g54
(dp4578
sg63
g3216
sg56
(lp4579
g49
(g70
g51
NtRp4580
(dp4581
g54
(dp4582
g74
g75
ssg63
g4576
sg56
(lp4583
S'session_id'
p4584
asbag49
(g70
g51
NtRp4585
(dp4586
g54
(dp4587
g81
g82
ssg63
g4576
sg56
(lp4588
S':'
asbag49
(g70
g51
NtRp4589
(dp4590
g54
(dp4591
sg63
g4576
sg56
(lp4592
g49
(g50
g51
NtRp4593
(dp4594
g54
(dp4595
g62
I5
ssg63
g4589
sg56
(lp4596
S'127.0.0.1-e6ebae72-1bbc-48a5-9458-95dbb65a4e54'
p4597
asbasbasbag49
(g65
g51
NtRp4598
(dp4599
g54
(dp4600
sg63
g3216
sg56
(lp4601
g49
(g70
g51
NtRp4602
(dp4603
g54
(dp4604
g74
g75
ssg63
g4598
sg56
(lp4605
S'session_id_name'
p4606
asbag49
(g70
g51
NtRp4607
(dp4608
g54
(dp4609
g81
g82
ssg63
g4598
sg56
(lp4610
S':'
asbag49
(g70
g51
NtRp4611
(dp4612
g54
(dp4613
sg63
g4598
sg56
(lp4614
g49
(g50
g51
NtRp4615
(dp4616
g54
(dp4617
g62
I5
ssg63
g4611
sg56
(lp4618
g3273
asbasbasbag49
(g65
g51
NtRp4619
(dp4620
g54
(dp4621
sg63
g3216
sg56
(lp4622
g49
(g70
g51
NtRp4623
(dp4624
g54
(dp4625
g74
g75
ssg63
g4619
sg56
(lp4626
S'session_locked'
p4627
asbag49
(g70
g51
NtRp4628
(dp4629
g54
(dp4630
g81
g82
ssg63
g4619
sg56
(lp4631
S':'
asbag49
(g70
g51
NtRp4632
(dp4633
g54
(dp4634
sg63
g4619
sg56
(lp4635
g49
(g50
g51
NtRp4636
(dp4637
g54
(dp4638
g62
I5
ssg63
g4632
sg56
(lp4639
g1796
asbasbasbag49
(g65
g51
NtRp4640
(dp4641
g54
(dp4642
sg63
g3216
sg56
(lp4643
g49
(g70
g51
NtRp4644
(dp4645
g54
(dp4646
g74
g75
ssg63
g4640
sg56
(lp4647
S'session_new'
p4648
asbag49
(g70
g51
NtRp4649
(dp4650
g54
(dp4651
g81
g82
ssg63
g4640
sg56
(lp4652
S':'
asbag49
(g70
g51
NtRp4653
(dp4654
g54
(dp4655
sg63
g4640
sg56
(lp4656
g49
(g50
g51
NtRp4657
(dp4658
g54
(dp4659
g62
I5
ssg63
g4653
sg56
(lp4660
g92
asbasbasbag49
(g65
g51
NtRp4661
(dp4662
g54
(dp4663
sg63
g3216
sg56
(lp4664
g49
(g70
g51
NtRp4665
(dp4666
g54
(dp4667
g74
g75
ssg63
g4661
sg56
(lp4668
S'status'
p4669
asbag49
(g70
g51
NtRp4670
(dp4671
g54
(dp4672
g81
g82
ssg63
g4661
sg56
(lp4673
S':'
asbag49
(g70
g51
NtRp4674
(dp4675
g54
(dp4676
sg63
g4661
sg56
(lp4677
g49
(g50
g51
NtRp4678
(dp4679
g54
(dp4680
g62
I5
ssg63
g4674
sg56
(lp4681
S'200'
p4682
asbasbasbag49
(g65
g51
NtRp4683
(dp4684
g54
(dp4685
sg63
g3216
sg56
(lp4686
g49
(g70
g51
NtRp4687
(dp4688
g54
(dp4689
g74
g75
ssg63
g4683
sg56
(lp4690
S'subtitle'
p4691
asbag49
(g70
g51
NtRp4692
(dp4693
g54
(dp4694
g81
g82
ssg63
g4683
sg56
(lp4695
S':'
asbag49
(g70
g51
NtRp4696
(dp4697
g54
(dp4698
sg63
g4683
sg56
(lp4699
g49
(g50
g51
NtRp4700
(dp4701
g54
(dp4702
g62
I5
ssg63
g4696
sg56
(lp4703
g3752
(S's\r\x00\x00\x00customize me!'
tRp4704
asbasbasbag49
(g65
g51
NtRp4705
(dp4706
g54
(dp4707
sg63
g3216
sg56
(lp4708
g49
(g70
g51
NtRp4709
(dp4710
g54
(dp4711
g74
g75
ssg63
g4705
sg56
(lp4712
S'title'
p4713
asbag49
(g70
g51
NtRp4714
(dp4715
g54
(dp4716
g81
g82
ssg63
g4705
sg56
(lp4717
S':'
asbag49
(g70
g51
NtRp4718
(dp4719
g54
(dp4720
sg63
g4705
sg56
(lp4721
g49
(g50
g51
NtRp4722
(dp4723
g54
(dp4724
g62
I5
ssg63
g4718
sg56
(lp4725
S'Slugbarter'
p4726
asbasbasbag49
(g65
g51
NtRp4727
(dp4728
g54
(dp4729
sg63
g3216
sg56
(lp4730
g49
(g70
g51
NtRp4731
(dp4732
g54
(dp4733
g74
g75
ssg63
g4727
sg56
(lp4734
g2460
asbag49
(g70
g51
NtRp4735
(dp4736
g54
(dp4737
g81
g82
ssg63
g4727
sg56
(lp4738
S':'
asbag49
(g70
g51
NtRp4739
(dp4740
g54
(dp4741
sg63
g4727
sg56
(lp4742
g49
(g50
g51
NtRp4743
(dp4744
g54
(dp4745
g62
I5
ssg63
g4739
sg56
(lp4746
g2473
asbasbasbag49
(g65
g51
NtRp4747
(dp4748
g54
(dp4749
sg63
g3216
sg56
(lp4750
g49
(g70
g51
NtRp4751
(dp4752
g54
(dp4753
g74
g75
ssg63
g4747
sg56
(lp4754
S'view'
p4755
asbag49
(g70
g51
NtRp4756
(dp4757
g54
(dp4758
g81
g82
ssg63
g4747
sg56
(lp4759
S':'
asbag49
(g70
g51
NtRp4760
(dp4761
g54
(dp4762
sg63
g4747
sg56
(lp4763
g49
(g50
g51
NtRp4764
(dp4765
g54
(dp4766
g62
I5
ssg63
g4760
sg56
(lp4767
S'default/register.html'
p4768
asbasbasbasbasbsS'locals'
p4769
(dp4770
S'migrate'
p4771
g1796
sS'decode_credentials'
p4772
g92
sS'attempts'
p4773
S'5'
sS'driver_args'
p4774
S'None'
p4775
sS'self'
p4776
S"<DAL {'_lastsql': '', '_db_codec': 'UTF-8', '_ti...table)s', '_pool_size': 0, '_common_fields': []}>"
p4777
sS'auto_import'
p4778
g92
sS'migrate_enabled'
p4779
g1796
sS'check_reserved'
p4780
S'None'
p4781
sg1919
S'None'
p4782
sS'tb'
p4783
S'\'Traceback (most recent call last):\\n  File "gluon...ernalError: (1049, u"Unknown database \\\'critic\\\'")\\n\''
p4784
sS'uris'
p4785
S"['mysql://root:@localhost/critic']"
p4786
sg28
S"(<DAL {'_lastsql': '', '_db_codec': 'UTF-8', '_ti...table)s', '_pool_size': 0, '_common_fields': []}>, 'mysql://root:@localhost/critic', 0, None, 'UTF-8', <function <lambda> at 0x05E28F30>, {'charset': 'utf8', 'db': 'critic', 'host': 'localhost', 'passwd': '', 'port': 3306, 'user': 'root'}, {})"
p4787
sS'db_codec'
p4788
S"'UTF-8'"
p4789
sS'adapter_args'
p4790
S'None'
p4791
sS'fake_migrate'
p4792
g92
sS'connected'
p4793
g92
sS'credential_decoder'
p4794
S'<function <lambda> at 0x05E28F30>'
p4795
sS'fake_migrate_all'
p4796
g92
sS'k'
S'4'
sS'uri'
p4797
S"'mysql://root:@localhost/critic'"
p4798
sS'pool_size'
p4799
S'0'
sS'error'
p4800
S'InternalError(1049, u"Unknown database \'critic\'")'
p4801
sssS'traceback'
p4802
S'Traceback (most recent call last):\n  File "gluon/restricted.py", line 205, in restricted\n  File "C:\\Users\\omkara\\Desktop\\web2py\\applications\\SlugBarter\\models\\registerForm.py", line 2, in <module>\n  File "gluon/dal.py", line 5968, in __init__\nRuntimeError: Failure to connect, tried 5 times:\nTraceback (most recent call last):\n  File "gluon/dal.py", line 5955, in __init__\n  File "gluon/dal.py", line 1886, in __init__\n  File "gluon/dal.py", line 465, in pool_connection\n  File "gluon/dal.py", line 1885, in connect\n  File "gluon/contrib/pymysql/__init__.py", line 93, in Connect\n  File "gluon/contrib/pymysql/connections.py", line 513, in __init__\n  File "gluon/contrib/pymysql/connections.py", line 667, in _connect\n  File "gluon/contrib/pymysql/connections.py", line 720, in _request_authentication\n  File "gluon/contrib/pymysql/connections.py", line 766, in _send_authentication\n  File "gluon/contrib/pymysql/connections.py", line 331, in check_error\n  File "gluon/contrib/pymysql/err.py", line 135, in raise_mysql_exception\n  File "gluon/contrib/pymysql/err.py", line 131, in _check_mysql_exception\nInternalError: (1049, u"Unknown database \'critic\'")\n\n'
p4803
s.