(dp1
S'output'
p2
S"<type 'exceptions.KeyError'> 'listings'"
p3
sS'layer'
p4
S'C:\\Users\\omkara\\Desktop\\web2py\\applications\\SlugBarter\\controllers/default.py'
p5
sS'code'
p6
S'# -*- coding: utf-8 -*-\n# this file is released under public domain and you can use without limitations\n\n#########################################################################\n## This is a samples controller\n## - index is the default action of any application\n## - user is required for authentication and authorization\n## - download is for downloading files uploaded in the db (does streaming)\n## - call exposes all registered services (none by default)\n#########################################################################\n\n#controller for when the user is at index page\ndef index():\n  return dict()\n    \n#controller for when the user registers\ndef register():\n    return dict(form = auth.register())\n   \n#controller for when the user login\ndef login(): \n  form = auth.login()\n  session.userName = form.vars.name\n  return dict(form = form)\n    \ndef mypage():\n    username = session.userName\n    return dict(username = username)\n    \n@auth.requires_login()   \ndef postlisting():\n    form = SQLFORM(db.listing)\n    if form.process().accepted:\n        session.flash = T(\'Accepted\')\n    elif form.errors:\n        session.flash = T(\'Form has errors\')\n    else:\n        session.flash = T("Please complete all the information in the form")\n        \n    return dict(form = form)\n\n@auth.requires_login()\ndef view_my_listings():\n    query = (db.listing.user == auth.user_id)\n    lists = db(query).select(db.listings.ALL)\n    return dict(lists = lists)\n\n\ndef user():\n    """\n    exposes:\n    http://..../[app]/default/user/login\n    http://..../[app]/default/user/logout\n    http://..../[app]/default/user/register\n    http://..../[app]/default/user/profile\n    http://..../[app]/default/user/retrieve_password\n    http://..../[app]/default/user/change_password\n    use @auth.requires_login()\n        @auth.requires_membership(\'group name\')\n        @auth.requires_permission(\'read\',\'table name\',record_id)\n    to decorate functions that need access control\n    """\n    return dict(form=auth())\n\n\ndef download():\n    """\n    allows downloading of uploaded files\n    http://..../[app]/default/download/[filename]\n    """\n    return response.download(request,db)\n\n\ndef call():\n    """\n    exposes services. for example:\n    http://..../[app]/default/call/jsonrpc\n    decorate with @services.jsonrpc the functions to expose\n    supports xml, json, xmlrpc, jsonrpc, amfrpc, rss, csv\n    """\n    return service()\n\n\n@auth.requires_signature()\ndef data():\n    """\n    http://..../[app]/default/data/tables\n    http://..../[app]/default/data/create/[table]\n    http://..../[app]/default/data/read/[table]/[id]\n    http://..../[app]/default/data/update/[table]/[id]\n    http://..../[app]/default/data/delete/[table]/[id]\n    http://..../[app]/default/data/select/[table]\n    http://..../[app]/default/data/search/[table]\n    but URLs must be signed, i.e. linked with\n      A(\'table\',_href=URL(\'data/tables\',user_signature=True))\n    or with the signed load operator\n      LOAD(\'default\',\'data.load\',args=\'tables\',ajax=True,user_signature=True)\n    """\n    return dict(form=crud())\n\nresponse._vars=response._caller(view_my_listings)\n'
p7
sS'snapshot'
p8
(dp9
S'exception'
p10
(dp11
S'__hash__'
p12
S"<method-wrapper '__hash__' of exceptions.KeyError object at 0x06261A08>"
p13
sS'__setattr__'
p14
S"<method-wrapper '__setattr__' of exceptions.KeyError object at 0x06261A08>"
p15
sS'__reduce_ex__'
p16
S'<built-in method __reduce_ex__ of exceptions.KeyError object at 0x06261A08>'
p17
sS'__getslice__'
p18
S"<method-wrapper '__getslice__' of exceptions.KeyError object at 0x06261A08>"
p19
sS'__getitem__'
p20
S"<method-wrapper '__getitem__' of exceptions.KeyError object at 0x06261A08>"
p21
sS'__setstate__'
p22
S'<built-in method __setstate__ of exceptions.KeyError object at 0x06261A08>'
p23
sS'__reduce__'
p24
S'<built-in method __reduce__ of exceptions.KeyError object at 0x06261A08>'
p25
sS'__str__'
p26
S"<method-wrapper '__str__' of exceptions.KeyError object at 0x06261A08>"
p27
sS'args'
p28
S"('listings',)"
p29
sS'__getattribute__'
p30
S"<method-wrapper '__getattribute__' of exceptions.KeyError object at 0x06261A08>"
p31
sS'__class__'
p32
S"<type 'exceptions.KeyError'>"
p33
sS'__delattr__'
p34
S"<method-wrapper '__delattr__' of exceptions.KeyError object at 0x06261A08>"
p35
sS'__repr__'
p36
S"<method-wrapper '__repr__' of exceptions.KeyError object at 0x06261A08>"
p37
sS'__dict__'
p38
S'{}'
p39
sS'__doc__'
p40
S"'Mapping key not found.'"
p41
sS'__init__'
p42
S"<method-wrapper '__init__' of exceptions.KeyError object at 0x06261A08>"
p43
sS'__new__'
p44
S'<built-in method __new__ of type object at 0x1E1CDFB8>'
p45
ssS'evalue'
p46
S"'listings'"
p47
sS'request'
p48
ccopy_reg
_reconstructor
p49
(cgluon.html
BEAUTIFY
p50
c__builtin__
object
p51
NtRp52
(dp53
S'attributes'
p54
(dp55
sS'components'
p56
(lp57
g49
(cgluon.html
TABLE
p58
g51
NtRp59
(dp60
g54
(dp61
S'level'
p62
I5
ssS'parent'
p63
Nsg56
(lp64
g49
(cgluon.html
TR
p65
g51
NtRp66
(dp67
g54
(dp68
sg63
g59
sg56
(lp69
g49
(cgluon.html
TD
p70
g51
NtRp71
(dp72
g54
(dp73
S'_style'
p74
S'font-weight:bold;vertical-align:top'
p75
ssg63
g66
sg56
(lp76
S'ajax'
p77
asbag49
(g70
g51
NtRp78
(dp79
g54
(dp80
S'_valign'
p81
S'top'
p82
ssg63
g66
sg56
(lp83
S':'
asbag49
(g70
g51
NtRp84
(dp85
g54
(dp86
sg63
g66
sg56
(lp87
g49
(g50
g51
NtRp88
(dp89
g54
(dp90
g62
I5
ssg63
g84
sg56
(lp91
S'False'
p92
asbasbasbag49
(g65
g51
NtRp93
(dp94
g54
(dp95
sg63
g59
sg56
(lp96
g49
(g70
g51
NtRp97
(dp98
g54
(dp99
g74
g75
ssg63
g93
sg56
(lp100
S'application'
p101
asbag49
(g70
g51
NtRp102
(dp103
g54
(dp104
g81
g82
ssg63
g93
sg56
(lp105
S':'
asbag49
(g70
g51
NtRp106
(dp107
g54
(dp108
sg63
g93
sg56
(lp109
g49
(g50
g51
NtRp110
(dp111
g54
(dp112
g62
I5
ssg63
g106
sg56
(lp113
S'SlugBarter'
p114
asbasbasbag49
(g65
g51
NtRp115
(dp116
g54
(dp117
sg63
g59
sg56
(lp118
g49
(g70
g51
NtRp119
(dp120
g54
(dp121
g74
g75
ssg63
g115
sg56
(lp122
g28
asbag49
(g70
g51
NtRp123
(dp124
g54
(dp125
g81
g82
ssg63
g115
sg56
(lp126
S':'
asbag49
(g70
g51
NtRp127
(dp128
g54
(dp129
sg63
g115
sg56
(lp130
g49
(g50
g51
NtRp131
(dp132
g54
(dp133
g62
I5
ssg63
g127
sg56
(lp134
g49
(g58
g51
NtRp135
(dp136
g54
(dp137
g62
I4
ssg63
Nsg56
(lp138
sbasbasbasbag49
(g65
g51
NtRp139
(dp140
g54
(dp141
sg63
g59
sg56
(lp142
g49
(g70
g51
NtRp143
(dp144
g54
(dp145
g74
g75
ssg63
g139
sg56
(lp146
S'body'
p147
asbag49
(g70
g51
NtRp148
(dp149
g54
(dp150
g81
g82
ssg63
g139
sg56
(lp151
S':'
asbag49
(g70
g51
NtRp152
(dp153
g54
(dp154
sg63
g139
sg56
(lp155
g49
(g50
g51
NtRp156
(dp157
g54
(dp158
g62
I5
ssg63
g152
sg56
(lp159
S'<cStringIO.StringO object at 0x06C38580>'
p160
asbasbasbag49
(g65
g51
NtRp161
(dp162
g54
(dp163
sg63
g59
sg56
(lp164
g49
(g70
g51
NtRp165
(dp166
g54
(dp167
g74
g75
ssg63
g161
sg56
(lp168
S'client'
p169
asbag49
(g70
g51
NtRp170
(dp171
g54
(dp172
g81
g82
ssg63
g161
sg56
(lp173
S':'
asbag49
(g70
g51
NtRp174
(dp175
g54
(dp176
sg63
g161
sg56
(lp177
g49
(g50
g51
NtRp178
(dp179
g54
(dp180
g62
I5
ssg63
g174
sg56
(lp181
S'127.0.0.1'
p182
asbasbasbag49
(g65
g51
NtRp183
(dp184
g54
(dp185
sg63
g59
sg56
(lp186
g49
(g70
g51
NtRp187
(dp188
g54
(dp189
g74
g75
ssg63
g183
sg56
(lp190
S'controller'
p191
asbag49
(g70
g51
NtRp192
(dp193
g54
(dp194
g81
g82
ssg63
g183
sg56
(lp195
S':'
asbag49
(g70
g51
NtRp196
(dp197
g54
(dp198
sg63
g183
sg56
(lp199
g49
(g50
g51
NtRp200
(dp201
g54
(dp202
g62
I5
ssg63
g196
sg56
(lp203
S'default'
p204
asbasbasbag49
(g65
g51
NtRp205
(dp206
g54
(dp207
sg63
g59
sg56
(lp208
g49
(g70
g51
NtRp209
(dp210
g54
(dp211
g74
g75
ssg63
g205
sg56
(lp212
S'cookies'
p213
asbag49
(g70
g51
NtRp214
(dp215
g54
(dp216
g81
g82
ssg63
g205
sg56
(lp217
S':'
asbag49
(g70
g51
NtRp218
(dp219
g54
(dp220
sg63
g205
sg56
(lp221
g49
(g50
g51
NtRp222
(dp223
g54
(dp224
g62
I5
ssg63
g218
sg56
(lp225
g49
(g58
g51
NtRp226
(dp227
g54
(dp228
g62
I4
ssg63
Nsg56
(lp229
g49
(g65
g51
NtRp230
(dp231
g54
(dp232
sg63
g226
sg56
(lp233
g49
(g70
g51
NtRp234
(dp235
g54
(dp236
g74
g75
ssg63
g230
sg56
(lp237
S'session_id_admin'
p238
asbag49
(g70
g51
NtRp239
(dp240
g54
(dp241
g81
g82
ssg63
g230
sg56
(lp242
S':'
asbag49
(g70
g51
NtRp243
(dp244
g54
(dp245
sg63
g230
sg56
(lp246
g49
(g50
g51
NtRp247
(dp248
g54
(dp249
g62
I4
ssg63
g243
sg56
(lp250
g49
(g58
g51
NtRp251
(dp252
g54
(dp253
g62
I3
ssg63
Nsg56
(lp254
g49
(g65
g51
NtRp255
(dp256
g54
(dp257
sg63
g251
sg56
(lp258
g49
(g70
g51
NtRp259
(dp260
g54
(dp261
g74
g75
ssg63
g255
sg56
(lp262
S'comment'
p263
asbag49
(g70
g51
NtRp264
(dp265
g54
(dp266
g81
g82
ssg63
g255
sg56
(lp267
S':'
asbag49
(g70
g51
NtRp268
(dp269
g54
(dp270
sg63
g255
sg56
(lp271
g49
(g50
g51
NtRp272
(dp273
g54
(dp274
g62
I3
ssg63
g268
sg56
(lp275
S''
asbasbasbag49
(g65
g51
NtRp276
(dp277
g54
(dp278
sg63
g251
sg56
(lp279
g49
(g70
g51
NtRp280
(dp281
g54
(dp282
g74
g75
ssg63
g276
sg56
(lp283
S'domain'
p284
asbag49
(g70
g51
NtRp285
(dp286
g54
(dp287
g81
g82
ssg63
g276
sg56
(lp288
S':'
asbag49
(g70
g51
NtRp289
(dp290
g54
(dp291
sg63
g276
sg56
(lp292
g49
(g50
g51
NtRp293
(dp294
g54
(dp295
g62
I3
ssg63
g289
sg56
(lp296
S''
asbasbasbag49
(g65
g51
NtRp297
(dp298
g54
(dp299
sg63
g251
sg56
(lp300
g49
(g70
g51
NtRp301
(dp302
g54
(dp303
g74
g75
ssg63
g297
sg56
(lp304
S'expires'
p305
asbag49
(g70
g51
NtRp306
(dp307
g54
(dp308
g81
g82
ssg63
g297
sg56
(lp309
S':'
asbag49
(g70
g51
NtRp310
(dp311
g54
(dp312
sg63
g297
sg56
(lp313
g49
(g50
g51
NtRp314
(dp315
g54
(dp316
g62
I3
ssg63
g310
sg56
(lp317
S''
asbasbasbag49
(g65
g51
NtRp318
(dp319
g54
(dp320
sg63
g251
sg56
(lp321
g49
(g70
g51
NtRp322
(dp323
g54
(dp324
g74
g75
ssg63
g318
sg56
(lp325
S'max-age'
p326
asbag49
(g70
g51
NtRp327
(dp328
g54
(dp329
g81
g82
ssg63
g318
sg56
(lp330
S':'
asbag49
(g70
g51
NtRp331
(dp332
g54
(dp333
sg63
g318
sg56
(lp334
g49
(g50
g51
NtRp335
(dp336
g54
(dp337
g62
I3
ssg63
g331
sg56
(lp338
S''
asbasbasbag49
(g65
g51
NtRp339
(dp340
g54
(dp341
sg63
g251
sg56
(lp342
g49
(g70
g51
NtRp343
(dp344
g54
(dp345
g74
g75
ssg63
g339
sg56
(lp346
S'path'
p347
asbag49
(g70
g51
NtRp348
(dp349
g54
(dp350
g81
g82
ssg63
g339
sg56
(lp351
S':'
asbag49
(g70
g51
NtRp352
(dp353
g54
(dp354
sg63
g339
sg56
(lp355
g49
(g50
g51
NtRp356
(dp357
g54
(dp358
g62
I3
ssg63
g352
sg56
(lp359
S''
asbasbasbag49
(g65
g51
NtRp360
(dp361
g54
(dp362
sg63
g251
sg56
(lp363
g49
(g70
g51
NtRp364
(dp365
g54
(dp366
g74
g75
ssg63
g360
sg56
(lp367
S'secure'
p368
asbag49
(g70
g51
NtRp369
(dp370
g54
(dp371
g81
g82
ssg63
g360
sg56
(lp372
S':'
asbag49
(g70
g51
NtRp373
(dp374
g54
(dp375
sg63
g360
sg56
(lp376
g49
(g50
g51
NtRp377
(dp378
g54
(dp379
g62
I3
ssg63
g373
sg56
(lp380
S''
asbasbasbag49
(g65
g51
NtRp381
(dp382
g54
(dp383
sg63
g251
sg56
(lp384
g49
(g70
g51
NtRp385
(dp386
g54
(dp387
g74
g75
ssg63
g381
sg56
(lp388
S'version'
p389
asbag49
(g70
g51
NtRp390
(dp391
g54
(dp392
g81
g82
ssg63
g381
sg56
(lp393
S':'
asbag49
(g70
g51
NtRp394
(dp395
g54
(dp396
sg63
g381
sg56
(lp397
g49
(g50
g51
NtRp398
(dp399
g54
(dp400
g62
I3
ssg63
g394
sg56
(lp401
S''
asbasbasbasbasbasbasbag49
(g65
g51
NtRp402
(dp403
g54
(dp404
sg63
g226
sg56
(lp405
g49
(g70
g51
NtRp406
(dp407
g54
(dp408
g74
g75
ssg63
g402
sg56
(lp409
S'session_id_onlinenotes_p1_'
p410
asbag49
(g70
g51
NtRp411
(dp412
g54
(dp413
g81
g82
ssg63
g402
sg56
(lp414
S':'
asbag49
(g70
g51
NtRp415
(dp416
g54
(dp417
sg63
g402
sg56
(lp418
g49
(g50
g51
NtRp419
(dp420
g54
(dp421
g62
I4
ssg63
g415
sg56
(lp422
g49
(g58
g51
NtRp423
(dp424
g54
(dp425
g62
I3
ssg63
Nsg56
(lp426
g49
(g65
g51
NtRp427
(dp428
g54
(dp429
sg63
g423
sg56
(lp430
g49
(g70
g51
NtRp431
(dp432
g54
(dp433
g74
g75
ssg63
g427
sg56
(lp434
g263
asbag49
(g70
g51
NtRp435
(dp436
g54
(dp437
g81
g82
ssg63
g427
sg56
(lp438
S':'
asbag49
(g70
g51
NtRp439
(dp440
g54
(dp441
sg63
g427
sg56
(lp442
g49
(g50
g51
NtRp443
(dp444
g54
(dp445
g62
I3
ssg63
g439
sg56
(lp446
S''
asbasbasbag49
(g65
g51
NtRp447
(dp448
g54
(dp449
sg63
g423
sg56
(lp450
g49
(g70
g51
NtRp451
(dp452
g54
(dp453
g74
g75
ssg63
g447
sg56
(lp454
g284
asbag49
(g70
g51
NtRp455
(dp456
g54
(dp457
g81
g82
ssg63
g447
sg56
(lp458
S':'
asbag49
(g70
g51
NtRp459
(dp460
g54
(dp461
sg63
g447
sg56
(lp462
g49
(g50
g51
NtRp463
(dp464
g54
(dp465
g62
I3
ssg63
g459
sg56
(lp466
S''
asbasbasbag49
(g65
g51
NtRp467
(dp468
g54
(dp469
sg63
g423
sg56
(lp470
g49
(g70
g51
NtRp471
(dp472
g54
(dp473
g74
g75
ssg63
g467
sg56
(lp474
g305
asbag49
(g70
g51
NtRp475
(dp476
g54
(dp477
g81
g82
ssg63
g467
sg56
(lp478
S':'
asbag49
(g70
g51
NtRp479
(dp480
g54
(dp481
sg63
g467
sg56
(lp482
g49
(g50
g51
NtRp483
(dp484
g54
(dp485
g62
I3
ssg63
g479
sg56
(lp486
S''
asbasbasbag49
(g65
g51
NtRp487
(dp488
g54
(dp489
sg63
g423
sg56
(lp490
g49
(g70
g51
NtRp491
(dp492
g54
(dp493
g74
g75
ssg63
g487
sg56
(lp494
g326
asbag49
(g70
g51
NtRp495
(dp496
g54
(dp497
g81
g82
ssg63
g487
sg56
(lp498
S':'
asbag49
(g70
g51
NtRp499
(dp500
g54
(dp501
sg63
g487
sg56
(lp502
g49
(g50
g51
NtRp503
(dp504
g54
(dp505
g62
I3
ssg63
g499
sg56
(lp506
S''
asbasbasbag49
(g65
g51
NtRp507
(dp508
g54
(dp509
sg63
g423
sg56
(lp510
g49
(g70
g51
NtRp511
(dp512
g54
(dp513
g74
g75
ssg63
g507
sg56
(lp514
g347
asbag49
(g70
g51
NtRp515
(dp516
g54
(dp517
g81
g82
ssg63
g507
sg56
(lp518
S':'
asbag49
(g70
g51
NtRp519
(dp520
g54
(dp521
sg63
g507
sg56
(lp522
g49
(g50
g51
NtRp523
(dp524
g54
(dp525
g62
I3
ssg63
g519
sg56
(lp526
S''
asbasbasbag49
(g65
g51
NtRp527
(dp528
g54
(dp529
sg63
g423
sg56
(lp530
g49
(g70
g51
NtRp531
(dp532
g54
(dp533
g74
g75
ssg63
g527
sg56
(lp534
g368
asbag49
(g70
g51
NtRp535
(dp536
g54
(dp537
g81
g82
ssg63
g527
sg56
(lp538
S':'
asbag49
(g70
g51
NtRp539
(dp540
g54
(dp541
sg63
g527
sg56
(lp542
g49
(g50
g51
NtRp543
(dp544
g54
(dp545
g62
I3
ssg63
g539
sg56
(lp546
S''
asbasbasbag49
(g65
g51
NtRp547
(dp548
g54
(dp549
sg63
g423
sg56
(lp550
g49
(g70
g51
NtRp551
(dp552
g54
(dp553
g74
g75
ssg63
g547
sg56
(lp554
g389
asbag49
(g70
g51
NtRp555
(dp556
g54
(dp557
g81
g82
ssg63
g547
sg56
(lp558
S':'
asbag49
(g70
g51
NtRp559
(dp560
g54
(dp561
sg63
g547
sg56
(lp562
g49
(g50
g51
NtRp563
(dp564
g54
(dp565
g62
I3
ssg63
g559
sg56
(lp566
S''
asbasbasbasbasbasbasbag49
(g65
g51
NtRp567
(dp568
g54
(dp569
sg63
g226
sg56
(lp570
g49
(g70
g51
NtRp571
(dp572
g54
(dp573
g74
g75
ssg63
g567
sg56
(lp574
S'session_id_slug_register_page'
p575
asbag49
(g70
g51
NtRp576
(dp577
g54
(dp578
g81
g82
ssg63
g567
sg56
(lp579
S':'
asbag49
(g70
g51
NtRp580
(dp581
g54
(dp582
sg63
g567
sg56
(lp583
g49
(g50
g51
NtRp584
(dp585
g54
(dp586
g62
I4
ssg63
g580
sg56
(lp587
g49
(g58
g51
NtRp588
(dp589
g54
(dp590
g62
I3
ssg63
Nsg56
(lp591
g49
(g65
g51
NtRp592
(dp593
g54
(dp594
sg63
g588
sg56
(lp595
g49
(g70
g51
NtRp596
(dp597
g54
(dp598
g74
g75
ssg63
g592
sg56
(lp599
g263
asbag49
(g70
g51
NtRp600
(dp601
g54
(dp602
g81
g82
ssg63
g592
sg56
(lp603
S':'
asbag49
(g70
g51
NtRp604
(dp605
g54
(dp606
sg63
g592
sg56
(lp607
g49
(g50
g51
NtRp608
(dp609
g54
(dp610
g62
I3
ssg63
g604
sg56
(lp611
S''
asbasbasbag49
(g65
g51
NtRp612
(dp613
g54
(dp614
sg63
g588
sg56
(lp615
g49
(g70
g51
NtRp616
(dp617
g54
(dp618
g74
g75
ssg63
g612
sg56
(lp619
g284
asbag49
(g70
g51
NtRp620
(dp621
g54
(dp622
g81
g82
ssg63
g612
sg56
(lp623
S':'
asbag49
(g70
g51
NtRp624
(dp625
g54
(dp626
sg63
g612
sg56
(lp627
g49
(g50
g51
NtRp628
(dp629
g54
(dp630
g62
I3
ssg63
g624
sg56
(lp631
S''
asbasbasbag49
(g65
g51
NtRp632
(dp633
g54
(dp634
sg63
g588
sg56
(lp635
g49
(g70
g51
NtRp636
(dp637
g54
(dp638
g74
g75
ssg63
g632
sg56
(lp639
g305
asbag49
(g70
g51
NtRp640
(dp641
g54
(dp642
g81
g82
ssg63
g632
sg56
(lp643
S':'
asbag49
(g70
g51
NtRp644
(dp645
g54
(dp646
sg63
g632
sg56
(lp647
g49
(g50
g51
NtRp648
(dp649
g54
(dp650
g62
I3
ssg63
g644
sg56
(lp651
S''
asbasbasbag49
(g65
g51
NtRp652
(dp653
g54
(dp654
sg63
g588
sg56
(lp655
g49
(g70
g51
NtRp656
(dp657
g54
(dp658
g74
g75
ssg63
g652
sg56
(lp659
g326
asbag49
(g70
g51
NtRp660
(dp661
g54
(dp662
g81
g82
ssg63
g652
sg56
(lp663
S':'
asbag49
(g70
g51
NtRp664
(dp665
g54
(dp666
sg63
g652
sg56
(lp667
g49
(g50
g51
NtRp668
(dp669
g54
(dp670
g62
I3
ssg63
g664
sg56
(lp671
S''
asbasbasbag49
(g65
g51
NtRp672
(dp673
g54
(dp674
sg63
g588
sg56
(lp675
g49
(g70
g51
NtRp676
(dp677
g54
(dp678
g74
g75
ssg63
g672
sg56
(lp679
g347
asbag49
(g70
g51
NtRp680
(dp681
g54
(dp682
g81
g82
ssg63
g672
sg56
(lp683
S':'
asbag49
(g70
g51
NtRp684
(dp685
g54
(dp686
sg63
g672
sg56
(lp687
g49
(g50
g51
NtRp688
(dp689
g54
(dp690
g62
I3
ssg63
g684
sg56
(lp691
S''
asbasbasbag49
(g65
g51
NtRp692
(dp693
g54
(dp694
sg63
g588
sg56
(lp695
g49
(g70
g51
NtRp696
(dp697
g54
(dp698
g74
g75
ssg63
g692
sg56
(lp699
g368
asbag49
(g70
g51
NtRp700
(dp701
g54
(dp702
g81
g82
ssg63
g692
sg56
(lp703
S':'
asbag49
(g70
g51
NtRp704
(dp705
g54
(dp706
sg63
g692
sg56
(lp707
g49
(g50
g51
NtRp708
(dp709
g54
(dp710
g62
I3
ssg63
g704
sg56
(lp711
S''
asbasbasbag49
(g65
g51
NtRp712
(dp713
g54
(dp714
sg63
g588
sg56
(lp715
g49
(g70
g51
NtRp716
(dp717
g54
(dp718
g74
g75
ssg63
g712
sg56
(lp719
g389
asbag49
(g70
g51
NtRp720
(dp721
g54
(dp722
g81
g82
ssg63
g712
sg56
(lp723
S':'
asbag49
(g70
g51
NtRp724
(dp725
g54
(dp726
sg63
g712
sg56
(lp727
g49
(g50
g51
NtRp728
(dp729
g54
(dp730
g62
I3
ssg63
g724
sg56
(lp731
S''
asbasbasbasbasbasbasbag49
(g65
g51
NtRp732
(dp733
g54
(dp734
sg63
g226
sg56
(lp735
g49
(g70
g51
NtRp736
(dp737
g54
(dp738
g74
g75
ssg63
g732
sg56
(lp739
S'session_id_slugbarter'
p740
asbag49
(g70
g51
NtRp741
(dp742
g54
(dp743
g81
g82
ssg63
g732
sg56
(lp744
S':'
asbag49
(g70
g51
NtRp745
(dp746
g54
(dp747
sg63
g732
sg56
(lp748
g49
(g50
g51
NtRp749
(dp750
g54
(dp751
g62
I4
ssg63
g745
sg56
(lp752
g49
(g58
g51
NtRp753
(dp754
g54
(dp755
g62
I3
ssg63
Nsg56
(lp756
g49
(g65
g51
NtRp757
(dp758
g54
(dp759
sg63
g753
sg56
(lp760
g49
(g70
g51
NtRp761
(dp762
g54
(dp763
g74
g75
ssg63
g757
sg56
(lp764
g263
asbag49
(g70
g51
NtRp765
(dp766
g54
(dp767
g81
g82
ssg63
g757
sg56
(lp768
S':'
asbag49
(g70
g51
NtRp769
(dp770
g54
(dp771
sg63
g757
sg56
(lp772
g49
(g50
g51
NtRp773
(dp774
g54
(dp775
g62
I3
ssg63
g769
sg56
(lp776
S''
asbasbasbag49
(g65
g51
NtRp777
(dp778
g54
(dp779
sg63
g753
sg56
(lp780
g49
(g70
g51
NtRp781
(dp782
g54
(dp783
g74
g75
ssg63
g777
sg56
(lp784
g284
asbag49
(g70
g51
NtRp785
(dp786
g54
(dp787
g81
g82
ssg63
g777
sg56
(lp788
S':'
asbag49
(g70
g51
NtRp789
(dp790
g54
(dp791
sg63
g777
sg56
(lp792
g49
(g50
g51
NtRp793
(dp794
g54
(dp795
g62
I3
ssg63
g789
sg56
(lp796
S''
asbasbasbag49
(g65
g51
NtRp797
(dp798
g54
(dp799
sg63
g753
sg56
(lp800
g49
(g70
g51
NtRp801
(dp802
g54
(dp803
g74
g75
ssg63
g797
sg56
(lp804
g305
asbag49
(g70
g51
NtRp805
(dp806
g54
(dp807
g81
g82
ssg63
g797
sg56
(lp808
S':'
asbag49
(g70
g51
NtRp809
(dp810
g54
(dp811
sg63
g797
sg56
(lp812
g49
(g50
g51
NtRp813
(dp814
g54
(dp815
g62
I3
ssg63
g809
sg56
(lp816
S''
asbasbasbag49
(g65
g51
NtRp817
(dp818
g54
(dp819
sg63
g753
sg56
(lp820
g49
(g70
g51
NtRp821
(dp822
g54
(dp823
g74
g75
ssg63
g817
sg56
(lp824
g326
asbag49
(g70
g51
NtRp825
(dp826
g54
(dp827
g81
g82
ssg63
g817
sg56
(lp828
S':'
asbag49
(g70
g51
NtRp829
(dp830
g54
(dp831
sg63
g817
sg56
(lp832
g49
(g50
g51
NtRp833
(dp834
g54
(dp835
g62
I3
ssg63
g829
sg56
(lp836
S''
asbasbasbag49
(g65
g51
NtRp837
(dp838
g54
(dp839
sg63
g753
sg56
(lp840
g49
(g70
g51
NtRp841
(dp842
g54
(dp843
g74
g75
ssg63
g837
sg56
(lp844
g347
asbag49
(g70
g51
NtRp845
(dp846
g54
(dp847
g81
g82
ssg63
g837
sg56
(lp848
S':'
asbag49
(g70
g51
NtRp849
(dp850
g54
(dp851
sg63
g837
sg56
(lp852
g49
(g50
g51
NtRp853
(dp854
g54
(dp855
g62
I3
ssg63
g849
sg56
(lp856
S''
asbasbasbag49
(g65
g51
NtRp857
(dp858
g54
(dp859
sg63
g753
sg56
(lp860
g49
(g70
g51
NtRp861
(dp862
g54
(dp863
g74
g75
ssg63
g857
sg56
(lp864
g368
asbag49
(g70
g51
NtRp865
(dp866
g54
(dp867
g81
g82
ssg63
g857
sg56
(lp868
S':'
asbag49
(g70
g51
NtRp869
(dp870
g54
(dp871
sg63
g857
sg56
(lp872
g49
(g50
g51
NtRp873
(dp874
g54
(dp875
g62
I3
ssg63
g869
sg56
(lp876
S''
asbasbasbag49
(g65
g51
NtRp877
(dp878
g54
(dp879
sg63
g753
sg56
(lp880
g49
(g70
g51
NtRp881
(dp882
g54
(dp883
g74
g75
ssg63
g877
sg56
(lp884
g389
asbag49
(g70
g51
NtRp885
(dp886
g54
(dp887
g81
g82
ssg63
g877
sg56
(lp888
S':'
asbag49
(g70
g51
NtRp889
(dp890
g54
(dp891
sg63
g877
sg56
(lp892
g49
(g50
g51
NtRp893
(dp894
g54
(dp895
g62
I3
ssg63
g889
sg56
(lp896
S''
asbasbasbasbasbasbasbag49
(g65
g51
NtRp897
(dp898
g54
(dp899
sg63
g226
sg56
(lp900
g49
(g70
g51
NtRp901
(dp902
g54
(dp903
g74
g75
ssg63
g897
sg56
(lp904
S'session_id_testapp'
p905
asbag49
(g70
g51
NtRp906
(dp907
g54
(dp908
g81
g82
ssg63
g897
sg56
(lp909
S':'
asbag49
(g70
g51
NtRp910
(dp911
g54
(dp912
sg63
g897
sg56
(lp913
g49
(g50
g51
NtRp914
(dp915
g54
(dp916
g62
I4
ssg63
g910
sg56
(lp917
g49
(g58
g51
NtRp918
(dp919
g54
(dp920
g62
I3
ssg63
Nsg56
(lp921
g49
(g65
g51
NtRp922
(dp923
g54
(dp924
sg63
g918
sg56
(lp925
g49
(g70
g51
NtRp926
(dp927
g54
(dp928
g74
g75
ssg63
g922
sg56
(lp929
g263
asbag49
(g70
g51
NtRp930
(dp931
g54
(dp932
g81
g82
ssg63
g922
sg56
(lp933
S':'
asbag49
(g70
g51
NtRp934
(dp935
g54
(dp936
sg63
g922
sg56
(lp937
g49
(g50
g51
NtRp938
(dp939
g54
(dp940
g62
I3
ssg63
g934
sg56
(lp941
S''
asbasbasbag49
(g65
g51
NtRp942
(dp943
g54
(dp944
sg63
g918
sg56
(lp945
g49
(g70
g51
NtRp946
(dp947
g54
(dp948
g74
g75
ssg63
g942
sg56
(lp949
g284
asbag49
(g70
g51
NtRp950
(dp951
g54
(dp952
g81
g82
ssg63
g942
sg56
(lp953
S':'
asbag49
(g70
g51
NtRp954
(dp955
g54
(dp956
sg63
g942
sg56
(lp957
g49
(g50
g51
NtRp958
(dp959
g54
(dp960
g62
I3
ssg63
g954
sg56
(lp961
S''
asbasbasbag49
(g65
g51
NtRp962
(dp963
g54
(dp964
sg63
g918
sg56
(lp965
g49
(g70
g51
NtRp966
(dp967
g54
(dp968
g74
g75
ssg63
g962
sg56
(lp969
g305
asbag49
(g70
g51
NtRp970
(dp971
g54
(dp972
g81
g82
ssg63
g962
sg56
(lp973
S':'
asbag49
(g70
g51
NtRp974
(dp975
g54
(dp976
sg63
g962
sg56
(lp977
g49
(g50
g51
NtRp978
(dp979
g54
(dp980
g62
I3
ssg63
g974
sg56
(lp981
S''
asbasbasbag49
(g65
g51
NtRp982
(dp983
g54
(dp984
sg63
g918
sg56
(lp985
g49
(g70
g51
NtRp986
(dp987
g54
(dp988
g74
g75
ssg63
g982
sg56
(lp989
g326
asbag49
(g70
g51
NtRp990
(dp991
g54
(dp992
g81
g82
ssg63
g982
sg56
(lp993
S':'
asbag49
(g70
g51
NtRp994
(dp995
g54
(dp996
sg63
g982
sg56
(lp997
g49
(g50
g51
NtRp998
(dp999
g54
(dp1000
g62
I3
ssg63
g994
sg56
(lp1001
S''
asbasbasbag49
(g65
g51
NtRp1002
(dp1003
g54
(dp1004
sg63
g918
sg56
(lp1005
g49
(g70
g51
NtRp1006
(dp1007
g54
(dp1008
g74
g75
ssg63
g1002
sg56
(lp1009
g347
asbag49
(g70
g51
NtRp1010
(dp1011
g54
(dp1012
g81
g82
ssg63
g1002
sg56
(lp1013
S':'
asbag49
(g70
g51
NtRp1014
(dp1015
g54
(dp1016
sg63
g1002
sg56
(lp1017
g49
(g50
g51
NtRp1018
(dp1019
g54
(dp1020
g62
I3
ssg63
g1014
sg56
(lp1021
S''
asbasbasbag49
(g65
g51
NtRp1022
(dp1023
g54
(dp1024
sg63
g918
sg56
(lp1025
g49
(g70
g51
NtRp1026
(dp1027
g54
(dp1028
g74
g75
ssg63
g1022
sg56
(lp1029
g368
asbag49
(g70
g51
NtRp1030
(dp1031
g54
(dp1032
g81
g82
ssg63
g1022
sg56
(lp1033
S':'
asbag49
(g70
g51
NtRp1034
(dp1035
g54
(dp1036
sg63
g1022
sg56
(lp1037
g49
(g50
g51
NtRp1038
(dp1039
g54
(dp1040
g62
I3
ssg63
g1034
sg56
(lp1041
S''
asbasbasbag49
(g65
g51
NtRp1042
(dp1043
g54
(dp1044
sg63
g918
sg56
(lp1045
g49
(g70
g51
NtRp1046
(dp1047
g54
(dp1048
g74
g75
ssg63
g1042
sg56
(lp1049
g389
asbag49
(g70
g51
NtRp1050
(dp1051
g54
(dp1052
g81
g82
ssg63
g1042
sg56
(lp1053
S':'
asbag49
(g70
g51
NtRp1054
(dp1055
g54
(dp1056
sg63
g1042
sg56
(lp1057
g49
(g50
g51
NtRp1058
(dp1059
g54
(dp1060
g62
I3
ssg63
g1054
sg56
(lp1061
S''
asbasbasbasbasbasbasbag49
(g65
g51
NtRp1062
(dp1063
g54
(dp1064
sg63
g226
sg56
(lp1065
g49
(g70
g51
NtRp1066
(dp1067
g54
(dp1068
g74
g75
ssg63
g1062
sg56
(lp1069
S'session_id_welcome'
p1070
asbag49
(g70
g51
NtRp1071
(dp1072
g54
(dp1073
g81
g82
ssg63
g1062
sg56
(lp1074
S':'
asbag49
(g70
g51
NtRp1075
(dp1076
g54
(dp1077
sg63
g1062
sg56
(lp1078
g49
(g50
g51
NtRp1079
(dp1080
g54
(dp1081
g62
I4
ssg63
g1075
sg56
(lp1082
g49
(g58
g51
NtRp1083
(dp1084
g54
(dp1085
g62
I3
ssg63
Nsg56
(lp1086
g49
(g65
g51
NtRp1087
(dp1088
g54
(dp1089
sg63
g1083
sg56
(lp1090
g49
(g70
g51
NtRp1091
(dp1092
g54
(dp1093
g74
g75
ssg63
g1087
sg56
(lp1094
g263
asbag49
(g70
g51
NtRp1095
(dp1096
g54
(dp1097
g81
g82
ssg63
g1087
sg56
(lp1098
S':'
asbag49
(g70
g51
NtRp1099
(dp1100
g54
(dp1101
sg63
g1087
sg56
(lp1102
g49
(g50
g51
NtRp1103
(dp1104
g54
(dp1105
g62
I3
ssg63
g1099
sg56
(lp1106
S''
asbasbasbag49
(g65
g51
NtRp1107
(dp1108
g54
(dp1109
sg63
g1083
sg56
(lp1110
g49
(g70
g51
NtRp1111
(dp1112
g54
(dp1113
g74
g75
ssg63
g1107
sg56
(lp1114
g284
asbag49
(g70
g51
NtRp1115
(dp1116
g54
(dp1117
g81
g82
ssg63
g1107
sg56
(lp1118
S':'
asbag49
(g70
g51
NtRp1119
(dp1120
g54
(dp1121
sg63
g1107
sg56
(lp1122
g49
(g50
g51
NtRp1123
(dp1124
g54
(dp1125
g62
I3
ssg63
g1119
sg56
(lp1126
S''
asbasbasbag49
(g65
g51
NtRp1127
(dp1128
g54
(dp1129
sg63
g1083
sg56
(lp1130
g49
(g70
g51
NtRp1131
(dp1132
g54
(dp1133
g74
g75
ssg63
g1127
sg56
(lp1134
g305
asbag49
(g70
g51
NtRp1135
(dp1136
g54
(dp1137
g81
g82
ssg63
g1127
sg56
(lp1138
S':'
asbag49
(g70
g51
NtRp1139
(dp1140
g54
(dp1141
sg63
g1127
sg56
(lp1142
g49
(g50
g51
NtRp1143
(dp1144
g54
(dp1145
g62
I3
ssg63
g1139
sg56
(lp1146
S''
asbasbasbag49
(g65
g51
NtRp1147
(dp1148
g54
(dp1149
sg63
g1083
sg56
(lp1150
g49
(g70
g51
NtRp1151
(dp1152
g54
(dp1153
g74
g75
ssg63
g1147
sg56
(lp1154
g326
asbag49
(g70
g51
NtRp1155
(dp1156
g54
(dp1157
g81
g82
ssg63
g1147
sg56
(lp1158
S':'
asbag49
(g70
g51
NtRp1159
(dp1160
g54
(dp1161
sg63
g1147
sg56
(lp1162
g49
(g50
g51
NtRp1163
(dp1164
g54
(dp1165
g62
I3
ssg63
g1159
sg56
(lp1166
S''
asbasbasbag49
(g65
g51
NtRp1167
(dp1168
g54
(dp1169
sg63
g1083
sg56
(lp1170
g49
(g70
g51
NtRp1171
(dp1172
g54
(dp1173
g74
g75
ssg63
g1167
sg56
(lp1174
g347
asbag49
(g70
g51
NtRp1175
(dp1176
g54
(dp1177
g81
g82
ssg63
g1167
sg56
(lp1178
S':'
asbag49
(g70
g51
NtRp1179
(dp1180
g54
(dp1181
sg63
g1167
sg56
(lp1182
g49
(g50
g51
NtRp1183
(dp1184
g54
(dp1185
g62
I3
ssg63
g1179
sg56
(lp1186
S''
asbasbasbag49
(g65
g51
NtRp1187
(dp1188
g54
(dp1189
sg63
g1083
sg56
(lp1190
g49
(g70
g51
NtRp1191
(dp1192
g54
(dp1193
g74
g75
ssg63
g1187
sg56
(lp1194
g368
asbag49
(g70
g51
NtRp1195
(dp1196
g54
(dp1197
g81
g82
ssg63
g1187
sg56
(lp1198
S':'
asbag49
(g70
g51
NtRp1199
(dp1200
g54
(dp1201
sg63
g1187
sg56
(lp1202
g49
(g50
g51
NtRp1203
(dp1204
g54
(dp1205
g62
I3
ssg63
g1199
sg56
(lp1206
S''
asbasbasbag49
(g65
g51
NtRp1207
(dp1208
g54
(dp1209
sg63
g1083
sg56
(lp1210
g49
(g70
g51
NtRp1211
(dp1212
g54
(dp1213
g74
g75
ssg63
g1207
sg56
(lp1214
g389
asbag49
(g70
g51
NtRp1215
(dp1216
g54
(dp1217
g81
g82
ssg63
g1207
sg56
(lp1218
S':'
asbag49
(g70
g51
NtRp1219
(dp1220
g54
(dp1221
sg63
g1207
sg56
(lp1222
g49
(g50
g51
NtRp1223
(dp1224
g54
(dp1225
g62
I3
ssg63
g1219
sg56
(lp1226
S''
asbasbasbasbasbasbasbasbasbasbasbag49
(g65
g51
NtRp1227
(dp1228
g54
(dp1229
sg63
g59
sg56
(lp1230
g49
(g70
g51
NtRp1231
(dp1232
g54
(dp1233
g74
g75
ssg63
g1227
sg56
(lp1234
S'env'
p1235
asbag49
(g70
g51
NtRp1236
(dp1237
g54
(dp1238
g81
g82
ssg63
g1227
sg56
(lp1239
S':'
asbag49
(g70
g51
NtRp1240
(dp1241
g54
(dp1242
sg63
g1227
sg56
(lp1243
g49
(g50
g51
NtRp1244
(dp1245
g54
(dp1246
g62
I5
ssg63
g1240
sg56
(lp1247
g49
(g58
g51
NtRp1248
(dp1249
g54
(dp1250
g62
I4
ssg63
Nsg56
(lp1251
g49
(g65
g51
NtRp1252
(dp1253
g54
(dp1254
sg63
g1248
sg56
(lp1255
g49
(g70
g51
NtRp1256
(dp1257
g54
(dp1258
g74
g75
ssg63
g1252
sg56
(lp1259
S'app_folders'
p1260
asbag49
(g70
g51
NtRp1261
(dp1262
g54
(dp1263
g81
g82
ssg63
g1252
sg56
(lp1264
S':'
asbag49
(g70
g51
NtRp1265
(dp1266
g54
(dp1267
sg63
g1252
sg56
(lp1268
g49
(g50
g51
NtRp1269
(dp1270
g54
(dp1271
g62
I4
ssg63
g1265
sg56
(lp1272
S"set(['C:\\\\Users\\\\omkara\\\\Desktop\\\\web2py\\\\applications\\\\newA\\\\', 'C:\\\\Users\\\\omkara\\\\Desktop\\\\web2py\\\\applications\\\\slug_register_page\\\\', 'C:\\\\Users\\\\omkara\\\\Desktop\\\\web2py\\\\applications\\\\admin\\\\', 'C:\\\\Users\\\\omkara\\\\Desktop\\\\web2py\\\\applications\\\\welcome\\\\', 'C:\\\\Users\\\\omkara\\\\Desktop\\\\web2py\\\\applications\\\\slug_register\\\\', 'C:\\\\Users\\\\omkara\\\\Desktop\\\\web2py\\\\applications\\\\OnlineNotes_p1_\\\\', 'C:\\\\Users\\\\omkara\\\\Desktop\\\\web2py\\\\applications\\\\SlugBarter\\\\', 'C:\\\\Users\\\\omkara\\\\Desktop\\\\web2py\\\\applications\\\\testApp\\\\'])"
p1273
asbasbasbag49
(g65
g51
NtRp1274
(dp1275
g54
(dp1276
sg63
g1248
sg56
(lp1277
g49
(g70
g51
NtRp1278
(dp1279
g54
(dp1280
g74
g75
ssg63
g1274
sg56
(lp1281
S'applications_parent'
p1282
asbag49
(g70
g51
NtRp1283
(dp1284
g54
(dp1285
g81
g82
ssg63
g1274
sg56
(lp1286
S':'
asbag49
(g70
g51
NtRp1287
(dp1288
g54
(dp1289
sg63
g1274
sg56
(lp1290
g49
(g50
g51
NtRp1291
(dp1292
g54
(dp1293
g62
I4
ssg63
g1287
sg56
(lp1294
S'C:\\Users\\omkara\\Desktop\\web2py'
p1295
asbasbasbag49
(g65
g51
NtRp1296
(dp1297
g54
(dp1298
sg63
g1248
sg56
(lp1299
g49
(g70
g51
NtRp1300
(dp1301
g54
(dp1302
g74
g75
ssg63
g1296
sg56
(lp1303
S'cmd_args'
p1304
asbag49
(g70
g51
NtRp1305
(dp1306
g54
(dp1307
g81
g82
ssg63
g1296
sg56
(lp1308
S':'
asbag49
(g70
g51
NtRp1309
(dp1310
g54
(dp1311
sg63
g1296
sg56
(lp1312
g49
(g50
g51
NtRp1313
(dp1314
g54
(dp1315
g62
I4
ssg63
g1309
sg56
(lp1316
g49
(g58
g51
NtRp1317
(dp1318
g54
(dp1319
g62
I3
ssg63
Nsg56
(lp1320
sbasbasbasbag49
(g65
g51
NtRp1321
(dp1322
g54
(dp1323
sg63
g1248
sg56
(lp1324
g49
(g70
g51
NtRp1325
(dp1326
g54
(dp1327
g74
g75
ssg63
g1321
sg56
(lp1328
S'cmd_options'
p1329
asbag49
(g70
g51
NtRp1330
(dp1331
g54
(dp1332
g81
g82
ssg63
g1321
sg56
(lp1333
S':'
asbag49
(g70
g51
NtRp1334
(dp1335
g54
(dp1336
sg63
g1321
sg56
(lp1337
g49
(g50
g51
NtRp1338
(dp1339
g54
(dp1340
g62
I4
ssg63
g1334
sg56
(lp1341
S"<Values at 0x27b1f80: {'verbose': False, 'ip': '127.0.0.1', 'shutdown_timeout': 5, 'taskbar': False, 'nocron': False, 'pid_filename': 'httpserver.pid', 'maxthreads': None, 'softcron': False, 'server_name': 'omkara-PC', 'bpython': False, 'nogui': False, 'port': 8000, 'extcron': False, 'debuglevel': 30, 'test': None, 'folder': 'C:\\\\Users\\\\omkara\\\\Desktop\\\\web2py', 'config': '', 'import_models': False, 'winservice': '', 'shell': None, 'run': '', 'log_filename': 'httpserver.log', 'args': [''], 'socket_timeout': 5, 'ssl_ca_certificate': None, 'scheduler': None, 'profiler_filename': None, 'ssl_private_key': '', 'password': '<ask>', 'request_queue_size': 5, 'ssl_certificate': '', 'cronjob': False, 'numthreads': None, 'quiet': False, 'interfaces': None, 'minthreads': None, 'timeout': 10, 'plain': False, 'nobanner': False}>"
p1342
asbasbasbag49
(g65
g51
NtRp1343
(dp1344
g54
(dp1345
sg63
g1248
sg56
(lp1346
g49
(g70
g51
NtRp1347
(dp1348
g54
(dp1349
g74
g75
ssg63
g1343
sg56
(lp1350
S'db_sessions'
p1351
asbag49
(g70
g51
NtRp1352
(dp1353
g54
(dp1354
g81
g82
ssg63
g1343
sg56
(lp1355
S':'
asbag49
(g70
g51
NtRp1356
(dp1357
g54
(dp1358
sg63
g1343
sg56
(lp1359
g49
(g50
g51
NtRp1360
(dp1361
g54
(dp1362
g62
I4
ssg63
g1356
sg56
(lp1363
S'set([])'
p1364
asbasbasbag49
(g65
g51
NtRp1365
(dp1366
g54
(dp1367
sg63
g1248
sg56
(lp1368
g49
(g70
g51
NtRp1369
(dp1370
g54
(dp1371
g74
g75
ssg63
g1365
sg56
(lp1372
S'debugging'
p1373
asbag49
(g70
g51
NtRp1374
(dp1375
g54
(dp1376
g81
g82
ssg63
g1365
sg56
(lp1377
S':'
asbag49
(g70
g51
NtRp1378
(dp1379
g54
(dp1380
sg63
g1365
sg56
(lp1381
g49
(g50
g51
NtRp1382
(dp1383
g54
(dp1384
g62
I4
ssg63
g1378
sg56
(lp1385
g92
asbasbasbag49
(g65
g51
NtRp1386
(dp1387
g54
(dp1388
sg63
g1248
sg56
(lp1389
g49
(g70
g51
NtRp1390
(dp1391
g54
(dp1392
g74
g75
ssg63
g1386
sg56
(lp1393
S'gluon_parent'
p1394
asbag49
(g70
g51
NtRp1395
(dp1396
g54
(dp1397
g81
g82
ssg63
g1386
sg56
(lp1398
S':'
asbag49
(g70
g51
NtRp1399
(dp1400
g54
(dp1401
sg63
g1386
sg56
(lp1402
g49
(g50
g51
NtRp1403
(dp1404
g54
(dp1405
g62
I4
ssg63
g1399
sg56
(lp1406
S'C:\\Users\\omkara\\Desktop\\web2py'
p1407
asbasbasbag49
(g65
g51
NtRp1408
(dp1409
g54
(dp1410
sg63
g1248
sg56
(lp1411
g49
(g70
g51
NtRp1412
(dp1413
g54
(dp1414
g74
g75
ssg63
g1408
sg56
(lp1415
S'http_accept'
p1416
asbag49
(g70
g51
NtRp1417
(dp1418
g54
(dp1419
g81
g82
ssg63
g1408
sg56
(lp1420
S':'
asbag49
(g70
g51
NtRp1421
(dp1422
g54
(dp1423
sg63
g1408
sg56
(lp1424
g49
(g50
g51
NtRp1425
(dp1426
g54
(dp1427
g62
I4
ssg63
g1421
sg56
(lp1428
S'text/html,application/xhtml+xml,application/xml;q=0.9,*/*;q=0.8'
p1429
asbasbasbag49
(g65
g51
NtRp1430
(dp1431
g54
(dp1432
sg63
g1248
sg56
(lp1433
g49
(g70
g51
NtRp1434
(dp1435
g54
(dp1436
g74
g75
ssg63
g1430
sg56
(lp1437
S'http_accept_charset'
p1438
asbag49
(g70
g51
NtRp1439
(dp1440
g54
(dp1441
g81
g82
ssg63
g1430
sg56
(lp1442
S':'
asbag49
(g70
g51
NtRp1443
(dp1444
g54
(dp1445
sg63
g1430
sg56
(lp1446
g49
(g50
g51
NtRp1447
(dp1448
g54
(dp1449
g62
I4
ssg63
g1443
sg56
(lp1450
S'ISO-8859-1,utf-8;q=0.7,*;q=0.3'
p1451
asbasbasbag49
(g65
g51
NtRp1452
(dp1453
g54
(dp1454
sg63
g1248
sg56
(lp1455
g49
(g70
g51
NtRp1456
(dp1457
g54
(dp1458
g74
g75
ssg63
g1452
sg56
(lp1459
S'http_accept_encoding'
p1460
asbag49
(g70
g51
NtRp1461
(dp1462
g54
(dp1463
g81
g82
ssg63
g1452
sg56
(lp1464
S':'
asbag49
(g70
g51
NtRp1465
(dp1466
g54
(dp1467
sg63
g1452
sg56
(lp1468
g49
(g50
g51
NtRp1469
(dp1470
g54
(dp1471
g62
I4
ssg63
g1465
sg56
(lp1472
S'gzip,deflate,sdch'
p1473
asbasbasbag49
(g65
g51
NtRp1474
(dp1475
g54
(dp1476
sg63
g1248
sg56
(lp1477
g49
(g70
g51
NtRp1478
(dp1479
g54
(dp1480
g74
g75
ssg63
g1474
sg56
(lp1481
S'http_accept_language'
p1482
asbag49
(g70
g51
NtRp1483
(dp1484
g54
(dp1485
g81
g82
ssg63
g1474
sg56
(lp1486
S':'
asbag49
(g70
g51
NtRp1487
(dp1488
g54
(dp1489
sg63
g1474
sg56
(lp1490
g49
(g50
g51
NtRp1491
(dp1492
g54
(dp1493
g62
I4
ssg63
g1487
sg56
(lp1494
S'en-US,en;q=0.8'
p1495
asbasbasbag49
(g65
g51
NtRp1496
(dp1497
g54
(dp1498
sg63
g1248
sg56
(lp1499
g49
(g70
g51
NtRp1500
(dp1501
g54
(dp1502
g74
g75
ssg63
g1496
sg56
(lp1503
S'http_cache_control'
p1504
asbag49
(g70
g51
NtRp1505
(dp1506
g54
(dp1507
g81
g82
ssg63
g1496
sg56
(lp1508
S':'
asbag49
(g70
g51
NtRp1509
(dp1510
g54
(dp1511
sg63
g1496
sg56
(lp1512
g49
(g50
g51
NtRp1513
(dp1514
g54
(dp1515
g62
I4
ssg63
g1509
sg56
(lp1516
S'max-age=0'
p1517
asbasbasbag49
(g65
g51
NtRp1518
(dp1519
g54
(dp1520
sg63
g1248
sg56
(lp1521
g49
(g70
g51
NtRp1522
(dp1523
g54
(dp1524
g74
g75
ssg63
g1518
sg56
(lp1525
S'http_connection'
p1526
asbag49
(g70
g51
NtRp1527
(dp1528
g54
(dp1529
g81
g82
ssg63
g1518
sg56
(lp1530
S':'
asbag49
(g70
g51
NtRp1531
(dp1532
g54
(dp1533
sg63
g1518
sg56
(lp1534
g49
(g50
g51
NtRp1535
(dp1536
g54
(dp1537
g62
I4
ssg63
g1531
sg56
(lp1538
S'keep-alive'
p1539
asbasbasbag49
(g65
g51
NtRp1540
(dp1541
g54
(dp1542
sg63
g1248
sg56
(lp1543
g49
(g70
g51
NtRp1544
(dp1545
g54
(dp1546
g74
g75
ssg63
g1540
sg56
(lp1547
S'http_cookie'
p1548
asbag49
(g70
g51
NtRp1549
(dp1550
g54
(dp1551
g81
g82
ssg63
g1540
sg56
(lp1552
S':'
asbag49
(g70
g51
NtRp1553
(dp1554
g54
(dp1555
sg63
g1540
sg56
(lp1556
g49
(g50
g51
NtRp1557
(dp1558
g54
(dp1559
g62
I4
ssg63
g1553
sg56
(lp1560
S'session_id_slug_register_page=127.0.0.1-c2775933-22a4-419d-80e2-4c993aff45c7; session_id_welcome=127.0.0.1-a1b3016b-66b8-408b-ae8e-37231f35f16e; session_id_testapp=127.0.0.1-07eafbbd-d252-4b2b-84dc-0b0d16c3c06d; session_id_onlinenotes_p1_=127.0.0.1-2b1a349f-aa95-4718-93d5-e7df1c85d951; session_id_slugbarter=127.0.0.1-e6ebae72-1bbc-48a5-9458-95dbb65a4e54; session_id_admin=127.0.0.1-dcf0163e-0560-4f31-a592-e577714771db'
p1561
asbasbasbag49
(g65
g51
NtRp1562
(dp1563
g54
(dp1564
sg63
g1248
sg56
(lp1565
g49
(g70
g51
NtRp1566
(dp1567
g54
(dp1568
g74
g75
ssg63
g1562
sg56
(lp1569
S'http_host'
p1570
asbag49
(g70
g51
NtRp1571
(dp1572
g54
(dp1573
g81
g82
ssg63
g1562
sg56
(lp1574
S':'
asbag49
(g70
g51
NtRp1575
(dp1576
g54
(dp1577
sg63
g1562
sg56
(lp1578
g49
(g50
g51
NtRp1579
(dp1580
g54
(dp1581
g62
I4
ssg63
g1575
sg56
(lp1582
S'127.0.0.1:8000'
p1583
asbasbasbag49
(g65
g51
NtRp1584
(dp1585
g54
(dp1586
sg63
g1248
sg56
(lp1587
g49
(g70
g51
NtRp1588
(dp1589
g54
(dp1590
g74
g75
ssg63
g1584
sg56
(lp1591
S'http_referer'
p1592
asbag49
(g70
g51
NtRp1593
(dp1594
g54
(dp1595
g81
g82
ssg63
g1584
sg56
(lp1596
S':'
asbag49
(g70
g51
NtRp1597
(dp1598
g54
(dp1599
sg63
g1584
sg56
(lp1600
g49
(g50
g51
NtRp1601
(dp1602
g54
(dp1603
g62
I4
ssg63
g1597
sg56
(lp1604
S'http://127.0.0.1:8000/SlugBarter/default/mypage'
p1605
asbasbasbag49
(g65
g51
NtRp1606
(dp1607
g54
(dp1608
sg63
g1248
sg56
(lp1609
g49
(g70
g51
NtRp1610
(dp1611
g54
(dp1612
g74
g75
ssg63
g1606
sg56
(lp1613
S'http_user_agent'
p1614
asbag49
(g70
g51
NtRp1615
(dp1616
g54
(dp1617
g81
g82
ssg63
g1606
sg56
(lp1618
S':'
asbag49
(g70
g51
NtRp1619
(dp1620
g54
(dp1621
sg63
g1606
sg56
(lp1622
g49
(g50
g51
NtRp1623
(dp1624
g54
(dp1625
g62
I4
ssg63
g1619
sg56
(lp1626
S'Mozilla/5.0 (Windows NT 6.1) AppleWebKit/537.11 (KHTML, like Gecko) Chrome/23.0.1271.64 Safari/537.11'
p1627
asbasbasbag49
(g65
g51
NtRp1628
(dp1629
g54
(dp1630
sg63
g1248
sg56
(lp1631
g49
(g70
g51
NtRp1632
(dp1633
g54
(dp1634
g74
g75
ssg63
g1628
sg56
(lp1635
S'is_jython'
p1636
asbag49
(g70
g51
NtRp1637
(dp1638
g54
(dp1639
g81
g82
ssg63
g1628
sg56
(lp1640
S':'
asbag49
(g70
g51
NtRp1641
(dp1642
g54
(dp1643
sg63
g1628
sg56
(lp1644
g49
(g50
g51
NtRp1645
(dp1646
g54
(dp1647
g62
I4
ssg63
g1641
sg56
(lp1648
g92
asbasbasbag49
(g65
g51
NtRp1649
(dp1650
g54
(dp1651
sg63
g1248
sg56
(lp1652
g49
(g70
g51
NtRp1653
(dp1654
g54
(dp1655
g74
g75
ssg63
g1649
sg56
(lp1656
S'is_pypy'
p1657
asbag49
(g70
g51
NtRp1658
(dp1659
g54
(dp1660
g81
g82
ssg63
g1649
sg56
(lp1661
S':'
asbag49
(g70
g51
NtRp1662
(dp1663
g54
(dp1664
sg63
g1649
sg56
(lp1665
g49
(g50
g51
NtRp1666
(dp1667
g54
(dp1668
g62
I4
ssg63
g1662
sg56
(lp1669
g92
asbasbasbag49
(g65
g51
NtRp1670
(dp1671
g54
(dp1672
sg63
g1248
sg56
(lp1673
g49
(g70
g51
NtRp1674
(dp1675
g54
(dp1676
g74
g75
ssg63
g1670
sg56
(lp1677
S'path_info'
p1678
asbag49
(g70
g51
NtRp1679
(dp1680
g54
(dp1681
g81
g82
ssg63
g1670
sg56
(lp1682
S':'
asbag49
(g70
g51
NtRp1683
(dp1684
g54
(dp1685
sg63
g1670
sg56
(lp1686
g49
(g50
g51
NtRp1687
(dp1688
g54
(dp1689
g62
I4
ssg63
g1683
sg56
(lp1690
S'/SlugBarter/default/view_my_listings.html'
p1691
asbasbasbag49
(g65
g51
NtRp1692
(dp1693
g54
(dp1694
sg63
g1248
sg56
(lp1695
g49
(g70
g51
NtRp1696
(dp1697
g54
(dp1698
g74
g75
ssg63
g1692
sg56
(lp1699
S'query_string'
p1700
asbag49
(g70
g51
NtRp1701
(dp1702
g54
(dp1703
g81
g82
ssg63
g1692
sg56
(lp1704
S':'
asbag49
(g70
g51
NtRp1705
(dp1706
g54
(dp1707
sg63
g1692
sg56
(lp1708
g49
(g50
g51
NtRp1709
(dp1710
g54
(dp1711
g62
I4
ssg63
g1705
sg56
(lp1712
S''
asbasbasbag49
(g65
g51
NtRp1713
(dp1714
g54
(dp1715
sg63
g1248
sg56
(lp1716
g49
(g70
g51
NtRp1717
(dp1718
g54
(dp1719
g74
g75
ssg63
g1713
sg56
(lp1720
S'remote_addr'
p1721
asbag49
(g70
g51
NtRp1722
(dp1723
g54
(dp1724
g81
g82
ssg63
g1713
sg56
(lp1725
S':'
asbag49
(g70
g51
NtRp1726
(dp1727
g54
(dp1728
sg63
g1713
sg56
(lp1729
g49
(g50
g51
NtRp1730
(dp1731
g54
(dp1732
g62
I4
ssg63
g1726
sg56
(lp1733
g182
asbasbasbag49
(g65
g51
NtRp1734
(dp1735
g54
(dp1736
sg63
g1248
sg56
(lp1737
g49
(g70
g51
NtRp1738
(dp1739
g54
(dp1740
g74
g75
ssg63
g1734
sg56
(lp1741
S'remote_port'
p1742
asbag49
(g70
g51
NtRp1743
(dp1744
g54
(dp1745
g81
g82
ssg63
g1734
sg56
(lp1746
S':'
asbag49
(g70
g51
NtRp1747
(dp1748
g54
(dp1749
sg63
g1734
sg56
(lp1750
g49
(g50
g51
NtRp1751
(dp1752
g54
(dp1753
g62
I4
ssg63
g1747
sg56
(lp1754
S'51148'
p1755
asbasbasbag49
(g65
g51
NtRp1756
(dp1757
g54
(dp1758
sg63
g1248
sg56
(lp1759
g49
(g70
g51
NtRp1760
(dp1761
g54
(dp1762
g74
g75
ssg63
g1756
sg56
(lp1763
S'request_method'
p1764
asbag49
(g70
g51
NtRp1765
(dp1766
g54
(dp1767
g81
g82
ssg63
g1756
sg56
(lp1768
S':'
asbag49
(g70
g51
NtRp1769
(dp1770
g54
(dp1771
sg63
g1756
sg56
(lp1772
g49
(g50
g51
NtRp1773
(dp1774
g54
(dp1775
g62
I4
ssg63
g1769
sg56
(lp1776
S'GET'
p1777
asbasbasbag49
(g65
g51
NtRp1778
(dp1779
g54
(dp1780
sg63
g1248
sg56
(lp1781
g49
(g70
g51
NtRp1782
(dp1783
g54
(dp1784
g74
g75
ssg63
g1778
sg56
(lp1785
S'script_name'
p1786
asbag49
(g70
g51
NtRp1787
(dp1788
g54
(dp1789
g81
g82
ssg63
g1778
sg56
(lp1790
S':'
asbag49
(g70
g51
NtRp1791
(dp1792
g54
(dp1793
sg63
g1778
sg56
(lp1794
g49
(g50
g51
NtRp1795
(dp1796
g54
(dp1797
g62
I4
ssg63
g1791
sg56
(lp1798
S''
asbasbasbag49
(g65
g51
NtRp1799
(dp1800
g54
(dp1801
sg63
g1248
sg56
(lp1802
g49
(g70
g51
NtRp1803
(dp1804
g54
(dp1805
g74
g75
ssg63
g1799
sg56
(lp1806
S'server_name'
p1807
asbag49
(g70
g51
NtRp1808
(dp1809
g54
(dp1810
g81
g82
ssg63
g1799
sg56
(lp1811
S':'
asbag49
(g70
g51
NtRp1812
(dp1813
g54
(dp1814
sg63
g1799
sg56
(lp1815
g49
(g50
g51
NtRp1816
(dp1817
g54
(dp1818
g62
I4
ssg63
g1812
sg56
(lp1819
S'omkara-PC'
p1820
asbasbasbag49
(g65
g51
NtRp1821
(dp1822
g54
(dp1823
sg63
g1248
sg56
(lp1824
g49
(g70
g51
NtRp1825
(dp1826
g54
(dp1827
g74
g75
ssg63
g1821
sg56
(lp1828
S'server_port'
p1829
asbag49
(g70
g51
NtRp1830
(dp1831
g54
(dp1832
g81
g82
ssg63
g1821
sg56
(lp1833
S':'
asbag49
(g70
g51
NtRp1834
(dp1835
g54
(dp1836
sg63
g1821
sg56
(lp1837
g49
(g50
g51
NtRp1838
(dp1839
g54
(dp1840
g62
I4
ssg63
g1834
sg56
(lp1841
S'8000'
p1842
asbasbasbag49
(g65
g51
NtRp1843
(dp1844
g54
(dp1845
sg63
g1248
sg56
(lp1846
g49
(g70
g51
NtRp1847
(dp1848
g54
(dp1849
g74
g75
ssg63
g1843
sg56
(lp1850
S'server_protocol'
p1851
asbag49
(g70
g51
NtRp1852
(dp1853
g54
(dp1854
g81
g82
ssg63
g1843
sg56
(lp1855
S':'
asbag49
(g70
g51
NtRp1856
(dp1857
g54
(dp1858
sg63
g1843
sg56
(lp1859
g49
(g50
g51
NtRp1860
(dp1861
g54
(dp1862
g62
I4
ssg63
g1856
sg56
(lp1863
S'HTTP/1.1'
p1864
asbasbasbag49
(g65
g51
NtRp1865
(dp1866
g54
(dp1867
sg63
g1248
sg56
(lp1868
g49
(g70
g51
NtRp1869
(dp1870
g54
(dp1871
g74
g75
ssg63
g1865
sg56
(lp1872
S'server_software'
p1873
asbag49
(g70
g51
NtRp1874
(dp1875
g54
(dp1876
g81
g82
ssg63
g1865
sg56
(lp1877
S':'
asbag49
(g70
g51
NtRp1878
(dp1879
g54
(dp1880
sg63
g1865
sg56
(lp1881
g49
(g50
g51
NtRp1882
(dp1883
g54
(dp1884
g62
I4
ssg63
g1878
sg56
(lp1885
S'Rocket 1.2.4'
p1886
asbasbasbag49
(g65
g51
NtRp1887
(dp1888
g54
(dp1889
sg63
g1248
sg56
(lp1890
g49
(g70
g51
NtRp1891
(dp1892
g54
(dp1893
g74
g75
ssg63
g1887
sg56
(lp1894
S'web2py_crontype'
p1895
asbag49
(g70
g51
NtRp1896
(dp1897
g54
(dp1898
g81
g82
ssg63
g1887
sg56
(lp1899
S':'
asbag49
(g70
g51
NtRp1900
(dp1901
g54
(dp1902
sg63
g1887
sg56
(lp1903
g49
(g50
g51
NtRp1904
(dp1905
g54
(dp1906
g62
I4
ssg63
g1900
sg56
(lp1907
S'hard'
p1908
asbasbasbag49
(g65
g51
NtRp1909
(dp1910
g54
(dp1911
sg63
g1248
sg56
(lp1912
g49
(g70
g51
NtRp1913
(dp1914
g54
(dp1915
g74
g75
ssg63
g1909
sg56
(lp1916
S'web2py_path'
p1917
asbag49
(g70
g51
NtRp1918
(dp1919
g54
(dp1920
g81
g82
ssg63
g1909
sg56
(lp1921
S':'
asbag49
(g70
g51
NtRp1922
(dp1923
g54
(dp1924
sg63
g1909
sg56
(lp1925
g49
(g50
g51
NtRp1926
(dp1927
g54
(dp1928
g62
I4
ssg63
g1922
sg56
(lp1929
g1295
asbasbasbag49
(g65
g51
NtRp1930
(dp1931
g54
(dp1932
sg63
g1248
sg56
(lp1933
g49
(g70
g51
NtRp1934
(dp1935
g54
(dp1936
g74
g75
ssg63
g1930
sg56
(lp1937
S'web2py_version'
p1938
asbag49
(g70
g51
NtRp1939
(dp1940
g54
(dp1941
g81
g82
ssg63
g1930
sg56
(lp1942
S':'
asbag49
(g70
g51
NtRp1943
(dp1944
g54
(dp1945
sg63
g1930
sg56
(lp1946
g49
(g50
g51
NtRp1947
(dp1948
g54
(dp1949
g62
I4
ssg63
g1943
sg56
(lp1950
g49
(g58
g51
NtRp1951
(dp1952
g54
(dp1953
g62
I3
ssg63
Nsg56
(lp1954
g49
(g65
g51
NtRp1955
(dp1956
g54
(dp1957
sg63
g1951
sg56
(lp1958
g49
(g70
g51
NtRp1959
(dp1960
g54
(dp1961
sg63
g1955
sg56
(lp1962
g49
(g50
g51
NtRp1963
(dp1964
g54
(dp1965
g62
I3
ssg63
g1959
sg56
(lp1966
S'1'
asbasbasbag49
(g65
g51
NtRp1967
(dp1968
g54
(dp1969
sg63
g1951
sg56
(lp1970
g49
(g70
g51
NtRp1971
(dp1972
g54
(dp1973
sg63
g1967
sg56
(lp1974
g49
(g50
g51
NtRp1975
(dp1976
g54
(dp1977
g62
I3
ssg63
g1971
sg56
(lp1978
S'99'
p1979
asbasbasbag49
(g65
g51
NtRp1980
(dp1981
g54
(dp1982
sg63
g1951
sg56
(lp1983
g49
(g70
g51
NtRp1984
(dp1985
g54
(dp1986
sg63
g1980
sg56
(lp1987
g49
(g50
g51
NtRp1988
(dp1989
g54
(dp1990
g62
I3
ssg63
g1984
sg56
(lp1991
S'7'
asbasbasbag49
(g65
g51
NtRp1992
(dp1993
g54
(dp1994
sg63
g1951
sg56
(lp1995
g49
(g70
g51
NtRp1996
(dp1997
g54
(dp1998
sg63
g1992
sg56
(lp1999
g49
(g50
g51
NtRp2000
(dp2001
g54
(dp2002
g62
I3
ssg63
g1996
sg56
(lp2003
S'datetime.datetime(2012, 3, 4, 22, 12, 8)'
p2004
asbasbasbag49
(g65
g51
NtRp2005
(dp2006
g54
(dp2007
sg63
g1951
sg56
(lp2008
g49
(g70
g51
NtRp2009
(dp2010
g54
(dp2011
sg63
g2005
sg56
(lp2012
g49
(g50
g51
NtRp2013
(dp2014
g54
(dp2015
g62
I3
ssg63
g2009
sg56
(lp2016
S'stable'
p2017
asbasbasbasbasbasbasbag49
(g65
g51
NtRp2018
(dp2019
g54
(dp2020
sg63
g1248
sg56
(lp2021
g49
(g70
g51
NtRp2022
(dp2023
g54
(dp2024
g74
g75
ssg63
g2018
sg56
(lp2025
S'wsgi_errors'
p2026
asbag49
(g70
g51
NtRp2027
(dp2028
g54
(dp2029
g81
g82
ssg63
g2018
sg56
(lp2030
S':'
asbag49
(g70
g51
NtRp2031
(dp2032
g54
(dp2033
sg63
g2018
sg56
(lp2034
g49
(g50
g51
NtRp2035
(dp2036
g54
(dp2037
g62
I4
ssg63
g2031
sg56
(lp2038
S"<open file '<stderr>', mode 'w' at 0x016000B0>"
p2039
asbasbasbag49
(g65
g51
NtRp2040
(dp2041
g54
(dp2042
sg63
g1248
sg56
(lp2043
g49
(g70
g51
NtRp2044
(dp2045
g54
(dp2046
g74
g75
ssg63
g2040
sg56
(lp2047
S'wsgi_file_wrapper'
p2048
asbag49
(g70
g51
NtRp2049
(dp2050
g54
(dp2051
g81
g82
ssg63
g2040
sg56
(lp2052
S':'
asbag49
(g70
g51
NtRp2053
(dp2054
g54
(dp2055
sg63
g2040
sg56
(lp2056
g49
(g50
g51
NtRp2057
(dp2058
g54
(dp2059
g62
I4
ssg63
g2053
sg56
(lp2060
S'<class wsgiref.util.FileWrapper at 0x025361B0>'
p2061
asbasbasbag49
(g65
g51
NtRp2062
(dp2063
g54
(dp2064
sg63
g1248
sg56
(lp2065
g49
(g70
g51
NtRp2066
(dp2067
g54
(dp2068
g74
g75
ssg63
g2062
sg56
(lp2069
S'wsgi_input'
p2070
asbag49
(g70
g51
NtRp2071
(dp2072
g54
(dp2073
g81
g82
ssg63
g2062
sg56
(lp2074
S':'
asbag49
(g70
g51
NtRp2075
(dp2076
g54
(dp2077
sg63
g2062
sg56
(lp2078
g49
(g50
g51
NtRp2079
(dp2080
g54
(dp2081
g62
I4
ssg63
g2075
sg56
(lp2082
S'<socket._fileobject object at 0x068E6EB0>'
p2083
asbasbasbag49
(g65
g51
NtRp2084
(dp2085
g54
(dp2086
sg63
g1248
sg56
(lp2087
g49
(g70
g51
NtRp2088
(dp2089
g54
(dp2090
g74
g75
ssg63
g2084
sg56
(lp2091
S'wsgi_multiprocess'
p2092
asbag49
(g70
g51
NtRp2093
(dp2094
g54
(dp2095
g81
g82
ssg63
g2084
sg56
(lp2096
S':'
asbag49
(g70
g51
NtRp2097
(dp2098
g54
(dp2099
sg63
g2084
sg56
(lp2100
g49
(g50
g51
NtRp2101
(dp2102
g54
(dp2103
g62
I4
ssg63
g2097
sg56
(lp2104
g92
asbasbasbag49
(g65
g51
NtRp2105
(dp2106
g54
(dp2107
sg63
g1248
sg56
(lp2108
g49
(g70
g51
NtRp2109
(dp2110
g54
(dp2111
g74
g75
ssg63
g2105
sg56
(lp2112
S'wsgi_multithread'
p2113
asbag49
(g70
g51
NtRp2114
(dp2115
g54
(dp2116
g81
g82
ssg63
g2105
sg56
(lp2117
S':'
asbag49
(g70
g51
NtRp2118
(dp2119
g54
(dp2120
sg63
g2105
sg56
(lp2121
g49
(g50
g51
NtRp2122
(dp2123
g54
(dp2124
g62
I4
ssg63
g2118
sg56
(lp2125
S'True'
p2126
asbasbasbag49
(g65
g51
NtRp2127
(dp2128
g54
(dp2129
sg63
g1248
sg56
(lp2130
g49
(g70
g51
NtRp2131
(dp2132
g54
(dp2133
g74
g75
ssg63
g2127
sg56
(lp2134
S'wsgi_run_once'
p2135
asbag49
(g70
g51
NtRp2136
(dp2137
g54
(dp2138
g81
g82
ssg63
g2127
sg56
(lp2139
S':'
asbag49
(g70
g51
NtRp2140
(dp2141
g54
(dp2142
sg63
g2127
sg56
(lp2143
g49
(g50
g51
NtRp2144
(dp2145
g54
(dp2146
g62
I4
ssg63
g2140
sg56
(lp2147
g92
asbasbasbag49
(g65
g51
NtRp2148
(dp2149
g54
(dp2150
sg63
g1248
sg56
(lp2151
g49
(g70
g51
NtRp2152
(dp2153
g54
(dp2154
g74
g75
ssg63
g2148
sg56
(lp2155
S'wsgi_url_scheme'
p2156
asbag49
(g70
g51
NtRp2157
(dp2158
g54
(dp2159
g81
g82
ssg63
g2148
sg56
(lp2160
S':'
asbag49
(g70
g51
NtRp2161
(dp2162
g54
(dp2163
sg63
g2148
sg56
(lp2164
g49
(g50
g51
NtRp2165
(dp2166
g54
(dp2167
g62
I4
ssg63
g2161
sg56
(lp2168
S'http'
p2169
asbasbasbag49
(g65
g51
NtRp2170
(dp2171
g54
(dp2172
sg63
g1248
sg56
(lp2173
g49
(g70
g51
NtRp2174
(dp2175
g54
(dp2176
g74
g75
ssg63
g2170
sg56
(lp2177
S'wsgi_version'
p2178
asbag49
(g70
g51
NtRp2179
(dp2180
g54
(dp2181
g81
g82
ssg63
g2170
sg56
(lp2182
S':'
asbag49
(g70
g51
NtRp2183
(dp2184
g54
(dp2185
sg63
g2170
sg56
(lp2186
g49
(g50
g51
NtRp2187
(dp2188
g54
(dp2189
g62
I4
ssg63
g2183
sg56
(lp2190
g49
(g58
g51
NtRp2191
(dp2192
g54
(dp2193
g62
I3
ssg63
Nsg56
(lp2194
g49
(g65
g51
NtRp2195
(dp2196
g54
(dp2197
sg63
g2191
sg56
(lp2198
g49
(g70
g51
NtRp2199
(dp2200
g54
(dp2201
sg63
g2195
sg56
(lp2202
g49
(g50
g51
NtRp2203
(dp2204
g54
(dp2205
g62
I3
ssg63
g2199
sg56
(lp2206
S'1'
asbasbasbag49
(g65
g51
NtRp2207
(dp2208
g54
(dp2209
sg63
g2191
sg56
(lp2210
g49
(g70
g51
NtRp2211
(dp2212
g54
(dp2213
sg63
g2207
sg56
(lp2214
g49
(g50
g51
NtRp2215
(dp2216
g54
(dp2217
g62
I3
ssg63
g2211
sg56
(lp2218
S'0'
asbasbasbasbasbasbasbasbasbasbasbag49
(g65
g51
NtRp2219
(dp2220
g54
(dp2221
sg63
g59
sg56
(lp2222
g49
(g70
g51
NtRp2223
(dp2224
g54
(dp2225
g74
g75
ssg63
g2219
sg56
(lp2226
S'extension'
p2227
asbag49
(g70
g51
NtRp2228
(dp2229
g54
(dp2230
g81
g82
ssg63
g2219
sg56
(lp2231
S':'
asbag49
(g70
g51
NtRp2232
(dp2233
g54
(dp2234
sg63
g2219
sg56
(lp2235
g49
(g50
g51
NtRp2236
(dp2237
g54
(dp2238
g62
I5
ssg63
g2232
sg56
(lp2239
S'html'
p2240
asbasbasbag49
(g65
g51
NtRp2241
(dp2242
g54
(dp2243
sg63
g59
sg56
(lp2244
g49
(g70
g51
NtRp2245
(dp2246
g54
(dp2247
g74
g75
ssg63
g2241
sg56
(lp2248
S'folder'
p2249
asbag49
(g70
g51
NtRp2250
(dp2251
g54
(dp2252
g81
g82
ssg63
g2241
sg56
(lp2253
S':'
asbag49
(g70
g51
NtRp2254
(dp2255
g54
(dp2256
sg63
g2241
sg56
(lp2257
g49
(g50
g51
NtRp2258
(dp2259
g54
(dp2260
g62
I5
ssg63
g2254
sg56
(lp2261
S'C:\\Users\\omkara\\Desktop\\web2py\\applications\\SlugBarter\\'
p2262
asbasbasbag49
(g65
g51
NtRp2263
(dp2264
g54
(dp2265
sg63
g59
sg56
(lp2266
g49
(g70
g51
NtRp2267
(dp2268
g54
(dp2269
g74
g75
ssg63
g2263
sg56
(lp2270
S'function'
p2271
asbag49
(g70
g51
NtRp2272
(dp2273
g54
(dp2274
g81
g82
ssg63
g2263
sg56
(lp2275
S':'
asbag49
(g70
g51
NtRp2276
(dp2277
g54
(dp2278
sg63
g2263
sg56
(lp2279
g49
(g50
g51
NtRp2280
(dp2281
g54
(dp2282
g62
I5
ssg63
g2276
sg56
(lp2283
S'view_my_listings'
p2284
asbasbasbag49
(g65
g51
NtRp2285
(dp2286
g54
(dp2287
sg63
g59
sg56
(lp2288
g49
(g70
g51
NtRp2289
(dp2290
g54
(dp2291
g74
g75
ssg63
g2285
sg56
(lp2292
S'get_vars'
p2293
asbag49
(g70
g51
NtRp2294
(dp2295
g54
(dp2296
g81
g82
ssg63
g2285
sg56
(lp2297
S':'
asbag49
(g70
g51
NtRp2298
(dp2299
g54
(dp2300
sg63
g2285
sg56
(lp2301
g49
(g50
g51
NtRp2302
(dp2303
g54
(dp2304
g62
I5
ssg63
g2298
sg56
(lp2305
g49
(g58
g51
NtRp2306
(dp2307
g54
(dp2308
g62
I4
ssg63
Nsg56
(lp2309
sbasbasbasbag49
(g65
g51
NtRp2310
(dp2311
g54
(dp2312
sg63
g59
sg56
(lp2313
g49
(g70
g51
NtRp2314
(dp2315
g54
(dp2316
g74
g75
ssg63
g2310
sg56
(lp2317
S'global_settings'
p2318
asbag49
(g70
g51
NtRp2319
(dp2320
g54
(dp2321
g81
g82
ssg63
g2310
sg56
(lp2322
S':'
asbag49
(g70
g51
NtRp2323
(dp2324
g54
(dp2325
sg63
g2310
sg56
(lp2326
g49
(g50
g51
NtRp2327
(dp2328
g54
(dp2329
g62
I5
ssg63
g2323
sg56
(lp2330
g49
(g58
g51
NtRp2331
(dp2332
g54
(dp2333
g62
I4
ssg63
Nsg56
(lp2334
g49
(g65
g51
NtRp2335
(dp2336
g54
(dp2337
sg63
g2331
sg56
(lp2338
g49
(g70
g51
NtRp2339
(dp2340
g54
(dp2341
g74
g75
ssg63
g2335
sg56
(lp2342
g1260
asbag49
(g70
g51
NtRp2343
(dp2344
g54
(dp2345
g81
g82
ssg63
g2335
sg56
(lp2346
S':'
asbag49
(g70
g51
NtRp2347
(dp2348
g54
(dp2349
sg63
g2335
sg56
(lp2350
g49
(g50
g51
NtRp2351
(dp2352
g54
(dp2353
g62
I4
ssg63
g2347
sg56
(lp2354
S"set(['C:\\\\Users\\\\omkara\\\\Desktop\\\\web2py\\\\applications\\\\newA\\\\', 'C:\\\\Users\\\\omkara\\\\Desktop\\\\web2py\\\\applications\\\\slug_register_page\\\\', 'C:\\\\Users\\\\omkara\\\\Desktop\\\\web2py\\\\applications\\\\admin\\\\', 'C:\\\\Users\\\\omkara\\\\Desktop\\\\web2py\\\\applications\\\\welcome\\\\', 'C:\\\\Users\\\\omkara\\\\Desktop\\\\web2py\\\\applications\\\\slug_register\\\\', 'C:\\\\Users\\\\omkara\\\\Desktop\\\\web2py\\\\applications\\\\OnlineNotes_p1_\\\\', 'C:\\\\Users\\\\omkara\\\\Desktop\\\\web2py\\\\applications\\\\SlugBarter\\\\', 'C:\\\\Users\\\\omkara\\\\Desktop\\\\web2py\\\\applications\\\\testApp\\\\'])"
p2355
asbasbasbag49
(g65
g51
NtRp2356
(dp2357
g54
(dp2358
sg63
g2331
sg56
(lp2359
g49
(g70
g51
NtRp2360
(dp2361
g54
(dp2362
g74
g75
ssg63
g2356
sg56
(lp2363
g1282
asbag49
(g70
g51
NtRp2364
(dp2365
g54
(dp2366
g81
g82
ssg63
g2356
sg56
(lp2367
S':'
asbag49
(g70
g51
NtRp2368
(dp2369
g54
(dp2370
sg63
g2356
sg56
(lp2371
g49
(g50
g51
NtRp2372
(dp2373
g54
(dp2374
g62
I4
ssg63
g2368
sg56
(lp2375
g1295
asbasbasbag49
(g65
g51
NtRp2376
(dp2377
g54
(dp2378
sg63
g2331
sg56
(lp2379
g49
(g70
g51
NtRp2380
(dp2381
g54
(dp2382
g74
g75
ssg63
g2376
sg56
(lp2383
g1304
asbag49
(g70
g51
NtRp2384
(dp2385
g54
(dp2386
g81
g82
ssg63
g2376
sg56
(lp2387
S':'
asbag49
(g70
g51
NtRp2388
(dp2389
g54
(dp2390
sg63
g2376
sg56
(lp2391
g49
(g50
g51
NtRp2392
(dp2393
g54
(dp2394
g62
I4
ssg63
g2388
sg56
(lp2395
g49
(g58
g51
NtRp2396
(dp2397
g54
(dp2398
g62
I3
ssg63
Nsg56
(lp2399
sbasbasbasbag49
(g65
g51
NtRp2400
(dp2401
g54
(dp2402
sg63
g2331
sg56
(lp2403
g49
(g70
g51
NtRp2404
(dp2405
g54
(dp2406
g74
g75
ssg63
g2400
sg56
(lp2407
g1329
asbag49
(g70
g51
NtRp2408
(dp2409
g54
(dp2410
g81
g82
ssg63
g2400
sg56
(lp2411
S':'
asbag49
(g70
g51
NtRp2412
(dp2413
g54
(dp2414
sg63
g2400
sg56
(lp2415
g49
(g50
g51
NtRp2416
(dp2417
g54
(dp2418
g62
I4
ssg63
g2412
sg56
(lp2419
S"<Values at 0x27b1f80: {'verbose': False, 'ip': '127.0.0.1', 'shutdown_timeout': 5, 'taskbar': False, 'nocron': False, 'pid_filename': 'httpserver.pid', 'maxthreads': None, 'softcron': False, 'server_name': 'omkara-PC', 'bpython': False, 'nogui': False, 'port': 8000, 'extcron': False, 'debuglevel': 30, 'test': None, 'folder': 'C:\\\\Users\\\\omkara\\\\Desktop\\\\web2py', 'config': '', 'import_models': False, 'winservice': '', 'shell': None, 'run': '', 'log_filename': 'httpserver.log', 'args': [''], 'socket_timeout': 5, 'ssl_ca_certificate': None, 'scheduler': None, 'profiler_filename': None, 'ssl_private_key': '', 'password': '<ask>', 'request_queue_size': 5, 'ssl_certificate': '', 'cronjob': False, 'numthreads': None, 'quiet': False, 'interfaces': None, 'minthreads': None, 'timeout': 10, 'plain': False, 'nobanner': False}>"
p2420
asbasbasbag49
(g65
g51
NtRp2421
(dp2422
g54
(dp2423
sg63
g2331
sg56
(lp2424
g49
(g70
g51
NtRp2425
(dp2426
g54
(dp2427
g74
g75
ssg63
g2421
sg56
(lp2428
g1351
asbag49
(g70
g51
NtRp2429
(dp2430
g54
(dp2431
g81
g82
ssg63
g2421
sg56
(lp2432
S':'
asbag49
(g70
g51
NtRp2433
(dp2434
g54
(dp2435
sg63
g2421
sg56
(lp2436
g49
(g50
g51
NtRp2437
(dp2438
g54
(dp2439
g62
I4
ssg63
g2433
sg56
(lp2440
S'set([])'
p2441
asbasbasbag49
(g65
g51
NtRp2442
(dp2443
g54
(dp2444
sg63
g2331
sg56
(lp2445
g49
(g70
g51
NtRp2446
(dp2447
g54
(dp2448
g74
g75
ssg63
g2442
sg56
(lp2449
g1373
asbag49
(g70
g51
NtRp2450
(dp2451
g54
(dp2452
g81
g82
ssg63
g2442
sg56
(lp2453
S':'
asbag49
(g70
g51
NtRp2454
(dp2455
g54
(dp2456
sg63
g2442
sg56
(lp2457
g49
(g50
g51
NtRp2458
(dp2459
g54
(dp2460
g62
I4
ssg63
g2454
sg56
(lp2461
g92
asbasbasbag49
(g65
g51
NtRp2462
(dp2463
g54
(dp2464
sg63
g2331
sg56
(lp2465
g49
(g70
g51
NtRp2466
(dp2467
g54
(dp2468
g74
g75
ssg63
g2462
sg56
(lp2469
g1394
asbag49
(g70
g51
NtRp2470
(dp2471
g54
(dp2472
g81
g82
ssg63
g2462
sg56
(lp2473
S':'
asbag49
(g70
g51
NtRp2474
(dp2475
g54
(dp2476
sg63
g2462
sg56
(lp2477
g49
(g50
g51
NtRp2478
(dp2479
g54
(dp2480
g62
I4
ssg63
g2474
sg56
(lp2481
g1407
asbasbasbag49
(g65
g51
NtRp2482
(dp2483
g54
(dp2484
sg63
g2331
sg56
(lp2485
g49
(g70
g51
NtRp2486
(dp2487
g54
(dp2488
g74
g75
ssg63
g2482
sg56
(lp2489
g1636
asbag49
(g70
g51
NtRp2490
(dp2491
g54
(dp2492
g81
g82
ssg63
g2482
sg56
(lp2493
S':'
asbag49
(g70
g51
NtRp2494
(dp2495
g54
(dp2496
sg63
g2482
sg56
(lp2497
g49
(g50
g51
NtRp2498
(dp2499
g54
(dp2500
g62
I4
ssg63
g2494
sg56
(lp2501
g92
asbasbasbag49
(g65
g51
NtRp2502
(dp2503
g54
(dp2504
sg63
g2331
sg56
(lp2505
g49
(g70
g51
NtRp2506
(dp2507
g54
(dp2508
g74
g75
ssg63
g2502
sg56
(lp2509
g1657
asbag49
(g70
g51
NtRp2510
(dp2511
g54
(dp2512
g81
g82
ssg63
g2502
sg56
(lp2513
S':'
asbag49
(g70
g51
NtRp2514
(dp2515
g54
(dp2516
sg63
g2502
sg56
(lp2517
g49
(g50
g51
NtRp2518
(dp2519
g54
(dp2520
g62
I4
ssg63
g2514
sg56
(lp2521
g92
asbasbasbag49
(g65
g51
NtRp2522
(dp2523
g54
(dp2524
sg63
g2331
sg56
(lp2525
g49
(g70
g51
NtRp2526
(dp2527
g54
(dp2528
g74
g75
ssg63
g2522
sg56
(lp2529
g1895
asbag49
(g70
g51
NtRp2530
(dp2531
g54
(dp2532
g81
g82
ssg63
g2522
sg56
(lp2533
S':'
asbag49
(g70
g51
NtRp2534
(dp2535
g54
(dp2536
sg63
g2522
sg56
(lp2537
g49
(g50
g51
NtRp2538
(dp2539
g54
(dp2540
g62
I4
ssg63
g2534
sg56
(lp2541
g1908
asbasbasbag49
(g65
g51
NtRp2542
(dp2543
g54
(dp2544
sg63
g2331
sg56
(lp2545
g49
(g70
g51
NtRp2546
(dp2547
g54
(dp2548
g74
g75
ssg63
g2542
sg56
(lp2549
g1938
asbag49
(g70
g51
NtRp2550
(dp2551
g54
(dp2552
g81
g82
ssg63
g2542
sg56
(lp2553
S':'
asbag49
(g70
g51
NtRp2554
(dp2555
g54
(dp2556
sg63
g2542
sg56
(lp2557
g49
(g50
g51
NtRp2558
(dp2559
g54
(dp2560
g62
I4
ssg63
g2554
sg56
(lp2561
g49
(g58
g51
NtRp2562
(dp2563
g54
(dp2564
g62
I3
ssg63
Nsg56
(lp2565
g49
(g65
g51
NtRp2566
(dp2567
g54
(dp2568
sg63
g2562
sg56
(lp2569
g49
(g70
g51
NtRp2570
(dp2571
g54
(dp2572
sg63
g2566
sg56
(lp2573
g49
(g50
g51
NtRp2574
(dp2575
g54
(dp2576
g62
I3
ssg63
g2570
sg56
(lp2577
S'1'
asbasbasbag49
(g65
g51
NtRp2578
(dp2579
g54
(dp2580
sg63
g2562
sg56
(lp2581
g49
(g70
g51
NtRp2582
(dp2583
g54
(dp2584
sg63
g2578
sg56
(lp2585
g49
(g50
g51
NtRp2586
(dp2587
g54
(dp2588
g62
I3
ssg63
g2582
sg56
(lp2589
S'99'
p2590
asbasbasbag49
(g65
g51
NtRp2591
(dp2592
g54
(dp2593
sg63
g2562
sg56
(lp2594
g49
(g70
g51
NtRp2595
(dp2596
g54
(dp2597
sg63
g2591
sg56
(lp2598
g49
(g50
g51
NtRp2599
(dp2600
g54
(dp2601
g62
I3
ssg63
g2595
sg56
(lp2602
S'7'
asbasbasbag49
(g65
g51
NtRp2603
(dp2604
g54
(dp2605
sg63
g2562
sg56
(lp2606
g49
(g70
g51
NtRp2607
(dp2608
g54
(dp2609
sg63
g2603
sg56
(lp2610
g49
(g50
g51
NtRp2611
(dp2612
g54
(dp2613
g62
I3
ssg63
g2607
sg56
(lp2614
S'datetime.datetime(2012, 3, 4, 22, 12, 8)'
p2615
asbasbasbag49
(g65
g51
NtRp2616
(dp2617
g54
(dp2618
sg63
g2562
sg56
(lp2619
g49
(g70
g51
NtRp2620
(dp2621
g54
(dp2622
sg63
g2616
sg56
(lp2623
g49
(g50
g51
NtRp2624
(dp2625
g54
(dp2626
g62
I3
ssg63
g2620
sg56
(lp2627
g2017
asbasbasbasbasbasbasbasbasbasbasbag49
(g65
g51
NtRp2628
(dp2629
g54
(dp2630
sg63
g59
sg56
(lp2631
g49
(g70
g51
NtRp2632
(dp2633
g54
(dp2634
g74
g75
ssg63
g2628
sg56
(lp2635
S'is_https'
p2636
asbag49
(g70
g51
NtRp2637
(dp2638
g54
(dp2639
g81
g82
ssg63
g2628
sg56
(lp2640
S':'
asbag49
(g70
g51
NtRp2641
(dp2642
g54
(dp2643
sg63
g2628
sg56
(lp2644
g49
(g50
g51
NtRp2645
(dp2646
g54
(dp2647
g62
I5
ssg63
g2641
sg56
(lp2648
g92
asbasbasbag49
(g65
g51
NtRp2649
(dp2650
g54
(dp2651
sg63
g59
sg56
(lp2652
g49
(g70
g51
NtRp2653
(dp2654
g54
(dp2655
g74
g75
ssg63
g2649
sg56
(lp2656
S'is_local'
p2657
asbag49
(g70
g51
NtRp2658
(dp2659
g54
(dp2660
g81
g82
ssg63
g2649
sg56
(lp2661
S':'
asbag49
(g70
g51
NtRp2662
(dp2663
g54
(dp2664
sg63
g2649
sg56
(lp2665
g49
(g50
g51
NtRp2666
(dp2667
g54
(dp2668
g62
I5
ssg63
g2662
sg56
(lp2669
g2126
asbasbasbag49
(g65
g51
NtRp2670
(dp2671
g54
(dp2672
sg63
g59
sg56
(lp2673
g49
(g70
g51
NtRp2674
(dp2675
g54
(dp2676
g74
g75
ssg63
g2670
sg56
(lp2677
S'is_restful'
p2678
asbag49
(g70
g51
NtRp2679
(dp2680
g54
(dp2681
g81
g82
ssg63
g2670
sg56
(lp2682
S':'
asbag49
(g70
g51
NtRp2683
(dp2684
g54
(dp2685
sg63
g2670
sg56
(lp2686
g49
(g50
g51
NtRp2687
(dp2688
g54
(dp2689
g62
I5
ssg63
g2683
sg56
(lp2690
g92
asbasbasbag49
(g65
g51
NtRp2691
(dp2692
g54
(dp2693
sg63
g59
sg56
(lp2694
g49
(g70
g51
NtRp2695
(dp2696
g54
(dp2697
g74
g75
ssg63
g2691
sg56
(lp2698
S'now'
p2699
asbag49
(g70
g51
NtRp2700
(dp2701
g54
(dp2702
g81
g82
ssg63
g2691
sg56
(lp2703
S':'
asbag49
(g70
g51
NtRp2704
(dp2705
g54
(dp2706
sg63
g2691
sg56
(lp2707
g49
(g50
g51
NtRp2708
(dp2709
g54
(dp2710
g62
I5
ssg63
g2704
sg56
(lp2711
S'datetime.datetime(2012, 11, 11, 19, 10, 7, 109000)'
p2712
asbasbasbag49
(g65
g51
NtRp2713
(dp2714
g54
(dp2715
sg63
g59
sg56
(lp2716
g49
(g70
g51
NtRp2717
(dp2718
g54
(dp2719
g74
g75
ssg63
g2713
sg56
(lp2720
S'post_vars'
p2721
asbag49
(g70
g51
NtRp2722
(dp2723
g54
(dp2724
g81
g82
ssg63
g2713
sg56
(lp2725
S':'
asbag49
(g70
g51
NtRp2726
(dp2727
g54
(dp2728
sg63
g2713
sg56
(lp2729
g49
(g50
g51
NtRp2730
(dp2731
g54
(dp2732
g62
I5
ssg63
g2726
sg56
(lp2733
g49
(g58
g51
NtRp2734
(dp2735
g54
(dp2736
g62
I4
ssg63
Nsg56
(lp2737
sbasbasbasbag49
(g65
g51
NtRp2738
(dp2739
g54
(dp2740
sg63
g59
sg56
(lp2741
g49
(g70
g51
NtRp2742
(dp2743
g54
(dp2744
g74
g75
ssg63
g2738
sg56
(lp2745
S'raw_extension'
p2746
asbag49
(g70
g51
NtRp2747
(dp2748
g54
(dp2749
g81
g82
ssg63
g2738
sg56
(lp2750
S':'
asbag49
(g70
g51
NtRp2751
(dp2752
g54
(dp2753
sg63
g2738
sg56
(lp2754
g49
(g50
g51
NtRp2755
(dp2756
g54
(dp2757
g62
I5
ssg63
g2751
sg56
(lp2758
g2240
asbasbasbag49
(g65
g51
NtRp2759
(dp2760
g54
(dp2761
sg63
g59
sg56
(lp2762
g49
(g70
g51
NtRp2763
(dp2764
g54
(dp2765
g74
g75
ssg63
g2759
sg56
(lp2766
S'url'
p2767
asbag49
(g70
g51
NtRp2768
(dp2769
g54
(dp2770
g81
g82
ssg63
g2759
sg56
(lp2771
S':'
asbag49
(g70
g51
NtRp2772
(dp2773
g54
(dp2774
sg63
g2759
sg56
(lp2775
g49
(g50
g51
NtRp2776
(dp2777
g54
(dp2778
g62
I5
ssg63
g2772
sg56
(lp2779
S'/SlugBarter/default/view_my_listings.html'
p2780
asbasbasbag49
(g65
g51
NtRp2781
(dp2782
g54
(dp2783
sg63
g59
sg56
(lp2784
g49
(g70
g51
NtRp2785
(dp2786
g54
(dp2787
g74
g75
ssg63
g2781
sg56
(lp2788
S'utcnow'
p2789
asbag49
(g70
g51
NtRp2790
(dp2791
g54
(dp2792
g81
g82
ssg63
g2781
sg56
(lp2793
S':'
asbag49
(g70
g51
NtRp2794
(dp2795
g54
(dp2796
sg63
g2781
sg56
(lp2797
g49
(g50
g51
NtRp2798
(dp2799
g54
(dp2800
g62
I5
ssg63
g2794
sg56
(lp2801
S'datetime.datetime(2012, 11, 12, 3, 10, 7, 109000)'
p2802
asbasbasbag49
(g65
g51
NtRp2803
(dp2804
g54
(dp2805
sg63
g59
sg56
(lp2806
g49
(g70
g51
NtRp2807
(dp2808
g54
(dp2809
g74
g75
ssg63
g2803
sg56
(lp2810
S'uuid'
p2811
asbag49
(g70
g51
NtRp2812
(dp2813
g54
(dp2814
g81
g82
ssg63
g2803
sg56
(lp2815
S':'
asbag49
(g70
g51
NtRp2816
(dp2817
g54
(dp2818
sg63
g2803
sg56
(lp2819
g49
(g50
g51
NtRp2820
(dp2821
g54
(dp2822
g62
I5
ssg63
g2816
sg56
(lp2823
S'SlugBarter/127.0.0.1.2012-11-11.19-10-07.3853e1bc-6f5c-41a5-a2bd-804fd89619e3'
p2824
asbasbasbag49
(g65
g51
NtRp2825
(dp2826
g54
(dp2827
sg63
g59
sg56
(lp2828
g49
(g70
g51
NtRp2829
(dp2830
g54
(dp2831
g74
g75
ssg63
g2825
sg56
(lp2832
S'vars'
p2833
asbag49
(g70
g51
NtRp2834
(dp2835
g54
(dp2836
g81
g82
ssg63
g2825
sg56
(lp2837
S':'
asbag49
(g70
g51
NtRp2838
(dp2839
g54
(dp2840
sg63
g2825
sg56
(lp2841
g49
(g50
g51
NtRp2842
(dp2843
g54
(dp2844
g62
I5
ssg63
g2838
sg56
(lp2845
g49
(g58
g51
NtRp2846
(dp2847
g54
(dp2848
g62
I4
ssg63
Nsg56
(lp2849
sbasbasbasbag49
(g65
g51
NtRp2850
(dp2851
g54
(dp2852
sg63
g59
sg56
(lp2853
g49
(g70
g51
NtRp2854
(dp2855
g54
(dp2856
g74
g75
ssg63
g2850
sg56
(lp2857
S'wsgi'
p2858
asbag49
(g70
g51
NtRp2859
(dp2860
g54
(dp2861
g81
g82
ssg63
g2850
sg56
(lp2862
S':'
asbag49
(g70
g51
NtRp2863
(dp2864
g54
(dp2865
sg63
g2850
sg56
(lp2866
g49
(g50
g51
NtRp2867
(dp2868
g54
(dp2869
g62
I5
ssg63
g2863
sg56
(lp2870
g49
(g58
g51
NtRp2871
(dp2872
g54
(dp2873
g62
I4
ssg63
Nsg56
(lp2874
g49
(g65
g51
NtRp2875
(dp2876
g54
(dp2877
sg63
g2871
sg56
(lp2878
g49
(g70
g51
NtRp2879
(dp2880
g54
(dp2881
g74
g75
ssg63
g2875
sg56
(lp2882
S'environ'
p2883
asbag49
(g70
g51
NtRp2884
(dp2885
g54
(dp2886
g81
g82
ssg63
g2875
sg56
(lp2887
S':'
asbag49
(g70
g51
NtRp2888
(dp2889
g54
(dp2890
sg63
g2875
sg56
(lp2891
g49
(g50
g51
NtRp2892
(dp2893
g54
(dp2894
g62
I4
ssg63
g2888
sg56
(lp2895
g49
(g58
g51
NtRp2896
(dp2897
g54
(dp2898
g62
I3
ssg63
Nsg56
(lp2899
g49
(g65
g51
NtRp2900
(dp2901
g54
(dp2902
sg63
g2896
sg56
(lp2903
g49
(g70
g51
NtRp2904
(dp2905
g54
(dp2906
g74
g75
ssg63
g2900
sg56
(lp2907
S'HTTP_ACCEPT'
p2908
asbag49
(g70
g51
NtRp2909
(dp2910
g54
(dp2911
g81
g82
ssg63
g2900
sg56
(lp2912
S':'
asbag49
(g70
g51
NtRp2913
(dp2914
g54
(dp2915
sg63
g2900
sg56
(lp2916
g49
(g50
g51
NtRp2917
(dp2918
g54
(dp2919
g62
I3
ssg63
g2913
sg56
(lp2920
g1429
asbasbasbag49
(g65
g51
NtRp2921
(dp2922
g54
(dp2923
sg63
g2896
sg56
(lp2924
g49
(g70
g51
NtRp2925
(dp2926
g54
(dp2927
g74
g75
ssg63
g2921
sg56
(lp2928
S'HTTP_ACCEPT_CHARSET'
p2929
asbag49
(g70
g51
NtRp2930
(dp2931
g54
(dp2932
g81
g82
ssg63
g2921
sg56
(lp2933
S':'
asbag49
(g70
g51
NtRp2934
(dp2935
g54
(dp2936
sg63
g2921
sg56
(lp2937
g49
(g50
g51
NtRp2938
(dp2939
g54
(dp2940
g62
I3
ssg63
g2934
sg56
(lp2941
g1451
asbasbasbag49
(g65
g51
NtRp2942
(dp2943
g54
(dp2944
sg63
g2896
sg56
(lp2945
g49
(g70
g51
NtRp2946
(dp2947
g54
(dp2948
g74
g75
ssg63
g2942
sg56
(lp2949
S'HTTP_ACCEPT_ENCODING'
p2950
asbag49
(g70
g51
NtRp2951
(dp2952
g54
(dp2953
g81
g82
ssg63
g2942
sg56
(lp2954
S':'
asbag49
(g70
g51
NtRp2955
(dp2956
g54
(dp2957
sg63
g2942
sg56
(lp2958
g49
(g50
g51
NtRp2959
(dp2960
g54
(dp2961
g62
I3
ssg63
g2955
sg56
(lp2962
g1473
asbasbasbag49
(g65
g51
NtRp2963
(dp2964
g54
(dp2965
sg63
g2896
sg56
(lp2966
g49
(g70
g51
NtRp2967
(dp2968
g54
(dp2969
g74
g75
ssg63
g2963
sg56
(lp2970
S'HTTP_ACCEPT_LANGUAGE'
p2971
asbag49
(g70
g51
NtRp2972
(dp2973
g54
(dp2974
g81
g82
ssg63
g2963
sg56
(lp2975
S':'
asbag49
(g70
g51
NtRp2976
(dp2977
g54
(dp2978
sg63
g2963
sg56
(lp2979
g49
(g50
g51
NtRp2980
(dp2981
g54
(dp2982
g62
I3
ssg63
g2976
sg56
(lp2983
g1495
asbasbasbag49
(g65
g51
NtRp2984
(dp2985
g54
(dp2986
sg63
g2896
sg56
(lp2987
g49
(g70
g51
NtRp2988
(dp2989
g54
(dp2990
g74
g75
ssg63
g2984
sg56
(lp2991
S'HTTP_CACHE_CONTROL'
p2992
asbag49
(g70
g51
NtRp2993
(dp2994
g54
(dp2995
g81
g82
ssg63
g2984
sg56
(lp2996
S':'
asbag49
(g70
g51
NtRp2997
(dp2998
g54
(dp2999
sg63
g2984
sg56
(lp3000
g49
(g50
g51
NtRp3001
(dp3002
g54
(dp3003
g62
I3
ssg63
g2997
sg56
(lp3004
g1517
asbasbasbag49
(g65
g51
NtRp3005
(dp3006
g54
(dp3007
sg63
g2896
sg56
(lp3008
g49
(g70
g51
NtRp3009
(dp3010
g54
(dp3011
g74
g75
ssg63
g3005
sg56
(lp3012
S'HTTP_CONNECTION'
p3013
asbag49
(g70
g51
NtRp3014
(dp3015
g54
(dp3016
g81
g82
ssg63
g3005
sg56
(lp3017
S':'
asbag49
(g70
g51
NtRp3018
(dp3019
g54
(dp3020
sg63
g3005
sg56
(lp3021
g49
(g50
g51
NtRp3022
(dp3023
g54
(dp3024
g62
I3
ssg63
g3018
sg56
(lp3025
g1539
asbasbasbag49
(g65
g51
NtRp3026
(dp3027
g54
(dp3028
sg63
g2896
sg56
(lp3029
g49
(g70
g51
NtRp3030
(dp3031
g54
(dp3032
g74
g75
ssg63
g3026
sg56
(lp3033
S'HTTP_COOKIE'
p3034
asbag49
(g70
g51
NtRp3035
(dp3036
g54
(dp3037
g81
g82
ssg63
g3026
sg56
(lp3038
S':'
asbag49
(g70
g51
NtRp3039
(dp3040
g54
(dp3041
sg63
g3026
sg56
(lp3042
g49
(g50
g51
NtRp3043
(dp3044
g54
(dp3045
g62
I3
ssg63
g3039
sg56
(lp3046
g1561
asbasbasbag49
(g65
g51
NtRp3047
(dp3048
g54
(dp3049
sg63
g2896
sg56
(lp3050
g49
(g70
g51
NtRp3051
(dp3052
g54
(dp3053
g74
g75
ssg63
g3047
sg56
(lp3054
S'HTTP_HOST'
p3055
asbag49
(g70
g51
NtRp3056
(dp3057
g54
(dp3058
g81
g82
ssg63
g3047
sg56
(lp3059
S':'
asbag49
(g70
g51
NtRp3060
(dp3061
g54
(dp3062
sg63
g3047
sg56
(lp3063
g49
(g50
g51
NtRp3064
(dp3065
g54
(dp3066
g62
I3
ssg63
g3060
sg56
(lp3067
g1583
asbasbasbag49
(g65
g51
NtRp3068
(dp3069
g54
(dp3070
sg63
g2896
sg56
(lp3071
g49
(g70
g51
NtRp3072
(dp3073
g54
(dp3074
g74
g75
ssg63
g3068
sg56
(lp3075
S'HTTP_REFERER'
p3076
asbag49
(g70
g51
NtRp3077
(dp3078
g54
(dp3079
g81
g82
ssg63
g3068
sg56
(lp3080
S':'
asbag49
(g70
g51
NtRp3081
(dp3082
g54
(dp3083
sg63
g3068
sg56
(lp3084
g49
(g50
g51
NtRp3085
(dp3086
g54
(dp3087
g62
I3
ssg63
g3081
sg56
(lp3088
g1605
asbasbasbag49
(g65
g51
NtRp3089
(dp3090
g54
(dp3091
sg63
g2896
sg56
(lp3092
g49
(g70
g51
NtRp3093
(dp3094
g54
(dp3095
g74
g75
ssg63
g3089
sg56
(lp3096
S'HTTP_USER_AGENT'
p3097
asbag49
(g70
g51
NtRp3098
(dp3099
g54
(dp3100
g81
g82
ssg63
g3089
sg56
(lp3101
S':'
asbag49
(g70
g51
NtRp3102
(dp3103
g54
(dp3104
sg63
g3089
sg56
(lp3105
g49
(g50
g51
NtRp3106
(dp3107
g54
(dp3108
g62
I3
ssg63
g3102
sg56
(lp3109
g1627
asbasbasbag49
(g65
g51
NtRp3110
(dp3111
g54
(dp3112
sg63
g2896
sg56
(lp3113
g49
(g70
g51
NtRp3114
(dp3115
g54
(dp3116
g74
g75
ssg63
g3110
sg56
(lp3117
S'PATH_INFO'
p3118
asbag49
(g70
g51
NtRp3119
(dp3120
g54
(dp3121
g81
g82
ssg63
g3110
sg56
(lp3122
S':'
asbag49
(g70
g51
NtRp3123
(dp3124
g54
(dp3125
sg63
g3110
sg56
(lp3126
g49
(g50
g51
NtRp3127
(dp3128
g54
(dp3129
g62
I3
ssg63
g3123
sg56
(lp3130
g1691
asbasbasbag49
(g65
g51
NtRp3131
(dp3132
g54
(dp3133
sg63
g2896
sg56
(lp3134
g49
(g70
g51
NtRp3135
(dp3136
g54
(dp3137
g74
g75
ssg63
g3131
sg56
(lp3138
S'QUERY_STRING'
p3139
asbag49
(g70
g51
NtRp3140
(dp3141
g54
(dp3142
g81
g82
ssg63
g3131
sg56
(lp3143
S':'
asbag49
(g70
g51
NtRp3144
(dp3145
g54
(dp3146
sg63
g3131
sg56
(lp3147
g49
(g50
g51
NtRp3148
(dp3149
g54
(dp3150
g62
I3
ssg63
g3144
sg56
(lp3151
S''
asbasbasbag49
(g65
g51
NtRp3152
(dp3153
g54
(dp3154
sg63
g2896
sg56
(lp3155
g49
(g70
g51
NtRp3156
(dp3157
g54
(dp3158
g74
g75
ssg63
g3152
sg56
(lp3159
S'REMOTE_ADDR'
p3160
asbag49
(g70
g51
NtRp3161
(dp3162
g54
(dp3163
g81
g82
ssg63
g3152
sg56
(lp3164
S':'
asbag49
(g70
g51
NtRp3165
(dp3166
g54
(dp3167
sg63
g3152
sg56
(lp3168
g49
(g50
g51
NtRp3169
(dp3170
g54
(dp3171
g62
I3
ssg63
g3165
sg56
(lp3172
g182
asbasbasbag49
(g65
g51
NtRp3173
(dp3174
g54
(dp3175
sg63
g2896
sg56
(lp3176
g49
(g70
g51
NtRp3177
(dp3178
g54
(dp3179
g74
g75
ssg63
g3173
sg56
(lp3180
S'REMOTE_PORT'
p3181
asbag49
(g70
g51
NtRp3182
(dp3183
g54
(dp3184
g81
g82
ssg63
g3173
sg56
(lp3185
S':'
asbag49
(g70
g51
NtRp3186
(dp3187
g54
(dp3188
sg63
g3173
sg56
(lp3189
g49
(g50
g51
NtRp3190
(dp3191
g54
(dp3192
g62
I3
ssg63
g3186
sg56
(lp3193
g1755
asbasbasbag49
(g65
g51
NtRp3194
(dp3195
g54
(dp3196
sg63
g2896
sg56
(lp3197
g49
(g70
g51
NtRp3198
(dp3199
g54
(dp3200
g74
g75
ssg63
g3194
sg56
(lp3201
S'REQUEST_METHOD'
p3202
asbag49
(g70
g51
NtRp3203
(dp3204
g54
(dp3205
g81
g82
ssg63
g3194
sg56
(lp3206
S':'
asbag49
(g70
g51
NtRp3207
(dp3208
g54
(dp3209
sg63
g3194
sg56
(lp3210
g49
(g50
g51
NtRp3211
(dp3212
g54
(dp3213
g62
I3
ssg63
g3207
sg56
(lp3214
g1777
asbasbasbag49
(g65
g51
NtRp3215
(dp3216
g54
(dp3217
sg63
g2896
sg56
(lp3218
g49
(g70
g51
NtRp3219
(dp3220
g54
(dp3221
g74
g75
ssg63
g3215
sg56
(lp3222
S'SCRIPT_NAME'
p3223
asbag49
(g70
g51
NtRp3224
(dp3225
g54
(dp3226
g81
g82
ssg63
g3215
sg56
(lp3227
S':'
asbag49
(g70
g51
NtRp3228
(dp3229
g54
(dp3230
sg63
g3215
sg56
(lp3231
g49
(g50
g51
NtRp3232
(dp3233
g54
(dp3234
g62
I3
ssg63
g3228
sg56
(lp3235
S''
asbasbasbag49
(g65
g51
NtRp3236
(dp3237
g54
(dp3238
sg63
g2896
sg56
(lp3239
g49
(g70
g51
NtRp3240
(dp3241
g54
(dp3242
g74
g75
ssg63
g3236
sg56
(lp3243
S'SERVER_NAME'
p3244
asbag49
(g70
g51
NtRp3245
(dp3246
g54
(dp3247
g81
g82
ssg63
g3236
sg56
(lp3248
S':'
asbag49
(g70
g51
NtRp3249
(dp3250
g54
(dp3251
sg63
g3236
sg56
(lp3252
g49
(g50
g51
NtRp3253
(dp3254
g54
(dp3255
g62
I3
ssg63
g3249
sg56
(lp3256
g1820
asbasbasbag49
(g65
g51
NtRp3257
(dp3258
g54
(dp3259
sg63
g2896
sg56
(lp3260
g49
(g70
g51
NtRp3261
(dp3262
g54
(dp3263
g74
g75
ssg63
g3257
sg56
(lp3264
S'SERVER_PORT'
p3265
asbag49
(g70
g51
NtRp3266
(dp3267
g54
(dp3268
g81
g82
ssg63
g3257
sg56
(lp3269
S':'
asbag49
(g70
g51
NtRp3270
(dp3271
g54
(dp3272
sg63
g3257
sg56
(lp3273
g49
(g50
g51
NtRp3274
(dp3275
g54
(dp3276
g62
I3
ssg63
g3270
sg56
(lp3277
g1842
asbasbasbag49
(g65
g51
NtRp3278
(dp3279
g54
(dp3280
sg63
g2896
sg56
(lp3281
g49
(g70
g51
NtRp3282
(dp3283
g54
(dp3284
g74
g75
ssg63
g3278
sg56
(lp3285
S'SERVER_PROTOCOL'
p3286
asbag49
(g70
g51
NtRp3287
(dp3288
g54
(dp3289
g81
g82
ssg63
g3278
sg56
(lp3290
S':'
asbag49
(g70
g51
NtRp3291
(dp3292
g54
(dp3293
sg63
g3278
sg56
(lp3294
g49
(g50
g51
NtRp3295
(dp3296
g54
(dp3297
g62
I3
ssg63
g3291
sg56
(lp3298
g1864
asbasbasbag49
(g65
g51
NtRp3299
(dp3300
g54
(dp3301
sg63
g2896
sg56
(lp3302
g49
(g70
g51
NtRp3303
(dp3304
g54
(dp3305
g74
g75
ssg63
g3299
sg56
(lp3306
S'SERVER_SOFTWARE'
p3307
asbag49
(g70
g51
NtRp3308
(dp3309
g54
(dp3310
g81
g82
ssg63
g3299
sg56
(lp3311
S':'
asbag49
(g70
g51
NtRp3312
(dp3313
g54
(dp3314
sg63
g3299
sg56
(lp3315
g49
(g50
g51
NtRp3316
(dp3317
g54
(dp3318
g62
I3
ssg63
g3312
sg56
(lp3319
g1886
asbasbasbag49
(g65
g51
NtRp3320
(dp3321
g54
(dp3322
sg63
g2896
sg56
(lp3323
g49
(g70
g51
NtRp3324
(dp3325
g54
(dp3326
g74
g75
ssg63
g3320
sg56
(lp3327
S'wsgi.errors'
p3328
asbag49
(g70
g51
NtRp3329
(dp3330
g54
(dp3331
g81
g82
ssg63
g3320
sg56
(lp3332
S':'
asbag49
(g70
g51
NtRp3333
(dp3334
g54
(dp3335
sg63
g3320
sg56
(lp3336
g49
(g50
g51
NtRp3337
(dp3338
g54
(dp3339
g62
I3
ssg63
g3333
sg56
(lp3340
S"<open file '<stderr>', mode 'w' at 0x016000B0>"
p3341
asbasbasbag49
(g65
g51
NtRp3342
(dp3343
g54
(dp3344
sg63
g2896
sg56
(lp3345
g49
(g70
g51
NtRp3346
(dp3347
g54
(dp3348
g74
g75
ssg63
g3342
sg56
(lp3349
S'wsgi.file_wrapper'
p3350
asbag49
(g70
g51
NtRp3351
(dp3352
g54
(dp3353
g81
g82
ssg63
g3342
sg56
(lp3354
S':'
asbag49
(g70
g51
NtRp3355
(dp3356
g54
(dp3357
sg63
g3342
sg56
(lp3358
g49
(g50
g51
NtRp3359
(dp3360
g54
(dp3361
g62
I3
ssg63
g3355
sg56
(lp3362
S'<class wsgiref.util.FileWrapper at 0x025361B0>'
p3363
asbasbasbag49
(g65
g51
NtRp3364
(dp3365
g54
(dp3366
sg63
g2896
sg56
(lp3367
g49
(g70
g51
NtRp3368
(dp3369
g54
(dp3370
g74
g75
ssg63
g3364
sg56
(lp3371
S'wsgi.input'
p3372
asbag49
(g70
g51
NtRp3373
(dp3374
g54
(dp3375
g81
g82
ssg63
g3364
sg56
(lp3376
S':'
asbag49
(g70
g51
NtRp3377
(dp3378
g54
(dp3379
sg63
g3364
sg56
(lp3380
g49
(g50
g51
NtRp3381
(dp3382
g54
(dp3383
g62
I3
ssg63
g3377
sg56
(lp3384
S'<cStringIO.StringO object at 0x06C38580>'
p3385
asbasbasbag49
(g65
g51
NtRp3386
(dp3387
g54
(dp3388
sg63
g2896
sg56
(lp3389
g49
(g70
g51
NtRp3390
(dp3391
g54
(dp3392
g74
g75
ssg63
g3386
sg56
(lp3393
S'wsgi.multiprocess'
p3394
asbag49
(g70
g51
NtRp3395
(dp3396
g54
(dp3397
g81
g82
ssg63
g3386
sg56
(lp3398
S':'
asbag49
(g70
g51
NtRp3399
(dp3400
g54
(dp3401
sg63
g3386
sg56
(lp3402
g49
(g50
g51
NtRp3403
(dp3404
g54
(dp3405
g62
I3
ssg63
g3399
sg56
(lp3406
g92
asbasbasbag49
(g65
g51
NtRp3407
(dp3408
g54
(dp3409
sg63
g2896
sg56
(lp3410
g49
(g70
g51
NtRp3411
(dp3412
g54
(dp3413
g74
g75
ssg63
g3407
sg56
(lp3414
S'wsgi.multithread'
p3415
asbag49
(g70
g51
NtRp3416
(dp3417
g54
(dp3418
g81
g82
ssg63
g3407
sg56
(lp3419
S':'
asbag49
(g70
g51
NtRp3420
(dp3421
g54
(dp3422
sg63
g3407
sg56
(lp3423
g49
(g50
g51
NtRp3424
(dp3425
g54
(dp3426
g62
I3
ssg63
g3420
sg56
(lp3427
g2126
asbasbasbag49
(g65
g51
NtRp3428
(dp3429
g54
(dp3430
sg63
g2896
sg56
(lp3431
g49
(g70
g51
NtRp3432
(dp3433
g54
(dp3434
g74
g75
ssg63
g3428
sg56
(lp3435
S'wsgi.run_once'
p3436
asbag49
(g70
g51
NtRp3437
(dp3438
g54
(dp3439
g81
g82
ssg63
g3428
sg56
(lp3440
S':'
asbag49
(g70
g51
NtRp3441
(dp3442
g54
(dp3443
sg63
g3428
sg56
(lp3444
g49
(g50
g51
NtRp3445
(dp3446
g54
(dp3447
g62
I3
ssg63
g3441
sg56
(lp3448
g92
asbasbasbag49
(g65
g51
NtRp3449
(dp3450
g54
(dp3451
sg63
g2896
sg56
(lp3452
g49
(g70
g51
NtRp3453
(dp3454
g54
(dp3455
g74
g75
ssg63
g3449
sg56
(lp3456
S'wsgi.url_scheme'
p3457
asbag49
(g70
g51
NtRp3458
(dp3459
g54
(dp3460
g81
g82
ssg63
g3449
sg56
(lp3461
S':'
asbag49
(g70
g51
NtRp3462
(dp3463
g54
(dp3464
sg63
g3449
sg56
(lp3465
g49
(g50
g51
NtRp3466
(dp3467
g54
(dp3468
g62
I3
ssg63
g3462
sg56
(lp3469
g2169
asbasbasbag49
(g65
g51
NtRp3470
(dp3471
g54
(dp3472
sg63
g2896
sg56
(lp3473
g49
(g70
g51
NtRp3474
(dp3475
g54
(dp3476
g74
g75
ssg63
g3470
sg56
(lp3477
S'wsgi.version'
p3478
asbag49
(g70
g51
NtRp3479
(dp3480
g54
(dp3481
g81
g82
ssg63
g3470
sg56
(lp3482
S':'
asbag49
(g70
g51
NtRp3483
(dp3484
g54
(dp3485
sg63
g3470
sg56
(lp3486
g49
(g50
g51
NtRp3487
(dp3488
g54
(dp3489
g62
I3
ssg63
g3483
sg56
(lp3490
S'1'
asbasbasbasbasbasbasbasbasbasbasbasbasbsS'frames'
p3491
(lp3492
(dp3493
S'file'
p3494
S'C:\\Users\\omkara\\Desktop\\web2py\\gluon\\restricted.py'
p3495
sS'dump'
p3496
(dp3497
sS'lnum'
p3498
I205
sS'lines'
p3499
(dp3500
sS'call'
p3501
S"(code='# -*- coding: utf-8 -*-\\n# this file is released ...esponse._vars=response._caller(view_my_listings)\\n', environment={'A': <class 'gluon.html.A'>, 'Auth': <class 'gluon.tools.Auth'>, 'B': <class 'gluon.html.B'>, 'BEAUTIFY': <class 'gluon.html.BEAUTIFY'>, 'BODY': <class 'gluon.html.BODY'>, 'BR': <class 'gluon.html.BR'>, 'BUTTON': <class 'gluon.html.BUTTON'>, 'CAT': <class 'gluon.html.CAT'>, 'CENTER': <class 'gluon.html.CENTER'>, 'CLEANUP': <class 'gluon.validators.CLEANUP'>, ...}, layer=r'C:\\Users\\omkara\\Desktop\\web2py\\applications\\SlugBarter\\controllers/default.py')"
p3502
sS'func'
p3503
S'restricted'
p3504
sa(dp3505
g3494
S'C:\\Users\\omkara\\Desktop\\web2py\\applications\\SlugBarter\\controllers\\default.py'
p3506
sg3496
(dp3507
sg3498
I101
sg3499
(dp3508
I96
S'    or with the signed load operator'
p3509
sI97
S"      LOAD('default','data.load',args='tables',ajax=True,user_signature=True)"
p3510
sI98
S'    """'
p3511
sI99
S'    return dict(form=crud())'
p3512
sI90
S'    http://..../[app]/default/data/update/[table]/[id]'
p3513
sI91
S'    http://..../[app]/default/data/delete/[table]/[id]'
p3514
sI92
S'    http://..../[app]/default/data/select/[table]'
p3515
sI93
S'    http://..../[app]/default/data/search/[table]'
p3516
sI94
S'    but URLs must be signed, i.e. linked with'
p3517
sI95
S"      A('table',_href=URL('data/tables',user_signature=True))"
p3518
ssg3501
S'()'
p3519
sg3503
S'<module>'
p3520
sa(dp3521
g3494
S'C:\\Users\\omkara\\Desktop\\web2py\\gluon\\globals.py'
p3522
sg3496
(dp3523
sg3498
I173
sg3499
(dp3524
sg3501
S'(f=<function view_my_listings at 0x066590F0>)'
p3525
sg3503
S'<lambda>'
p3526
sa(dp3527
g3494
S'C:\\Users\\omkara\\Desktop\\web2py\\gluon\\tools.py'
p3528
sg3496
(dp3529
sg3498
I2575
sg3499
(dp3530
sg3501
S'(*a=(), **b={})'
p3531
sg3503
S'f'
sa(dp3532
g3494
S'C:\\Users\\omkara\\Desktop\\web2py\\applications\\SlugBarter\\controllers\\default.py'
p3533
sg3496
(dp3534
sg3498
I45
sg3499
(dp3535
I40
S'    return dict(form = form)'
p3536
sI41
S''
sI42
S'@auth.requires_login()'
p3537
sI43
S'def view_my_listings():'
p3538
sI44
S'    query = (db.listing.user == auth.user_id)'
p3539
sI45
S'    lists = db(query).select(db.listings.ALL)'
p3540
sI46
S'    return dict(lists = lists)'
p3541
sI47
S''
sI48
S''
sI49
S'def user():'
p3542
ssg3501
S'()'
p3543
sg3503
S'view_my_listings'
p3544
sa(dp3545
g3494
S'C:\\Users\\omkara\\Desktop\\web2py\\gluon\\dal.py'
p3546
sg3496
(dp3547
sg3498
I6343
sg3499
(dp3548
sg3501
S"(self=<DAL {'auth_event': <Table {'origin': <gluon.dal..._key': <gluon.dal.Field object at 0x0618E690>}>}>, key='listings')"
p3549
sg3503
S'__getattr__'
p3550
sa(dp3551
g3494
S'C:\\Users\\omkara\\Desktop\\web2py\\gluon\\dal.py'
p3552
sg3496
(dp3553
sg3498
I6337
sg3499
(dp3554
sg3501
S"(self=<DAL {'auth_event': <Table {'origin': <gluon.dal..._key': <gluon.dal.Field object at 0x0618E690>}>}>, key='listings')"
p3555
sg3503
g20
sasS'pyver'
p3556
S'Python 2.5.4: C:\\Users\\omkara\\Desktop\\web2py\\web2py.exe'
p3557
sS'session'
p3558
g49
(g50
g51
NtRp3559
(dp3560
g54
(dp3561
sg56
(lp3562
g49
(g58
g51
NtRp3563
(dp3564
g54
(dp3565
g62
I5
ssg63
Nsg56
(lp3566
g49
(g65
g51
NtRp3567
(dp3568
g54
(dp3569
sg63
g3563
sg56
(lp3570
g49
(g70
g51
NtRp3571
(dp3572
g54
(dp3573
g74
g75
ssg63
g3567
sg56
(lp3574
S'auth'
p3575
asbag49
(g70
g51
NtRp3576
(dp3577
g54
(dp3578
g81
g82
ssg63
g3567
sg56
(lp3579
S':'
asbag49
(g70
g51
NtRp3580
(dp3581
g54
(dp3582
sg63
g3567
sg56
(lp3583
g49
(g50
g51
NtRp3584
(dp3585
g54
(dp3586
g62
I5
ssg63
g3580
sg56
(lp3587
g49
(g58
g51
NtRp3588
(dp3589
g54
(dp3590
g62
I4
ssg63
Nsg56
(lp3591
g49
(g65
g51
NtRp3592
(dp3593
g54
(dp3594
sg63
g3588
sg56
(lp3595
g49
(g70
g51
NtRp3596
(dp3597
g54
(dp3598
g74
g75
ssg63
g3592
sg56
(lp3599
S'expiration'
p3600
asbag49
(g70
g51
NtRp3601
(dp3602
g54
(dp3603
g81
g82
ssg63
g3592
sg56
(lp3604
S':'
asbag49
(g70
g51
NtRp3605
(dp3606
g54
(dp3607
sg63
g3592
sg56
(lp3608
g49
(g50
g51
NtRp3609
(dp3610
g54
(dp3611
g62
I4
ssg63
g3605
sg56
(lp3612
S'3600'
p3613
asbasbasbag49
(g65
g51
NtRp3614
(dp3615
g54
(dp3616
sg63
g3588
sg56
(lp3617
g49
(g70
g51
NtRp3618
(dp3619
g54
(dp3620
g74
g75
ssg63
g3614
sg56
(lp3621
S'hmac_key'
p3622
asbag49
(g70
g51
NtRp3623
(dp3624
g54
(dp3625
g81
g82
ssg63
g3614
sg56
(lp3626
S':'
asbag49
(g70
g51
NtRp3627
(dp3628
g54
(dp3629
sg63
g3614
sg56
(lp3630
g49
(g50
g51
NtRp3631
(dp3632
g54
(dp3633
g62
I4
ssg63
g3627
sg56
(lp3634
S'2f84aa8c-40b8-46f5-82a7-1a6c377b0bb3'
p3635
asbasbasbag49
(g65
g51
NtRp3636
(dp3637
g54
(dp3638
sg63
g3588
sg56
(lp3639
g49
(g70
g51
NtRp3640
(dp3641
g54
(dp3642
g74
g75
ssg63
g3636
sg56
(lp3643
S'last_visit'
p3644
asbag49
(g70
g51
NtRp3645
(dp3646
g54
(dp3647
g81
g82
ssg63
g3636
sg56
(lp3648
S':'
asbag49
(g70
g51
NtRp3649
(dp3650
g54
(dp3651
sg63
g3636
sg56
(lp3652
g49
(g50
g51
NtRp3653
(dp3654
g54
(dp3655
g62
I4
ssg63
g3649
sg56
(lp3656
S'datetime.datetime(2012, 11, 11, 19, 9, 5, 611000)'
p3657
asbasbasbag49
(g65
g51
NtRp3658
(dp3659
g54
(dp3660
sg63
g3588
sg56
(lp3661
g49
(g70
g51
NtRp3662
(dp3663
g54
(dp3664
g74
g75
ssg63
g3658
sg56
(lp3665
S'remember'
p3666
asbag49
(g70
g51
NtRp3667
(dp3668
g54
(dp3669
g81
g82
ssg63
g3658
sg56
(lp3670
S':'
asbag49
(g70
g51
NtRp3671
(dp3672
g54
(dp3673
sg63
g3658
sg56
(lp3674
g49
(g50
g51
NtRp3675
(dp3676
g54
(dp3677
g62
I4
ssg63
g3671
sg56
(lp3678
g92
asbasbasbag49
(g65
g51
NtRp3679
(dp3680
g54
(dp3681
sg63
g3588
sg56
(lp3682
g49
(g70
g51
NtRp3683
(dp3684
g54
(dp3685
g74
g75
ssg63
g3679
sg56
(lp3686
S'user'
p3687
asbag49
(g70
g51
NtRp3688
(dp3689
g54
(dp3690
g81
g82
ssg63
g3679
sg56
(lp3691
S':'
asbag49
(g70
g51
NtRp3692
(dp3693
g54
(dp3694
sg63
g3679
sg56
(lp3695
g49
(g50
g51
NtRp3696
(dp3697
g54
(dp3698
g62
I4
ssg63
g3692
sg56
(lp3699
g49
(g58
g51
NtRp3700
(dp3701
g54
(dp3702
g62
I3
ssg63
Nsg56
(lp3703
g49
(g65
g51
NtRp3704
(dp3705
g54
(dp3706
sg63
g3700
sg56
(lp3707
g49
(g70
g51
NtRp3708
(dp3709
g54
(dp3710
g74
g75
ssg63
g3704
sg56
(lp3711
S'dateCreated'
p3712
asbag49
(g70
g51
NtRp3713
(dp3714
g54
(dp3715
g81
g82
ssg63
g3704
sg56
(lp3716
S':'
asbag49
(g70
g51
NtRp3717
(dp3718
g54
(dp3719
sg63
g3704
sg56
(lp3720
g49
(g50
g51
NtRp3721
(dp3722
g54
(dp3723
g62
I3
ssg63
g3717
sg56
(lp3724
S'datetime.datetime(2012, 11, 11, 19, 41, 48)'
p3725
asbasbasbag49
(g65
g51
NtRp3726
(dp3727
g54
(dp3728
sg63
g3700
sg56
(lp3729
g49
(g70
g51
NtRp3730
(dp3731
g54
(dp3732
g74
g75
ssg63
g3726
sg56
(lp3733
S'email'
p3734
asbag49
(g70
g51
NtRp3735
(dp3736
g54
(dp3737
g81
g82
ssg63
g3726
sg56
(lp3738
S':'
asbag49
(g70
g51
NtRp3739
(dp3740
g54
(dp3741
sg63
g3726
sg56
(lp3742
g49
(g50
g51
NtRp3743
(dp3744
g54
(dp3745
g62
I3
ssg63
g3739
sg56
(lp3746
S'sukha620@yahoo.com'
p3747
asbasbasbag49
(g65
g51
NtRp3748
(dp3749
g54
(dp3750
sg63
g3700
sg56
(lp3751
g49
(g70
g51
NtRp3752
(dp3753
g54
(dp3754
g74
g75
ssg63
g3748
sg56
(lp3755
S'first_name'
p3756
asbag49
(g70
g51
NtRp3757
(dp3758
g54
(dp3759
g81
g82
ssg63
g3748
sg56
(lp3760
S':'
asbag49
(g70
g51
NtRp3761
(dp3762
g54
(dp3763
sg63
g3748
sg56
(lp3764
g49
(g50
g51
NtRp3765
(dp3766
g54
(dp3767
g62
I3
ssg63
g3761
sg56
(lp3768
S'Sukhraj'
p3769
asbasbasbag49
(g65
g51
NtRp3770
(dp3771
g54
(dp3772
sg63
g3700
sg56
(lp3773
g49
(g70
g51
NtRp3774
(dp3775
g54
(dp3776
g74
g75
ssg63
g3770
sg56
(lp3777
S'id'
p3778
asbag49
(g70
g51
NtRp3779
(dp3780
g54
(dp3781
g81
g82
ssg63
g3770
sg56
(lp3782
S':'
asbag49
(g70
g51
NtRp3783
(dp3784
g54
(dp3785
sg63
g3770
sg56
(lp3786
g49
(g50
g51
NtRp3787
(dp3788
g54
(dp3789
g62
I3
ssg63
g3783
sg56
(lp3790
S'2'
asbasbasbag49
(g65
g51
NtRp3791
(dp3792
g54
(dp3793
sg63
g3700
sg56
(lp3794
g49
(g70
g51
NtRp3795
(dp3796
g54
(dp3797
g74
g75
ssg63
g3791
sg56
(lp3798
S'last_name'
p3799
asbag49
(g70
g51
NtRp3800
(dp3801
g54
(dp3802
g81
g82
ssg63
g3791
sg56
(lp3803
S':'
asbag49
(g70
g51
NtRp3804
(dp3805
g54
(dp3806
sg63
g3791
sg56
(lp3807
g49
(g50
g51
NtRp3808
(dp3809
g54
(dp3810
g62
I3
ssg63
g3804
sg56
(lp3811
S'Singh'
p3812
asbasbasbag49
(g65
g51
NtRp3813
(dp3814
g54
(dp3815
sg63
g3700
sg56
(lp3816
g49
(g70
g51
NtRp3817
(dp3818
g54
(dp3819
g74
g75
ssg63
g3813
sg56
(lp3820
S'password'
p3821
asbag49
(g70
g51
NtRp3822
(dp3823
g54
(dp3824
g81
g82
ssg63
g3813
sg56
(lp3825
S':'
asbag49
(g70
g51
NtRp3826
(dp3827
g54
(dp3828
sg63
g3813
sg56
(lp3829
g49
(g50
g51
NtRp3830
(dp3831
g54
(dp3832
g62
I3
ssg63
g3826
sg56
(lp3833
S'd82bdd86eff736d398dfae05281ad449'
p3834
asbasbasbag49
(g65
g51
NtRp3835
(dp3836
g54
(dp3837
sg63
g3700
sg56
(lp3838
g49
(g70
g51
NtRp3839
(dp3840
g54
(dp3841
g74
g75
ssg63
g3835
sg56
(lp3842
S'registration_id'
p3843
asbag49
(g70
g51
NtRp3844
(dp3845
g54
(dp3846
g81
g82
ssg63
g3835
sg56
(lp3847
S':'
asbag49
(g70
g51
NtRp3848
(dp3849
g54
(dp3850
sg63
g3835
sg56
(lp3851
g49
(g50
g51
NtRp3852
(dp3853
g54
(dp3854
g62
I3
ssg63
g3848
sg56
(lp3855
S''
asbasbasbag49
(g65
g51
NtRp3856
(dp3857
g54
(dp3858
sg63
g3700
sg56
(lp3859
g49
(g70
g51
NtRp3860
(dp3861
g54
(dp3862
g74
g75
ssg63
g3856
sg56
(lp3863
S'registration_key'
p3864
asbag49
(g70
g51
NtRp3865
(dp3866
g54
(dp3867
g81
g82
ssg63
g3856
sg56
(lp3868
S':'
asbag49
(g70
g51
NtRp3869
(dp3870
g54
(dp3871
sg63
g3856
sg56
(lp3872
g49
(g50
g51
NtRp3873
(dp3874
g54
(dp3875
g62
I3
ssg63
g3869
sg56
(lp3876
S''
asbasbasbag49
(g65
g51
NtRp3877
(dp3878
g54
(dp3879
sg63
g3700
sg56
(lp3880
g49
(g70
g51
NtRp3881
(dp3882
g54
(dp3883
g74
g75
ssg63
g3877
sg56
(lp3884
S'reset_password_key'
p3885
asbag49
(g70
g51
NtRp3886
(dp3887
g54
(dp3888
g81
g82
ssg63
g3877
sg56
(lp3889
S':'
asbag49
(g70
g51
NtRp3890
(dp3891
g54
(dp3892
sg63
g3877
sg56
(lp3893
g49
(g50
g51
NtRp3894
(dp3895
g54
(dp3896
g62
I3
ssg63
g3890
sg56
(lp3897
S''
asbasbasbag49
(g65
g51
NtRp3898
(dp3899
g54
(dp3900
sg63
g3700
sg56
(lp3901
g49
(g70
g51
NtRp3902
(dp3903
g54
(dp3904
g74
g75
ssg63
g3898
sg56
(lp3905
S'username'
p3906
asbag49
(g70
g51
NtRp3907
(dp3908
g54
(dp3909
g81
g82
ssg63
g3898
sg56
(lp3910
S':'
asbag49
(g70
g51
NtRp3911
(dp3912
g54
(dp3913
sg63
g3898
sg56
(lp3914
g49
(g50
g51
NtRp3915
(dp3916
g54
(dp3917
g62
I3
ssg63
g3911
sg56
(lp3918
S'5abi209'
p3919
asbasbasbasbasbasbasbag49
(g65
g51
NtRp3920
(dp3921
g54
(dp3922
sg63
g3588
sg56
(lp3923
g49
(g70
g51
NtRp3924
(dp3925
g54
(dp3926
g74
g75
ssg63
g3920
sg56
(lp3927
S'user_groups'
p3928
asbag49
(g70
g51
NtRp3929
(dp3930
g54
(dp3931
g81
g82
ssg63
g3920
sg56
(lp3932
S':'
asbag49
(g70
g51
NtRp3933
(dp3934
g54
(dp3935
sg63
g3920
sg56
(lp3936
g49
(g50
g51
NtRp3937
(dp3938
g54
(dp3939
g62
I4
ssg63
g3933
sg56
(lp3940
g49
(g58
g51
NtRp3941
(dp3942
g54
(dp3943
g62
I3
ssg63
Nsg56
(lp3944
g49
(g65
g51
NtRp3945
(dp3946
g54
(dp3947
sg63
g3941
sg56
(lp3948
g49
(g70
g51
NtRp3949
(dp3950
g54
(dp3951
g74
g75
ssg63
g3945
sg56
(lp3952
S'1'
asbag49
(g70
g51
NtRp3953
(dp3954
g54
(dp3955
g81
g82
ssg63
g3945
sg56
(lp3956
S':'
asbag49
(g70
g51
NtRp3957
(dp3958
g54
(dp3959
sg63
g3945
sg56
(lp3960
g49
(g50
g51
NtRp3961
(dp3962
g54
(dp3963
g62
I3
ssg63
g3957
sg56
(lp3964
S'user_2'
p3965
asbasbasbasbasbasbasbasbasbasbasbag49
(g65
g51
NtRp3966
(dp3967
g54
(dp3968
sg63
g3563
sg56
(lp3969
g49
(g70
g51
NtRp3970
(dp3971
g54
(dp3972
g74
g75
ssg63
g3966
sg56
(lp3973
S'last_query'
p3974
asbag49
(g70
g51
NtRp3975
(dp3976
g54
(dp3977
g81
g82
ssg63
g3966
sg56
(lp3978
S':'
asbag49
(g70
g51
NtRp3979
(dp3980
g54
(dp3981
sg63
g3966
sg56
(lp3982
g49
(g50
g51
NtRp3983
(dp3984
g54
(dp3985
g62
I5
ssg63
g3979
sg56
(lp3986
S'db.listing.id>0'
p3987
asbasbasbasbasbsS'etype'
p3988
S"<type 'exceptions.KeyError'>"
p3989
sS'date'
p3990
S'Sun Nov 11 19:10:07 2012'
p3991
sS'response'
p3992
g49
(g50
g51
NtRp3993
(dp3994
g54
(dp3995
sg56
(lp3996
g49
(g58
g51
NtRp3997
(dp3998
g54
(dp3999
g62
I5
ssg63
Nsg56
(lp4000
g49
(g65
g51
NtRp4001
(dp4002
g54
(dp4003
sg63
g3997
sg56
(lp4004
g49
(g70
g51
NtRp4005
(dp4006
g54
(dp4007
g74
g75
ssg63
g4001
sg56
(lp4008
g147
asbag49
(g70
g51
NtRp4009
(dp4010
g54
(dp4011
g81
g82
ssg63
g4001
sg56
(lp4012
S':'
asbag49
(g70
g51
NtRp4013
(dp4014
g54
(dp4015
sg63
g4001
sg56
(lp4016
g49
(g50
g51
NtRp4017
(dp4018
g54
(dp4019
g62
I5
ssg63
g4013
sg56
(lp4020
S'<cStringIO.StringO object at 0x06C38160>'
p4021
asbasbasbag49
(g65
g51
NtRp4022
(dp4023
g54
(dp4024
sg63
g3997
sg56
(lp4025
g49
(g70
g51
NtRp4026
(dp4027
g54
(dp4028
g74
g75
ssg63
g4022
sg56
(lp4029
g213
asbag49
(g70
g51
NtRp4030
(dp4031
g54
(dp4032
g81
g82
ssg63
g4022
sg56
(lp4033
S':'
asbag49
(g70
g51
NtRp4034
(dp4035
g54
(dp4036
sg63
g4022
sg56
(lp4037
g49
(g50
g51
NtRp4038
(dp4039
g54
(dp4040
g62
I5
ssg63
g4034
sg56
(lp4041
g49
(g58
g51
NtRp4042
(dp4043
g54
(dp4044
g62
I4
ssg63
Nsg56
(lp4045
g49
(g65
g51
NtRp4046
(dp4047
g54
(dp4048
sg63
g4042
sg56
(lp4049
g49
(g70
g51
NtRp4050
(dp4051
g54
(dp4052
g74
g75
ssg63
g4046
sg56
(lp4053
S'session_id_slugbarter'
p4054
asbag49
(g70
g51
NtRp4055
(dp4056
g54
(dp4057
g81
g82
ssg63
g4046
sg56
(lp4058
S':'
asbag49
(g70
g51
NtRp4059
(dp4060
g54
(dp4061
sg63
g4046
sg56
(lp4062
g49
(g50
g51
NtRp4063
(dp4064
g54
(dp4065
g62
I4
ssg63
g4059
sg56
(lp4066
g49
(g58
g51
NtRp4067
(dp4068
g54
(dp4069
g62
I3
ssg63
Nsg56
(lp4070
g49
(g65
g51
NtRp4071
(dp4072
g54
(dp4073
sg63
g4067
sg56
(lp4074
g49
(g70
g51
NtRp4075
(dp4076
g54
(dp4077
g74
g75
ssg63
g4071
sg56
(lp4078
g263
asbag49
(g70
g51
NtRp4079
(dp4080
g54
(dp4081
g81
g82
ssg63
g4071
sg56
(lp4082
S':'
asbag49
(g70
g51
NtRp4083
(dp4084
g54
(dp4085
sg63
g4071
sg56
(lp4086
g49
(g50
g51
NtRp4087
(dp4088
g54
(dp4089
g62
I3
ssg63
g4083
sg56
(lp4090
S''
asbasbasbag49
(g65
g51
NtRp4091
(dp4092
g54
(dp4093
sg63
g4067
sg56
(lp4094
g49
(g70
g51
NtRp4095
(dp4096
g54
(dp4097
g74
g75
ssg63
g4091
sg56
(lp4098
g284
asbag49
(g70
g51
NtRp4099
(dp4100
g54
(dp4101
g81
g82
ssg63
g4091
sg56
(lp4102
S':'
asbag49
(g70
g51
NtRp4103
(dp4104
g54
(dp4105
sg63
g4091
sg56
(lp4106
g49
(g50
g51
NtRp4107
(dp4108
g54
(dp4109
g62
I3
ssg63
g4103
sg56
(lp4110
S''
asbasbasbag49
(g65
g51
NtRp4111
(dp4112
g54
(dp4113
sg63
g4067
sg56
(lp4114
g49
(g70
g51
NtRp4115
(dp4116
g54
(dp4117
g74
g75
ssg63
g4111
sg56
(lp4118
g305
asbag49
(g70
g51
NtRp4119
(dp4120
g54
(dp4121
g81
g82
ssg63
g4111
sg56
(lp4122
S':'
asbag49
(g70
g51
NtRp4123
(dp4124
g54
(dp4125
sg63
g4111
sg56
(lp4126
g49
(g50
g51
NtRp4127
(dp4128
g54
(dp4129
g62
I3
ssg63
g4123
sg56
(lp4130
S''
asbasbasbag49
(g65
g51
NtRp4131
(dp4132
g54
(dp4133
sg63
g4067
sg56
(lp4134
g49
(g70
g51
NtRp4135
(dp4136
g54
(dp4137
g74
g75
ssg63
g4131
sg56
(lp4138
g326
asbag49
(g70
g51
NtRp4139
(dp4140
g54
(dp4141
g81
g82
ssg63
g4131
sg56
(lp4142
S':'
asbag49
(g70
g51
NtRp4143
(dp4144
g54
(dp4145
sg63
g4131
sg56
(lp4146
g49
(g50
g51
NtRp4147
(dp4148
g54
(dp4149
g62
I3
ssg63
g4143
sg56
(lp4150
S''
asbasbasbag49
(g65
g51
NtRp4151
(dp4152
g54
(dp4153
sg63
g4067
sg56
(lp4154
g49
(g70
g51
NtRp4155
(dp4156
g54
(dp4157
g74
g75
ssg63
g4151
sg56
(lp4158
g347
asbag49
(g70
g51
NtRp4159
(dp4160
g54
(dp4161
g81
g82
ssg63
g4151
sg56
(lp4162
S':'
asbag49
(g70
g51
NtRp4163
(dp4164
g54
(dp4165
sg63
g4151
sg56
(lp4166
g49
(g50
g51
NtRp4167
(dp4168
g54
(dp4169
g62
I3
ssg63
g4163
sg56
(lp4170
S'/'
asbasbasbag49
(g65
g51
NtRp4171
(dp4172
g54
(dp4173
sg63
g4067
sg56
(lp4174
g49
(g70
g51
NtRp4175
(dp4176
g54
(dp4177
g74
g75
ssg63
g4171
sg56
(lp4178
g368
asbag49
(g70
g51
NtRp4179
(dp4180
g54
(dp4181
g81
g82
ssg63
g4171
sg56
(lp4182
S':'
asbag49
(g70
g51
NtRp4183
(dp4184
g54
(dp4185
sg63
g4171
sg56
(lp4186
g49
(g50
g51
NtRp4187
(dp4188
g54
(dp4189
g62
I3
ssg63
g4183
sg56
(lp4190
S''
asbasbasbag49
(g65
g51
NtRp4191
(dp4192
g54
(dp4193
sg63
g4067
sg56
(lp4194
g49
(g70
g51
NtRp4195
(dp4196
g54
(dp4197
g74
g75
ssg63
g4191
sg56
(lp4198
g389
asbag49
(g70
g51
NtRp4199
(dp4200
g54
(dp4201
g81
g82
ssg63
g4191
sg56
(lp4202
S':'
asbag49
(g70
g51
NtRp4203
(dp4204
g54
(dp4205
sg63
g4191
sg56
(lp4206
g49
(g50
g51
NtRp4207
(dp4208
g54
(dp4209
g62
I3
ssg63
g4203
sg56
(lp4210
S''
asbasbasbasbasbasbasbasbasbasbasbag49
(g65
g51
NtRp4211
(dp4212
g54
(dp4213
sg63
g3997
sg56
(lp4214
g49
(g70
g51
NtRp4215
(dp4216
g54
(dp4217
g74
g75
ssg63
g4211
sg56
(lp4218
S'delimiters'
p4219
asbag49
(g70
g51
NtRp4220
(dp4221
g54
(dp4222
g81
g82
ssg63
g4211
sg56
(lp4223
S':'
asbag49
(g70
g51
NtRp4224
(dp4225
g54
(dp4226
sg63
g4211
sg56
(lp4227
g49
(g50
g51
NtRp4228
(dp4229
g54
(dp4230
g62
I5
ssg63
g4224
sg56
(lp4231
g49
(g58
g51
NtRp4232
(dp4233
g54
(dp4234
g62
I4
ssg63
Nsg56
(lp4235
g49
(g65
g51
NtRp4236
(dp4237
g54
(dp4238
sg63
g4232
sg56
(lp4239
g49
(g70
g51
NtRp4240
(dp4241
g54
(dp4242
sg63
g4236
sg56
(lp4243
g49
(g50
g51
NtRp4244
(dp4245
g54
(dp4246
g62
I4
ssg63
g4240
sg56
(lp4247
S'{{'
p4248
asbasbasbag49
(g65
g51
NtRp4249
(dp4250
g54
(dp4251
sg63
g4232
sg56
(lp4252
g49
(g70
g51
NtRp4253
(dp4254
g54
(dp4255
sg63
g4249
sg56
(lp4256
g49
(g50
g51
NtRp4257
(dp4258
g54
(dp4259
g62
I4
ssg63
g4253
sg56
(lp4260
S'}}'
p4261
asbasbasbasbasbasbasbag49
(g65
g51
NtRp4262
(dp4263
g54
(dp4264
sg63
g3997
sg56
(lp4265
g49
(g70
g51
NtRp4266
(dp4267
g54
(dp4268
g74
g75
ssg63
g4262
sg56
(lp4269
S'files'
p4270
asbag49
(g70
g51
NtRp4271
(dp4272
g54
(dp4273
g81
g82
ssg63
g4262
sg56
(lp4274
S':'
asbag49
(g70
g51
NtRp4275
(dp4276
g54
(dp4277
sg63
g4262
sg56
(lp4278
g49
(g50
g51
NtRp4279
(dp4280
g54
(dp4281
g62
I5
ssg63
g4275
sg56
(lp4282
g49
(g58
g51
NtRp4283
(dp4284
g54
(dp4285
g62
I4
ssg63
Nsg56
(lp4286
sbasbasbasbag49
(g65
g51
NtRp4287
(dp4288
g54
(dp4289
sg63
g3997
sg56
(lp4290
g49
(g70
g51
NtRp4291
(dp4292
g54
(dp4293
g74
g75
ssg63
g4287
sg56
(lp4294
S'flash'
p4295
asbag49
(g70
g51
NtRp4296
(dp4297
g54
(dp4298
g81
g82
ssg63
g4287
sg56
(lp4299
S':'
asbag49
(g70
g51
NtRp4300
(dp4301
g54
(dp4302
sg63
g4287
sg56
(lp4303
g49
(g50
g51
NtRp4304
(dp4305
g54
(dp4306
g62
I5
ssg63
g4300
sg56
(lp4307
S''
asbasbasbag49
(g65
g51
NtRp4308
(dp4309
g54
(dp4310
sg63
g3997
sg56
(lp4311
g49
(g70
g51
NtRp4312
(dp4313
g54
(dp4314
g74
g75
ssg63
g4308
sg56
(lp4315
S'generic_patterns'
p4316
asbag49
(g70
g51
NtRp4317
(dp4318
g54
(dp4319
g81
g82
ssg63
g4308
sg56
(lp4320
S':'
asbag49
(g70
g51
NtRp4321
(dp4322
g54
(dp4323
sg63
g4308
sg56
(lp4324
g49
(g50
g51
NtRp4325
(dp4326
g54
(dp4327
g62
I5
ssg63
g4321
sg56
(lp4328
g49
(g58
g51
NtRp4329
(dp4330
g54
(dp4331
g62
I4
ssg63
Nsg56
(lp4332
g49
(g65
g51
NtRp4333
(dp4334
g54
(dp4335
sg63
g4329
sg56
(lp4336
g49
(g70
g51
NtRp4337
(dp4338
g54
(dp4339
sg63
g4333
sg56
(lp4340
g49
(g50
g51
NtRp4341
(dp4342
g54
(dp4343
g62
I4
ssg63
g4337
sg56
(lp4344
S'*'
asbasbasbasbasbasbasbag49
(g65
g51
NtRp4345
(dp4346
g54
(dp4347
sg63
g3997
sg56
(lp4348
g49
(g70
g51
NtRp4349
(dp4350
g54
(dp4351
g74
g75
ssg63
g4345
sg56
(lp4352
S'headers'
p4353
asbag49
(g70
g51
NtRp4354
(dp4355
g54
(dp4356
g81
g82
ssg63
g4345
sg56
(lp4357
S':'
asbag49
(g70
g51
NtRp4358
(dp4359
g54
(dp4360
sg63
g4345
sg56
(lp4361
g49
(g50
g51
NtRp4362
(dp4363
g54
(dp4364
g62
I5
ssg63
g4358
sg56
(lp4365
g49
(g58
g51
NtRp4366
(dp4367
g54
(dp4368
g62
I4
ssg63
Nsg56
(lp4369
g49
(g65
g51
NtRp4370
(dp4371
g54
(dp4372
sg63
g4366
sg56
(lp4373
g49
(g70
g51
NtRp4374
(dp4375
g54
(dp4376
g74
g75
ssg63
g4370
sg56
(lp4377
S'Cache-Control'
p4378
asbag49
(g70
g51
NtRp4379
(dp4380
g54
(dp4381
g81
g82
ssg63
g4370
sg56
(lp4382
S':'
asbag49
(g70
g51
NtRp4383
(dp4384
g54
(dp4385
sg63
g4370
sg56
(lp4386
g49
(g50
g51
NtRp4387
(dp4388
g54
(dp4389
g62
I4
ssg63
g4383
sg56
(lp4390
S'no-store, no-cache, must-revalidate, post-check=0, pre-check=0'
p4391
asbasbasbag49
(g65
g51
NtRp4392
(dp4393
g54
(dp4394
sg63
g4366
sg56
(lp4395
g49
(g70
g51
NtRp4396
(dp4397
g54
(dp4398
g74
g75
ssg63
g4392
sg56
(lp4399
S'Content-Type'
p4400
asbag49
(g70
g51
NtRp4401
(dp4402
g54
(dp4403
g81
g82
ssg63
g4392
sg56
(lp4404
S':'
asbag49
(g70
g51
NtRp4405
(dp4406
g54
(dp4407
sg63
g4392
sg56
(lp4408
g49
(g50
g51
NtRp4409
(dp4410
g54
(dp4411
g62
I4
ssg63
g4405
sg56
(lp4412
S'text/html; charset=utf-8'
p4413
asbasbasbag49
(g65
g51
NtRp4414
(dp4415
g54
(dp4416
sg63
g4366
sg56
(lp4417
g49
(g70
g51
NtRp4418
(dp4419
g54
(dp4420
g74
g75
ssg63
g4414
sg56
(lp4421
S'Expires'
p4422
asbag49
(g70
g51
NtRp4423
(dp4424
g54
(dp4425
g81
g82
ssg63
g4414
sg56
(lp4426
S':'
asbag49
(g70
g51
NtRp4427
(dp4428
g54
(dp4429
sg63
g4414
sg56
(lp4430
g49
(g50
g51
NtRp4431
(dp4432
g54
(dp4433
g62
I4
ssg63
g4427
sg56
(lp4434
S'Mon, 12 Nov 2012 03:10:07 GMT'
p4435
asbasbasbag49
(g65
g51
NtRp4436
(dp4437
g54
(dp4438
sg63
g4366
sg56
(lp4439
g49
(g70
g51
NtRp4440
(dp4441
g54
(dp4442
g74
g75
ssg63
g4436
sg56
(lp4443
S'Pragma'
p4444
asbag49
(g70
g51
NtRp4445
(dp4446
g54
(dp4447
g81
g82
ssg63
g4436
sg56
(lp4448
S':'
asbag49
(g70
g51
NtRp4449
(dp4450
g54
(dp4451
sg63
g4436
sg56
(lp4452
g49
(g50
g51
NtRp4453
(dp4454
g54
(dp4455
g62
I4
ssg63
g4449
sg56
(lp4456
S'no-cache'
p4457
asbasbasbag49
(g65
g51
NtRp4458
(dp4459
g54
(dp4460
sg63
g4366
sg56
(lp4461
g49
(g70
g51
NtRp4462
(dp4463
g54
(dp4464
g74
g75
ssg63
g4458
sg56
(lp4465
S'X-Powered-By'
p4466
asbag49
(g70
g51
NtRp4467
(dp4468
g54
(dp4469
g81
g82
ssg63
g4458
sg56
(lp4470
S':'
asbag49
(g70
g51
NtRp4471
(dp4472
g54
(dp4473
sg63
g4458
sg56
(lp4474
g49
(g50
g51
NtRp4475
(dp4476
g54
(dp4477
g62
I4
ssg63
g4471
sg56
(lp4478
S'web2py'
p4479
asbasbasbasbasbasbasbag49
(g65
g51
NtRp4480
(dp4481
g54
(dp4482
sg63
g3997
sg56
(lp4483
g49
(g70
g51
NtRp4484
(dp4485
g54
(dp4486
g74
g75
ssg63
g4480
sg56
(lp4487
S'menu'
p4488
asbag49
(g70
g51
NtRp4489
(dp4490
g54
(dp4491
g81
g82
ssg63
g4480
sg56
(lp4492
S':'
asbag49
(g70
g51
NtRp4493
(dp4494
g54
(dp4495
sg63
g4480
sg56
(lp4496
g49
(g50
g51
NtRp4497
(dp4498
g54
(dp4499
g62
I5
ssg63
g4493
sg56
(lp4500
g49
(g58
g51
NtRp4501
(dp4502
g54
(dp4503
g62
I4
ssg63
Nsg56
(lp4504
g49
(g65
g51
NtRp4505
(dp4506
g54
(dp4507
sg63
g4501
sg56
(lp4508
g49
(g70
g51
NtRp4509
(dp4510
g54
(dp4511
sg63
g4505
sg56
(lp4512
g49
(g50
g51
NtRp4513
(dp4514
g54
(dp4515
g62
I4
ssg63
g4509
sg56
(lp4516
g49
(g58
g51
NtRp4517
(dp4518
g54
(dp4519
g62
I3
ssg63
Nsg56
(lp4520
g49
(g65
g51
NtRp4521
(dp4522
g54
(dp4523
sg63
g4517
sg56
(lp4524
g49
(g70
g51
NtRp4525
(dp4526
g54
(dp4527
sg63
g4521
sg56
(lp4528
g49
(g50
g51
NtRp4529
(dp4530
g54
(dp4531
g62
I3
ssg63
g4525
sg56
(lp4532
cgluon.languages
lazyT_unpickle
p4533
(S's\x04\x00\x00\x00Home'
tRp4534
asbasbasbag49
(g65
g51
NtRp4535
(dp4536
g54
(dp4537
sg63
g4517
sg56
(lp4538
g49
(g70
g51
NtRp4539
(dp4540
g54
(dp4541
sg63
g4535
sg56
(lp4542
g49
(g50
g51
NtRp4543
(dp4544
g54
(dp4545
g62
I3
ssg63
g4539
sg56
(lp4546
g92
asbasbasbag49
(g65
g51
NtRp4547
(dp4548
g54
(dp4549
sg63
g4517
sg56
(lp4550
g49
(g70
g51
NtRp4551
(dp4552
g54
(dp4553
sg63
g4547
sg56
(lp4554
g49
(g50
g51
NtRp4555
(dp4556
g54
(dp4557
g62
I3
ssg63
g4551
sg56
(lp4558
S'/SlugBarter/default/index'
p4559
asbasbasbag49
(g65
g51
NtRp4560
(dp4561
g54
(dp4562
sg63
g4517
sg56
(lp4563
g49
(g70
g51
NtRp4564
(dp4565
g54
(dp4566
sg63
g4560
sg56
(lp4567
g49
(g50
g51
NtRp4568
(dp4569
g54
(dp4570
g62
I3
ssg63
g4564
sg56
(lp4571
g49
(g58
g51
NtRp4572
(dp4573
g54
(dp4574
g62
I2
ssg63
Nsg56
(lp4575
sbasbasbasbasbasbasbasbag49
(g65
g51
NtRp4576
(dp4577
g54
(dp4578
sg63
g4501
sg56
(lp4579
g49
(g70
g51
NtRp4580
(dp4581
g54
(dp4582
sg63
g4576
sg56
(lp4583
g49
(g50
g51
NtRp4584
(dp4585
g54
(dp4586
g62
I4
ssg63
g4580
sg56
(lp4587
g49
(g58
g51
NtRp4588
(dp4589
g54
(dp4590
g62
I3
ssg63
Nsg56
(lp4591
g49
(g65
g51
NtRp4592
(dp4593
g54
(dp4594
sg63
g4588
sg56
(lp4595
g49
(g70
g51
NtRp4596
(dp4597
g54
(dp4598
sg63
g4592
sg56
(lp4599
g49
(g50
g51
NtRp4600
(dp4601
g54
(dp4602
g62
I3
ssg63
g4596
sg56
(lp4603
g49
(cgluon.html
SPAN
p4604
g51
NtRp4605
(dp4606
g54
(dp4607
g74
S'color:yellow'
p4608
ssg63
Nsg56
(lp4609
g4479
asbasbasbasbag49
(g65
g51
NtRp4610
(dp4611
g54
(dp4612
sg63
g4588
sg56
(lp4613
g49
(g70
g51
NtRp4614
(dp4615
g54
(dp4616
sg63
g4610
sg56
(lp4617
g49
(g50
g51
NtRp4618
(dp4619
g54
(dp4620
g62
I3
ssg63
g4614
sg56
(lp4621
g92
asbasbasbag49
(g65
g51
NtRp4622
(dp4623
g54
(dp4624
sg63
g4588
sg56
(lp4625
g49
(g70
g51
NtRp4626
(dp4627
g54
(dp4628
sg63
g4622
sg56
(lp4629
g49
(g50
g51
NtRp4630
(dp4631
g54
(dp4632
g62
I3
ssg63
g4626
sg56
(lp4633
S'None'
p4634
asbasbasbag49
(g65
g51
NtRp4635
(dp4636
g54
(dp4637
sg63
g4588
sg56
(lp4638
g49
(g70
g51
NtRp4639
(dp4640
g54
(dp4641
sg63
g4635
sg56
(lp4642
g49
(g50
g51
NtRp4643
(dp4644
g54
(dp4645
g62
I3
ssg63
g4639
sg56
(lp4646
g49
(g58
g51
NtRp4647
(dp4648
g54
(dp4649
g62
I2
ssg63
Nsg56
(lp4650
g49
(g65
g51
NtRp4651
(dp4652
g54
(dp4653
sg63
g4647
sg56
(lp4654
g49
(g70
g51
NtRp4655
(dp4656
g54
(dp4657
sg63
g4651
sg56
(lp4658
g49
(g50
g51
NtRp4659
(dp4660
g54
(dp4661
g62
I2
ssg63
g4655
sg56
(lp4662
g49
(g58
g51
NtRp4663
(dp4664
g54
(dp4665
g62
I1
ssg63
Nsg56
(lp4666
g49
(g65
g51
NtRp4667
(dp4668
g54
(dp4669
sg63
g4663
sg56
(lp4670
g49
(g70
g51
NtRp4671
(dp4672
g54
(dp4673
sg63
g4667
sg56
(lp4674
g49
(g50
g51
NtRp4675
(dp4676
g54
(dp4677
g62
I1
ssg63
g4671
sg56
(lp4678
g4533
(S's\x08\x00\x00\x00My Sites'
tRp4679
asbasbasbag49
(g65
g51
NtRp4680
(dp4681
g54
(dp4682
sg63
g4663
sg56
(lp4683
g49
(g70
g51
NtRp4684
(dp4685
g54
(dp4686
sg63
g4680
sg56
(lp4687
g49
(g50
g51
NtRp4688
(dp4689
g54
(dp4690
g62
I1
ssg63
g4684
sg56
(lp4691
I00
asbasbasbag49
(g65
g51
NtRp4692
(dp4693
g54
(dp4694
sg63
g4663
sg56
(lp4695
g49
(g70
g51
NtRp4696
(dp4697
g54
(dp4698
sg63
g4692
sg56
(lp4699
g49
(g50
g51
NtRp4700
(dp4701
g54
(dp4702
g62
I1
ssg63
g4696
sg56
(lp4703
S'/admin/default/site'
p4704
asbasbasbasbasbasbasbag49
(g65
g51
NtRp4705
(dp4706
g54
(dp4707
sg63
g4647
sg56
(lp4708
g49
(g70
g51
NtRp4709
(dp4710
g54
(dp4711
sg63
g4705
sg56
(lp4712
g49
(g50
g51
NtRp4713
(dp4714
g54
(dp4715
g62
I2
ssg63
g4709
sg56
(lp4716
g49
(g58
g51
NtRp4717
(dp4718
g54
(dp4719
g62
I1
ssg63
Nsg56
(lp4720
g49
(g65
g51
NtRp4721
(dp4722
g54
(dp4723
sg63
g4717
sg56
(lp4724
g49
(g70
g51
NtRp4725
(dp4726
g54
(dp4727
sg63
g4721
sg56
(lp4728
g49
(g50
g51
NtRp4729
(dp4730
g54
(dp4731
g62
I1
ssg63
g4725
sg56
(lp4732
g4533
(S's\x08\x00\x00\x00This App'
tRp4733
asbasbasbag49
(g65
g51
NtRp4734
(dp4735
g54
(dp4736
sg63
g4717
sg56
(lp4737
g49
(g70
g51
NtRp4738
(dp4739
g54
(dp4740
sg63
g4734
sg56
(lp4741
g49
(g50
g51
NtRp4742
(dp4743
g54
(dp4744
g62
I1
ssg63
g4738
sg56
(lp4745
I00
asbasbasbag49
(g65
g51
NtRp4746
(dp4747
g54
(dp4748
sg63
g4717
sg56
(lp4749
g49
(g70
g51
NtRp4750
(dp4751
g54
(dp4752
sg63
g4746
sg56
(lp4753
g49
(g50
g51
NtRp4754
(dp4755
g54
(dp4756
g62
I1
ssg63
g4750
sg56
(lp4757
S'/admin/default/design/SlugBarter'
p4758
asbasbasbag49
(g65
g51
NtRp4759
(dp4760
g54
(dp4761
sg63
g4717
sg56
(lp4762
g49
(g70
g51
NtRp4763
(dp4764
g54
(dp4765
sg63
g4759
sg56
(lp4766
g49
(g50
g51
NtRp4767
(dp4768
g54
(dp4769
g62
I1
ssg63
g4763
sg56
(lp4770
(lp4771
(g4533
(S's\n\x00\x00\x00Controller'
tRp4772
I00
S'/admin/default/edit/SlugBarter/controllers/default.py'
tp4773
a(g4533
(S's\x04\x00\x00\x00View'
tRp4774
I00
S'/admin/default/edit/SlugBarter/views/default/view_my_listings.html'
tp4775
a(g4533
(S's\x06\x00\x00\x00Layout'
tRp4776
I00
S'/admin/default/edit/SlugBarter/views/layout.html'
tp4777
a(g4533
(S's\n\x00\x00\x00Stylesheet'
tRp4778
I00
S'/admin/default/edit/SlugBarter/static/css/web2py.css'
tp4779
a(g4533
(S's\x08\x00\x00\x00DB Model'
tRp4780
I00
S'/admin/default/edit/SlugBarter/models/db.py'
tp4781
a(g4533
(S's\n\x00\x00\x00Menu Model'
tRp4782
I00
S'/admin/default/edit/SlugBarter/models/menu.py'
tp4783
a(g4533
(S's\x08\x00\x00\x00Database'
tRp4784
I00
S'/SlugBarter/appadmin/index'
tp4785
a(g4533
(S's\x06\x00\x00\x00Errors'
tRp4786
I00
S'/admin/default/errors/SlugBarter'
tp4787
a(g4533
(S's\x05\x00\x00\x00About'
tRp4788
I00
S'/admin/default/about/SlugBarter'
tp4789
aasbasbasbasbasbasbasbag49
(g65
g51
NtRp4790
(dp4791
g54
(dp4792
sg63
g4647
sg56
(lp4793
g49
(g70
g51
NtRp4794
(dp4795
g54
(dp4796
sg63
g4790
sg56
(lp4797
g49
(g50
g51
NtRp4798
(dp4799
g54
(dp4800
g62
I2
ssg63
g4794
sg56
(lp4801
g49
(g58
g51
NtRp4802
(dp4803
g54
(dp4804
g62
I1
ssg63
Nsg56
(lp4805
g49
(g65
g51
NtRp4806
(dp4807
g54
(dp4808
sg63
g4802
sg56
(lp4809
g49
(g70
g51
NtRp4810
(dp4811
g54
(dp4812
sg63
g4806
sg56
(lp4813
g49
(g50
g51
NtRp4814
(dp4815
g54
(dp4816
g62
I1
ssg63
g4810
sg56
(lp4817
S'web2py.com'
p4818
asbasbasbag49
(g65
g51
NtRp4819
(dp4820
g54
(dp4821
sg63
g4802
sg56
(lp4822
g49
(g70
g51
NtRp4823
(dp4824
g54
(dp4825
sg63
g4819
sg56
(lp4826
g49
(g50
g51
NtRp4827
(dp4828
g54
(dp4829
g62
I1
ssg63
g4823
sg56
(lp4830
I00
asbasbasbag49
(g65
g51
NtRp4831
(dp4832
g54
(dp4833
sg63
g4802
sg56
(lp4834
g49
(g70
g51
NtRp4835
(dp4836
g54
(dp4837
sg63
g4831
sg56
(lp4838
g49
(g50
g51
NtRp4839
(dp4840
g54
(dp4841
g62
I1
ssg63
g4835
sg56
(lp4842
S'http://www.web2py.com'
p4843
asbasbasbag49
(g65
g51
NtRp4844
(dp4845
g54
(dp4846
sg63
g4802
sg56
(lp4847
g49
(g70
g51
NtRp4848
(dp4849
g54
(dp4850
sg63
g4844
sg56
(lp4851
g49
(g50
g51
NtRp4852
(dp4853
g54
(dp4854
g62
I1
ssg63
g4848
sg56
(lp4855
(lp4856
(g4533
(S's\x08\x00\x00\x00Download'
tRp4857
I00
S'http://www.web2py.com/examples/default/download'
p4858
tp4859
a(g4533
(S's\x07\x00\x00\x00Support'
tRp4860
I00
S'http://www.web2py.com/examples/default/support'
p4861
tp4862
a(g4533
(S's\x04\x00\x00\x00Demo'
tRp4863
I00
S'http://web2py.com/demo_admin'
p4864
tp4865
a(g4533
(S's\x0e\x00\x00\x00Quick Examples'
tRp4866
I00
S'http://web2py.com/examples/default/examples'
p4867
tp4868
a(g4533
(S's\x03\x00\x00\x00FAQ'
tRp4869
I00
S'http://web2py.com/AlterEgo'
p4870
tp4871
a(g4533
(S's\x06\x00\x00\x00Videos'
tRp4872
I00
S'http://www.web2py.com/examples/default/videos/'
p4873
tp4874
a(g4533
(S's\x11\x00\x00\x00Free Applications'
tRp4875
I00
S'http://web2py.com/appliances'
p4876
tp4877
a(g4533
(S's\x07\x00\x00\x00Plugins'
tRp4878
I00
S'http://web2py.com/plugins'
p4879
tp4880
a(g4533
(S's\x07\x00\x00\x00Layouts'
tRp4881
I00
S'http://web2py.com/layouts'
p4882
tp4883
a(g4533
(S's\x07\x00\x00\x00Recipes'
tRp4884
I00
S'http://web2pyslices.com/'
p4885
tp4886
a(g4533
(S's\x08\x00\x00\x00Semantic'
tRp4887
I00
S'http://web2py.com/semantic'
p4888
tp4889
aasbasbasbasbasbasbasbag49
(g65
g51
NtRp4890
(dp4891
g54
(dp4892
sg63
g4647
sg56
(lp4893
g49
(g70
g51
NtRp4894
(dp4895
g54
(dp4896
sg63
g4890
sg56
(lp4897
g49
(g50
g51
NtRp4898
(dp4899
g54
(dp4900
g62
I2
ssg63
g4894
sg56
(lp4901
g49
(g58
g51
NtRp4902
(dp4903
g54
(dp4904
g62
I1
ssg63
Nsg56
(lp4905
g49
(g65
g51
NtRp4906
(dp4907
g54
(dp4908
sg63
g4902
sg56
(lp4909
g49
(g70
g51
NtRp4910
(dp4911
g54
(dp4912
sg63
g4906
sg56
(lp4913
g49
(g50
g51
NtRp4914
(dp4915
g54
(dp4916
g62
I1
ssg63
g4910
sg56
(lp4917
g4533
(S's\r\x00\x00\x00Documentation'
tRp4918
asbasbasbag49
(g65
g51
NtRp4919
(dp4920
g54
(dp4921
sg63
g4902
sg56
(lp4922
g49
(g70
g51
NtRp4923
(dp4924
g54
(dp4925
sg63
g4919
sg56
(lp4926
g49
(g50
g51
NtRp4927
(dp4928
g54
(dp4929
g62
I1
ssg63
g4923
sg56
(lp4930
I00
asbasbasbag49
(g65
g51
NtRp4931
(dp4932
g54
(dp4933
sg63
g4902
sg56
(lp4934
g49
(g70
g51
NtRp4935
(dp4936
g54
(dp4937
sg63
g4931
sg56
(lp4938
g49
(g50
g51
NtRp4939
(dp4940
g54
(dp4941
g62
I1
ssg63
g4935
sg56
(lp4942
S'http://www.web2py.com/book'
p4943
asbasbasbag49
(g65
g51
NtRp4944
(dp4945
g54
(dp4946
sg63
g4902
sg56
(lp4947
g49
(g70
g51
NtRp4948
(dp4949
g54
(dp4950
sg63
g4944
sg56
(lp4951
g49
(g50
g51
NtRp4952
(dp4953
g54
(dp4954
g62
I1
ssg63
g4948
sg56
(lp4955
(lp4956
(g4533
(S's\x07\x00\x00\x00Preface'
tRp4957
I00
S'http://www.web2py.com/book/default/chapter/00'
p4958
tp4959
a(g4533
(S's\x0c\x00\x00\x00Introduction'
tRp4960
I00
S'http://www.web2py.com/book/default/chapter/01'
p4961
tp4962
a(g4533
(S's\x06\x00\x00\x00Python'
tRp4963
I00
S'http://www.web2py.com/book/default/chapter/02'
p4964
tp4965
a(g4533
(S's\x08\x00\x00\x00Overview'
tRp4966
I00
S'http://www.web2py.com/book/default/chapter/03'
p4967
tp4968
a(g4533
(S's\x08\x00\x00\x00The Core'
tRp4969
I00
S'http://www.web2py.com/book/default/chapter/04'
p4970
tp4971
a(g4533
(S's\t\x00\x00\x00The Views'
tRp4972
I00
S'http://www.web2py.com/book/default/chapter/05'
p4973
tp4974
a(g4533
(S's\x08\x00\x00\x00Database'
tRp4975
I00
S'http://www.web2py.com/book/default/chapter/06'
p4976
tp4977
a(g4533
(S's\x14\x00\x00\x00Forms and Validators'
tRp4978
I00
S'http://www.web2py.com/book/default/chapter/07'
p4979
tp4980
a(g4533
(S's\r\x00\x00\x00Email and SMS'
tRp4981
I00
S'http://www.web2py.com/book/default/chapter/08'
p4982
tp4983
a(g4533
(S's\x0e\x00\x00\x00Access Control'
tRp4984
I00
S'http://www.web2py.com/book/default/chapter/09'
p4985
tp4986
a(g4533
(S's\x08\x00\x00\x00Services'
tRp4987
I00
S'http://www.web2py.com/book/default/chapter/10'
p4988
tp4989
a(g4533
(S's\x0c\x00\x00\x00Ajax Recipes'
tRp4990
I00
S'http://www.web2py.com/book/default/chapter/11'
p4991
tp4992
a(g4533
(S's\x16\x00\x00\x00Components and Plugins'
tRp4993
I00
S'http://www.web2py.com/book/default/chapter/12'
p4994
tp4995
a(g4533
(S's\x12\x00\x00\x00Deployment Recipes'
tRp4996
I00
S'http://www.web2py.com/book/default/chapter/13'
p4997
tp4998
a(g4533
(S's\r\x00\x00\x00Other Recipes'
tRp4999
I00
S'http://www.web2py.com/book/default/chapter/14'
p5000
tp5001
a(g4533
(S's\r\x00\x00\x00Buy this book'
tRp5002
I00
S'http://stores.lulu.com/web2py'
p5003
tp5004
aasbasbasbasbasbasbasbag49
(g65
g51
NtRp5005
(dp5006
g54
(dp5007
sg63
g4647
sg56
(lp5008
g49
(g70
g51
NtRp5009
(dp5010
g54
(dp5011
sg63
g5005
sg56
(lp5012
g49
(g50
g51
NtRp5013
(dp5014
g54
(dp5015
g62
I2
ssg63
g5009
sg56
(lp5016
g49
(g58
g51
NtRp5017
(dp5018
g54
(dp5019
g62
I1
ssg63
Nsg56
(lp5020
g49
(g65
g51
NtRp5021
(dp5022
g54
(dp5023
sg63
g5017
sg56
(lp5024
g49
(g70
g51
NtRp5025
(dp5026
g54
(dp5027
sg63
g5021
sg56
(lp5028
g49
(g50
g51
NtRp5029
(dp5030
g54
(dp5031
g62
I1
ssg63
g5025
sg56
(lp5032
g4533
(S's\t\x00\x00\x00Community'
tRp5033
asbasbasbag49
(g65
g51
NtRp5034
(dp5035
g54
(dp5036
sg63
g5017
sg56
(lp5037
g49
(g70
g51
NtRp5038
(dp5039
g54
(dp5040
sg63
g5034
sg56
(lp5041
g49
(g50
g51
NtRp5042
(dp5043
g54
(dp5044
g62
I1
ssg63
g5038
sg56
(lp5045
I00
asbasbasbag49
(g65
g51
NtRp5046
(dp5047
g54
(dp5048
sg63
g5017
sg56
(lp5049
g49
(g70
g51
NtRp5050
(dp5051
g54
(dp5052
sg63
g5046
sg56
(lp5053
g49
(g50
g51
NtRp5054
(dp5055
g54
(dp5056
g62
I1
ssg63
g5050
sg56
(lp5057
Nasbasbasbag49
(g65
g51
NtRp5058
(dp5059
g54
(dp5060
sg63
g5017
sg56
(lp5061
g49
(g70
g51
NtRp5062
(dp5063
g54
(dp5064
sg63
g5058
sg56
(lp5065
g49
(g50
g51
NtRp5066
(dp5067
g54
(dp5068
g62
I1
ssg63
g5062
sg56
(lp5069
(lp5070
(g4533
(S's\x06\x00\x00\x00Groups'
tRp5071
I00
S'http://www.web2py.com/examples/default/usergroups'
p5072
tp5073
a(g4533
(S's\x07\x00\x00\x00Twitter'
tRp5074
I00
S'http://twitter.com/web2py'
p5075
tp5076
a(g4533
(S's\t\x00\x00\x00Live Chat'
tRp5077
I00
S'http://webchat.freenode.net/?channels=web2py'
p5078
tp5079
aasbasbasbasbasbasbasbag49
(g65
g51
NtRp5080
(dp5081
g54
(dp5082
sg63
g4647
sg56
(lp5083
g49
(g70
g51
NtRp5084
(dp5085
g54
(dp5086
sg63
g5080
sg56
(lp5087
g49
(g50
g51
NtRp5088
(dp5089
g54
(dp5090
g62
I2
ssg63
g5084
sg56
(lp5091
g49
(g58
g51
NtRp5092
(dp5093
g54
(dp5094
g62
I1
ssg63
Nsg56
(lp5095
g49
(g65
g51
NtRp5096
(dp5097
g54
(dp5098
sg63
g5092
sg56
(lp5099
g49
(g70
g51
NtRp5100
(dp5101
g54
(dp5102
sg63
g5096
sg56
(lp5103
g49
(g50
g51
NtRp5104
(dp5105
g54
(dp5106
g62
I1
ssg63
g5100
sg56
(lp5107
g4533
(S's\x07\x00\x00\x00Plugins'
tRp5108
asbasbasbag49
(g65
g51
NtRp5109
(dp5110
g54
(dp5111
sg63
g5092
sg56
(lp5112
g49
(g70
g51
NtRp5113
(dp5114
g54
(dp5115
sg63
g5109
sg56
(lp5116
g49
(g50
g51
NtRp5117
(dp5118
g54
(dp5119
g62
I1
ssg63
g5113
sg56
(lp5120
I00
asbasbasbag49
(g65
g51
NtRp5121
(dp5122
g54
(dp5123
sg63
g5092
sg56
(lp5124
g49
(g70
g51
NtRp5125
(dp5126
g54
(dp5127
sg63
g5121
sg56
(lp5128
g49
(g50
g51
NtRp5129
(dp5130
g54
(dp5131
g62
I1
ssg63
g5125
sg56
(lp5132
Nasbasbasbag49
(g65
g51
NtRp5133
(dp5134
g54
(dp5135
sg63
g5092
sg56
(lp5136
g49
(g70
g51
NtRp5137
(dp5138
g54
(dp5139
sg63
g5133
sg56
(lp5140
g49
(g50
g51
NtRp5141
(dp5142
g54
(dp5143
g62
I1
ssg63
g5137
sg56
(lp5144
(lp5145
(S'plugin_wiki'
p5146
I00
S'http://web2py.com/examples/default/download'
p5147
tp5148
a(g4533
(S's\r\x00\x00\x00Other Plugins'
tRp5149
I00
g4879
tp5150
a(g4533
(S's\x0e\x00\x00\x00Layout Plugins'
tRp5151
I00
g4882
tp5152
aasbasbasbasbasbasbasbasbasbasbasbasbasbasbasbasbasbasbasbag49
(g65
g51
NtRp5153
(dp5154
g54
(dp5155
sg63
g3997
sg56
(lp5156
g49
(g70
g51
NtRp5157
(dp5158
g54
(dp5159
g74
g75
ssg63
g5153
sg56
(lp5160
S'meta'
p5161
asbag49
(g70
g51
NtRp5162
(dp5163
g54
(dp5164
g81
g82
ssg63
g5153
sg56
(lp5165
S':'
asbag49
(g70
g51
NtRp5166
(dp5167
g54
(dp5168
sg63
g5153
sg56
(lp5169
g49
(g50
g51
NtRp5170
(dp5171
g54
(dp5172
g62
I5
ssg63
g5166
sg56
(lp5173
g49
(g58
g51
NtRp5174
(dp5175
g54
(dp5176
g62
I4
ssg63
Nsg56
(lp5177
g49
(g65
g51
NtRp5178
(dp5179
g54
(dp5180
sg63
g5174
sg56
(lp5181
g49
(g70
g51
NtRp5182
(dp5183
g54
(dp5184
g74
g75
ssg63
g5178
sg56
(lp5185
S'author'
p5186
asbag49
(g70
g51
NtRp5187
(dp5188
g54
(dp5189
g81
g82
ssg63
g5178
sg56
(lp5190
S':'
asbag49
(g70
g51
NtRp5191
(dp5192
g54
(dp5193
sg63
g5178
sg56
(lp5194
g49
(g50
g51
NtRp5195
(dp5196
g54
(dp5197
g62
I4
ssg63
g5191
sg56
(lp5198
S'Your Name <you@example.com>'
p5199
asbasbasbag49
(g65
g51
NtRp5200
(dp5201
g54
(dp5202
sg63
g5174
sg56
(lp5203
g49
(g70
g51
NtRp5204
(dp5205
g54
(dp5206
g74
g75
ssg63
g5200
sg56
(lp5207
S'copyright'
p5208
asbag49
(g70
g51
NtRp5209
(dp5210
g54
(dp5211
g81
g82
ssg63
g5200
sg56
(lp5212
S':'
asbag49
(g70
g51
NtRp5213
(dp5214
g54
(dp5215
sg63
g5200
sg56
(lp5216
g49
(g50
g51
NtRp5217
(dp5218
g54
(dp5219
g62
I4
ssg63
g5213
sg56
(lp5220
S'Copyright 2011'
p5221
asbasbasbag49
(g65
g51
NtRp5222
(dp5223
g54
(dp5224
sg63
g5174
sg56
(lp5225
g49
(g70
g51
NtRp5226
(dp5227
g54
(dp5228
g74
g75
ssg63
g5222
sg56
(lp5229
S'description'
p5230
asbag49
(g70
g51
NtRp5231
(dp5232
g54
(dp5233
g81
g82
ssg63
g5222
sg56
(lp5234
S':'
asbag49
(g70
g51
NtRp5235
(dp5236
g54
(dp5237
sg63
g5222
sg56
(lp5238
g49
(g50
g51
NtRp5239
(dp5240
g54
(dp5241
g62
I4
ssg63
g5235
sg56
(lp5242
S'a cool new app'
p5243
asbasbasbag49
(g65
g51
NtRp5244
(dp5245
g54
(dp5246
sg63
g5174
sg56
(lp5247
g49
(g70
g51
NtRp5248
(dp5249
g54
(dp5250
g74
g75
ssg63
g5244
sg56
(lp5251
S'generator'
p5252
asbag49
(g70
g51
NtRp5253
(dp5254
g54
(dp5255
g81
g82
ssg63
g5244
sg56
(lp5256
S':'
asbag49
(g70
g51
NtRp5257
(dp5258
g54
(dp5259
sg63
g5244
sg56
(lp5260
g49
(g50
g51
NtRp5261
(dp5262
g54
(dp5263
g62
I4
ssg63
g5257
sg56
(lp5264
S'Web2py Web Framework'
p5265
asbasbasbag49
(g65
g51
NtRp5266
(dp5267
g54
(dp5268
sg63
g5174
sg56
(lp5269
g49
(g70
g51
NtRp5270
(dp5271
g54
(dp5272
g74
g75
ssg63
g5266
sg56
(lp5273
S'keywords'
p5274
asbag49
(g70
g51
NtRp5275
(dp5276
g54
(dp5277
g81
g82
ssg63
g5266
sg56
(lp5278
S':'
asbag49
(g70
g51
NtRp5279
(dp5280
g54
(dp5281
sg63
g5266
sg56
(lp5282
g49
(g50
g51
NtRp5283
(dp5284
g54
(dp5285
g62
I4
ssg63
g5279
sg56
(lp5286
S'web2py, python, framework'
p5287
asbasbasbasbasbasbasbag49
(g65
g51
NtRp5288
(dp5289
g54
(dp5290
sg63
g3997
sg56
(lp5291
g49
(g70
g51
NtRp5292
(dp5293
g54
(dp5294
g74
g75
ssg63
g5288
sg56
(lp5295
S'postprocessing'
p5296
asbag49
(g70
g51
NtRp5297
(dp5298
g54
(dp5299
g81
g82
ssg63
g5288
sg56
(lp5300
S':'
asbag49
(g70
g51
NtRp5301
(dp5302
g54
(dp5303
sg63
g5288
sg56
(lp5304
g49
(g50
g51
NtRp5305
(dp5306
g54
(dp5307
g62
I5
ssg63
g5301
sg56
(lp5308
g49
(g58
g51
NtRp5309
(dp5310
g54
(dp5311
g62
I4
ssg63
Nsg56
(lp5312
sbasbasbasbag49
(g65
g51
NtRp5313
(dp5314
g54
(dp5315
sg63
g3997
sg56
(lp5316
g49
(g70
g51
NtRp5317
(dp5318
g54
(dp5319
g74
g75
ssg63
g5313
sg56
(lp5320
S'session_file'
p5321
asbag49
(g70
g51
NtRp5322
(dp5323
g54
(dp5324
g81
g82
ssg63
g5313
sg56
(lp5325
S':'
asbag49
(g70
g51
NtRp5326
(dp5327
g54
(dp5328
sg63
g5313
sg56
(lp5329
g49
(g50
g51
NtRp5330
(dp5331
g54
(dp5332
g62
I5
ssg63
g5326
sg56
(lp5333
S"<open file 'C:\\Users\\omkara\\Desktop\\web2py\\applications\\SlugBarter\\sessions\\127.0.0.1-e6ebae72-1bbc-48a5-9458-95dbb65a4e54', mode 'rb+' at 0x06D1EEC0>"
p5334
asbasbasbag49
(g65
g51
NtRp5335
(dp5336
g54
(dp5337
sg63
g3997
sg56
(lp5338
g49
(g70
g51
NtRp5339
(dp5340
g54
(dp5341
g74
g75
ssg63
g5335
sg56
(lp5342
S'session_filename'
p5343
asbag49
(g70
g51
NtRp5344
(dp5345
g54
(dp5346
g81
g82
ssg63
g5335
sg56
(lp5347
S':'
asbag49
(g70
g51
NtRp5348
(dp5349
g54
(dp5350
sg63
g5335
sg56
(lp5351
g49
(g50
g51
NtRp5352
(dp5353
g54
(dp5354
g62
I5
ssg63
g5348
sg56
(lp5355
S'C:\\Users\\omkara\\Desktop\\web2py\\applications\\SlugBarter\\sessions\\127.0.0.1-e6ebae72-1bbc-48a5-9458-95dbb65a4e54'
p5356
asbasbasbag49
(g65
g51
NtRp5357
(dp5358
g54
(dp5359
sg63
g3997
sg56
(lp5360
g49
(g70
g51
NtRp5361
(dp5362
g54
(dp5363
g74
g75
ssg63
g5357
sg56
(lp5364
S'session_id'
p5365
asbag49
(g70
g51
NtRp5366
(dp5367
g54
(dp5368
g81
g82
ssg63
g5357
sg56
(lp5369
S':'
asbag49
(g70
g51
NtRp5370
(dp5371
g54
(dp5372
sg63
g5357
sg56
(lp5373
g49
(g50
g51
NtRp5374
(dp5375
g54
(dp5376
g62
I5
ssg63
g5370
sg56
(lp5377
S'127.0.0.1-e6ebae72-1bbc-48a5-9458-95dbb65a4e54'
p5378
asbasbasbag49
(g65
g51
NtRp5379
(dp5380
g54
(dp5381
sg63
g3997
sg56
(lp5382
g49
(g70
g51
NtRp5383
(dp5384
g54
(dp5385
g74
g75
ssg63
g5379
sg56
(lp5386
S'session_id_name'
p5387
asbag49
(g70
g51
NtRp5388
(dp5389
g54
(dp5390
g81
g82
ssg63
g5379
sg56
(lp5391
S':'
asbag49
(g70
g51
NtRp5392
(dp5393
g54
(dp5394
sg63
g5379
sg56
(lp5395
g49
(g50
g51
NtRp5396
(dp5397
g54
(dp5398
g62
I5
ssg63
g5392
sg56
(lp5399
g4054
asbasbasbag49
(g65
g51
NtRp5400
(dp5401
g54
(dp5402
sg63
g3997
sg56
(lp5403
g49
(g70
g51
NtRp5404
(dp5405
g54
(dp5406
g74
g75
ssg63
g5400
sg56
(lp5407
S'session_locked'
p5408
asbag49
(g70
g51
NtRp5409
(dp5410
g54
(dp5411
g81
g82
ssg63
g5400
sg56
(lp5412
S':'
asbag49
(g70
g51
NtRp5413
(dp5414
g54
(dp5415
sg63
g5400
sg56
(lp5416
g49
(g50
g51
NtRp5417
(dp5418
g54
(dp5419
g62
I5
ssg63
g5413
sg56
(lp5420
g2126
asbasbasbag49
(g65
g51
NtRp5421
(dp5422
g54
(dp5423
sg63
g3997
sg56
(lp5424
g49
(g70
g51
NtRp5425
(dp5426
g54
(dp5427
g74
g75
ssg63
g5421
sg56
(lp5428
S'session_new'
p5429
asbag49
(g70
g51
NtRp5430
(dp5431
g54
(dp5432
g81
g82
ssg63
g5421
sg56
(lp5433
S':'
asbag49
(g70
g51
NtRp5434
(dp5435
g54
(dp5436
sg63
g5421
sg56
(lp5437
g49
(g50
g51
NtRp5438
(dp5439
g54
(dp5440
g62
I5
ssg63
g5434
sg56
(lp5441
g92
asbasbasbag49
(g65
g51
NtRp5442
(dp5443
g54
(dp5444
sg63
g3997
sg56
(lp5445
g49
(g70
g51
NtRp5446
(dp5447
g54
(dp5448
g74
g75
ssg63
g5442
sg56
(lp5449
S'status'
p5450
asbag49
(g70
g51
NtRp5451
(dp5452
g54
(dp5453
g81
g82
ssg63
g5442
sg56
(lp5454
S':'
asbag49
(g70
g51
NtRp5455
(dp5456
g54
(dp5457
sg63
g5442
sg56
(lp5458
g49
(g50
g51
NtRp5459
(dp5460
g54
(dp5461
g62
I5
ssg63
g5455
sg56
(lp5462
S'200'
p5463
asbasbasbag49
(g65
g51
NtRp5464
(dp5465
g54
(dp5466
sg63
g3997
sg56
(lp5467
g49
(g70
g51
NtRp5468
(dp5469
g54
(dp5470
g74
g75
ssg63
g5464
sg56
(lp5471
S'subtitle'
p5472
asbag49
(g70
g51
NtRp5473
(dp5474
g54
(dp5475
g81
g82
ssg63
g5464
sg56
(lp5476
S':'
asbag49
(g70
g51
NtRp5477
(dp5478
g54
(dp5479
sg63
g5464
sg56
(lp5480
g49
(g50
g51
NtRp5481
(dp5482
g54
(dp5483
g62
I5
ssg63
g5477
sg56
(lp5484
g4533
(S's\r\x00\x00\x00customize me!'
tRp5485
asbasbasbag49
(g65
g51
NtRp5486
(dp5487
g54
(dp5488
sg63
g3997
sg56
(lp5489
g49
(g70
g51
NtRp5490
(dp5491
g54
(dp5492
g74
g75
ssg63
g5486
sg56
(lp5493
S'title'
p5494
asbag49
(g70
g51
NtRp5495
(dp5496
g54
(dp5497
g81
g82
ssg63
g5486
sg56
(lp5498
S':'
asbag49
(g70
g51
NtRp5499
(dp5500
g54
(dp5501
sg63
g5486
sg56
(lp5502
g49
(g50
g51
NtRp5503
(dp5504
g54
(dp5505
g62
I5
ssg63
g5499
sg56
(lp5506
S'Slugbarter'
p5507
asbasbasbag49
(g65
g51
NtRp5508
(dp5509
g54
(dp5510
sg63
g3997
sg56
(lp5511
g49
(g70
g51
NtRp5512
(dp5513
g54
(dp5514
g74
g75
ssg63
g5508
sg56
(lp5515
g2811
asbag49
(g70
g51
NtRp5516
(dp5517
g54
(dp5518
g81
g82
ssg63
g5508
sg56
(lp5519
S':'
asbag49
(g70
g51
NtRp5520
(dp5521
g54
(dp5522
sg63
g5508
sg56
(lp5523
g49
(g50
g51
NtRp5524
(dp5525
g54
(dp5526
g62
I5
ssg63
g5520
sg56
(lp5527
g2824
asbasbasbag49
(g65
g51
NtRp5528
(dp5529
g54
(dp5530
sg63
g3997
sg56
(lp5531
g49
(g70
g51
NtRp5532
(dp5533
g54
(dp5534
g74
g75
ssg63
g5528
sg56
(lp5535
S'view'
p5536
asbag49
(g70
g51
NtRp5537
(dp5538
g54
(dp5539
g81
g82
ssg63
g5528
sg56
(lp5540
S':'
asbag49
(g70
g51
NtRp5541
(dp5542
g54
(dp5543
sg63
g5528
sg56
(lp5544
g49
(g50
g51
NtRp5545
(dp5546
g54
(dp5547
g62
I5
ssg63
g5541
sg56
(lp5548
S'default/view_my_listings.html'
p5549
asbasbasbasbasbsS'locals'
p5550
(dp5551
S'self'
p5552
S"<DAL {'auth_event': <Table {'origin': <gluon.dal..._key': <gluon.dal.Field object at 0x0618E690>}>}>"
p5553
sS'key'
p5554
S"'listings'"
p5555
sssS'traceback'
p5556
S'Traceback (most recent call last):\n  File "gluon/restricted.py", line 205, in restricted\n  File "C:\\Users\\omkara\\Desktop\\web2py\\applications\\SlugBarter\\controllers/default.py", line 101, in <module>\n  File "gluon/globals.py", line 173, in <lambda>\n  File "gluon/tools.py", line 2575, in f\n  File "C:\\Users\\omkara\\Desktop\\web2py\\applications\\SlugBarter\\controllers/default.py", line 45, in view_my_listings\n  File "gluon/dal.py", line 6343, in __getattr__\n  File "gluon/dal.py", line 6337, in __getitem__\nKeyError: \'listings\'\n'
p5557
s.