(dp1
S'output'
p2
S"<type 'exceptions.SyntaxError'> invalid table name: auth_user"
p3
sS'layer'
p4
S'C:\\Users\\omkara\\Desktop\\web2py\\applications\\SlugBarter\\models\\registerForm.py'
p5
sS'code'
p6
S"# coding: utf8\nfrom gluon.tools import Auth\nfrom datetime import datetime\nauth=Auth(db) \n\ndb.define_table(\n    'auth_user',\n    Field('first_name', length=128, default=''),\n    Field('last_name', length=128, default=''),\n    Field('email', length=128, default='', unique=True), # required\n    Field('password', 'password', length=512,            # required\n          readable=False, label='Password'),\n    Field('address'),\n    Field('city'),\n    Field('zip'),\n    Field('phone'),\n    Field('registration_key', length=512,                # required\n          writable=False, readable=False, default=''),\n    Field('reset_password_key', length=512,              # required\n          writable=False, readable=False, default=''),\n    Field('registration_id', length=512,                 # required\n          writable=False, readable=False, default=''))\n\n## do not forget validators\ncustom_auth_table = db[auth.settings.table_user_name] # get the custom_auth_table\ncustom_auth_table.first_name.requires = \\\n  IS_NOT_EMPTY(error_message=auth.messages.is_empty)\ncustom_auth_table.last_name.requires = \\\n  IS_NOT_EMPTY(error_message=auth.messages.is_empty)\ncustom_auth_table.password.requires = [IS_STRONG(), CRYPT()]\ncustom_auth_table.email.requires = [\n  IS_EMAIL(error_message=auth.messages.invalid_email),\n  IS_NOT_IN_DB(db, custom_auth_table.email)]\n\nauth.settings.table_user = custom_auth_table # tell auth to use custom_auth_table\n\nauth.define_tables()\n"
p7
sS'snapshot'
p8
(dp9
S'exception'
p10
(dp11
S'__getslice__'
p12
S"<method-wrapper '__getslice__' of exceptions.SyntaxError object at 0x06539670>"
p13
sS'text'
p14
S'None'
p15
sS'__str__'
p16
S"<method-wrapper '__str__' of exceptions.SyntaxError object at 0x06539670>"
p17
sS'__reduce__'
p18
S'<built-in method __reduce__ of exceptions.SyntaxError object at 0x06539670>'
p19
sS'__dict__'
p20
S'{}'
p21
sS'__init__'
p22
S"<method-wrapper '__init__' of exceptions.SyntaxError object at 0x06539670>"
p23
sS'__setattr__'
p24
S"<method-wrapper '__setattr__' of exceptions.SyntaxError object at 0x06539670>"
p25
sS'__reduce_ex__'
p26
S'<built-in method __reduce_ex__ of exceptions.SyntaxError object at 0x06539670>'
p27
sS'__new__'
p28
S'<built-in method __new__ of type object at 0x1E1CDBD0>'
p29
sS'__class__'
p30
S"<type 'exceptions.SyntaxError'>"
p31
sS'filename'
p32
S'None'
p33
sS'lineno'
p34
S'None'
p35
sS'msg'
p36
S"'invalid table name: auth_user'"
p37
sS'__doc__'
p38
S"'Invalid syntax.'"
p39
sS'__getitem__'
p40
S"<method-wrapper '__getitem__' of exceptions.SyntaxError object at 0x06539670>"
p41
sS'__setstate__'
p42
S'<built-in method __setstate__ of exceptions.SyntaxError object at 0x06539670>'
p43
sS'__getattribute__'
p44
S"<method-wrapper '__getattribute__' of exceptions.SyntaxError object at 0x06539670>"
p45
sS'print_file_and_line'
p46
S'None'
p47
sS'args'
p48
S"('invalid table name: auth_user',)"
p49
sS'offset'
p50
S'None'
p51
sS'__delattr__'
p52
S"<method-wrapper '__delattr__' of exceptions.SyntaxError object at 0x06539670>"
p53
sS'__repr__'
p54
S"<method-wrapper '__repr__' of exceptions.SyntaxError object at 0x06539670>"
p55
sS'__hash__'
p56
S"<method-wrapper '__hash__' of exceptions.SyntaxError object at 0x06539670>"
p57
ssS'evalue'
p58
S'invalid table name: auth_user'
p59
sS'request'
p60
ccopy_reg
_reconstructor
p61
(cgluon.html
BEAUTIFY
p62
c__builtin__
object
p63
NtRp64
(dp65
S'attributes'
p66
(dp67
sS'components'
p68
(lp69
g61
(cgluon.html
TABLE
p70
g63
NtRp71
(dp72
g66
(dp73
S'level'
p74
I5
ssS'parent'
p75
Nsg68
(lp76
g61
(cgluon.html
TR
p77
g63
NtRp78
(dp79
g66
(dp80
sg75
g71
sg68
(lp81
g61
(cgluon.html
TD
p82
g63
NtRp83
(dp84
g66
(dp85
S'_style'
p86
S'font-weight:bold;vertical-align:top'
p87
ssg75
g78
sg68
(lp88
S'ajax'
p89
asbag61
(g82
g63
NtRp90
(dp91
g66
(dp92
S'_valign'
p93
S'top'
p94
ssg75
g78
sg68
(lp95
S':'
asbag61
(g82
g63
NtRp96
(dp97
g66
(dp98
sg75
g78
sg68
(lp99
g61
(g62
g63
NtRp100
(dp101
g66
(dp102
g74
I5
ssg75
g96
sg68
(lp103
S'False'
p104
asbasbasbag61
(g77
g63
NtRp105
(dp106
g66
(dp107
sg75
g71
sg68
(lp108
g61
(g82
g63
NtRp109
(dp110
g66
(dp111
g86
g87
ssg75
g105
sg68
(lp112
S'application'
p113
asbag61
(g82
g63
NtRp114
(dp115
g66
(dp116
g93
g94
ssg75
g105
sg68
(lp117
S':'
asbag61
(g82
g63
NtRp118
(dp119
g66
(dp120
sg75
g105
sg68
(lp121
g61
(g62
g63
NtRp122
(dp123
g66
(dp124
g74
I5
ssg75
g118
sg68
(lp125
S'SlugBarter'
p126
asbasbasbag61
(g77
g63
NtRp127
(dp128
g66
(dp129
sg75
g71
sg68
(lp130
g61
(g82
g63
NtRp131
(dp132
g66
(dp133
g86
g87
ssg75
g127
sg68
(lp134
g48
asbag61
(g82
g63
NtRp135
(dp136
g66
(dp137
g93
g94
ssg75
g127
sg68
(lp138
S':'
asbag61
(g82
g63
NtRp139
(dp140
g66
(dp141
sg75
g127
sg68
(lp142
g61
(g62
g63
NtRp143
(dp144
g66
(dp145
g74
I5
ssg75
g139
sg68
(lp146
g61
(g70
g63
NtRp147
(dp148
g66
(dp149
g74
I4
ssg75
Nsg68
(lp150
sbasbasbasbag61
(g77
g63
NtRp151
(dp152
g66
(dp153
sg75
g71
sg68
(lp154
g61
(g82
g63
NtRp155
(dp156
g66
(dp157
g86
g87
ssg75
g151
sg68
(lp158
S'body'
p159
asbag61
(g82
g63
NtRp160
(dp161
g66
(dp162
g93
g94
ssg75
g151
sg68
(lp163
S':'
asbag61
(g82
g63
NtRp164
(dp165
g66
(dp166
sg75
g151
sg68
(lp167
g61
(g62
g63
NtRp168
(dp169
g66
(dp170
g74
I5
ssg75
g164
sg68
(lp171
S'<cStringIO.StringO object at 0x0620ABA0>'
p172
asbasbasbag61
(g77
g63
NtRp173
(dp174
g66
(dp175
sg75
g71
sg68
(lp176
g61
(g82
g63
NtRp177
(dp178
g66
(dp179
g86
g87
ssg75
g173
sg68
(lp180
S'client'
p181
asbag61
(g82
g63
NtRp182
(dp183
g66
(dp184
g93
g94
ssg75
g173
sg68
(lp185
S':'
asbag61
(g82
g63
NtRp186
(dp187
g66
(dp188
sg75
g173
sg68
(lp189
g61
(g62
g63
NtRp190
(dp191
g66
(dp192
g74
I5
ssg75
g186
sg68
(lp193
S'127.0.0.1'
p194
asbasbasbag61
(g77
g63
NtRp195
(dp196
g66
(dp197
sg75
g71
sg68
(lp198
g61
(g82
g63
NtRp199
(dp200
g66
(dp201
g86
g87
ssg75
g195
sg68
(lp202
S'controller'
p203
asbag61
(g82
g63
NtRp204
(dp205
g66
(dp206
g93
g94
ssg75
g195
sg68
(lp207
S':'
asbag61
(g82
g63
NtRp208
(dp209
g66
(dp210
sg75
g195
sg68
(lp211
g61
(g62
g63
NtRp212
(dp213
g66
(dp214
g74
I5
ssg75
g208
sg68
(lp215
S'default'
p216
asbasbasbag61
(g77
g63
NtRp217
(dp218
g66
(dp219
sg75
g71
sg68
(lp220
g61
(g82
g63
NtRp221
(dp222
g66
(dp223
g86
g87
ssg75
g217
sg68
(lp224
S'cookies'
p225
asbag61
(g82
g63
NtRp226
(dp227
g66
(dp228
g93
g94
ssg75
g217
sg68
(lp229
S':'
asbag61
(g82
g63
NtRp230
(dp231
g66
(dp232
sg75
g217
sg68
(lp233
g61
(g62
g63
NtRp234
(dp235
g66
(dp236
g74
I5
ssg75
g230
sg68
(lp237
g61
(g70
g63
NtRp238
(dp239
g66
(dp240
g74
I4
ssg75
Nsg68
(lp241
g61
(g77
g63
NtRp242
(dp243
g66
(dp244
sg75
g238
sg68
(lp245
g61
(g82
g63
NtRp246
(dp247
g66
(dp248
g86
g87
ssg75
g242
sg68
(lp249
S'session_id_admin'
p250
asbag61
(g82
g63
NtRp251
(dp252
g66
(dp253
g93
g94
ssg75
g242
sg68
(lp254
S':'
asbag61
(g82
g63
NtRp255
(dp256
g66
(dp257
sg75
g242
sg68
(lp258
g61
(g62
g63
NtRp259
(dp260
g66
(dp261
g74
I4
ssg75
g255
sg68
(lp262
g61
(g70
g63
NtRp263
(dp264
g66
(dp265
g74
I3
ssg75
Nsg68
(lp266
g61
(g77
g63
NtRp267
(dp268
g66
(dp269
sg75
g263
sg68
(lp270
g61
(g82
g63
NtRp271
(dp272
g66
(dp273
g86
g87
ssg75
g267
sg68
(lp274
S'comment'
p275
asbag61
(g82
g63
NtRp276
(dp277
g66
(dp278
g93
g94
ssg75
g267
sg68
(lp279
S':'
asbag61
(g82
g63
NtRp280
(dp281
g66
(dp282
sg75
g267
sg68
(lp283
g61
(g62
g63
NtRp284
(dp285
g66
(dp286
g74
I3
ssg75
g280
sg68
(lp287
S''
asbasbasbag61
(g77
g63
NtRp288
(dp289
g66
(dp290
sg75
g263
sg68
(lp291
g61
(g82
g63
NtRp292
(dp293
g66
(dp294
g86
g87
ssg75
g288
sg68
(lp295
S'domain'
p296
asbag61
(g82
g63
NtRp297
(dp298
g66
(dp299
g93
g94
ssg75
g288
sg68
(lp300
S':'
asbag61
(g82
g63
NtRp301
(dp302
g66
(dp303
sg75
g288
sg68
(lp304
g61
(g62
g63
NtRp305
(dp306
g66
(dp307
g74
I3
ssg75
g301
sg68
(lp308
S''
asbasbasbag61
(g77
g63
NtRp309
(dp310
g66
(dp311
sg75
g263
sg68
(lp312
g61
(g82
g63
NtRp313
(dp314
g66
(dp315
g86
g87
ssg75
g309
sg68
(lp316
S'expires'
p317
asbag61
(g82
g63
NtRp318
(dp319
g66
(dp320
g93
g94
ssg75
g309
sg68
(lp321
S':'
asbag61
(g82
g63
NtRp322
(dp323
g66
(dp324
sg75
g309
sg68
(lp325
g61
(g62
g63
NtRp326
(dp327
g66
(dp328
g74
I3
ssg75
g322
sg68
(lp329
S''
asbasbasbag61
(g77
g63
NtRp330
(dp331
g66
(dp332
sg75
g263
sg68
(lp333
g61
(g82
g63
NtRp334
(dp335
g66
(dp336
g86
g87
ssg75
g330
sg68
(lp337
S'max-age'
p338
asbag61
(g82
g63
NtRp339
(dp340
g66
(dp341
g93
g94
ssg75
g330
sg68
(lp342
S':'
asbag61
(g82
g63
NtRp343
(dp344
g66
(dp345
sg75
g330
sg68
(lp346
g61
(g62
g63
NtRp347
(dp348
g66
(dp349
g74
I3
ssg75
g343
sg68
(lp350
S''
asbasbasbag61
(g77
g63
NtRp351
(dp352
g66
(dp353
sg75
g263
sg68
(lp354
g61
(g82
g63
NtRp355
(dp356
g66
(dp357
g86
g87
ssg75
g351
sg68
(lp358
S'path'
p359
asbag61
(g82
g63
NtRp360
(dp361
g66
(dp362
g93
g94
ssg75
g351
sg68
(lp363
S':'
asbag61
(g82
g63
NtRp364
(dp365
g66
(dp366
sg75
g351
sg68
(lp367
g61
(g62
g63
NtRp368
(dp369
g66
(dp370
g74
I3
ssg75
g364
sg68
(lp371
S''
asbasbasbag61
(g77
g63
NtRp372
(dp373
g66
(dp374
sg75
g263
sg68
(lp375
g61
(g82
g63
NtRp376
(dp377
g66
(dp378
g86
g87
ssg75
g372
sg68
(lp379
S'secure'
p380
asbag61
(g82
g63
NtRp381
(dp382
g66
(dp383
g93
g94
ssg75
g372
sg68
(lp384
S':'
asbag61
(g82
g63
NtRp385
(dp386
g66
(dp387
sg75
g372
sg68
(lp388
g61
(g62
g63
NtRp389
(dp390
g66
(dp391
g74
I3
ssg75
g385
sg68
(lp392
S''
asbasbasbag61
(g77
g63
NtRp393
(dp394
g66
(dp395
sg75
g263
sg68
(lp396
g61
(g82
g63
NtRp397
(dp398
g66
(dp399
g86
g87
ssg75
g393
sg68
(lp400
S'version'
p401
asbag61
(g82
g63
NtRp402
(dp403
g66
(dp404
g93
g94
ssg75
g393
sg68
(lp405
S':'
asbag61
(g82
g63
NtRp406
(dp407
g66
(dp408
sg75
g393
sg68
(lp409
g61
(g62
g63
NtRp410
(dp411
g66
(dp412
g74
I3
ssg75
g406
sg68
(lp413
S''
asbasbasbasbasbasbasbag61
(g77
g63
NtRp414
(dp415
g66
(dp416
sg75
g238
sg68
(lp417
g61
(g82
g63
NtRp418
(dp419
g66
(dp420
g86
g87
ssg75
g414
sg68
(lp421
S'session_id_onlinenotes_p1_'
p422
asbag61
(g82
g63
NtRp423
(dp424
g66
(dp425
g93
g94
ssg75
g414
sg68
(lp426
S':'
asbag61
(g82
g63
NtRp427
(dp428
g66
(dp429
sg75
g414
sg68
(lp430
g61
(g62
g63
NtRp431
(dp432
g66
(dp433
g74
I4
ssg75
g427
sg68
(lp434
g61
(g70
g63
NtRp435
(dp436
g66
(dp437
g74
I3
ssg75
Nsg68
(lp438
g61
(g77
g63
NtRp439
(dp440
g66
(dp441
sg75
g435
sg68
(lp442
g61
(g82
g63
NtRp443
(dp444
g66
(dp445
g86
g87
ssg75
g439
sg68
(lp446
g275
asbag61
(g82
g63
NtRp447
(dp448
g66
(dp449
g93
g94
ssg75
g439
sg68
(lp450
S':'
asbag61
(g82
g63
NtRp451
(dp452
g66
(dp453
sg75
g439
sg68
(lp454
g61
(g62
g63
NtRp455
(dp456
g66
(dp457
g74
I3
ssg75
g451
sg68
(lp458
S''
asbasbasbag61
(g77
g63
NtRp459
(dp460
g66
(dp461
sg75
g435
sg68
(lp462
g61
(g82
g63
NtRp463
(dp464
g66
(dp465
g86
g87
ssg75
g459
sg68
(lp466
g296
asbag61
(g82
g63
NtRp467
(dp468
g66
(dp469
g93
g94
ssg75
g459
sg68
(lp470
S':'
asbag61
(g82
g63
NtRp471
(dp472
g66
(dp473
sg75
g459
sg68
(lp474
g61
(g62
g63
NtRp475
(dp476
g66
(dp477
g74
I3
ssg75
g471
sg68
(lp478
S''
asbasbasbag61
(g77
g63
NtRp479
(dp480
g66
(dp481
sg75
g435
sg68
(lp482
g61
(g82
g63
NtRp483
(dp484
g66
(dp485
g86
g87
ssg75
g479
sg68
(lp486
g317
asbag61
(g82
g63
NtRp487
(dp488
g66
(dp489
g93
g94
ssg75
g479
sg68
(lp490
S':'
asbag61
(g82
g63
NtRp491
(dp492
g66
(dp493
sg75
g479
sg68
(lp494
g61
(g62
g63
NtRp495
(dp496
g66
(dp497
g74
I3
ssg75
g491
sg68
(lp498
S''
asbasbasbag61
(g77
g63
NtRp499
(dp500
g66
(dp501
sg75
g435
sg68
(lp502
g61
(g82
g63
NtRp503
(dp504
g66
(dp505
g86
g87
ssg75
g499
sg68
(lp506
g338
asbag61
(g82
g63
NtRp507
(dp508
g66
(dp509
g93
g94
ssg75
g499
sg68
(lp510
S':'
asbag61
(g82
g63
NtRp511
(dp512
g66
(dp513
sg75
g499
sg68
(lp514
g61
(g62
g63
NtRp515
(dp516
g66
(dp517
g74
I3
ssg75
g511
sg68
(lp518
S''
asbasbasbag61
(g77
g63
NtRp519
(dp520
g66
(dp521
sg75
g435
sg68
(lp522
g61
(g82
g63
NtRp523
(dp524
g66
(dp525
g86
g87
ssg75
g519
sg68
(lp526
g359
asbag61
(g82
g63
NtRp527
(dp528
g66
(dp529
g93
g94
ssg75
g519
sg68
(lp530
S':'
asbag61
(g82
g63
NtRp531
(dp532
g66
(dp533
sg75
g519
sg68
(lp534
g61
(g62
g63
NtRp535
(dp536
g66
(dp537
g74
I3
ssg75
g531
sg68
(lp538
S''
asbasbasbag61
(g77
g63
NtRp539
(dp540
g66
(dp541
sg75
g435
sg68
(lp542
g61
(g82
g63
NtRp543
(dp544
g66
(dp545
g86
g87
ssg75
g539
sg68
(lp546
g380
asbag61
(g82
g63
NtRp547
(dp548
g66
(dp549
g93
g94
ssg75
g539
sg68
(lp550
S':'
asbag61
(g82
g63
NtRp551
(dp552
g66
(dp553
sg75
g539
sg68
(lp554
g61
(g62
g63
NtRp555
(dp556
g66
(dp557
g74
I3
ssg75
g551
sg68
(lp558
S''
asbasbasbag61
(g77
g63
NtRp559
(dp560
g66
(dp561
sg75
g435
sg68
(lp562
g61
(g82
g63
NtRp563
(dp564
g66
(dp565
g86
g87
ssg75
g559
sg68
(lp566
g401
asbag61
(g82
g63
NtRp567
(dp568
g66
(dp569
g93
g94
ssg75
g559
sg68
(lp570
S':'
asbag61
(g82
g63
NtRp571
(dp572
g66
(dp573
sg75
g559
sg68
(lp574
g61
(g62
g63
NtRp575
(dp576
g66
(dp577
g74
I3
ssg75
g571
sg68
(lp578
S''
asbasbasbasbasbasbasbag61
(g77
g63
NtRp579
(dp580
g66
(dp581
sg75
g238
sg68
(lp582
g61
(g82
g63
NtRp583
(dp584
g66
(dp585
g86
g87
ssg75
g579
sg68
(lp586
S'session_id_slug_register_page'
p587
asbag61
(g82
g63
NtRp588
(dp589
g66
(dp590
g93
g94
ssg75
g579
sg68
(lp591
S':'
asbag61
(g82
g63
NtRp592
(dp593
g66
(dp594
sg75
g579
sg68
(lp595
g61
(g62
g63
NtRp596
(dp597
g66
(dp598
g74
I4
ssg75
g592
sg68
(lp599
g61
(g70
g63
NtRp600
(dp601
g66
(dp602
g74
I3
ssg75
Nsg68
(lp603
g61
(g77
g63
NtRp604
(dp605
g66
(dp606
sg75
g600
sg68
(lp607
g61
(g82
g63
NtRp608
(dp609
g66
(dp610
g86
g87
ssg75
g604
sg68
(lp611
g275
asbag61
(g82
g63
NtRp612
(dp613
g66
(dp614
g93
g94
ssg75
g604
sg68
(lp615
S':'
asbag61
(g82
g63
NtRp616
(dp617
g66
(dp618
sg75
g604
sg68
(lp619
g61
(g62
g63
NtRp620
(dp621
g66
(dp622
g74
I3
ssg75
g616
sg68
(lp623
S''
asbasbasbag61
(g77
g63
NtRp624
(dp625
g66
(dp626
sg75
g600
sg68
(lp627
g61
(g82
g63
NtRp628
(dp629
g66
(dp630
g86
g87
ssg75
g624
sg68
(lp631
g296
asbag61
(g82
g63
NtRp632
(dp633
g66
(dp634
g93
g94
ssg75
g624
sg68
(lp635
S':'
asbag61
(g82
g63
NtRp636
(dp637
g66
(dp638
sg75
g624
sg68
(lp639
g61
(g62
g63
NtRp640
(dp641
g66
(dp642
g74
I3
ssg75
g636
sg68
(lp643
S''
asbasbasbag61
(g77
g63
NtRp644
(dp645
g66
(dp646
sg75
g600
sg68
(lp647
g61
(g82
g63
NtRp648
(dp649
g66
(dp650
g86
g87
ssg75
g644
sg68
(lp651
g317
asbag61
(g82
g63
NtRp652
(dp653
g66
(dp654
g93
g94
ssg75
g644
sg68
(lp655
S':'
asbag61
(g82
g63
NtRp656
(dp657
g66
(dp658
sg75
g644
sg68
(lp659
g61
(g62
g63
NtRp660
(dp661
g66
(dp662
g74
I3
ssg75
g656
sg68
(lp663
S''
asbasbasbag61
(g77
g63
NtRp664
(dp665
g66
(dp666
sg75
g600
sg68
(lp667
g61
(g82
g63
NtRp668
(dp669
g66
(dp670
g86
g87
ssg75
g664
sg68
(lp671
g338
asbag61
(g82
g63
NtRp672
(dp673
g66
(dp674
g93
g94
ssg75
g664
sg68
(lp675
S':'
asbag61
(g82
g63
NtRp676
(dp677
g66
(dp678
sg75
g664
sg68
(lp679
g61
(g62
g63
NtRp680
(dp681
g66
(dp682
g74
I3
ssg75
g676
sg68
(lp683
S''
asbasbasbag61
(g77
g63
NtRp684
(dp685
g66
(dp686
sg75
g600
sg68
(lp687
g61
(g82
g63
NtRp688
(dp689
g66
(dp690
g86
g87
ssg75
g684
sg68
(lp691
g359
asbag61
(g82
g63
NtRp692
(dp693
g66
(dp694
g93
g94
ssg75
g684
sg68
(lp695
S':'
asbag61
(g82
g63
NtRp696
(dp697
g66
(dp698
sg75
g684
sg68
(lp699
g61
(g62
g63
NtRp700
(dp701
g66
(dp702
g74
I3
ssg75
g696
sg68
(lp703
S''
asbasbasbag61
(g77
g63
NtRp704
(dp705
g66
(dp706
sg75
g600
sg68
(lp707
g61
(g82
g63
NtRp708
(dp709
g66
(dp710
g86
g87
ssg75
g704
sg68
(lp711
g380
asbag61
(g82
g63
NtRp712
(dp713
g66
(dp714
g93
g94
ssg75
g704
sg68
(lp715
S':'
asbag61
(g82
g63
NtRp716
(dp717
g66
(dp718
sg75
g704
sg68
(lp719
g61
(g62
g63
NtRp720
(dp721
g66
(dp722
g74
I3
ssg75
g716
sg68
(lp723
S''
asbasbasbag61
(g77
g63
NtRp724
(dp725
g66
(dp726
sg75
g600
sg68
(lp727
g61
(g82
g63
NtRp728
(dp729
g66
(dp730
g86
g87
ssg75
g724
sg68
(lp731
g401
asbag61
(g82
g63
NtRp732
(dp733
g66
(dp734
g93
g94
ssg75
g724
sg68
(lp735
S':'
asbag61
(g82
g63
NtRp736
(dp737
g66
(dp738
sg75
g724
sg68
(lp739
g61
(g62
g63
NtRp740
(dp741
g66
(dp742
g74
I3
ssg75
g736
sg68
(lp743
S''
asbasbasbasbasbasbasbag61
(g77
g63
NtRp744
(dp745
g66
(dp746
sg75
g238
sg68
(lp747
g61
(g82
g63
NtRp748
(dp749
g66
(dp750
g86
g87
ssg75
g744
sg68
(lp751
S'session_id_slugbarter'
p752
asbag61
(g82
g63
NtRp753
(dp754
g66
(dp755
g93
g94
ssg75
g744
sg68
(lp756
S':'
asbag61
(g82
g63
NtRp757
(dp758
g66
(dp759
sg75
g744
sg68
(lp760
g61
(g62
g63
NtRp761
(dp762
g66
(dp763
g74
I4
ssg75
g757
sg68
(lp764
g61
(g70
g63
NtRp765
(dp766
g66
(dp767
g74
I3
ssg75
Nsg68
(lp768
g61
(g77
g63
NtRp769
(dp770
g66
(dp771
sg75
g765
sg68
(lp772
g61
(g82
g63
NtRp773
(dp774
g66
(dp775
g86
g87
ssg75
g769
sg68
(lp776
g275
asbag61
(g82
g63
NtRp777
(dp778
g66
(dp779
g93
g94
ssg75
g769
sg68
(lp780
S':'
asbag61
(g82
g63
NtRp781
(dp782
g66
(dp783
sg75
g769
sg68
(lp784
g61
(g62
g63
NtRp785
(dp786
g66
(dp787
g74
I3
ssg75
g781
sg68
(lp788
S''
asbasbasbag61
(g77
g63
NtRp789
(dp790
g66
(dp791
sg75
g765
sg68
(lp792
g61
(g82
g63
NtRp793
(dp794
g66
(dp795
g86
g87
ssg75
g789
sg68
(lp796
g296
asbag61
(g82
g63
NtRp797
(dp798
g66
(dp799
g93
g94
ssg75
g789
sg68
(lp800
S':'
asbag61
(g82
g63
NtRp801
(dp802
g66
(dp803
sg75
g789
sg68
(lp804
g61
(g62
g63
NtRp805
(dp806
g66
(dp807
g74
I3
ssg75
g801
sg68
(lp808
S''
asbasbasbag61
(g77
g63
NtRp809
(dp810
g66
(dp811
sg75
g765
sg68
(lp812
g61
(g82
g63
NtRp813
(dp814
g66
(dp815
g86
g87
ssg75
g809
sg68
(lp816
g317
asbag61
(g82
g63
NtRp817
(dp818
g66
(dp819
g93
g94
ssg75
g809
sg68
(lp820
S':'
asbag61
(g82
g63
NtRp821
(dp822
g66
(dp823
sg75
g809
sg68
(lp824
g61
(g62
g63
NtRp825
(dp826
g66
(dp827
g74
I3
ssg75
g821
sg68
(lp828
S''
asbasbasbag61
(g77
g63
NtRp829
(dp830
g66
(dp831
sg75
g765
sg68
(lp832
g61
(g82
g63
NtRp833
(dp834
g66
(dp835
g86
g87
ssg75
g829
sg68
(lp836
g338
asbag61
(g82
g63
NtRp837
(dp838
g66
(dp839
g93
g94
ssg75
g829
sg68
(lp840
S':'
asbag61
(g82
g63
NtRp841
(dp842
g66
(dp843
sg75
g829
sg68
(lp844
g61
(g62
g63
NtRp845
(dp846
g66
(dp847
g74
I3
ssg75
g841
sg68
(lp848
S''
asbasbasbag61
(g77
g63
NtRp849
(dp850
g66
(dp851
sg75
g765
sg68
(lp852
g61
(g82
g63
NtRp853
(dp854
g66
(dp855
g86
g87
ssg75
g849
sg68
(lp856
g359
asbag61
(g82
g63
NtRp857
(dp858
g66
(dp859
g93
g94
ssg75
g849
sg68
(lp860
S':'
asbag61
(g82
g63
NtRp861
(dp862
g66
(dp863
sg75
g849
sg68
(lp864
g61
(g62
g63
NtRp865
(dp866
g66
(dp867
g74
I3
ssg75
g861
sg68
(lp868
S''
asbasbasbag61
(g77
g63
NtRp869
(dp870
g66
(dp871
sg75
g765
sg68
(lp872
g61
(g82
g63
NtRp873
(dp874
g66
(dp875
g86
g87
ssg75
g869
sg68
(lp876
g380
asbag61
(g82
g63
NtRp877
(dp878
g66
(dp879
g93
g94
ssg75
g869
sg68
(lp880
S':'
asbag61
(g82
g63
NtRp881
(dp882
g66
(dp883
sg75
g869
sg68
(lp884
g61
(g62
g63
NtRp885
(dp886
g66
(dp887
g74
I3
ssg75
g881
sg68
(lp888
S''
asbasbasbag61
(g77
g63
NtRp889
(dp890
g66
(dp891
sg75
g765
sg68
(lp892
g61
(g82
g63
NtRp893
(dp894
g66
(dp895
g86
g87
ssg75
g889
sg68
(lp896
g401
asbag61
(g82
g63
NtRp897
(dp898
g66
(dp899
g93
g94
ssg75
g889
sg68
(lp900
S':'
asbag61
(g82
g63
NtRp901
(dp902
g66
(dp903
sg75
g889
sg68
(lp904
g61
(g62
g63
NtRp905
(dp906
g66
(dp907
g74
I3
ssg75
g901
sg68
(lp908
S''
asbasbasbasbasbasbasbag61
(g77
g63
NtRp909
(dp910
g66
(dp911
sg75
g238
sg68
(lp912
g61
(g82
g63
NtRp913
(dp914
g66
(dp915
g86
g87
ssg75
g909
sg68
(lp916
S'session_id_welcome'
p917
asbag61
(g82
g63
NtRp918
(dp919
g66
(dp920
g93
g94
ssg75
g909
sg68
(lp921
S':'
asbag61
(g82
g63
NtRp922
(dp923
g66
(dp924
sg75
g909
sg68
(lp925
g61
(g62
g63
NtRp926
(dp927
g66
(dp928
g74
I4
ssg75
g922
sg68
(lp929
g61
(g70
g63
NtRp930
(dp931
g66
(dp932
g74
I3
ssg75
Nsg68
(lp933
g61
(g77
g63
NtRp934
(dp935
g66
(dp936
sg75
g930
sg68
(lp937
g61
(g82
g63
NtRp938
(dp939
g66
(dp940
g86
g87
ssg75
g934
sg68
(lp941
g275
asbag61
(g82
g63
NtRp942
(dp943
g66
(dp944
g93
g94
ssg75
g934
sg68
(lp945
S':'
asbag61
(g82
g63
NtRp946
(dp947
g66
(dp948
sg75
g934
sg68
(lp949
g61
(g62
g63
NtRp950
(dp951
g66
(dp952
g74
I3
ssg75
g946
sg68
(lp953
S''
asbasbasbag61
(g77
g63
NtRp954
(dp955
g66
(dp956
sg75
g930
sg68
(lp957
g61
(g82
g63
NtRp958
(dp959
g66
(dp960
g86
g87
ssg75
g954
sg68
(lp961
g296
asbag61
(g82
g63
NtRp962
(dp963
g66
(dp964
g93
g94
ssg75
g954
sg68
(lp965
S':'
asbag61
(g82
g63
NtRp966
(dp967
g66
(dp968
sg75
g954
sg68
(lp969
g61
(g62
g63
NtRp970
(dp971
g66
(dp972
g74
I3
ssg75
g966
sg68
(lp973
S''
asbasbasbag61
(g77
g63
NtRp974
(dp975
g66
(dp976
sg75
g930
sg68
(lp977
g61
(g82
g63
NtRp978
(dp979
g66
(dp980
g86
g87
ssg75
g974
sg68
(lp981
g317
asbag61
(g82
g63
NtRp982
(dp983
g66
(dp984
g93
g94
ssg75
g974
sg68
(lp985
S':'
asbag61
(g82
g63
NtRp986
(dp987
g66
(dp988
sg75
g974
sg68
(lp989
g61
(g62
g63
NtRp990
(dp991
g66
(dp992
g74
I3
ssg75
g986
sg68
(lp993
S''
asbasbasbag61
(g77
g63
NtRp994
(dp995
g66
(dp996
sg75
g930
sg68
(lp997
g61
(g82
g63
NtRp998
(dp999
g66
(dp1000
g86
g87
ssg75
g994
sg68
(lp1001
g338
asbag61
(g82
g63
NtRp1002
(dp1003
g66
(dp1004
g93
g94
ssg75
g994
sg68
(lp1005
S':'
asbag61
(g82
g63
NtRp1006
(dp1007
g66
(dp1008
sg75
g994
sg68
(lp1009
g61
(g62
g63
NtRp1010
(dp1011
g66
(dp1012
g74
I3
ssg75
g1006
sg68
(lp1013
S''
asbasbasbag61
(g77
g63
NtRp1014
(dp1015
g66
(dp1016
sg75
g930
sg68
(lp1017
g61
(g82
g63
NtRp1018
(dp1019
g66
(dp1020
g86
g87
ssg75
g1014
sg68
(lp1021
g359
asbag61
(g82
g63
NtRp1022
(dp1023
g66
(dp1024
g93
g94
ssg75
g1014
sg68
(lp1025
S':'
asbag61
(g82
g63
NtRp1026
(dp1027
g66
(dp1028
sg75
g1014
sg68
(lp1029
g61
(g62
g63
NtRp1030
(dp1031
g66
(dp1032
g74
I3
ssg75
g1026
sg68
(lp1033
S''
asbasbasbag61
(g77
g63
NtRp1034
(dp1035
g66
(dp1036
sg75
g930
sg68
(lp1037
g61
(g82
g63
NtRp1038
(dp1039
g66
(dp1040
g86
g87
ssg75
g1034
sg68
(lp1041
g380
asbag61
(g82
g63
NtRp1042
(dp1043
g66
(dp1044
g93
g94
ssg75
g1034
sg68
(lp1045
S':'
asbag61
(g82
g63
NtRp1046
(dp1047
g66
(dp1048
sg75
g1034
sg68
(lp1049
g61
(g62
g63
NtRp1050
(dp1051
g66
(dp1052
g74
I3
ssg75
g1046
sg68
(lp1053
S''
asbasbasbag61
(g77
g63
NtRp1054
(dp1055
g66
(dp1056
sg75
g930
sg68
(lp1057
g61
(g82
g63
NtRp1058
(dp1059
g66
(dp1060
g86
g87
ssg75
g1054
sg68
(lp1061
g401
asbag61
(g82
g63
NtRp1062
(dp1063
g66
(dp1064
g93
g94
ssg75
g1054
sg68
(lp1065
S':'
asbag61
(g82
g63
NtRp1066
(dp1067
g66
(dp1068
sg75
g1054
sg68
(lp1069
g61
(g62
g63
NtRp1070
(dp1071
g66
(dp1072
g74
I3
ssg75
g1066
sg68
(lp1073
S''
asbasbasbasbasbasbasbasbasbasbasbag61
(g77
g63
NtRp1074
(dp1075
g66
(dp1076
sg75
g71
sg68
(lp1077
g61
(g82
g63
NtRp1078
(dp1079
g66
(dp1080
g86
g87
ssg75
g1074
sg68
(lp1081
S'env'
p1082
asbag61
(g82
g63
NtRp1083
(dp1084
g66
(dp1085
g93
g94
ssg75
g1074
sg68
(lp1086
S':'
asbag61
(g82
g63
NtRp1087
(dp1088
g66
(dp1089
sg75
g1074
sg68
(lp1090
g61
(g62
g63
NtRp1091
(dp1092
g66
(dp1093
g74
I5
ssg75
g1087
sg68
(lp1094
g61
(g70
g63
NtRp1095
(dp1096
g66
(dp1097
g74
I4
ssg75
Nsg68
(lp1098
g61
(g77
g63
NtRp1099
(dp1100
g66
(dp1101
sg75
g1095
sg68
(lp1102
g61
(g82
g63
NtRp1103
(dp1104
g66
(dp1105
g86
g87
ssg75
g1099
sg68
(lp1106
S'app_folders'
p1107
asbag61
(g82
g63
NtRp1108
(dp1109
g66
(dp1110
g93
g94
ssg75
g1099
sg68
(lp1111
S':'
asbag61
(g82
g63
NtRp1112
(dp1113
g66
(dp1114
sg75
g1099
sg68
(lp1115
g61
(g62
g63
NtRp1116
(dp1117
g66
(dp1118
g74
I4
ssg75
g1112
sg68
(lp1119
S"set(['C:\\\\Users\\\\omkara\\\\Desktop\\\\web2py\\\\applications\\\\admin\\\\', 'C:\\\\Users\\\\omkara\\\\Desktop\\\\web2py\\\\applications\\\\welcome\\\\', 'C:\\\\Users\\\\omkara\\\\Desktop\\\\web2py\\\\applications\\\\slug_register_page\\\\', 'C:\\\\Users\\\\omkara\\\\Desktop\\\\web2py\\\\applications\\\\SlugBarter\\\\'])"
p1120
asbasbasbag61
(g77
g63
NtRp1121
(dp1122
g66
(dp1123
sg75
g1095
sg68
(lp1124
g61
(g82
g63
NtRp1125
(dp1126
g66
(dp1127
g86
g87
ssg75
g1121
sg68
(lp1128
S'applications_parent'
p1129
asbag61
(g82
g63
NtRp1130
(dp1131
g66
(dp1132
g93
g94
ssg75
g1121
sg68
(lp1133
S':'
asbag61
(g82
g63
NtRp1134
(dp1135
g66
(dp1136
sg75
g1121
sg68
(lp1137
g61
(g62
g63
NtRp1138
(dp1139
g66
(dp1140
g74
I4
ssg75
g1134
sg68
(lp1141
S'C:\\Users\\omkara\\Desktop\\web2py'
p1142
asbasbasbag61
(g77
g63
NtRp1143
(dp1144
g66
(dp1145
sg75
g1095
sg68
(lp1146
g61
(g82
g63
NtRp1147
(dp1148
g66
(dp1149
g86
g87
ssg75
g1143
sg68
(lp1150
S'cmd_args'
p1151
asbag61
(g82
g63
NtRp1152
(dp1153
g66
(dp1154
g93
g94
ssg75
g1143
sg68
(lp1155
S':'
asbag61
(g82
g63
NtRp1156
(dp1157
g66
(dp1158
sg75
g1143
sg68
(lp1159
g61
(g62
g63
NtRp1160
(dp1161
g66
(dp1162
g74
I4
ssg75
g1156
sg68
(lp1163
g61
(g70
g63
NtRp1164
(dp1165
g66
(dp1166
g74
I3
ssg75
Nsg68
(lp1167
sbasbasbasbag61
(g77
g63
NtRp1168
(dp1169
g66
(dp1170
sg75
g1095
sg68
(lp1171
g61
(g82
g63
NtRp1172
(dp1173
g66
(dp1174
g86
g87
ssg75
g1168
sg68
(lp1175
S'cmd_options'
p1176
asbag61
(g82
g63
NtRp1177
(dp1178
g66
(dp1179
g93
g94
ssg75
g1168
sg68
(lp1180
S':'
asbag61
(g82
g63
NtRp1181
(dp1182
g66
(dp1183
sg75
g1168
sg68
(lp1184
g61
(g62
g63
NtRp1185
(dp1186
g66
(dp1187
g74
I4
ssg75
g1181
sg68
(lp1188
S"<Values at 0x27b1f80: {'verbose': False, 'ip': '127.0.0.1', 'shutdown_timeout': 5, 'taskbar': False, 'nocron': False, 'pid_filename': 'httpserver.pid', 'maxthreads': None, 'softcron': False, 'server_name': 'omkara-PC', 'bpython': False, 'nogui': False, 'port': 8000, 'extcron': False, 'debuglevel': 30, 'test': None, 'folder': 'C:\\\\Users\\\\omkara\\\\Desktop\\\\web2py', 'config': '', 'import_models': False, 'winservice': '', 'shell': None, 'run': '', 'log_filename': 'httpserver.log', 'args': [''], 'socket_timeout': 5, 'ssl_ca_certificate': None, 'scheduler': None, 'profiler_filename': None, 'ssl_private_key': '', 'password': '<ask>', 'request_queue_size': 5, 'ssl_certificate': '', 'cronjob': False, 'numthreads': None, 'quiet': False, 'interfaces': None, 'minthreads': None, 'timeout': 10, 'plain': False, 'nobanner': False}>"
p1189
asbasbasbag61
(g77
g63
NtRp1190
(dp1191
g66
(dp1192
sg75
g1095
sg68
(lp1193
g61
(g82
g63
NtRp1194
(dp1195
g66
(dp1196
g86
g87
ssg75
g1190
sg68
(lp1197
S'db_sessions'
p1198
asbag61
(g82
g63
NtRp1199
(dp1200
g66
(dp1201
g93
g94
ssg75
g1190
sg68
(lp1202
S':'
asbag61
(g82
g63
NtRp1203
(dp1204
g66
(dp1205
sg75
g1190
sg68
(lp1206
g61
(g62
g63
NtRp1207
(dp1208
g66
(dp1209
g74
I4
ssg75
g1203
sg68
(lp1210
S'set([])'
p1211
asbasbasbag61
(g77
g63
NtRp1212
(dp1213
g66
(dp1214
sg75
g1095
sg68
(lp1215
g61
(g82
g63
NtRp1216
(dp1217
g66
(dp1218
g86
g87
ssg75
g1212
sg68
(lp1219
S'debugging'
p1220
asbag61
(g82
g63
NtRp1221
(dp1222
g66
(dp1223
g93
g94
ssg75
g1212
sg68
(lp1224
S':'
asbag61
(g82
g63
NtRp1225
(dp1226
g66
(dp1227
sg75
g1212
sg68
(lp1228
g61
(g62
g63
NtRp1229
(dp1230
g66
(dp1231
g74
I4
ssg75
g1225
sg68
(lp1232
g104
asbasbasbag61
(g77
g63
NtRp1233
(dp1234
g66
(dp1235
sg75
g1095
sg68
(lp1236
g61
(g82
g63
NtRp1237
(dp1238
g66
(dp1239
g86
g87
ssg75
g1233
sg68
(lp1240
S'gluon_parent'
p1241
asbag61
(g82
g63
NtRp1242
(dp1243
g66
(dp1244
g93
g94
ssg75
g1233
sg68
(lp1245
S':'
asbag61
(g82
g63
NtRp1246
(dp1247
g66
(dp1248
sg75
g1233
sg68
(lp1249
g61
(g62
g63
NtRp1250
(dp1251
g66
(dp1252
g74
I4
ssg75
g1246
sg68
(lp1253
S'C:\\Users\\omkara\\Desktop\\web2py'
p1254
asbasbasbag61
(g77
g63
NtRp1255
(dp1256
g66
(dp1257
sg75
g1095
sg68
(lp1258
g61
(g82
g63
NtRp1259
(dp1260
g66
(dp1261
g86
g87
ssg75
g1255
sg68
(lp1262
S'http_accept'
p1263
asbag61
(g82
g63
NtRp1264
(dp1265
g66
(dp1266
g93
g94
ssg75
g1255
sg68
(lp1267
S':'
asbag61
(g82
g63
NtRp1268
(dp1269
g66
(dp1270
sg75
g1255
sg68
(lp1271
g61
(g62
g63
NtRp1272
(dp1273
g66
(dp1274
g74
I4
ssg75
g1268
sg68
(lp1275
S'text/html,application/xhtml+xml,application/xml;q=0.9,*/*;q=0.8'
p1276
asbasbasbag61
(g77
g63
NtRp1277
(dp1278
g66
(dp1279
sg75
g1095
sg68
(lp1280
g61
(g82
g63
NtRp1281
(dp1282
g66
(dp1283
g86
g87
ssg75
g1277
sg68
(lp1284
S'http_accept_charset'
p1285
asbag61
(g82
g63
NtRp1286
(dp1287
g66
(dp1288
g93
g94
ssg75
g1277
sg68
(lp1289
S':'
asbag61
(g82
g63
NtRp1290
(dp1291
g66
(dp1292
sg75
g1277
sg68
(lp1293
g61
(g62
g63
NtRp1294
(dp1295
g66
(dp1296
g74
I4
ssg75
g1290
sg68
(lp1297
S'ISO-8859-1,utf-8;q=0.7,*;q=0.3'
p1298
asbasbasbag61
(g77
g63
NtRp1299
(dp1300
g66
(dp1301
sg75
g1095
sg68
(lp1302
g61
(g82
g63
NtRp1303
(dp1304
g66
(dp1305
g86
g87
ssg75
g1299
sg68
(lp1306
S'http_accept_encoding'
p1307
asbag61
(g82
g63
NtRp1308
(dp1309
g66
(dp1310
g93
g94
ssg75
g1299
sg68
(lp1311
S':'
asbag61
(g82
g63
NtRp1312
(dp1313
g66
(dp1314
sg75
g1299
sg68
(lp1315
g61
(g62
g63
NtRp1316
(dp1317
g66
(dp1318
g74
I4
ssg75
g1312
sg68
(lp1319
S'gzip,deflate,sdch'
p1320
asbasbasbag61
(g77
g63
NtRp1321
(dp1322
g66
(dp1323
sg75
g1095
sg68
(lp1324
g61
(g82
g63
NtRp1325
(dp1326
g66
(dp1327
g86
g87
ssg75
g1321
sg68
(lp1328
S'http_accept_language'
p1329
asbag61
(g82
g63
NtRp1330
(dp1331
g66
(dp1332
g93
g94
ssg75
g1321
sg68
(lp1333
S':'
asbag61
(g82
g63
NtRp1334
(dp1335
g66
(dp1336
sg75
g1321
sg68
(lp1337
g61
(g62
g63
NtRp1338
(dp1339
g66
(dp1340
g74
I4
ssg75
g1334
sg68
(lp1341
S'en-US,en;q=0.8'
p1342
asbasbasbag61
(g77
g63
NtRp1343
(dp1344
g66
(dp1345
sg75
g1095
sg68
(lp1346
g61
(g82
g63
NtRp1347
(dp1348
g66
(dp1349
g86
g87
ssg75
g1343
sg68
(lp1350
S'http_cache_control'
p1351
asbag61
(g82
g63
NtRp1352
(dp1353
g66
(dp1354
g93
g94
ssg75
g1343
sg68
(lp1355
S':'
asbag61
(g82
g63
NtRp1356
(dp1357
g66
(dp1358
sg75
g1343
sg68
(lp1359
g61
(g62
g63
NtRp1360
(dp1361
g66
(dp1362
g74
I4
ssg75
g1356
sg68
(lp1363
S'max-age=0'
p1364
asbasbasbag61
(g77
g63
NtRp1365
(dp1366
g66
(dp1367
sg75
g1095
sg68
(lp1368
g61
(g82
g63
NtRp1369
(dp1370
g66
(dp1371
g86
g87
ssg75
g1365
sg68
(lp1372
S'http_connection'
p1373
asbag61
(g82
g63
NtRp1374
(dp1375
g66
(dp1376
g93
g94
ssg75
g1365
sg68
(lp1377
S':'
asbag61
(g82
g63
NtRp1378
(dp1379
g66
(dp1380
sg75
g1365
sg68
(lp1381
g61
(g62
g63
NtRp1382
(dp1383
g66
(dp1384
g74
I4
ssg75
g1378
sg68
(lp1385
S'keep-alive'
p1386
asbasbasbag61
(g77
g63
NtRp1387
(dp1388
g66
(dp1389
sg75
g1095
sg68
(lp1390
g61
(g82
g63
NtRp1391
(dp1392
g66
(dp1393
g86
g87
ssg75
g1387
sg68
(lp1394
S'http_cookie'
p1395
asbag61
(g82
g63
NtRp1396
(dp1397
g66
(dp1398
g93
g94
ssg75
g1387
sg68
(lp1399
S':'
asbag61
(g82
g63
NtRp1400
(dp1401
g66
(dp1402
sg75
g1387
sg68
(lp1403
g61
(g62
g63
NtRp1404
(dp1405
g66
(dp1406
g74
I4
ssg75
g1400
sg68
(lp1407
S'session_id_onlinenotes_p1_=127.0.0.1-2b1a349f-aa95-4718-93d5-e7df1c85d951; session_id_welcome=127.0.0.1-a1b3016b-66b8-408b-ae8e-37231f35f16e; session_id_slug_register_page=127.0.0.1-c2775933-22a4-419d-80e2-4c993aff45c7; session_id_slugbarter=127.0.0.1-e6ebae72-1bbc-48a5-9458-95dbb65a4e54; session_id_admin=127.0.0.1-3b1553ef-7186-4588-80e8-d2bbbaa88c9f'
p1408
asbasbasbag61
(g77
g63
NtRp1409
(dp1410
g66
(dp1411
sg75
g1095
sg68
(lp1412
g61
(g82
g63
NtRp1413
(dp1414
g66
(dp1415
g86
g87
ssg75
g1409
sg68
(lp1416
S'http_host'
p1417
asbag61
(g82
g63
NtRp1418
(dp1419
g66
(dp1420
g93
g94
ssg75
g1409
sg68
(lp1421
S':'
asbag61
(g82
g63
NtRp1422
(dp1423
g66
(dp1424
sg75
g1409
sg68
(lp1425
g61
(g62
g63
NtRp1426
(dp1427
g66
(dp1428
g74
I4
ssg75
g1422
sg68
(lp1429
S'127.0.0.1:8000'
p1430
asbasbasbag61
(g77
g63
NtRp1431
(dp1432
g66
(dp1433
sg75
g1095
sg68
(lp1434
g61
(g82
g63
NtRp1435
(dp1436
g66
(dp1437
g86
g87
ssg75
g1431
sg68
(lp1438
S'http_referer'
p1439
asbag61
(g82
g63
NtRp1440
(dp1441
g66
(dp1442
g93
g94
ssg75
g1431
sg68
(lp1443
S':'
asbag61
(g82
g63
NtRp1444
(dp1445
g66
(dp1446
sg75
g1431
sg68
(lp1447
g61
(g62
g63
NtRp1448
(dp1449
g66
(dp1450
g74
I4
ssg75
g1444
sg68
(lp1451
S'http://127.0.0.1:8000/admin/default/design/SlugBarter'
p1452
asbasbasbag61
(g77
g63
NtRp1453
(dp1454
g66
(dp1455
sg75
g1095
sg68
(lp1456
g61
(g82
g63
NtRp1457
(dp1458
g66
(dp1459
g86
g87
ssg75
g1453
sg68
(lp1460
S'http_user_agent'
p1461
asbag61
(g82
g63
NtRp1462
(dp1463
g66
(dp1464
g93
g94
ssg75
g1453
sg68
(lp1465
S':'
asbag61
(g82
g63
NtRp1466
(dp1467
g66
(dp1468
sg75
g1453
sg68
(lp1469
g61
(g62
g63
NtRp1470
(dp1471
g66
(dp1472
g74
I4
ssg75
g1466
sg68
(lp1473
S'Mozilla/5.0 (Windows NT 6.1) AppleWebKit/537.11 (KHTML, like Gecko) Chrome/23.0.1271.64 Safari/537.11'
p1474
asbasbasbag61
(g77
g63
NtRp1475
(dp1476
g66
(dp1477
sg75
g1095
sg68
(lp1478
g61
(g82
g63
NtRp1479
(dp1480
g66
(dp1481
g86
g87
ssg75
g1475
sg68
(lp1482
S'is_jython'
p1483
asbag61
(g82
g63
NtRp1484
(dp1485
g66
(dp1486
g93
g94
ssg75
g1475
sg68
(lp1487
S':'
asbag61
(g82
g63
NtRp1488
(dp1489
g66
(dp1490
sg75
g1475
sg68
(lp1491
g61
(g62
g63
NtRp1492
(dp1493
g66
(dp1494
g74
I4
ssg75
g1488
sg68
(lp1495
g104
asbasbasbag61
(g77
g63
NtRp1496
(dp1497
g66
(dp1498
sg75
g1095
sg68
(lp1499
g61
(g82
g63
NtRp1500
(dp1501
g66
(dp1502
g86
g87
ssg75
g1496
sg68
(lp1503
S'is_pypy'
p1504
asbag61
(g82
g63
NtRp1505
(dp1506
g66
(dp1507
g93
g94
ssg75
g1496
sg68
(lp1508
S':'
asbag61
(g82
g63
NtRp1509
(dp1510
g66
(dp1511
sg75
g1496
sg68
(lp1512
g61
(g62
g63
NtRp1513
(dp1514
g66
(dp1515
g74
I4
ssg75
g1509
sg68
(lp1516
g104
asbasbasbag61
(g77
g63
NtRp1517
(dp1518
g66
(dp1519
sg75
g1095
sg68
(lp1520
g61
(g82
g63
NtRp1521
(dp1522
g66
(dp1523
g86
g87
ssg75
g1517
sg68
(lp1524
S'path_info'
p1525
asbag61
(g82
g63
NtRp1526
(dp1527
g66
(dp1528
g93
g94
ssg75
g1517
sg68
(lp1529
S':'
asbag61
(g82
g63
NtRp1530
(dp1531
g66
(dp1532
sg75
g1517
sg68
(lp1533
g61
(g62
g63
NtRp1534
(dp1535
g66
(dp1536
g74
I4
ssg75
g1530
sg68
(lp1537
S'/SlugBarter/default/index'
p1538
asbasbasbag61
(g77
g63
NtRp1539
(dp1540
g66
(dp1541
sg75
g1095
sg68
(lp1542
g61
(g82
g63
NtRp1543
(dp1544
g66
(dp1545
g86
g87
ssg75
g1539
sg68
(lp1546
S'query_string'
p1547
asbag61
(g82
g63
NtRp1548
(dp1549
g66
(dp1550
g93
g94
ssg75
g1539
sg68
(lp1551
S':'
asbag61
(g82
g63
NtRp1552
(dp1553
g66
(dp1554
sg75
g1539
sg68
(lp1555
g61
(g62
g63
NtRp1556
(dp1557
g66
(dp1558
g74
I4
ssg75
g1552
sg68
(lp1559
S''
asbasbasbag61
(g77
g63
NtRp1560
(dp1561
g66
(dp1562
sg75
g1095
sg68
(lp1563
g61
(g82
g63
NtRp1564
(dp1565
g66
(dp1566
g86
g87
ssg75
g1560
sg68
(lp1567
S'remote_addr'
p1568
asbag61
(g82
g63
NtRp1569
(dp1570
g66
(dp1571
g93
g94
ssg75
g1560
sg68
(lp1572
S':'
asbag61
(g82
g63
NtRp1573
(dp1574
g66
(dp1575
sg75
g1560
sg68
(lp1576
g61
(g62
g63
NtRp1577
(dp1578
g66
(dp1579
g74
I4
ssg75
g1573
sg68
(lp1580
g194
asbasbasbag61
(g77
g63
NtRp1581
(dp1582
g66
(dp1583
sg75
g1095
sg68
(lp1584
g61
(g82
g63
NtRp1585
(dp1586
g66
(dp1587
g86
g87
ssg75
g1581
sg68
(lp1588
S'remote_port'
p1589
asbag61
(g82
g63
NtRp1590
(dp1591
g66
(dp1592
g93
g94
ssg75
g1581
sg68
(lp1593
S':'
asbag61
(g82
g63
NtRp1594
(dp1595
g66
(dp1596
sg75
g1581
sg68
(lp1597
g61
(g62
g63
NtRp1598
(dp1599
g66
(dp1600
g74
I4
ssg75
g1594
sg68
(lp1601
S'49354'
p1602
asbasbasbag61
(g77
g63
NtRp1603
(dp1604
g66
(dp1605
sg75
g1095
sg68
(lp1606
g61
(g82
g63
NtRp1607
(dp1608
g66
(dp1609
g86
g87
ssg75
g1603
sg68
(lp1610
S'request_method'
p1611
asbag61
(g82
g63
NtRp1612
(dp1613
g66
(dp1614
g93
g94
ssg75
g1603
sg68
(lp1615
S':'
asbag61
(g82
g63
NtRp1616
(dp1617
g66
(dp1618
sg75
g1603
sg68
(lp1619
g61
(g62
g63
NtRp1620
(dp1621
g66
(dp1622
g74
I4
ssg75
g1616
sg68
(lp1623
S'GET'
p1624
asbasbasbag61
(g77
g63
NtRp1625
(dp1626
g66
(dp1627
sg75
g1095
sg68
(lp1628
g61
(g82
g63
NtRp1629
(dp1630
g66
(dp1631
g86
g87
ssg75
g1625
sg68
(lp1632
S'script_name'
p1633
asbag61
(g82
g63
NtRp1634
(dp1635
g66
(dp1636
g93
g94
ssg75
g1625
sg68
(lp1637
S':'
asbag61
(g82
g63
NtRp1638
(dp1639
g66
(dp1640
sg75
g1625
sg68
(lp1641
g61
(g62
g63
NtRp1642
(dp1643
g66
(dp1644
g74
I4
ssg75
g1638
sg68
(lp1645
S''
asbasbasbag61
(g77
g63
NtRp1646
(dp1647
g66
(dp1648
sg75
g1095
sg68
(lp1649
g61
(g82
g63
NtRp1650
(dp1651
g66
(dp1652
g86
g87
ssg75
g1646
sg68
(lp1653
S'server_name'
p1654
asbag61
(g82
g63
NtRp1655
(dp1656
g66
(dp1657
g93
g94
ssg75
g1646
sg68
(lp1658
S':'
asbag61
(g82
g63
NtRp1659
(dp1660
g66
(dp1661
sg75
g1646
sg68
(lp1662
g61
(g62
g63
NtRp1663
(dp1664
g66
(dp1665
g74
I4
ssg75
g1659
sg68
(lp1666
S'omkara-PC'
p1667
asbasbasbag61
(g77
g63
NtRp1668
(dp1669
g66
(dp1670
sg75
g1095
sg68
(lp1671
g61
(g82
g63
NtRp1672
(dp1673
g66
(dp1674
g86
g87
ssg75
g1668
sg68
(lp1675
S'server_port'
p1676
asbag61
(g82
g63
NtRp1677
(dp1678
g66
(dp1679
g93
g94
ssg75
g1668
sg68
(lp1680
S':'
asbag61
(g82
g63
NtRp1681
(dp1682
g66
(dp1683
sg75
g1668
sg68
(lp1684
g61
(g62
g63
NtRp1685
(dp1686
g66
(dp1687
g74
I4
ssg75
g1681
sg68
(lp1688
S'8000'
p1689
asbasbasbag61
(g77
g63
NtRp1690
(dp1691
g66
(dp1692
sg75
g1095
sg68
(lp1693
g61
(g82
g63
NtRp1694
(dp1695
g66
(dp1696
g86
g87
ssg75
g1690
sg68
(lp1697
S'server_protocol'
p1698
asbag61
(g82
g63
NtRp1699
(dp1700
g66
(dp1701
g93
g94
ssg75
g1690
sg68
(lp1702
S':'
asbag61
(g82
g63
NtRp1703
(dp1704
g66
(dp1705
sg75
g1690
sg68
(lp1706
g61
(g62
g63
NtRp1707
(dp1708
g66
(dp1709
g74
I4
ssg75
g1703
sg68
(lp1710
S'HTTP/1.1'
p1711
asbasbasbag61
(g77
g63
NtRp1712
(dp1713
g66
(dp1714
sg75
g1095
sg68
(lp1715
g61
(g82
g63
NtRp1716
(dp1717
g66
(dp1718
g86
g87
ssg75
g1712
sg68
(lp1719
S'server_software'
p1720
asbag61
(g82
g63
NtRp1721
(dp1722
g66
(dp1723
g93
g94
ssg75
g1712
sg68
(lp1724
S':'
asbag61
(g82
g63
NtRp1725
(dp1726
g66
(dp1727
sg75
g1712
sg68
(lp1728
g61
(g62
g63
NtRp1729
(dp1730
g66
(dp1731
g74
I4
ssg75
g1725
sg68
(lp1732
S'Rocket 1.2.4'
p1733
asbasbasbag61
(g77
g63
NtRp1734
(dp1735
g66
(dp1736
sg75
g1095
sg68
(lp1737
g61
(g82
g63
NtRp1738
(dp1739
g66
(dp1740
g86
g87
ssg75
g1734
sg68
(lp1741
S'web2py_crontype'
p1742
asbag61
(g82
g63
NtRp1743
(dp1744
g66
(dp1745
g93
g94
ssg75
g1734
sg68
(lp1746
S':'
asbag61
(g82
g63
NtRp1747
(dp1748
g66
(dp1749
sg75
g1734
sg68
(lp1750
g61
(g62
g63
NtRp1751
(dp1752
g66
(dp1753
g74
I4
ssg75
g1747
sg68
(lp1754
S'hard'
p1755
asbasbasbag61
(g77
g63
NtRp1756
(dp1757
g66
(dp1758
sg75
g1095
sg68
(lp1759
g61
(g82
g63
NtRp1760
(dp1761
g66
(dp1762
g86
g87
ssg75
g1756
sg68
(lp1763
S'web2py_path'
p1764
asbag61
(g82
g63
NtRp1765
(dp1766
g66
(dp1767
g93
g94
ssg75
g1756
sg68
(lp1768
S':'
asbag61
(g82
g63
NtRp1769
(dp1770
g66
(dp1771
sg75
g1756
sg68
(lp1772
g61
(g62
g63
NtRp1773
(dp1774
g66
(dp1775
g74
I4
ssg75
g1769
sg68
(lp1776
g1142
asbasbasbag61
(g77
g63
NtRp1777
(dp1778
g66
(dp1779
sg75
g1095
sg68
(lp1780
g61
(g82
g63
NtRp1781
(dp1782
g66
(dp1783
g86
g87
ssg75
g1777
sg68
(lp1784
S'web2py_version'
p1785
asbag61
(g82
g63
NtRp1786
(dp1787
g66
(dp1788
g93
g94
ssg75
g1777
sg68
(lp1789
S':'
asbag61
(g82
g63
NtRp1790
(dp1791
g66
(dp1792
sg75
g1777
sg68
(lp1793
g61
(g62
g63
NtRp1794
(dp1795
g66
(dp1796
g74
I4
ssg75
g1790
sg68
(lp1797
g61
(g70
g63
NtRp1798
(dp1799
g66
(dp1800
g74
I3
ssg75
Nsg68
(lp1801
g61
(g77
g63
NtRp1802
(dp1803
g66
(dp1804
sg75
g1798
sg68
(lp1805
g61
(g82
g63
NtRp1806
(dp1807
g66
(dp1808
sg75
g1802
sg68
(lp1809
g61
(g62
g63
NtRp1810
(dp1811
g66
(dp1812
g74
I3
ssg75
g1806
sg68
(lp1813
S'1'
asbasbasbag61
(g77
g63
NtRp1814
(dp1815
g66
(dp1816
sg75
g1798
sg68
(lp1817
g61
(g82
g63
NtRp1818
(dp1819
g66
(dp1820
sg75
g1814
sg68
(lp1821
g61
(g62
g63
NtRp1822
(dp1823
g66
(dp1824
g74
I3
ssg75
g1818
sg68
(lp1825
S'99'
p1826
asbasbasbag61
(g77
g63
NtRp1827
(dp1828
g66
(dp1829
sg75
g1798
sg68
(lp1830
g61
(g82
g63
NtRp1831
(dp1832
g66
(dp1833
sg75
g1827
sg68
(lp1834
g61
(g62
g63
NtRp1835
(dp1836
g66
(dp1837
g74
I3
ssg75
g1831
sg68
(lp1838
S'7'
asbasbasbag61
(g77
g63
NtRp1839
(dp1840
g66
(dp1841
sg75
g1798
sg68
(lp1842
g61
(g82
g63
NtRp1843
(dp1844
g66
(dp1845
sg75
g1839
sg68
(lp1846
g61
(g62
g63
NtRp1847
(dp1848
g66
(dp1849
g74
I3
ssg75
g1843
sg68
(lp1850
S'datetime.datetime(2012, 3, 4, 22, 12, 8)'
p1851
asbasbasbag61
(g77
g63
NtRp1852
(dp1853
g66
(dp1854
sg75
g1798
sg68
(lp1855
g61
(g82
g63
NtRp1856
(dp1857
g66
(dp1858
sg75
g1852
sg68
(lp1859
g61
(g62
g63
NtRp1860
(dp1861
g66
(dp1862
g74
I3
ssg75
g1856
sg68
(lp1863
S'stable'
p1864
asbasbasbasbasbasbasbag61
(g77
g63
NtRp1865
(dp1866
g66
(dp1867
sg75
g1095
sg68
(lp1868
g61
(g82
g63
NtRp1869
(dp1870
g66
(dp1871
g86
g87
ssg75
g1865
sg68
(lp1872
S'wsgi_errors'
p1873
asbag61
(g82
g63
NtRp1874
(dp1875
g66
(dp1876
g93
g94
ssg75
g1865
sg68
(lp1877
S':'
asbag61
(g82
g63
NtRp1878
(dp1879
g66
(dp1880
sg75
g1865
sg68
(lp1881
g61
(g62
g63
NtRp1882
(dp1883
g66
(dp1884
g74
I4
ssg75
g1878
sg68
(lp1885
S"<open file '<stderr>', mode 'w' at 0x016000B0>"
p1886
asbasbasbag61
(g77
g63
NtRp1887
(dp1888
g66
(dp1889
sg75
g1095
sg68
(lp1890
g61
(g82
g63
NtRp1891
(dp1892
g66
(dp1893
g86
g87
ssg75
g1887
sg68
(lp1894
S'wsgi_file_wrapper'
p1895
asbag61
(g82
g63
NtRp1896
(dp1897
g66
(dp1898
g93
g94
ssg75
g1887
sg68
(lp1899
S':'
asbag61
(g82
g63
NtRp1900
(dp1901
g66
(dp1902
sg75
g1887
sg68
(lp1903
g61
(g62
g63
NtRp1904
(dp1905
g66
(dp1906
g74
I4
ssg75
g1900
sg68
(lp1907
S'<class wsgiref.util.FileWrapper at 0x025361B0>'
p1908
asbasbasbag61
(g77
g63
NtRp1909
(dp1910
g66
(dp1911
sg75
g1095
sg68
(lp1912
g61
(g82
g63
NtRp1913
(dp1914
g66
(dp1915
g86
g87
ssg75
g1909
sg68
(lp1916
S'wsgi_input'
p1917
asbag61
(g82
g63
NtRp1918
(dp1919
g66
(dp1920
g93
g94
ssg75
g1909
sg68
(lp1921
S':'
asbag61
(g82
g63
NtRp1922
(dp1923
g66
(dp1924
sg75
g1909
sg68
(lp1925
g61
(g62
g63
NtRp1926
(dp1927
g66
(dp1928
g74
I4
ssg75
g1922
sg68
(lp1929
S'<socket._fileobject object at 0x02974070>'
p1930
asbasbasbag61
(g77
g63
NtRp1931
(dp1932
g66
(dp1933
sg75
g1095
sg68
(lp1934
g61
(g82
g63
NtRp1935
(dp1936
g66
(dp1937
g86
g87
ssg75
g1931
sg68
(lp1938
S'wsgi_multiprocess'
p1939
asbag61
(g82
g63
NtRp1940
(dp1941
g66
(dp1942
g93
g94
ssg75
g1931
sg68
(lp1943
S':'
asbag61
(g82
g63
NtRp1944
(dp1945
g66
(dp1946
sg75
g1931
sg68
(lp1947
g61
(g62
g63
NtRp1948
(dp1949
g66
(dp1950
g74
I4
ssg75
g1944
sg68
(lp1951
g104
asbasbasbag61
(g77
g63
NtRp1952
(dp1953
g66
(dp1954
sg75
g1095
sg68
(lp1955
g61
(g82
g63
NtRp1956
(dp1957
g66
(dp1958
g86
g87
ssg75
g1952
sg68
(lp1959
S'wsgi_multithread'
p1960
asbag61
(g82
g63
NtRp1961
(dp1962
g66
(dp1963
g93
g94
ssg75
g1952
sg68
(lp1964
S':'
asbag61
(g82
g63
NtRp1965
(dp1966
g66
(dp1967
sg75
g1952
sg68
(lp1968
g61
(g62
g63
NtRp1969
(dp1970
g66
(dp1971
g74
I4
ssg75
g1965
sg68
(lp1972
S'True'
p1973
asbasbasbag61
(g77
g63
NtRp1974
(dp1975
g66
(dp1976
sg75
g1095
sg68
(lp1977
g61
(g82
g63
NtRp1978
(dp1979
g66
(dp1980
g86
g87
ssg75
g1974
sg68
(lp1981
S'wsgi_run_once'
p1982
asbag61
(g82
g63
NtRp1983
(dp1984
g66
(dp1985
g93
g94
ssg75
g1974
sg68
(lp1986
S':'
asbag61
(g82
g63
NtRp1987
(dp1988
g66
(dp1989
sg75
g1974
sg68
(lp1990
g61
(g62
g63
NtRp1991
(dp1992
g66
(dp1993
g74
I4
ssg75
g1987
sg68
(lp1994
g104
asbasbasbag61
(g77
g63
NtRp1995
(dp1996
g66
(dp1997
sg75
g1095
sg68
(lp1998
g61
(g82
g63
NtRp1999
(dp2000
g66
(dp2001
g86
g87
ssg75
g1995
sg68
(lp2002
S'wsgi_url_scheme'
p2003
asbag61
(g82
g63
NtRp2004
(dp2005
g66
(dp2006
g93
g94
ssg75
g1995
sg68
(lp2007
S':'
asbag61
(g82
g63
NtRp2008
(dp2009
g66
(dp2010
sg75
g1995
sg68
(lp2011
g61
(g62
g63
NtRp2012
(dp2013
g66
(dp2014
g74
I4
ssg75
g2008
sg68
(lp2015
S'http'
p2016
asbasbasbag61
(g77
g63
NtRp2017
(dp2018
g66
(dp2019
sg75
g1095
sg68
(lp2020
g61
(g82
g63
NtRp2021
(dp2022
g66
(dp2023
g86
g87
ssg75
g2017
sg68
(lp2024
S'wsgi_version'
p2025
asbag61
(g82
g63
NtRp2026
(dp2027
g66
(dp2028
g93
g94
ssg75
g2017
sg68
(lp2029
S':'
asbag61
(g82
g63
NtRp2030
(dp2031
g66
(dp2032
sg75
g2017
sg68
(lp2033
g61
(g62
g63
NtRp2034
(dp2035
g66
(dp2036
g74
I4
ssg75
g2030
sg68
(lp2037
g61
(g70
g63
NtRp2038
(dp2039
g66
(dp2040
g74
I3
ssg75
Nsg68
(lp2041
g61
(g77
g63
NtRp2042
(dp2043
g66
(dp2044
sg75
g2038
sg68
(lp2045
g61
(g82
g63
NtRp2046
(dp2047
g66
(dp2048
sg75
g2042
sg68
(lp2049
g61
(g62
g63
NtRp2050
(dp2051
g66
(dp2052
g74
I3
ssg75
g2046
sg68
(lp2053
S'1'
asbasbasbag61
(g77
g63
NtRp2054
(dp2055
g66
(dp2056
sg75
g2038
sg68
(lp2057
g61
(g82
g63
NtRp2058
(dp2059
g66
(dp2060
sg75
g2054
sg68
(lp2061
g61
(g62
g63
NtRp2062
(dp2063
g66
(dp2064
g74
I3
ssg75
g2058
sg68
(lp2065
S'0'
asbasbasbasbasbasbasbasbasbasbasbag61
(g77
g63
NtRp2066
(dp2067
g66
(dp2068
sg75
g71
sg68
(lp2069
g61
(g82
g63
NtRp2070
(dp2071
g66
(dp2072
g86
g87
ssg75
g2066
sg68
(lp2073
S'extension'
p2074
asbag61
(g82
g63
NtRp2075
(dp2076
g66
(dp2077
g93
g94
ssg75
g2066
sg68
(lp2078
S':'
asbag61
(g82
g63
NtRp2079
(dp2080
g66
(dp2081
sg75
g2066
sg68
(lp2082
g61
(g62
g63
NtRp2083
(dp2084
g66
(dp2085
g74
I5
ssg75
g2079
sg68
(lp2086
S'html'
p2087
asbasbasbag61
(g77
g63
NtRp2088
(dp2089
g66
(dp2090
sg75
g71
sg68
(lp2091
g61
(g82
g63
NtRp2092
(dp2093
g66
(dp2094
g86
g87
ssg75
g2088
sg68
(lp2095
S'folder'
p2096
asbag61
(g82
g63
NtRp2097
(dp2098
g66
(dp2099
g93
g94
ssg75
g2088
sg68
(lp2100
S':'
asbag61
(g82
g63
NtRp2101
(dp2102
g66
(dp2103
sg75
g2088
sg68
(lp2104
g61
(g62
g63
NtRp2105
(dp2106
g66
(dp2107
g74
I5
ssg75
g2101
sg68
(lp2108
S'C:\\Users\\omkara\\Desktop\\web2py\\applications\\SlugBarter\\'
p2109
asbasbasbag61
(g77
g63
NtRp2110
(dp2111
g66
(dp2112
sg75
g71
sg68
(lp2113
g61
(g82
g63
NtRp2114
(dp2115
g66
(dp2116
g86
g87
ssg75
g2110
sg68
(lp2117
S'function'
p2118
asbag61
(g82
g63
NtRp2119
(dp2120
g66
(dp2121
g93
g94
ssg75
g2110
sg68
(lp2122
S':'
asbag61
(g82
g63
NtRp2123
(dp2124
g66
(dp2125
sg75
g2110
sg68
(lp2126
g61
(g62
g63
NtRp2127
(dp2128
g66
(dp2129
g74
I5
ssg75
g2123
sg68
(lp2130
S'index'
p2131
asbasbasbag61
(g77
g63
NtRp2132
(dp2133
g66
(dp2134
sg75
g71
sg68
(lp2135
g61
(g82
g63
NtRp2136
(dp2137
g66
(dp2138
g86
g87
ssg75
g2132
sg68
(lp2139
S'get_vars'
p2140
asbag61
(g82
g63
NtRp2141
(dp2142
g66
(dp2143
g93
g94
ssg75
g2132
sg68
(lp2144
S':'
asbag61
(g82
g63
NtRp2145
(dp2146
g66
(dp2147
sg75
g2132
sg68
(lp2148
g61
(g62
g63
NtRp2149
(dp2150
g66
(dp2151
g74
I5
ssg75
g2145
sg68
(lp2152
g61
(g70
g63
NtRp2153
(dp2154
g66
(dp2155
g74
I4
ssg75
Nsg68
(lp2156
sbasbasbasbag61
(g77
g63
NtRp2157
(dp2158
g66
(dp2159
sg75
g71
sg68
(lp2160
g61
(g82
g63
NtRp2161
(dp2162
g66
(dp2163
g86
g87
ssg75
g2157
sg68
(lp2164
S'global_settings'
p2165
asbag61
(g82
g63
NtRp2166
(dp2167
g66
(dp2168
g93
g94
ssg75
g2157
sg68
(lp2169
S':'
asbag61
(g82
g63
NtRp2170
(dp2171
g66
(dp2172
sg75
g2157
sg68
(lp2173
g61
(g62
g63
NtRp2174
(dp2175
g66
(dp2176
g74
I5
ssg75
g2170
sg68
(lp2177
g61
(g70
g63
NtRp2178
(dp2179
g66
(dp2180
g74
I4
ssg75
Nsg68
(lp2181
g61
(g77
g63
NtRp2182
(dp2183
g66
(dp2184
sg75
g2178
sg68
(lp2185
g61
(g82
g63
NtRp2186
(dp2187
g66
(dp2188
g86
g87
ssg75
g2182
sg68
(lp2189
g1107
asbag61
(g82
g63
NtRp2190
(dp2191
g66
(dp2192
g93
g94
ssg75
g2182
sg68
(lp2193
S':'
asbag61
(g82
g63
NtRp2194
(dp2195
g66
(dp2196
sg75
g2182
sg68
(lp2197
g61
(g62
g63
NtRp2198
(dp2199
g66
(dp2200
g74
I4
ssg75
g2194
sg68
(lp2201
S"set(['C:\\\\Users\\\\omkara\\\\Desktop\\\\web2py\\\\applications\\\\admin\\\\', 'C:\\\\Users\\\\omkara\\\\Desktop\\\\web2py\\\\applications\\\\welcome\\\\', 'C:\\\\Users\\\\omkara\\\\Desktop\\\\web2py\\\\applications\\\\slug_register_page\\\\', 'C:\\\\Users\\\\omkara\\\\Desktop\\\\web2py\\\\applications\\\\SlugBarter\\\\'])"
p2202
asbasbasbag61
(g77
g63
NtRp2203
(dp2204
g66
(dp2205
sg75
g2178
sg68
(lp2206
g61
(g82
g63
NtRp2207
(dp2208
g66
(dp2209
g86
g87
ssg75
g2203
sg68
(lp2210
g1129
asbag61
(g82
g63
NtRp2211
(dp2212
g66
(dp2213
g93
g94
ssg75
g2203
sg68
(lp2214
S':'
asbag61
(g82
g63
NtRp2215
(dp2216
g66
(dp2217
sg75
g2203
sg68
(lp2218
g61
(g62
g63
NtRp2219
(dp2220
g66
(dp2221
g74
I4
ssg75
g2215
sg68
(lp2222
g1142
asbasbasbag61
(g77
g63
NtRp2223
(dp2224
g66
(dp2225
sg75
g2178
sg68
(lp2226
g61
(g82
g63
NtRp2227
(dp2228
g66
(dp2229
g86
g87
ssg75
g2223
sg68
(lp2230
g1151
asbag61
(g82
g63
NtRp2231
(dp2232
g66
(dp2233
g93
g94
ssg75
g2223
sg68
(lp2234
S':'
asbag61
(g82
g63
NtRp2235
(dp2236
g66
(dp2237
sg75
g2223
sg68
(lp2238
g61
(g62
g63
NtRp2239
(dp2240
g66
(dp2241
g74
I4
ssg75
g2235
sg68
(lp2242
g61
(g70
g63
NtRp2243
(dp2244
g66
(dp2245
g74
I3
ssg75
Nsg68
(lp2246
sbasbasbasbag61
(g77
g63
NtRp2247
(dp2248
g66
(dp2249
sg75
g2178
sg68
(lp2250
g61
(g82
g63
NtRp2251
(dp2252
g66
(dp2253
g86
g87
ssg75
g2247
sg68
(lp2254
g1176
asbag61
(g82
g63
NtRp2255
(dp2256
g66
(dp2257
g93
g94
ssg75
g2247
sg68
(lp2258
S':'
asbag61
(g82
g63
NtRp2259
(dp2260
g66
(dp2261
sg75
g2247
sg68
(lp2262
g61
(g62
g63
NtRp2263
(dp2264
g66
(dp2265
g74
I4
ssg75
g2259
sg68
(lp2266
S"<Values at 0x27b1f80: {'verbose': False, 'ip': '127.0.0.1', 'shutdown_timeout': 5, 'taskbar': False, 'nocron': False, 'pid_filename': 'httpserver.pid', 'maxthreads': None, 'softcron': False, 'server_name': 'omkara-PC', 'bpython': False, 'nogui': False, 'port': 8000, 'extcron': False, 'debuglevel': 30, 'test': None, 'folder': 'C:\\\\Users\\\\omkara\\\\Desktop\\\\web2py', 'config': '', 'import_models': False, 'winservice': '', 'shell': None, 'run': '', 'log_filename': 'httpserver.log', 'args': [''], 'socket_timeout': 5, 'ssl_ca_certificate': None, 'scheduler': None, 'profiler_filename': None, 'ssl_private_key': '', 'password': '<ask>', 'request_queue_size': 5, 'ssl_certificate': '', 'cronjob': False, 'numthreads': None, 'quiet': False, 'interfaces': None, 'minthreads': None, 'timeout': 10, 'plain': False, 'nobanner': False}>"
p2267
asbasbasbag61
(g77
g63
NtRp2268
(dp2269
g66
(dp2270
sg75
g2178
sg68
(lp2271
g61
(g82
g63
NtRp2272
(dp2273
g66
(dp2274
g86
g87
ssg75
g2268
sg68
(lp2275
g1198
asbag61
(g82
g63
NtRp2276
(dp2277
g66
(dp2278
g93
g94
ssg75
g2268
sg68
(lp2279
S':'
asbag61
(g82
g63
NtRp2280
(dp2281
g66
(dp2282
sg75
g2268
sg68
(lp2283
g61
(g62
g63
NtRp2284
(dp2285
g66
(dp2286
g74
I4
ssg75
g2280
sg68
(lp2287
S'set([])'
p2288
asbasbasbag61
(g77
g63
NtRp2289
(dp2290
g66
(dp2291
sg75
g2178
sg68
(lp2292
g61
(g82
g63
NtRp2293
(dp2294
g66
(dp2295
g86
g87
ssg75
g2289
sg68
(lp2296
g1220
asbag61
(g82
g63
NtRp2297
(dp2298
g66
(dp2299
g93
g94
ssg75
g2289
sg68
(lp2300
S':'
asbag61
(g82
g63
NtRp2301
(dp2302
g66
(dp2303
sg75
g2289
sg68
(lp2304
g61
(g62
g63
NtRp2305
(dp2306
g66
(dp2307
g74
I4
ssg75
g2301
sg68
(lp2308
g104
asbasbasbag61
(g77
g63
NtRp2309
(dp2310
g66
(dp2311
sg75
g2178
sg68
(lp2312
g61
(g82
g63
NtRp2313
(dp2314
g66
(dp2315
g86
g87
ssg75
g2309
sg68
(lp2316
g1241
asbag61
(g82
g63
NtRp2317
(dp2318
g66
(dp2319
g93
g94
ssg75
g2309
sg68
(lp2320
S':'
asbag61
(g82
g63
NtRp2321
(dp2322
g66
(dp2323
sg75
g2309
sg68
(lp2324
g61
(g62
g63
NtRp2325
(dp2326
g66
(dp2327
g74
I4
ssg75
g2321
sg68
(lp2328
g1254
asbasbasbag61
(g77
g63
NtRp2329
(dp2330
g66
(dp2331
sg75
g2178
sg68
(lp2332
g61
(g82
g63
NtRp2333
(dp2334
g66
(dp2335
g86
g87
ssg75
g2329
sg68
(lp2336
g1483
asbag61
(g82
g63
NtRp2337
(dp2338
g66
(dp2339
g93
g94
ssg75
g2329
sg68
(lp2340
S':'
asbag61
(g82
g63
NtRp2341
(dp2342
g66
(dp2343
sg75
g2329
sg68
(lp2344
g61
(g62
g63
NtRp2345
(dp2346
g66
(dp2347
g74
I4
ssg75
g2341
sg68
(lp2348
g104
asbasbasbag61
(g77
g63
NtRp2349
(dp2350
g66
(dp2351
sg75
g2178
sg68
(lp2352
g61
(g82
g63
NtRp2353
(dp2354
g66
(dp2355
g86
g87
ssg75
g2349
sg68
(lp2356
g1504
asbag61
(g82
g63
NtRp2357
(dp2358
g66
(dp2359
g93
g94
ssg75
g2349
sg68
(lp2360
S':'
asbag61
(g82
g63
NtRp2361
(dp2362
g66
(dp2363
sg75
g2349
sg68
(lp2364
g61
(g62
g63
NtRp2365
(dp2366
g66
(dp2367
g74
I4
ssg75
g2361
sg68
(lp2368
g104
asbasbasbag61
(g77
g63
NtRp2369
(dp2370
g66
(dp2371
sg75
g2178
sg68
(lp2372
g61
(g82
g63
NtRp2373
(dp2374
g66
(dp2375
g86
g87
ssg75
g2369
sg68
(lp2376
g1742
asbag61
(g82
g63
NtRp2377
(dp2378
g66
(dp2379
g93
g94
ssg75
g2369
sg68
(lp2380
S':'
asbag61
(g82
g63
NtRp2381
(dp2382
g66
(dp2383
sg75
g2369
sg68
(lp2384
g61
(g62
g63
NtRp2385
(dp2386
g66
(dp2387
g74
I4
ssg75
g2381
sg68
(lp2388
g1755
asbasbasbag61
(g77
g63
NtRp2389
(dp2390
g66
(dp2391
sg75
g2178
sg68
(lp2392
g61
(g82
g63
NtRp2393
(dp2394
g66
(dp2395
g86
g87
ssg75
g2389
sg68
(lp2396
g1785
asbag61
(g82
g63
NtRp2397
(dp2398
g66
(dp2399
g93
g94
ssg75
g2389
sg68
(lp2400
S':'
asbag61
(g82
g63
NtRp2401
(dp2402
g66
(dp2403
sg75
g2389
sg68
(lp2404
g61
(g62
g63
NtRp2405
(dp2406
g66
(dp2407
g74
I4
ssg75
g2401
sg68
(lp2408
g61
(g70
g63
NtRp2409
(dp2410
g66
(dp2411
g74
I3
ssg75
Nsg68
(lp2412
g61
(g77
g63
NtRp2413
(dp2414
g66
(dp2415
sg75
g2409
sg68
(lp2416
g61
(g82
g63
NtRp2417
(dp2418
g66
(dp2419
sg75
g2413
sg68
(lp2420
g61
(g62
g63
NtRp2421
(dp2422
g66
(dp2423
g74
I3
ssg75
g2417
sg68
(lp2424
S'1'
asbasbasbag61
(g77
g63
NtRp2425
(dp2426
g66
(dp2427
sg75
g2409
sg68
(lp2428
g61
(g82
g63
NtRp2429
(dp2430
g66
(dp2431
sg75
g2425
sg68
(lp2432
g61
(g62
g63
NtRp2433
(dp2434
g66
(dp2435
g74
I3
ssg75
g2429
sg68
(lp2436
S'99'
p2437
asbasbasbag61
(g77
g63
NtRp2438
(dp2439
g66
(dp2440
sg75
g2409
sg68
(lp2441
g61
(g82
g63
NtRp2442
(dp2443
g66
(dp2444
sg75
g2438
sg68
(lp2445
g61
(g62
g63
NtRp2446
(dp2447
g66
(dp2448
g74
I3
ssg75
g2442
sg68
(lp2449
S'7'
asbasbasbag61
(g77
g63
NtRp2450
(dp2451
g66
(dp2452
sg75
g2409
sg68
(lp2453
g61
(g82
g63
NtRp2454
(dp2455
g66
(dp2456
sg75
g2450
sg68
(lp2457
g61
(g62
g63
NtRp2458
(dp2459
g66
(dp2460
g74
I3
ssg75
g2454
sg68
(lp2461
S'datetime.datetime(2012, 3, 4, 22, 12, 8)'
p2462
asbasbasbag61
(g77
g63
NtRp2463
(dp2464
g66
(dp2465
sg75
g2409
sg68
(lp2466
g61
(g82
g63
NtRp2467
(dp2468
g66
(dp2469
sg75
g2463
sg68
(lp2470
g61
(g62
g63
NtRp2471
(dp2472
g66
(dp2473
g74
I3
ssg75
g2467
sg68
(lp2474
g1864
asbasbasbasbasbasbasbasbasbasbasbag61
(g77
g63
NtRp2475
(dp2476
g66
(dp2477
sg75
g71
sg68
(lp2478
g61
(g82
g63
NtRp2479
(dp2480
g66
(dp2481
g86
g87
ssg75
g2475
sg68
(lp2482
S'is_https'
p2483
asbag61
(g82
g63
NtRp2484
(dp2485
g66
(dp2486
g93
g94
ssg75
g2475
sg68
(lp2487
S':'
asbag61
(g82
g63
NtRp2488
(dp2489
g66
(dp2490
sg75
g2475
sg68
(lp2491
g61
(g62
g63
NtRp2492
(dp2493
g66
(dp2494
g74
I5
ssg75
g2488
sg68
(lp2495
g104
asbasbasbag61
(g77
g63
NtRp2496
(dp2497
g66
(dp2498
sg75
g71
sg68
(lp2499
g61
(g82
g63
NtRp2500
(dp2501
g66
(dp2502
g86
g87
ssg75
g2496
sg68
(lp2503
S'is_local'
p2504
asbag61
(g82
g63
NtRp2505
(dp2506
g66
(dp2507
g93
g94
ssg75
g2496
sg68
(lp2508
S':'
asbag61
(g82
g63
NtRp2509
(dp2510
g66
(dp2511
sg75
g2496
sg68
(lp2512
g61
(g62
g63
NtRp2513
(dp2514
g66
(dp2515
g74
I5
ssg75
g2509
sg68
(lp2516
g1973
asbasbasbag61
(g77
g63
NtRp2517
(dp2518
g66
(dp2519
sg75
g71
sg68
(lp2520
g61
(g82
g63
NtRp2521
(dp2522
g66
(dp2523
g86
g87
ssg75
g2517
sg68
(lp2524
S'is_restful'
p2525
asbag61
(g82
g63
NtRp2526
(dp2527
g66
(dp2528
g93
g94
ssg75
g2517
sg68
(lp2529
S':'
asbag61
(g82
g63
NtRp2530
(dp2531
g66
(dp2532
sg75
g2517
sg68
(lp2533
g61
(g62
g63
NtRp2534
(dp2535
g66
(dp2536
g74
I5
ssg75
g2530
sg68
(lp2537
g104
asbasbasbag61
(g77
g63
NtRp2538
(dp2539
g66
(dp2540
sg75
g71
sg68
(lp2541
g61
(g82
g63
NtRp2542
(dp2543
g66
(dp2544
g86
g87
ssg75
g2538
sg68
(lp2545
S'now'
p2546
asbag61
(g82
g63
NtRp2547
(dp2548
g66
(dp2549
g93
g94
ssg75
g2538
sg68
(lp2550
S':'
asbag61
(g82
g63
NtRp2551
(dp2552
g66
(dp2553
sg75
g2538
sg68
(lp2554
g61
(g62
g63
NtRp2555
(dp2556
g66
(dp2557
g74
I5
ssg75
g2551
sg68
(lp2558
S'datetime.datetime(2012, 11, 10, 16, 43, 55, 131000)'
p2559
asbasbasbag61
(g77
g63
NtRp2560
(dp2561
g66
(dp2562
sg75
g71
sg68
(lp2563
g61
(g82
g63
NtRp2564
(dp2565
g66
(dp2566
g86
g87
ssg75
g2560
sg68
(lp2567
S'post_vars'
p2568
asbag61
(g82
g63
NtRp2569
(dp2570
g66
(dp2571
g93
g94
ssg75
g2560
sg68
(lp2572
S':'
asbag61
(g82
g63
NtRp2573
(dp2574
g66
(dp2575
sg75
g2560
sg68
(lp2576
g61
(g62
g63
NtRp2577
(dp2578
g66
(dp2579
g74
I5
ssg75
g2573
sg68
(lp2580
g61
(g70
g63
NtRp2581
(dp2582
g66
(dp2583
g74
I4
ssg75
Nsg68
(lp2584
sbasbasbasbag61
(g77
g63
NtRp2585
(dp2586
g66
(dp2587
sg75
g71
sg68
(lp2588
g61
(g82
g63
NtRp2589
(dp2590
g66
(dp2591
g86
g87
ssg75
g2585
sg68
(lp2592
S'url'
p2593
asbag61
(g82
g63
NtRp2594
(dp2595
g66
(dp2596
g93
g94
ssg75
g2585
sg68
(lp2597
S':'
asbag61
(g82
g63
NtRp2598
(dp2599
g66
(dp2600
sg75
g2585
sg68
(lp2601
g61
(g62
g63
NtRp2602
(dp2603
g66
(dp2604
g74
I5
ssg75
g2598
sg68
(lp2605
S'/SlugBarter/default/index'
p2606
asbasbasbag61
(g77
g63
NtRp2607
(dp2608
g66
(dp2609
sg75
g71
sg68
(lp2610
g61
(g82
g63
NtRp2611
(dp2612
g66
(dp2613
g86
g87
ssg75
g2607
sg68
(lp2614
S'utcnow'
p2615
asbag61
(g82
g63
NtRp2616
(dp2617
g66
(dp2618
g93
g94
ssg75
g2607
sg68
(lp2619
S':'
asbag61
(g82
g63
NtRp2620
(dp2621
g66
(dp2622
sg75
g2607
sg68
(lp2623
g61
(g62
g63
NtRp2624
(dp2625
g66
(dp2626
g74
I5
ssg75
g2620
sg68
(lp2627
S'datetime.datetime(2012, 11, 11, 0, 43, 55, 131000)'
p2628
asbasbasbag61
(g77
g63
NtRp2629
(dp2630
g66
(dp2631
sg75
g71
sg68
(lp2632
g61
(g82
g63
NtRp2633
(dp2634
g66
(dp2635
g86
g87
ssg75
g2629
sg68
(lp2636
S'uuid'
p2637
asbag61
(g82
g63
NtRp2638
(dp2639
g66
(dp2640
g93
g94
ssg75
g2629
sg68
(lp2641
S':'
asbag61
(g82
g63
NtRp2642
(dp2643
g66
(dp2644
sg75
g2629
sg68
(lp2645
g61
(g62
g63
NtRp2646
(dp2647
g66
(dp2648
g74
I5
ssg75
g2642
sg68
(lp2649
S'SlugBarter/127.0.0.1.2012-11-10.16-43-55.e314e58b-3ecb-46f6-901b-8f416d12e051'
p2650
asbasbasbag61
(g77
g63
NtRp2651
(dp2652
g66
(dp2653
sg75
g71
sg68
(lp2654
g61
(g82
g63
NtRp2655
(dp2656
g66
(dp2657
g86
g87
ssg75
g2651
sg68
(lp2658
S'vars'
p2659
asbag61
(g82
g63
NtRp2660
(dp2661
g66
(dp2662
g93
g94
ssg75
g2651
sg68
(lp2663
S':'
asbag61
(g82
g63
NtRp2664
(dp2665
g66
(dp2666
sg75
g2651
sg68
(lp2667
g61
(g62
g63
NtRp2668
(dp2669
g66
(dp2670
g74
I5
ssg75
g2664
sg68
(lp2671
g61
(g70
g63
NtRp2672
(dp2673
g66
(dp2674
g74
I4
ssg75
Nsg68
(lp2675
sbasbasbasbag61
(g77
g63
NtRp2676
(dp2677
g66
(dp2678
sg75
g71
sg68
(lp2679
g61
(g82
g63
NtRp2680
(dp2681
g66
(dp2682
g86
g87
ssg75
g2676
sg68
(lp2683
S'wsgi'
p2684
asbag61
(g82
g63
NtRp2685
(dp2686
g66
(dp2687
g93
g94
ssg75
g2676
sg68
(lp2688
S':'
asbag61
(g82
g63
NtRp2689
(dp2690
g66
(dp2691
sg75
g2676
sg68
(lp2692
g61
(g62
g63
NtRp2693
(dp2694
g66
(dp2695
g74
I5
ssg75
g2689
sg68
(lp2696
g61
(g70
g63
NtRp2697
(dp2698
g66
(dp2699
g74
I4
ssg75
Nsg68
(lp2700
g61
(g77
g63
NtRp2701
(dp2702
g66
(dp2703
sg75
g2697
sg68
(lp2704
g61
(g82
g63
NtRp2705
(dp2706
g66
(dp2707
g86
g87
ssg75
g2701
sg68
(lp2708
S'environ'
p2709
asbag61
(g82
g63
NtRp2710
(dp2711
g66
(dp2712
g93
g94
ssg75
g2701
sg68
(lp2713
S':'
asbag61
(g82
g63
NtRp2714
(dp2715
g66
(dp2716
sg75
g2701
sg68
(lp2717
g61
(g62
g63
NtRp2718
(dp2719
g66
(dp2720
g74
I4
ssg75
g2714
sg68
(lp2721
g61
(g70
g63
NtRp2722
(dp2723
g66
(dp2724
g74
I3
ssg75
Nsg68
(lp2725
g61
(g77
g63
NtRp2726
(dp2727
g66
(dp2728
sg75
g2722
sg68
(lp2729
g61
(g82
g63
NtRp2730
(dp2731
g66
(dp2732
g86
g87
ssg75
g2726
sg68
(lp2733
S'HTTP_ACCEPT'
p2734
asbag61
(g82
g63
NtRp2735
(dp2736
g66
(dp2737
g93
g94
ssg75
g2726
sg68
(lp2738
S':'
asbag61
(g82
g63
NtRp2739
(dp2740
g66
(dp2741
sg75
g2726
sg68
(lp2742
g61
(g62
g63
NtRp2743
(dp2744
g66
(dp2745
g74
I3
ssg75
g2739
sg68
(lp2746
g1276
asbasbasbag61
(g77
g63
NtRp2747
(dp2748
g66
(dp2749
sg75
g2722
sg68
(lp2750
g61
(g82
g63
NtRp2751
(dp2752
g66
(dp2753
g86
g87
ssg75
g2747
sg68
(lp2754
S'HTTP_ACCEPT_CHARSET'
p2755
asbag61
(g82
g63
NtRp2756
(dp2757
g66
(dp2758
g93
g94
ssg75
g2747
sg68
(lp2759
S':'
asbag61
(g82
g63
NtRp2760
(dp2761
g66
(dp2762
sg75
g2747
sg68
(lp2763
g61
(g62
g63
NtRp2764
(dp2765
g66
(dp2766
g74
I3
ssg75
g2760
sg68
(lp2767
g1298
asbasbasbag61
(g77
g63
NtRp2768
(dp2769
g66
(dp2770
sg75
g2722
sg68
(lp2771
g61
(g82
g63
NtRp2772
(dp2773
g66
(dp2774
g86
g87
ssg75
g2768
sg68
(lp2775
S'HTTP_ACCEPT_ENCODING'
p2776
asbag61
(g82
g63
NtRp2777
(dp2778
g66
(dp2779
g93
g94
ssg75
g2768
sg68
(lp2780
S':'
asbag61
(g82
g63
NtRp2781
(dp2782
g66
(dp2783
sg75
g2768
sg68
(lp2784
g61
(g62
g63
NtRp2785
(dp2786
g66
(dp2787
g74
I3
ssg75
g2781
sg68
(lp2788
g1320
asbasbasbag61
(g77
g63
NtRp2789
(dp2790
g66
(dp2791
sg75
g2722
sg68
(lp2792
g61
(g82
g63
NtRp2793
(dp2794
g66
(dp2795
g86
g87
ssg75
g2789
sg68
(lp2796
S'HTTP_ACCEPT_LANGUAGE'
p2797
asbag61
(g82
g63
NtRp2798
(dp2799
g66
(dp2800
g93
g94
ssg75
g2789
sg68
(lp2801
S':'
asbag61
(g82
g63
NtRp2802
(dp2803
g66
(dp2804
sg75
g2789
sg68
(lp2805
g61
(g62
g63
NtRp2806
(dp2807
g66
(dp2808
g74
I3
ssg75
g2802
sg68
(lp2809
g1342
asbasbasbag61
(g77
g63
NtRp2810
(dp2811
g66
(dp2812
sg75
g2722
sg68
(lp2813
g61
(g82
g63
NtRp2814
(dp2815
g66
(dp2816
g86
g87
ssg75
g2810
sg68
(lp2817
S'HTTP_CACHE_CONTROL'
p2818
asbag61
(g82
g63
NtRp2819
(dp2820
g66
(dp2821
g93
g94
ssg75
g2810
sg68
(lp2822
S':'
asbag61
(g82
g63
NtRp2823
(dp2824
g66
(dp2825
sg75
g2810
sg68
(lp2826
g61
(g62
g63
NtRp2827
(dp2828
g66
(dp2829
g74
I3
ssg75
g2823
sg68
(lp2830
g1364
asbasbasbag61
(g77
g63
NtRp2831
(dp2832
g66
(dp2833
sg75
g2722
sg68
(lp2834
g61
(g82
g63
NtRp2835
(dp2836
g66
(dp2837
g86
g87
ssg75
g2831
sg68
(lp2838
S'HTTP_CONNECTION'
p2839
asbag61
(g82
g63
NtRp2840
(dp2841
g66
(dp2842
g93
g94
ssg75
g2831
sg68
(lp2843
S':'
asbag61
(g82
g63
NtRp2844
(dp2845
g66
(dp2846
sg75
g2831
sg68
(lp2847
g61
(g62
g63
NtRp2848
(dp2849
g66
(dp2850
g74
I3
ssg75
g2844
sg68
(lp2851
g1386
asbasbasbag61
(g77
g63
NtRp2852
(dp2853
g66
(dp2854
sg75
g2722
sg68
(lp2855
g61
(g82
g63
NtRp2856
(dp2857
g66
(dp2858
g86
g87
ssg75
g2852
sg68
(lp2859
S'HTTP_COOKIE'
p2860
asbag61
(g82
g63
NtRp2861
(dp2862
g66
(dp2863
g93
g94
ssg75
g2852
sg68
(lp2864
S':'
asbag61
(g82
g63
NtRp2865
(dp2866
g66
(dp2867
sg75
g2852
sg68
(lp2868
g61
(g62
g63
NtRp2869
(dp2870
g66
(dp2871
g74
I3
ssg75
g2865
sg68
(lp2872
g1408
asbasbasbag61
(g77
g63
NtRp2873
(dp2874
g66
(dp2875
sg75
g2722
sg68
(lp2876
g61
(g82
g63
NtRp2877
(dp2878
g66
(dp2879
g86
g87
ssg75
g2873
sg68
(lp2880
S'HTTP_HOST'
p2881
asbag61
(g82
g63
NtRp2882
(dp2883
g66
(dp2884
g93
g94
ssg75
g2873
sg68
(lp2885
S':'
asbag61
(g82
g63
NtRp2886
(dp2887
g66
(dp2888
sg75
g2873
sg68
(lp2889
g61
(g62
g63
NtRp2890
(dp2891
g66
(dp2892
g74
I3
ssg75
g2886
sg68
(lp2893
g1430
asbasbasbag61
(g77
g63
NtRp2894
(dp2895
g66
(dp2896
sg75
g2722
sg68
(lp2897
g61
(g82
g63
NtRp2898
(dp2899
g66
(dp2900
g86
g87
ssg75
g2894
sg68
(lp2901
S'HTTP_REFERER'
p2902
asbag61
(g82
g63
NtRp2903
(dp2904
g66
(dp2905
g93
g94
ssg75
g2894
sg68
(lp2906
S':'
asbag61
(g82
g63
NtRp2907
(dp2908
g66
(dp2909
sg75
g2894
sg68
(lp2910
g61
(g62
g63
NtRp2911
(dp2912
g66
(dp2913
g74
I3
ssg75
g2907
sg68
(lp2914
g1452
asbasbasbag61
(g77
g63
NtRp2915
(dp2916
g66
(dp2917
sg75
g2722
sg68
(lp2918
g61
(g82
g63
NtRp2919
(dp2920
g66
(dp2921
g86
g87
ssg75
g2915
sg68
(lp2922
S'HTTP_USER_AGENT'
p2923
asbag61
(g82
g63
NtRp2924
(dp2925
g66
(dp2926
g93
g94
ssg75
g2915
sg68
(lp2927
S':'
asbag61
(g82
g63
NtRp2928
(dp2929
g66
(dp2930
sg75
g2915
sg68
(lp2931
g61
(g62
g63
NtRp2932
(dp2933
g66
(dp2934
g74
I3
ssg75
g2928
sg68
(lp2935
g1474
asbasbasbag61
(g77
g63
NtRp2936
(dp2937
g66
(dp2938
sg75
g2722
sg68
(lp2939
g61
(g82
g63
NtRp2940
(dp2941
g66
(dp2942
g86
g87
ssg75
g2936
sg68
(lp2943
S'PATH_INFO'
p2944
asbag61
(g82
g63
NtRp2945
(dp2946
g66
(dp2947
g93
g94
ssg75
g2936
sg68
(lp2948
S':'
asbag61
(g82
g63
NtRp2949
(dp2950
g66
(dp2951
sg75
g2936
sg68
(lp2952
g61
(g62
g63
NtRp2953
(dp2954
g66
(dp2955
g74
I3
ssg75
g2949
sg68
(lp2956
g1538
asbasbasbag61
(g77
g63
NtRp2957
(dp2958
g66
(dp2959
sg75
g2722
sg68
(lp2960
g61
(g82
g63
NtRp2961
(dp2962
g66
(dp2963
g86
g87
ssg75
g2957
sg68
(lp2964
S'QUERY_STRING'
p2965
asbag61
(g82
g63
NtRp2966
(dp2967
g66
(dp2968
g93
g94
ssg75
g2957
sg68
(lp2969
S':'
asbag61
(g82
g63
NtRp2970
(dp2971
g66
(dp2972
sg75
g2957
sg68
(lp2973
g61
(g62
g63
NtRp2974
(dp2975
g66
(dp2976
g74
I3
ssg75
g2970
sg68
(lp2977
S''
asbasbasbag61
(g77
g63
NtRp2978
(dp2979
g66
(dp2980
sg75
g2722
sg68
(lp2981
g61
(g82
g63
NtRp2982
(dp2983
g66
(dp2984
g86
g87
ssg75
g2978
sg68
(lp2985
S'REMOTE_ADDR'
p2986
asbag61
(g82
g63
NtRp2987
(dp2988
g66
(dp2989
g93
g94
ssg75
g2978
sg68
(lp2990
S':'
asbag61
(g82
g63
NtRp2991
(dp2992
g66
(dp2993
sg75
g2978
sg68
(lp2994
g61
(g62
g63
NtRp2995
(dp2996
g66
(dp2997
g74
I3
ssg75
g2991
sg68
(lp2998
g194
asbasbasbag61
(g77
g63
NtRp2999
(dp3000
g66
(dp3001
sg75
g2722
sg68
(lp3002
g61
(g82
g63
NtRp3003
(dp3004
g66
(dp3005
g86
g87
ssg75
g2999
sg68
(lp3006
S'REMOTE_PORT'
p3007
asbag61
(g82
g63
NtRp3008
(dp3009
g66
(dp3010
g93
g94
ssg75
g2999
sg68
(lp3011
S':'
asbag61
(g82
g63
NtRp3012
(dp3013
g66
(dp3014
sg75
g2999
sg68
(lp3015
g61
(g62
g63
NtRp3016
(dp3017
g66
(dp3018
g74
I3
ssg75
g3012
sg68
(lp3019
g1602
asbasbasbag61
(g77
g63
NtRp3020
(dp3021
g66
(dp3022
sg75
g2722
sg68
(lp3023
g61
(g82
g63
NtRp3024
(dp3025
g66
(dp3026
g86
g87
ssg75
g3020
sg68
(lp3027
S'REQUEST_METHOD'
p3028
asbag61
(g82
g63
NtRp3029
(dp3030
g66
(dp3031
g93
g94
ssg75
g3020
sg68
(lp3032
S':'
asbag61
(g82
g63
NtRp3033
(dp3034
g66
(dp3035
sg75
g3020
sg68
(lp3036
g61
(g62
g63
NtRp3037
(dp3038
g66
(dp3039
g74
I3
ssg75
g3033
sg68
(lp3040
g1624
asbasbasbag61
(g77
g63
NtRp3041
(dp3042
g66
(dp3043
sg75
g2722
sg68
(lp3044
g61
(g82
g63
NtRp3045
(dp3046
g66
(dp3047
g86
g87
ssg75
g3041
sg68
(lp3048
S'SCRIPT_NAME'
p3049
asbag61
(g82
g63
NtRp3050
(dp3051
g66
(dp3052
g93
g94
ssg75
g3041
sg68
(lp3053
S':'
asbag61
(g82
g63
NtRp3054
(dp3055
g66
(dp3056
sg75
g3041
sg68
(lp3057
g61
(g62
g63
NtRp3058
(dp3059
g66
(dp3060
g74
I3
ssg75
g3054
sg68
(lp3061
S''
asbasbasbag61
(g77
g63
NtRp3062
(dp3063
g66
(dp3064
sg75
g2722
sg68
(lp3065
g61
(g82
g63
NtRp3066
(dp3067
g66
(dp3068
g86
g87
ssg75
g3062
sg68
(lp3069
S'SERVER_NAME'
p3070
asbag61
(g82
g63
NtRp3071
(dp3072
g66
(dp3073
g93
g94
ssg75
g3062
sg68
(lp3074
S':'
asbag61
(g82
g63
NtRp3075
(dp3076
g66
(dp3077
sg75
g3062
sg68
(lp3078
g61
(g62
g63
NtRp3079
(dp3080
g66
(dp3081
g74
I3
ssg75
g3075
sg68
(lp3082
g1667
asbasbasbag61
(g77
g63
NtRp3083
(dp3084
g66
(dp3085
sg75
g2722
sg68
(lp3086
g61
(g82
g63
NtRp3087
(dp3088
g66
(dp3089
g86
g87
ssg75
g3083
sg68
(lp3090
S'SERVER_PORT'
p3091
asbag61
(g82
g63
NtRp3092
(dp3093
g66
(dp3094
g93
g94
ssg75
g3083
sg68
(lp3095
S':'
asbag61
(g82
g63
NtRp3096
(dp3097
g66
(dp3098
sg75
g3083
sg68
(lp3099
g61
(g62
g63
NtRp3100
(dp3101
g66
(dp3102
g74
I3
ssg75
g3096
sg68
(lp3103
g1689
asbasbasbag61
(g77
g63
NtRp3104
(dp3105
g66
(dp3106
sg75
g2722
sg68
(lp3107
g61
(g82
g63
NtRp3108
(dp3109
g66
(dp3110
g86
g87
ssg75
g3104
sg68
(lp3111
S'SERVER_PROTOCOL'
p3112
asbag61
(g82
g63
NtRp3113
(dp3114
g66
(dp3115
g93
g94
ssg75
g3104
sg68
(lp3116
S':'
asbag61
(g82
g63
NtRp3117
(dp3118
g66
(dp3119
sg75
g3104
sg68
(lp3120
g61
(g62
g63
NtRp3121
(dp3122
g66
(dp3123
g74
I3
ssg75
g3117
sg68
(lp3124
g1711
asbasbasbag61
(g77
g63
NtRp3125
(dp3126
g66
(dp3127
sg75
g2722
sg68
(lp3128
g61
(g82
g63
NtRp3129
(dp3130
g66
(dp3131
g86
g87
ssg75
g3125
sg68
(lp3132
S'SERVER_SOFTWARE'
p3133
asbag61
(g82
g63
NtRp3134
(dp3135
g66
(dp3136
g93
g94
ssg75
g3125
sg68
(lp3137
S':'
asbag61
(g82
g63
NtRp3138
(dp3139
g66
(dp3140
sg75
g3125
sg68
(lp3141
g61
(g62
g63
NtRp3142
(dp3143
g66
(dp3144
g74
I3
ssg75
g3138
sg68
(lp3145
g1733
asbasbasbag61
(g77
g63
NtRp3146
(dp3147
g66
(dp3148
sg75
g2722
sg68
(lp3149
g61
(g82
g63
NtRp3150
(dp3151
g66
(dp3152
g86
g87
ssg75
g3146
sg68
(lp3153
S'wsgi.errors'
p3154
asbag61
(g82
g63
NtRp3155
(dp3156
g66
(dp3157
g93
g94
ssg75
g3146
sg68
(lp3158
S':'
asbag61
(g82
g63
NtRp3159
(dp3160
g66
(dp3161
sg75
g3146
sg68
(lp3162
g61
(g62
g63
NtRp3163
(dp3164
g66
(dp3165
g74
I3
ssg75
g3159
sg68
(lp3166
S"<open file '<stderr>', mode 'w' at 0x016000B0>"
p3167
asbasbasbag61
(g77
g63
NtRp3168
(dp3169
g66
(dp3170
sg75
g2722
sg68
(lp3171
g61
(g82
g63
NtRp3172
(dp3173
g66
(dp3174
g86
g87
ssg75
g3168
sg68
(lp3175
S'wsgi.file_wrapper'
p3176
asbag61
(g82
g63
NtRp3177
(dp3178
g66
(dp3179
g93
g94
ssg75
g3168
sg68
(lp3180
S':'
asbag61
(g82
g63
NtRp3181
(dp3182
g66
(dp3183
sg75
g3168
sg68
(lp3184
g61
(g62
g63
NtRp3185
(dp3186
g66
(dp3187
g74
I3
ssg75
g3181
sg68
(lp3188
S'<class wsgiref.util.FileWrapper at 0x025361B0>'
p3189
asbasbasbag61
(g77
g63
NtRp3190
(dp3191
g66
(dp3192
sg75
g2722
sg68
(lp3193
g61
(g82
g63
NtRp3194
(dp3195
g66
(dp3196
g86
g87
ssg75
g3190
sg68
(lp3197
S'wsgi.input'
p3198
asbag61
(g82
g63
NtRp3199
(dp3200
g66
(dp3201
g93
g94
ssg75
g3190
sg68
(lp3202
S':'
asbag61
(g82
g63
NtRp3203
(dp3204
g66
(dp3205
sg75
g3190
sg68
(lp3206
g61
(g62
g63
NtRp3207
(dp3208
g66
(dp3209
g74
I3
ssg75
g3203
sg68
(lp3210
S'<cStringIO.StringO object at 0x0620ABA0>'
p3211
asbasbasbag61
(g77
g63
NtRp3212
(dp3213
g66
(dp3214
sg75
g2722
sg68
(lp3215
g61
(g82
g63
NtRp3216
(dp3217
g66
(dp3218
g86
g87
ssg75
g3212
sg68
(lp3219
S'wsgi.multiprocess'
p3220
asbag61
(g82
g63
NtRp3221
(dp3222
g66
(dp3223
g93
g94
ssg75
g3212
sg68
(lp3224
S':'
asbag61
(g82
g63
NtRp3225
(dp3226
g66
(dp3227
sg75
g3212
sg68
(lp3228
g61
(g62
g63
NtRp3229
(dp3230
g66
(dp3231
g74
I3
ssg75
g3225
sg68
(lp3232
g104
asbasbasbag61
(g77
g63
NtRp3233
(dp3234
g66
(dp3235
sg75
g2722
sg68
(lp3236
g61
(g82
g63
NtRp3237
(dp3238
g66
(dp3239
g86
g87
ssg75
g3233
sg68
(lp3240
S'wsgi.multithread'
p3241
asbag61
(g82
g63
NtRp3242
(dp3243
g66
(dp3244
g93
g94
ssg75
g3233
sg68
(lp3245
S':'
asbag61
(g82
g63
NtRp3246
(dp3247
g66
(dp3248
sg75
g3233
sg68
(lp3249
g61
(g62
g63
NtRp3250
(dp3251
g66
(dp3252
g74
I3
ssg75
g3246
sg68
(lp3253
g1973
asbasbasbag61
(g77
g63
NtRp3254
(dp3255
g66
(dp3256
sg75
g2722
sg68
(lp3257
g61
(g82
g63
NtRp3258
(dp3259
g66
(dp3260
g86
g87
ssg75
g3254
sg68
(lp3261
S'wsgi.run_once'
p3262
asbag61
(g82
g63
NtRp3263
(dp3264
g66
(dp3265
g93
g94
ssg75
g3254
sg68
(lp3266
S':'
asbag61
(g82
g63
NtRp3267
(dp3268
g66
(dp3269
sg75
g3254
sg68
(lp3270
g61
(g62
g63
NtRp3271
(dp3272
g66
(dp3273
g74
I3
ssg75
g3267
sg68
(lp3274
g104
asbasbasbag61
(g77
g63
NtRp3275
(dp3276
g66
(dp3277
sg75
g2722
sg68
(lp3278
g61
(g82
g63
NtRp3279
(dp3280
g66
(dp3281
g86
g87
ssg75
g3275
sg68
(lp3282
S'wsgi.url_scheme'
p3283
asbag61
(g82
g63
NtRp3284
(dp3285
g66
(dp3286
g93
g94
ssg75
g3275
sg68
(lp3287
S':'
asbag61
(g82
g63
NtRp3288
(dp3289
g66
(dp3290
sg75
g3275
sg68
(lp3291
g61
(g62
g63
NtRp3292
(dp3293
g66
(dp3294
g74
I3
ssg75
g3288
sg68
(lp3295
g2016
asbasbasbag61
(g77
g63
NtRp3296
(dp3297
g66
(dp3298
sg75
g2722
sg68
(lp3299
g61
(g82
g63
NtRp3300
(dp3301
g66
(dp3302
g86
g87
ssg75
g3296
sg68
(lp3303
S'wsgi.version'
p3304
asbag61
(g82
g63
NtRp3305
(dp3306
g66
(dp3307
g93
g94
ssg75
g3296
sg68
(lp3308
S':'
asbag61
(g82
g63
NtRp3309
(dp3310
g66
(dp3311
sg75
g3296
sg68
(lp3312
g61
(g62
g63
NtRp3313
(dp3314
g66
(dp3315
g74
I3
ssg75
g3309
sg68
(lp3316
S'1'
asbasbasbasbasbasbasbasbasbasbasbasbasbsS'frames'
p3317
(lp3318
(dp3319
S'file'
p3320
S'C:\\Users\\omkara\\Desktop\\web2py\\gluon\\restricted.py'
p3321
sS'dump'
p3322
(dp3323
sS'lnum'
p3324
I205
sS'lines'
p3325
(dp3326
sS'call'
p3327
S"(code='# coding: utf8\\nfrom gluon.tools import Auth\\nfrom...h to use custom_auth_table\\n\\nauth.define_tables()\\n', environment={'A': <class 'gluon.html.A'>, 'Auth': <class 'gluon.tools.Auth'>, 'B': <class 'gluon.html.B'>, 'BEAUTIFY': <class 'gluon.html.BEAUTIFY'>, 'BODY': <class 'gluon.html.BODY'>, 'BR': <class 'gluon.html.BR'>, 'BUTTON': <class 'gluon.html.BUTTON'>, 'CAT': <class 'gluon.html.CAT'>, 'CENTER': <class 'gluon.html.CENTER'>, 'CLEANUP': <class 'gluon.validators.CLEANUP'>, ...}, layer=r'C:\\Users\\omkara\\Desktop\\web2py\\applications\\SlugBarter\\models\\registerForm.py')"
p3328
sS'func'
p3329
S'restricted'
p3330
sa(dp3331
g3320
S'C:\\Users\\omkara\\Desktop\\web2py\\applications\\SlugBarter\\models\\registerForm.py'
p3332
sg3322
(dp3333
sg3324
I22
sg3325
(dp3334
I17
S"    Field('registration_key', length=512,                # required"
p3335
sI18
S"          writable=False, readable=False, default=''),"
p3336
sI19
S"    Field('reset_password_key', length=512,              # required"
p3337
sI20
S"          writable=False, readable=False, default=''),"
p3338
sI21
S"    Field('registration_id', length=512,                 # required"
p3339
sI22
S"          writable=False, readable=False, default=''))"
p3340
sI23
S''
sI24
S'## do not forget validators'
p3341
sI25
S'custom_auth_table = db[auth.settings.table_user_name] # get the custom_auth_table'
p3342
sI26
S'custom_auth_table.first_name.requires = \\'
p3343
ssg3327
S'()'
p3344
sg3329
S'<module>'
p3345
sa(dp3346
g3320
S'C:\\Users\\omkara\\Desktop\\web2py\\gluon\\dal.py'
p3347
sg3322
(dp3348
sg3324
I6292
sg3325
(dp3349
sg3327
S"(self=<DAL {'auth_event': <Table {'origin': <gluon.dal..._key': <gluon.dal.Field object at 0x06163CF0>}>}>, tablename='auth_user', *fields=(<gluon.dal.Field object at 0x063EBAF0>, <gluon.dal.Field object at 0x063EB870>, <gluon.dal.Field object at 0x063EB790>, <gluon.dal.Field object at 0x063EB830>, <gluon.dal.Field object at 0x063EB050>, <gluon.dal.Field object at 0x063EB6D0>, <gluon.dal.Field object at 0x063EB5B0>, <gluon.dal.Field object at 0x063EB650>, <gluon.dal.Field object at 0x063EB1B0>, <gluon.dal.Field object at 0x063EB170>, <gluon.dal.Field object at 0x063EB110>), **args={})"
p3350
sg3329
S'define_table'
p3351
sasS'pyver'
p3352
S'Python 2.5.4: C:\\Users\\omkara\\Desktop\\web2py\\web2py.exe'
p3353
sS'session'
p3354
g61
(g62
g63
NtRp3355
(dp3356
g66
(dp3357
sg68
(lp3358
g61
(g70
g63
NtRp3359
(dp3360
g66
(dp3361
g74
I5
ssg75
Nsg68
(lp3362
g61
(g77
g63
NtRp3363
(dp3364
g66
(dp3365
sg75
g3359
sg68
(lp3366
g61
(g82
g63
NtRp3367
(dp3368
g66
(dp3369
g86
g87
ssg75
g3363
sg68
(lp3370
S'auth'
p3371
asbag61
(g82
g63
NtRp3372
(dp3373
g66
(dp3374
g93
g94
ssg75
g3363
sg68
(lp3375
S':'
asbag61
(g82
g63
NtRp3376
(dp3377
g66
(dp3378
sg75
g3363
sg68
(lp3379
g61
(g62
g63
NtRp3380
(dp3381
g66
(dp3382
g74
I5
ssg75
g3376
sg68
(lp3383
g61
(g70
g63
NtRp3384
(dp3385
g66
(dp3386
g74
I4
ssg75
Nsg68
(lp3387
g61
(g77
g63
NtRp3388
(dp3389
g66
(dp3390
sg75
g3384
sg68
(lp3391
g61
(g82
g63
NtRp3392
(dp3393
g66
(dp3394
g86
g87
ssg75
g3388
sg68
(lp3395
S'expiration'
p3396
asbag61
(g82
g63
NtRp3397
(dp3398
g66
(dp3399
g93
g94
ssg75
g3388
sg68
(lp3400
S':'
asbag61
(g82
g63
NtRp3401
(dp3402
g66
(dp3403
sg75
g3388
sg68
(lp3404
g61
(g62
g63
NtRp3405
(dp3406
g66
(dp3407
g74
I4
ssg75
g3401
sg68
(lp3408
S'3600'
p3409
asbasbasbag61
(g77
g63
NtRp3410
(dp3411
g66
(dp3412
sg75
g3384
sg68
(lp3413
g61
(g82
g63
NtRp3414
(dp3415
g66
(dp3416
g86
g87
ssg75
g3410
sg68
(lp3417
S'hmac_key'
p3418
asbag61
(g82
g63
NtRp3419
(dp3420
g66
(dp3421
g93
g94
ssg75
g3410
sg68
(lp3422
S':'
asbag61
(g82
g63
NtRp3423
(dp3424
g66
(dp3425
sg75
g3410
sg68
(lp3426
g61
(g62
g63
NtRp3427
(dp3428
g66
(dp3429
g74
I4
ssg75
g3423
sg68
(lp3430
S'99930829-3682-4c54-bdf1-e6307d06fce7'
p3431
asbasbasbag61
(g77
g63
NtRp3432
(dp3433
g66
(dp3434
sg75
g3384
sg68
(lp3435
g61
(g82
g63
NtRp3436
(dp3437
g66
(dp3438
g86
g87
ssg75
g3432
sg68
(lp3439
S'last_visit'
p3440
asbag61
(g82
g63
NtRp3441
(dp3442
g66
(dp3443
g93
g94
ssg75
g3432
sg68
(lp3444
S':'
asbag61
(g82
g63
NtRp3445
(dp3446
g66
(dp3447
sg75
g3432
sg68
(lp3448
g61
(g62
g63
NtRp3449
(dp3450
g66
(dp3451
g74
I4
ssg75
g3445
sg68
(lp3452
S'datetime.datetime(2012, 11, 10, 16, 43, 55, 131000)'
p3453
asbasbasbag61
(g77
g63
NtRp3454
(dp3455
g66
(dp3456
sg75
g3384
sg68
(lp3457
g61
(g82
g63
NtRp3458
(dp3459
g66
(dp3460
g86
g87
ssg75
g3454
sg68
(lp3461
S'remember'
p3462
asbag61
(g82
g63
NtRp3463
(dp3464
g66
(dp3465
g93
g94
ssg75
g3454
sg68
(lp3466
S':'
asbag61
(g82
g63
NtRp3467
(dp3468
g66
(dp3469
sg75
g3454
sg68
(lp3470
g61
(g62
g63
NtRp3471
(dp3472
g66
(dp3473
g74
I4
ssg75
g3467
sg68
(lp3474
g104
asbasbasbag61
(g77
g63
NtRp3475
(dp3476
g66
(dp3477
sg75
g3384
sg68
(lp3478
g61
(g82
g63
NtRp3479
(dp3480
g66
(dp3481
g86
g87
ssg75
g3475
sg68
(lp3482
S'user'
p3483
asbag61
(g82
g63
NtRp3484
(dp3485
g66
(dp3486
g93
g94
ssg75
g3475
sg68
(lp3487
S':'
asbag61
(g82
g63
NtRp3488
(dp3489
g66
(dp3490
sg75
g3475
sg68
(lp3491
g61
(g62
g63
NtRp3492
(dp3493
g66
(dp3494
g74
I4
ssg75
g3488
sg68
(lp3495
g61
(g70
g63
NtRp3496
(dp3497
g66
(dp3498
g74
I3
ssg75
Nsg68
(lp3499
g61
(g77
g63
NtRp3500
(dp3501
g66
(dp3502
sg75
g3496
sg68
(lp3503
g61
(g82
g63
NtRp3504
(dp3505
g66
(dp3506
g86
g87
ssg75
g3500
sg68
(lp3507
S'email'
p3508
asbag61
(g82
g63
NtRp3509
(dp3510
g66
(dp3511
g93
g94
ssg75
g3500
sg68
(lp3512
S':'
asbag61
(g82
g63
NtRp3513
(dp3514
g66
(dp3515
sg75
g3500
sg68
(lp3516
g61
(g62
g63
NtRp3517
(dp3518
g66
(dp3519
g74
I3
ssg75
g3513
sg68
(lp3520
S'sukha620@yahoo.com'
p3521
asbasbasbag61
(g77
g63
NtRp3522
(dp3523
g66
(dp3524
sg75
g3496
sg68
(lp3525
g61
(g82
g63
NtRp3526
(dp3527
g66
(dp3528
g86
g87
ssg75
g3522
sg68
(lp3529
S'first_name'
p3530
asbag61
(g82
g63
NtRp3531
(dp3532
g66
(dp3533
g93
g94
ssg75
g3522
sg68
(lp3534
S':'
asbag61
(g82
g63
NtRp3535
(dp3536
g66
(dp3537
sg75
g3522
sg68
(lp3538
g61
(g62
g63
NtRp3539
(dp3540
g66
(dp3541
g74
I3
ssg75
g3535
sg68
(lp3542
S'Sukhraj'
p3543
asbasbasbag61
(g77
g63
NtRp3544
(dp3545
g66
(dp3546
sg75
g3496
sg68
(lp3547
g61
(g82
g63
NtRp3548
(dp3549
g66
(dp3550
g86
g87
ssg75
g3544
sg68
(lp3551
S'id'
p3552
asbag61
(g82
g63
NtRp3553
(dp3554
g66
(dp3555
g93
g94
ssg75
g3544
sg68
(lp3556
S':'
asbag61
(g82
g63
NtRp3557
(dp3558
g66
(dp3559
sg75
g3544
sg68
(lp3560
g61
(g62
g63
NtRp3561
(dp3562
g66
(dp3563
g74
I3
ssg75
g3557
sg68
(lp3564
S'1'
asbasbasbag61
(g77
g63
NtRp3565
(dp3566
g66
(dp3567
sg75
g3496
sg68
(lp3568
g61
(g82
g63
NtRp3569
(dp3570
g66
(dp3571
g86
g87
ssg75
g3565
sg68
(lp3572
S'last_name'
p3573
asbag61
(g82
g63
NtRp3574
(dp3575
g66
(dp3576
g93
g94
ssg75
g3565
sg68
(lp3577
S':'
asbag61
(g82
g63
NtRp3578
(dp3579
g66
(dp3580
sg75
g3565
sg68
(lp3581
g61
(g62
g63
NtRp3582
(dp3583
g66
(dp3584
g74
I3
ssg75
g3578
sg68
(lp3585
S'Singh'
p3586
asbasbasbag61
(g77
g63
NtRp3587
(dp3588
g66
(dp3589
sg75
g3496
sg68
(lp3590
g61
(g82
g63
NtRp3591
(dp3592
g66
(dp3593
g86
g87
ssg75
g3587
sg68
(lp3594
S'password'
p3595
asbag61
(g82
g63
NtRp3596
(dp3597
g66
(dp3598
g93
g94
ssg75
g3587
sg68
(lp3599
S':'
asbag61
(g82
g63
NtRp3600
(dp3601
g66
(dp3602
sg75
g3587
sg68
(lp3603
g61
(g62
g63
NtRp3604
(dp3605
g66
(dp3606
g74
I3
ssg75
g3600
sg68
(lp3607
S'a16daa128e0a42538f9e8c372012ceb9'
p3608
asbasbasbag61
(g77
g63
NtRp3609
(dp3610
g66
(dp3611
sg75
g3496
sg68
(lp3612
g61
(g82
g63
NtRp3613
(dp3614
g66
(dp3615
g86
g87
ssg75
g3609
sg68
(lp3616
S'registration_id'
p3617
asbag61
(g82
g63
NtRp3618
(dp3619
g66
(dp3620
g93
g94
ssg75
g3609
sg68
(lp3621
S':'
asbag61
(g82
g63
NtRp3622
(dp3623
g66
(dp3624
sg75
g3609
sg68
(lp3625
g61
(g62
g63
NtRp3626
(dp3627
g66
(dp3628
g74
I3
ssg75
g3622
sg68
(lp3629
S''
asbasbasbag61
(g77
g63
NtRp3630
(dp3631
g66
(dp3632
sg75
g3496
sg68
(lp3633
g61
(g82
g63
NtRp3634
(dp3635
g66
(dp3636
g86
g87
ssg75
g3630
sg68
(lp3637
S'registration_key'
p3638
asbag61
(g82
g63
NtRp3639
(dp3640
g66
(dp3641
g93
g94
ssg75
g3630
sg68
(lp3642
S':'
asbag61
(g82
g63
NtRp3643
(dp3644
g66
(dp3645
sg75
g3630
sg68
(lp3646
g61
(g62
g63
NtRp3647
(dp3648
g66
(dp3649
g74
I3
ssg75
g3643
sg68
(lp3650
S''
asbasbasbag61
(g77
g63
NtRp3651
(dp3652
g66
(dp3653
sg75
g3496
sg68
(lp3654
g61
(g82
g63
NtRp3655
(dp3656
g66
(dp3657
g86
g87
ssg75
g3651
sg68
(lp3658
S'reset_password_key'
p3659
asbag61
(g82
g63
NtRp3660
(dp3661
g66
(dp3662
g93
g94
ssg75
g3651
sg68
(lp3663
S':'
asbag61
(g82
g63
NtRp3664
(dp3665
g66
(dp3666
sg75
g3651
sg68
(lp3667
g61
(g62
g63
NtRp3668
(dp3669
g66
(dp3670
g74
I3
ssg75
g3664
sg68
(lp3671
S''
asbasbasbasbasbasbasbag61
(g77
g63
NtRp3672
(dp3673
g66
(dp3674
sg75
g3384
sg68
(lp3675
g61
(g82
g63
NtRp3676
(dp3677
g66
(dp3678
g86
g87
ssg75
g3672
sg68
(lp3679
S'user_groups'
p3680
asbag61
(g82
g63
NtRp3681
(dp3682
g66
(dp3683
g93
g94
ssg75
g3672
sg68
(lp3684
S':'
asbag61
(g82
g63
NtRp3685
(dp3686
g66
(dp3687
sg75
g3672
sg68
(lp3688
g61
(g62
g63
NtRp3689
(dp3690
g66
(dp3691
g74
I4
ssg75
g3685
sg68
(lp3692
g61
(g70
g63
NtRp3693
(dp3694
g66
(dp3695
g74
I3
ssg75
Nsg68
(lp3696
sbasbasbasbasbasbasbasbag61
(g77
g63
NtRp3697
(dp3698
g66
(dp3699
sg75
g3359
sg68
(lp3700
g61
(g82
g63
NtRp3701
(dp3702
g66
(dp3703
g86
g87
ssg75
g3697
sg68
(lp3704
S'last_query'
p3705
asbag61
(g82
g63
NtRp3706
(dp3707
g66
(dp3708
g93
g94
ssg75
g3697
sg68
(lp3709
S':'
asbag61
(g82
g63
NtRp3710
(dp3711
g66
(dp3712
sg75
g3697
sg68
(lp3713
g61
(g62
g63
NtRp3714
(dp3715
g66
(dp3716
g74
I5
ssg75
g3710
sg68
(lp3717
S'db.auth_user.id>0'
p3718
asbasbasbasbasbsS'etype'
p3719
S"<type 'exceptions.SyntaxError'>"
p3720
sS'date'
p3721
S'Sat Nov 10 16:43:55 2012'
p3722
sS'response'
p3723
g61
(g62
g63
NtRp3724
(dp3725
g66
(dp3726
sg68
(lp3727
g61
(g70
g63
NtRp3728
(dp3729
g66
(dp3730
g74
I5
ssg75
Nsg68
(lp3731
g61
(g77
g63
NtRp3732
(dp3733
g66
(dp3734
sg75
g3728
sg68
(lp3735
g61
(g82
g63
NtRp3736
(dp3737
g66
(dp3738
g86
g87
ssg75
g3732
sg68
(lp3739
g159
asbag61
(g82
g63
NtRp3740
(dp3741
g66
(dp3742
g93
g94
ssg75
g3732
sg68
(lp3743
S':'
asbag61
(g82
g63
NtRp3744
(dp3745
g66
(dp3746
sg75
g3732
sg68
(lp3747
g61
(g62
g63
NtRp3748
(dp3749
g66
(dp3750
g74
I5
ssg75
g3744
sg68
(lp3751
S'<cStringIO.StringO object at 0x0678A4A0>'
p3752
asbasbasbag61
(g77
g63
NtRp3753
(dp3754
g66
(dp3755
sg75
g3728
sg68
(lp3756
g61
(g82
g63
NtRp3757
(dp3758
g66
(dp3759
g86
g87
ssg75
g3753
sg68
(lp3760
g225
asbag61
(g82
g63
NtRp3761
(dp3762
g66
(dp3763
g93
g94
ssg75
g3753
sg68
(lp3764
S':'
asbag61
(g82
g63
NtRp3765
(dp3766
g66
(dp3767
sg75
g3753
sg68
(lp3768
g61
(g62
g63
NtRp3769
(dp3770
g66
(dp3771
g74
I5
ssg75
g3765
sg68
(lp3772
g61
(g70
g63
NtRp3773
(dp3774
g66
(dp3775
g74
I4
ssg75
Nsg68
(lp3776
g61
(g77
g63
NtRp3777
(dp3778
g66
(dp3779
sg75
g3773
sg68
(lp3780
g61
(g82
g63
NtRp3781
(dp3782
g66
(dp3783
g86
g87
ssg75
g3777
sg68
(lp3784
S'session_id_slugbarter'
p3785
asbag61
(g82
g63
NtRp3786
(dp3787
g66
(dp3788
g93
g94
ssg75
g3777
sg68
(lp3789
S':'
asbag61
(g82
g63
NtRp3790
(dp3791
g66
(dp3792
sg75
g3777
sg68
(lp3793
g61
(g62
g63
NtRp3794
(dp3795
g66
(dp3796
g74
I4
ssg75
g3790
sg68
(lp3797
g61
(g70
g63
NtRp3798
(dp3799
g66
(dp3800
g74
I3
ssg75
Nsg68
(lp3801
g61
(g77
g63
NtRp3802
(dp3803
g66
(dp3804
sg75
g3798
sg68
(lp3805
g61
(g82
g63
NtRp3806
(dp3807
g66
(dp3808
g86
g87
ssg75
g3802
sg68
(lp3809
g275
asbag61
(g82
g63
NtRp3810
(dp3811
g66
(dp3812
g93
g94
ssg75
g3802
sg68
(lp3813
S':'
asbag61
(g82
g63
NtRp3814
(dp3815
g66
(dp3816
sg75
g3802
sg68
(lp3817
g61
(g62
g63
NtRp3818
(dp3819
g66
(dp3820
g74
I3
ssg75
g3814
sg68
(lp3821
S''
asbasbasbag61
(g77
g63
NtRp3822
(dp3823
g66
(dp3824
sg75
g3798
sg68
(lp3825
g61
(g82
g63
NtRp3826
(dp3827
g66
(dp3828
g86
g87
ssg75
g3822
sg68
(lp3829
g296
asbag61
(g82
g63
NtRp3830
(dp3831
g66
(dp3832
g93
g94
ssg75
g3822
sg68
(lp3833
S':'
asbag61
(g82
g63
NtRp3834
(dp3835
g66
(dp3836
sg75
g3822
sg68
(lp3837
g61
(g62
g63
NtRp3838
(dp3839
g66
(dp3840
g74
I3
ssg75
g3834
sg68
(lp3841
S''
asbasbasbag61
(g77
g63
NtRp3842
(dp3843
g66
(dp3844
sg75
g3798
sg68
(lp3845
g61
(g82
g63
NtRp3846
(dp3847
g66
(dp3848
g86
g87
ssg75
g3842
sg68
(lp3849
g317
asbag61
(g82
g63
NtRp3850
(dp3851
g66
(dp3852
g93
g94
ssg75
g3842
sg68
(lp3853
S':'
asbag61
(g82
g63
NtRp3854
(dp3855
g66
(dp3856
sg75
g3842
sg68
(lp3857
g61
(g62
g63
NtRp3858
(dp3859
g66
(dp3860
g74
I3
ssg75
g3854
sg68
(lp3861
S''
asbasbasbag61
(g77
g63
NtRp3862
(dp3863
g66
(dp3864
sg75
g3798
sg68
(lp3865
g61
(g82
g63
NtRp3866
(dp3867
g66
(dp3868
g86
g87
ssg75
g3862
sg68
(lp3869
g338
asbag61
(g82
g63
NtRp3870
(dp3871
g66
(dp3872
g93
g94
ssg75
g3862
sg68
(lp3873
S':'
asbag61
(g82
g63
NtRp3874
(dp3875
g66
(dp3876
sg75
g3862
sg68
(lp3877
g61
(g62
g63
NtRp3878
(dp3879
g66
(dp3880
g74
I3
ssg75
g3874
sg68
(lp3881
S''
asbasbasbag61
(g77
g63
NtRp3882
(dp3883
g66
(dp3884
sg75
g3798
sg68
(lp3885
g61
(g82
g63
NtRp3886
(dp3887
g66
(dp3888
g86
g87
ssg75
g3882
sg68
(lp3889
g359
asbag61
(g82
g63
NtRp3890
(dp3891
g66
(dp3892
g93
g94
ssg75
g3882
sg68
(lp3893
S':'
asbag61
(g82
g63
NtRp3894
(dp3895
g66
(dp3896
sg75
g3882
sg68
(lp3897
g61
(g62
g63
NtRp3898
(dp3899
g66
(dp3900
g74
I3
ssg75
g3894
sg68
(lp3901
S'/'
asbasbasbag61
(g77
g63
NtRp3902
(dp3903
g66
(dp3904
sg75
g3798
sg68
(lp3905
g61
(g82
g63
NtRp3906
(dp3907
g66
(dp3908
g86
g87
ssg75
g3902
sg68
(lp3909
g380
asbag61
(g82
g63
NtRp3910
(dp3911
g66
(dp3912
g93
g94
ssg75
g3902
sg68
(lp3913
S':'
asbag61
(g82
g63
NtRp3914
(dp3915
g66
(dp3916
sg75
g3902
sg68
(lp3917
g61
(g62
g63
NtRp3918
(dp3919
g66
(dp3920
g74
I3
ssg75
g3914
sg68
(lp3921
S''
asbasbasbag61
(g77
g63
NtRp3922
(dp3923
g66
(dp3924
sg75
g3798
sg68
(lp3925
g61
(g82
g63
NtRp3926
(dp3927
g66
(dp3928
g86
g87
ssg75
g3922
sg68
(lp3929
g401
asbag61
(g82
g63
NtRp3930
(dp3931
g66
(dp3932
g93
g94
ssg75
g3922
sg68
(lp3933
S':'
asbag61
(g82
g63
NtRp3934
(dp3935
g66
(dp3936
sg75
g3922
sg68
(lp3937
g61
(g62
g63
NtRp3938
(dp3939
g66
(dp3940
g74
I3
ssg75
g3934
sg68
(lp3941
S''
asbasbasbasbasbasbasbasbasbasbasbag61
(g77
g63
NtRp3942
(dp3943
g66
(dp3944
sg75
g3728
sg68
(lp3945
g61
(g82
g63
NtRp3946
(dp3947
g66
(dp3948
g86
g87
ssg75
g3942
sg68
(lp3949
S'delimiters'
p3950
asbag61
(g82
g63
NtRp3951
(dp3952
g66
(dp3953
g93
g94
ssg75
g3942
sg68
(lp3954
S':'
asbag61
(g82
g63
NtRp3955
(dp3956
g66
(dp3957
sg75
g3942
sg68
(lp3958
g61
(g62
g63
NtRp3959
(dp3960
g66
(dp3961
g74
I5
ssg75
g3955
sg68
(lp3962
g61
(g70
g63
NtRp3963
(dp3964
g66
(dp3965
g74
I4
ssg75
Nsg68
(lp3966
g61
(g77
g63
NtRp3967
(dp3968
g66
(dp3969
sg75
g3963
sg68
(lp3970
g61
(g82
g63
NtRp3971
(dp3972
g66
(dp3973
sg75
g3967
sg68
(lp3974
g61
(g62
g63
NtRp3975
(dp3976
g66
(dp3977
g74
I4
ssg75
g3971
sg68
(lp3978
S'{{'
p3979
asbasbasbag61
(g77
g63
NtRp3980
(dp3981
g66
(dp3982
sg75
g3963
sg68
(lp3983
g61
(g82
g63
NtRp3984
(dp3985
g66
(dp3986
sg75
g3980
sg68
(lp3987
g61
(g62
g63
NtRp3988
(dp3989
g66
(dp3990
g74
I4
ssg75
g3984
sg68
(lp3991
S'}}'
p3992
asbasbasbasbasbasbasbag61
(g77
g63
NtRp3993
(dp3994
g66
(dp3995
sg75
g3728
sg68
(lp3996
g61
(g82
g63
NtRp3997
(dp3998
g66
(dp3999
g86
g87
ssg75
g3993
sg68
(lp4000
S'files'
p4001
asbag61
(g82
g63
NtRp4002
(dp4003
g66
(dp4004
g93
g94
ssg75
g3993
sg68
(lp4005
S':'
asbag61
(g82
g63
NtRp4006
(dp4007
g66
(dp4008
sg75
g3993
sg68
(lp4009
g61
(g62
g63
NtRp4010
(dp4011
g66
(dp4012
g74
I5
ssg75
g4006
sg68
(lp4013
g61
(g70
g63
NtRp4014
(dp4015
g66
(dp4016
g74
I4
ssg75
Nsg68
(lp4017
sbasbasbasbag61
(g77
g63
NtRp4018
(dp4019
g66
(dp4020
sg75
g3728
sg68
(lp4021
g61
(g82
g63
NtRp4022
(dp4023
g66
(dp4024
g86
g87
ssg75
g4018
sg68
(lp4025
S'flash'
p4026
asbag61
(g82
g63
NtRp4027
(dp4028
g66
(dp4029
g93
g94
ssg75
g4018
sg68
(lp4030
S':'
asbag61
(g82
g63
NtRp4031
(dp4032
g66
(dp4033
sg75
g4018
sg68
(lp4034
g61
(g62
g63
NtRp4035
(dp4036
g66
(dp4037
g74
I5
ssg75
g4031
sg68
(lp4038
S''
asbasbasbag61
(g77
g63
NtRp4039
(dp4040
g66
(dp4041
sg75
g3728
sg68
(lp4042
g61
(g82
g63
NtRp4043
(dp4044
g66
(dp4045
g86
g87
ssg75
g4039
sg68
(lp4046
S'generic_patterns'
p4047
asbag61
(g82
g63
NtRp4048
(dp4049
g66
(dp4050
g93
g94
ssg75
g4039
sg68
(lp4051
S':'
asbag61
(g82
g63
NtRp4052
(dp4053
g66
(dp4054
sg75
g4039
sg68
(lp4055
g61
(g62
g63
NtRp4056
(dp4057
g66
(dp4058
g74
I5
ssg75
g4052
sg68
(lp4059
g61
(g70
g63
NtRp4060
(dp4061
g66
(dp4062
g74
I4
ssg75
Nsg68
(lp4063
g61
(g77
g63
NtRp4064
(dp4065
g66
(dp4066
sg75
g4060
sg68
(lp4067
g61
(g82
g63
NtRp4068
(dp4069
g66
(dp4070
sg75
g4064
sg68
(lp4071
g61
(g62
g63
NtRp4072
(dp4073
g66
(dp4074
g74
I4
ssg75
g4068
sg68
(lp4075
S'*'
asbasbasbasbasbasbasbag61
(g77
g63
NtRp4076
(dp4077
g66
(dp4078
sg75
g3728
sg68
(lp4079
g61
(g82
g63
NtRp4080
(dp4081
g66
(dp4082
g86
g87
ssg75
g4076
sg68
(lp4083
S'headers'
p4084
asbag61
(g82
g63
NtRp4085
(dp4086
g66
(dp4087
g93
g94
ssg75
g4076
sg68
(lp4088
S':'
asbag61
(g82
g63
NtRp4089
(dp4090
g66
(dp4091
sg75
g4076
sg68
(lp4092
g61
(g62
g63
NtRp4093
(dp4094
g66
(dp4095
g74
I5
ssg75
g4089
sg68
(lp4096
g61
(g70
g63
NtRp4097
(dp4098
g66
(dp4099
g74
I4
ssg75
Nsg68
(lp4100
g61
(g77
g63
NtRp4101
(dp4102
g66
(dp4103
sg75
g4097
sg68
(lp4104
g61
(g82
g63
NtRp4105
(dp4106
g66
(dp4107
g86
g87
ssg75
g4101
sg68
(lp4108
S'Cache-Control'
p4109
asbag61
(g82
g63
NtRp4110
(dp4111
g66
(dp4112
g93
g94
ssg75
g4101
sg68
(lp4113
S':'
asbag61
(g82
g63
NtRp4114
(dp4115
g66
(dp4116
sg75
g4101
sg68
(lp4117
g61
(g62
g63
NtRp4118
(dp4119
g66
(dp4120
g74
I4
ssg75
g4114
sg68
(lp4121
S'no-store, no-cache, must-revalidate, post-check=0, pre-check=0'
p4122
asbasbasbag61
(g77
g63
NtRp4123
(dp4124
g66
(dp4125
sg75
g4097
sg68
(lp4126
g61
(g82
g63
NtRp4127
(dp4128
g66
(dp4129
g86
g87
ssg75
g4123
sg68
(lp4130
S'Content-Type'
p4131
asbag61
(g82
g63
NtRp4132
(dp4133
g66
(dp4134
g93
g94
ssg75
g4123
sg68
(lp4135
S':'
asbag61
(g82
g63
NtRp4136
(dp4137
g66
(dp4138
sg75
g4123
sg68
(lp4139
g61
(g62
g63
NtRp4140
(dp4141
g66
(dp4142
g74
I4
ssg75
g4136
sg68
(lp4143
S'text/html; charset=utf-8'
p4144
asbasbasbag61
(g77
g63
NtRp4145
(dp4146
g66
(dp4147
sg75
g4097
sg68
(lp4148
g61
(g82
g63
NtRp4149
(dp4150
g66
(dp4151
g86
g87
ssg75
g4145
sg68
(lp4152
S'Expires'
p4153
asbag61
(g82
g63
NtRp4154
(dp4155
g66
(dp4156
g93
g94
ssg75
g4145
sg68
(lp4157
S':'
asbag61
(g82
g63
NtRp4158
(dp4159
g66
(dp4160
sg75
g4145
sg68
(lp4161
g61
(g62
g63
NtRp4162
(dp4163
g66
(dp4164
g74
I4
ssg75
g4158
sg68
(lp4165
S'Sun, 11 Nov 2012 00:43:55 GMT'
p4166
asbasbasbag61
(g77
g63
NtRp4167
(dp4168
g66
(dp4169
sg75
g4097
sg68
(lp4170
g61
(g82
g63
NtRp4171
(dp4172
g66
(dp4173
g86
g87
ssg75
g4167
sg68
(lp4174
S'Pragma'
p4175
asbag61
(g82
g63
NtRp4176
(dp4177
g66
(dp4178
g93
g94
ssg75
g4167
sg68
(lp4179
S':'
asbag61
(g82
g63
NtRp4180
(dp4181
g66
(dp4182
sg75
g4167
sg68
(lp4183
g61
(g62
g63
NtRp4184
(dp4185
g66
(dp4186
g74
I4
ssg75
g4180
sg68
(lp4187
S'no-cache'
p4188
asbasbasbag61
(g77
g63
NtRp4189
(dp4190
g66
(dp4191
sg75
g4097
sg68
(lp4192
g61
(g82
g63
NtRp4193
(dp4194
g66
(dp4195
g86
g87
ssg75
g4189
sg68
(lp4196
S'X-Powered-By'
p4197
asbag61
(g82
g63
NtRp4198
(dp4199
g66
(dp4200
g93
g94
ssg75
g4189
sg68
(lp4201
S':'
asbag61
(g82
g63
NtRp4202
(dp4203
g66
(dp4204
sg75
g4189
sg68
(lp4205
g61
(g62
g63
NtRp4206
(dp4207
g66
(dp4208
g74
I4
ssg75
g4202
sg68
(lp4209
S'web2py'
p4210
asbasbasbasbasbasbasbag61
(g77
g63
NtRp4211
(dp4212
g66
(dp4213
sg75
g3728
sg68
(lp4214
g61
(g82
g63
NtRp4215
(dp4216
g66
(dp4217
g86
g87
ssg75
g4211
sg68
(lp4218
S'menu'
p4219
asbag61
(g82
g63
NtRp4220
(dp4221
g66
(dp4222
g93
g94
ssg75
g4211
sg68
(lp4223
S':'
asbag61
(g82
g63
NtRp4224
(dp4225
g66
(dp4226
sg75
g4211
sg68
(lp4227
g61
(g62
g63
NtRp4228
(dp4229
g66
(dp4230
g74
I5
ssg75
g4224
sg68
(lp4231
g61
(g70
g63
NtRp4232
(dp4233
g66
(dp4234
g74
I4
ssg75
Nsg68
(lp4235
g61
(g77
g63
NtRp4236
(dp4237
g66
(dp4238
sg75
g4232
sg68
(lp4239
g61
(g82
g63
NtRp4240
(dp4241
g66
(dp4242
sg75
g4236
sg68
(lp4243
g61
(g62
g63
NtRp4244
(dp4245
g66
(dp4246
g74
I4
ssg75
g4240
sg68
(lp4247
g61
(g70
g63
NtRp4248
(dp4249
g66
(dp4250
g74
I3
ssg75
Nsg68
(lp4251
g61
(g77
g63
NtRp4252
(dp4253
g66
(dp4254
sg75
g4248
sg68
(lp4255
g61
(g82
g63
NtRp4256
(dp4257
g66
(dp4258
sg75
g4252
sg68
(lp4259
g61
(g62
g63
NtRp4260
(dp4261
g66
(dp4262
g74
I3
ssg75
g4256
sg68
(lp4263
cgluon.languages
lazyT_unpickle
p4264
(S's\x04\x00\x00\x00Home'
tRp4265
asbasbasbag61
(g77
g63
NtRp4266
(dp4267
g66
(dp4268
sg75
g4248
sg68
(lp4269
g61
(g82
g63
NtRp4270
(dp4271
g66
(dp4272
sg75
g4266
sg68
(lp4273
g61
(g62
g63
NtRp4274
(dp4275
g66
(dp4276
g74
I3
ssg75
g4270
sg68
(lp4277
g104
asbasbasbag61
(g77
g63
NtRp4278
(dp4279
g66
(dp4280
sg75
g4248
sg68
(lp4281
g61
(g82
g63
NtRp4282
(dp4283
g66
(dp4284
sg75
g4278
sg68
(lp4285
g61
(g62
g63
NtRp4286
(dp4287
g66
(dp4288
g74
I3
ssg75
g4282
sg68
(lp4289
S'/SlugBarter/default/index'
p4290
asbasbasbag61
(g77
g63
NtRp4291
(dp4292
g66
(dp4293
sg75
g4248
sg68
(lp4294
g61
(g82
g63
NtRp4295
(dp4296
g66
(dp4297
sg75
g4291
sg68
(lp4298
g61
(g62
g63
NtRp4299
(dp4300
g66
(dp4301
g74
I3
ssg75
g4295
sg68
(lp4302
g61
(g70
g63
NtRp4303
(dp4304
g66
(dp4305
g74
I2
ssg75
Nsg68
(lp4306
sbasbasbasbasbasbasbasbag61
(g77
g63
NtRp4307
(dp4308
g66
(dp4309
sg75
g4232
sg68
(lp4310
g61
(g82
g63
NtRp4311
(dp4312
g66
(dp4313
sg75
g4307
sg68
(lp4314
g61
(g62
g63
NtRp4315
(dp4316
g66
(dp4317
g74
I4
ssg75
g4311
sg68
(lp4318
g61
(g70
g63
NtRp4319
(dp4320
g66
(dp4321
g74
I3
ssg75
Nsg68
(lp4322
g61
(g77
g63
NtRp4323
(dp4324
g66
(dp4325
sg75
g4319
sg68
(lp4326
g61
(g82
g63
NtRp4327
(dp4328
g66
(dp4329
sg75
g4323
sg68
(lp4330
g61
(g62
g63
NtRp4331
(dp4332
g66
(dp4333
g74
I3
ssg75
g4327
sg68
(lp4334
g61
(cgluon.html
SPAN
p4335
g63
NtRp4336
(dp4337
g66
(dp4338
g86
S'color:yellow'
p4339
ssg75
Nsg68
(lp4340
g4210
asbasbasbasbag61
(g77
g63
NtRp4341
(dp4342
g66
(dp4343
sg75
g4319
sg68
(lp4344
g61
(g82
g63
NtRp4345
(dp4346
g66
(dp4347
sg75
g4341
sg68
(lp4348
g61
(g62
g63
NtRp4349
(dp4350
g66
(dp4351
g74
I3
ssg75
g4345
sg68
(lp4352
g104
asbasbasbag61
(g77
g63
NtRp4353
(dp4354
g66
(dp4355
sg75
g4319
sg68
(lp4356
g61
(g82
g63
NtRp4357
(dp4358
g66
(dp4359
sg75
g4353
sg68
(lp4360
g61
(g62
g63
NtRp4361
(dp4362
g66
(dp4363
g74
I3
ssg75
g4357
sg68
(lp4364
S'None'
p4365
asbasbasbag61
(g77
g63
NtRp4366
(dp4367
g66
(dp4368
sg75
g4319
sg68
(lp4369
g61
(g82
g63
NtRp4370
(dp4371
g66
(dp4372
sg75
g4366
sg68
(lp4373
g61
(g62
g63
NtRp4374
(dp4375
g66
(dp4376
g74
I3
ssg75
g4370
sg68
(lp4377
g61
(g70
g63
NtRp4378
(dp4379
g66
(dp4380
g74
I2
ssg75
Nsg68
(lp4381
g61
(g77
g63
NtRp4382
(dp4383
g66
(dp4384
sg75
g4378
sg68
(lp4385
g61
(g82
g63
NtRp4386
(dp4387
g66
(dp4388
sg75
g4382
sg68
(lp4389
g61
(g62
g63
NtRp4390
(dp4391
g66
(dp4392
g74
I2
ssg75
g4386
sg68
(lp4393
g61
(g70
g63
NtRp4394
(dp4395
g66
(dp4396
g74
I1
ssg75
Nsg68
(lp4397
g61
(g77
g63
NtRp4398
(dp4399
g66
(dp4400
sg75
g4394
sg68
(lp4401
g61
(g82
g63
NtRp4402
(dp4403
g66
(dp4404
sg75
g4398
sg68
(lp4405
g61
(g62
g63
NtRp4406
(dp4407
g66
(dp4408
g74
I1
ssg75
g4402
sg68
(lp4409
g4264
(S's\x08\x00\x00\x00My Sites'
tRp4410
asbasbasbag61
(g77
g63
NtRp4411
(dp4412
g66
(dp4413
sg75
g4394
sg68
(lp4414
g61
(g82
g63
NtRp4415
(dp4416
g66
(dp4417
sg75
g4411
sg68
(lp4418
g61
(g62
g63
NtRp4419
(dp4420
g66
(dp4421
g74
I1
ssg75
g4415
sg68
(lp4422
I00
asbasbasbag61
(g77
g63
NtRp4423
(dp4424
g66
(dp4425
sg75
g4394
sg68
(lp4426
g61
(g82
g63
NtRp4427
(dp4428
g66
(dp4429
sg75
g4423
sg68
(lp4430
g61
(g62
g63
NtRp4431
(dp4432
g66
(dp4433
g74
I1
ssg75
g4427
sg68
(lp4434
S'/admin/default/site'
p4435
asbasbasbasbasbasbasbag61
(g77
g63
NtRp4436
(dp4437
g66
(dp4438
sg75
g4378
sg68
(lp4439
g61
(g82
g63
NtRp4440
(dp4441
g66
(dp4442
sg75
g4436
sg68
(lp4443
g61
(g62
g63
NtRp4444
(dp4445
g66
(dp4446
g74
I2
ssg75
g4440
sg68
(lp4447
g61
(g70
g63
NtRp4448
(dp4449
g66
(dp4450
g74
I1
ssg75
Nsg68
(lp4451
g61
(g77
g63
NtRp4452
(dp4453
g66
(dp4454
sg75
g4448
sg68
(lp4455
g61
(g82
g63
NtRp4456
(dp4457
g66
(dp4458
sg75
g4452
sg68
(lp4459
g61
(g62
g63
NtRp4460
(dp4461
g66
(dp4462
g74
I1
ssg75
g4456
sg68
(lp4463
g4264
(S's\x08\x00\x00\x00This App'
tRp4464
asbasbasbag61
(g77
g63
NtRp4465
(dp4466
g66
(dp4467
sg75
g4448
sg68
(lp4468
g61
(g82
g63
NtRp4469
(dp4470
g66
(dp4471
sg75
g4465
sg68
(lp4472
g61
(g62
g63
NtRp4473
(dp4474
g66
(dp4475
g74
I1
ssg75
g4469
sg68
(lp4476
I00
asbasbasbag61
(g77
g63
NtRp4477
(dp4478
g66
(dp4479
sg75
g4448
sg68
(lp4480
g61
(g82
g63
NtRp4481
(dp4482
g66
(dp4483
sg75
g4477
sg68
(lp4484
g61
(g62
g63
NtRp4485
(dp4486
g66
(dp4487
g74
I1
ssg75
g4481
sg68
(lp4488
S'/admin/default/design/SlugBarter'
p4489
asbasbasbag61
(g77
g63
NtRp4490
(dp4491
g66
(dp4492
sg75
g4448
sg68
(lp4493
g61
(g82
g63
NtRp4494
(dp4495
g66
(dp4496
sg75
g4490
sg68
(lp4497
g61
(g62
g63
NtRp4498
(dp4499
g66
(dp4500
g74
I1
ssg75
g4494
sg68
(lp4501
(lp4502
(g4264
(S's\n\x00\x00\x00Controller'
tRp4503
I00
S'/admin/default/edit/SlugBarter/controllers/default.py'
tp4504
a(g4264
(S's\x04\x00\x00\x00View'
tRp4505
I00
S'/admin/default/edit/SlugBarter/views/default/index.html'
tp4506
a(g4264
(S's\x06\x00\x00\x00Layout'
tRp4507
I00
S'/admin/default/edit/SlugBarter/views/layout.html'
tp4508
a(g4264
(S's\n\x00\x00\x00Stylesheet'
tRp4509
I00
S'/admin/default/edit/SlugBarter/static/css/web2py.css'
tp4510
a(g4264
(S's\x08\x00\x00\x00DB Model'
tRp4511
I00
S'/admin/default/edit/SlugBarter/models/db.py'
tp4512
a(g4264
(S's\n\x00\x00\x00Menu Model'
tRp4513
I00
S'/admin/default/edit/SlugBarter/models/menu.py'
tp4514
a(g4264
(S's\x08\x00\x00\x00Database'
tRp4515
I00
S'/SlugBarter/appadmin/index'
tp4516
a(g4264
(S's\x06\x00\x00\x00Errors'
tRp4517
I00
S'/admin/default/errors/SlugBarter'
tp4518
a(g4264
(S's\x05\x00\x00\x00About'
tRp4519
I00
S'/admin/default/about/SlugBarter'
tp4520
aasbasbasbasbasbasbasbag61
(g77
g63
NtRp4521
(dp4522
g66
(dp4523
sg75
g4378
sg68
(lp4524
g61
(g82
g63
NtRp4525
(dp4526
g66
(dp4527
sg75
g4521
sg68
(lp4528
g61
(g62
g63
NtRp4529
(dp4530
g66
(dp4531
g74
I2
ssg75
g4525
sg68
(lp4532
g61
(g70
g63
NtRp4533
(dp4534
g66
(dp4535
g74
I1
ssg75
Nsg68
(lp4536
g61
(g77
g63
NtRp4537
(dp4538
g66
(dp4539
sg75
g4533
sg68
(lp4540
g61
(g82
g63
NtRp4541
(dp4542
g66
(dp4543
sg75
g4537
sg68
(lp4544
g61
(g62
g63
NtRp4545
(dp4546
g66
(dp4547
g74
I1
ssg75
g4541
sg68
(lp4548
S'web2py.com'
p4549
asbasbasbag61
(g77
g63
NtRp4550
(dp4551
g66
(dp4552
sg75
g4533
sg68
(lp4553
g61
(g82
g63
NtRp4554
(dp4555
g66
(dp4556
sg75
g4550
sg68
(lp4557
g61
(g62
g63
NtRp4558
(dp4559
g66
(dp4560
g74
I1
ssg75
g4554
sg68
(lp4561
I00
asbasbasbag61
(g77
g63
NtRp4562
(dp4563
g66
(dp4564
sg75
g4533
sg68
(lp4565
g61
(g82
g63
NtRp4566
(dp4567
g66
(dp4568
sg75
g4562
sg68
(lp4569
g61
(g62
g63
NtRp4570
(dp4571
g66
(dp4572
g74
I1
ssg75
g4566
sg68
(lp4573
S'http://www.web2py.com'
p4574
asbasbasbag61
(g77
g63
NtRp4575
(dp4576
g66
(dp4577
sg75
g4533
sg68
(lp4578
g61
(g82
g63
NtRp4579
(dp4580
g66
(dp4581
sg75
g4575
sg68
(lp4582
g61
(g62
g63
NtRp4583
(dp4584
g66
(dp4585
g74
I1
ssg75
g4579
sg68
(lp4586
(lp4587
(g4264
(S's\x08\x00\x00\x00Download'
tRp4588
I00
S'http://www.web2py.com/examples/default/download'
p4589
tp4590
a(g4264
(S's\x07\x00\x00\x00Support'
tRp4591
I00
S'http://www.web2py.com/examples/default/support'
p4592
tp4593
a(g4264
(S's\x04\x00\x00\x00Demo'
tRp4594
I00
S'http://web2py.com/demo_admin'
p4595
tp4596
a(g4264
(S's\x0e\x00\x00\x00Quick Examples'
tRp4597
I00
S'http://web2py.com/examples/default/examples'
p4598
tp4599
a(g4264
(S's\x03\x00\x00\x00FAQ'
tRp4600
I00
S'http://web2py.com/AlterEgo'
p4601
tp4602
a(g4264
(S's\x06\x00\x00\x00Videos'
tRp4603
I00
S'http://www.web2py.com/examples/default/videos/'
p4604
tp4605
a(g4264
(S's\x11\x00\x00\x00Free Applications'
tRp4606
I00
S'http://web2py.com/appliances'
p4607
tp4608
a(g4264
(S's\x07\x00\x00\x00Plugins'
tRp4609
I00
S'http://web2py.com/plugins'
p4610
tp4611
a(g4264
(S's\x07\x00\x00\x00Layouts'
tRp4612
I00
S'http://web2py.com/layouts'
p4613
tp4614
a(g4264
(S's\x07\x00\x00\x00Recipes'
tRp4615
I00
S'http://web2pyslices.com/'
p4616
tp4617
a(g4264
(S's\x08\x00\x00\x00Semantic'
tRp4618
I00
S'http://web2py.com/semantic'
p4619
tp4620
aasbasbasbasbasbasbasbag61
(g77
g63
NtRp4621
(dp4622
g66
(dp4623
sg75
g4378
sg68
(lp4624
g61
(g82
g63
NtRp4625
(dp4626
g66
(dp4627
sg75
g4621
sg68
(lp4628
g61
(g62
g63
NtRp4629
(dp4630
g66
(dp4631
g74
I2
ssg75
g4625
sg68
(lp4632
g61
(g70
g63
NtRp4633
(dp4634
g66
(dp4635
g74
I1
ssg75
Nsg68
(lp4636
g61
(g77
g63
NtRp4637
(dp4638
g66
(dp4639
sg75
g4633
sg68
(lp4640
g61
(g82
g63
NtRp4641
(dp4642
g66
(dp4643
sg75
g4637
sg68
(lp4644
g61
(g62
g63
NtRp4645
(dp4646
g66
(dp4647
g74
I1
ssg75
g4641
sg68
(lp4648
g4264
(S's\r\x00\x00\x00Documentation'
tRp4649
asbasbasbag61
(g77
g63
NtRp4650
(dp4651
g66
(dp4652
sg75
g4633
sg68
(lp4653
g61
(g82
g63
NtRp4654
(dp4655
g66
(dp4656
sg75
g4650
sg68
(lp4657
g61
(g62
g63
NtRp4658
(dp4659
g66
(dp4660
g74
I1
ssg75
g4654
sg68
(lp4661
I00
asbasbasbag61
(g77
g63
NtRp4662
(dp4663
g66
(dp4664
sg75
g4633
sg68
(lp4665
g61
(g82
g63
NtRp4666
(dp4667
g66
(dp4668
sg75
g4662
sg68
(lp4669
g61
(g62
g63
NtRp4670
(dp4671
g66
(dp4672
g74
I1
ssg75
g4666
sg68
(lp4673
S'http://www.web2py.com/book'
p4674
asbasbasbag61
(g77
g63
NtRp4675
(dp4676
g66
(dp4677
sg75
g4633
sg68
(lp4678
g61
(g82
g63
NtRp4679
(dp4680
g66
(dp4681
sg75
g4675
sg68
(lp4682
g61
(g62
g63
NtRp4683
(dp4684
g66
(dp4685
g74
I1
ssg75
g4679
sg68
(lp4686
(lp4687
(g4264
(S's\x07\x00\x00\x00Preface'
tRp4688
I00
S'http://www.web2py.com/book/default/chapter/00'
p4689
tp4690
a(g4264
(S's\x0c\x00\x00\x00Introduction'
tRp4691
I00
S'http://www.web2py.com/book/default/chapter/01'
p4692
tp4693
a(g4264
(S's\x06\x00\x00\x00Python'
tRp4694
I00
S'http://www.web2py.com/book/default/chapter/02'
p4695
tp4696
a(g4264
(S's\x08\x00\x00\x00Overview'
tRp4697
I00
S'http://www.web2py.com/book/default/chapter/03'
p4698
tp4699
a(g4264
(S's\x08\x00\x00\x00The Core'
tRp4700
I00
S'http://www.web2py.com/book/default/chapter/04'
p4701
tp4702
a(g4264
(S's\t\x00\x00\x00The Views'
tRp4703
I00
S'http://www.web2py.com/book/default/chapter/05'
p4704
tp4705
a(g4264
(S's\x08\x00\x00\x00Database'
tRp4706
I00
S'http://www.web2py.com/book/default/chapter/06'
p4707
tp4708
a(g4264
(S's\x14\x00\x00\x00Forms and Validators'
tRp4709
I00
S'http://www.web2py.com/book/default/chapter/07'
p4710
tp4711
a(g4264
(S's\r\x00\x00\x00Email and SMS'
tRp4712
I00
S'http://www.web2py.com/book/default/chapter/08'
p4713
tp4714
a(g4264
(S's\x0e\x00\x00\x00Access Control'
tRp4715
I00
S'http://www.web2py.com/book/default/chapter/09'
p4716
tp4717
a(g4264
(S's\x08\x00\x00\x00Services'
tRp4718
I00
S'http://www.web2py.com/book/default/chapter/10'
p4719
tp4720
a(g4264
(S's\x0c\x00\x00\x00Ajax Recipes'
tRp4721
I00
S'http://www.web2py.com/book/default/chapter/11'
p4722
tp4723
a(g4264
(S's\x16\x00\x00\x00Components and Plugins'
tRp4724
I00
S'http://www.web2py.com/book/default/chapter/12'
p4725
tp4726
a(g4264
(S's\x12\x00\x00\x00Deployment Recipes'
tRp4727
I00
S'http://www.web2py.com/book/default/chapter/13'
p4728
tp4729
a(g4264
(S's\r\x00\x00\x00Other Recipes'
tRp4730
I00
S'http://www.web2py.com/book/default/chapter/14'
p4731
tp4732
a(g4264
(S's\r\x00\x00\x00Buy this book'
tRp4733
I00
S'http://stores.lulu.com/web2py'
p4734
tp4735
aasbasbasbasbasbasbasbag61
(g77
g63
NtRp4736
(dp4737
g66
(dp4738
sg75
g4378
sg68
(lp4739
g61
(g82
g63
NtRp4740
(dp4741
g66
(dp4742
sg75
g4736
sg68
(lp4743
g61
(g62
g63
NtRp4744
(dp4745
g66
(dp4746
g74
I2
ssg75
g4740
sg68
(lp4747
g61
(g70
g63
NtRp4748
(dp4749
g66
(dp4750
g74
I1
ssg75
Nsg68
(lp4751
g61
(g77
g63
NtRp4752
(dp4753
g66
(dp4754
sg75
g4748
sg68
(lp4755
g61
(g82
g63
NtRp4756
(dp4757
g66
(dp4758
sg75
g4752
sg68
(lp4759
g61
(g62
g63
NtRp4760
(dp4761
g66
(dp4762
g74
I1
ssg75
g4756
sg68
(lp4763
g4264
(S's\t\x00\x00\x00Community'
tRp4764
asbasbasbag61
(g77
g63
NtRp4765
(dp4766
g66
(dp4767
sg75
g4748
sg68
(lp4768
g61
(g82
g63
NtRp4769
(dp4770
g66
(dp4771
sg75
g4765
sg68
(lp4772
g61
(g62
g63
NtRp4773
(dp4774
g66
(dp4775
g74
I1
ssg75
g4769
sg68
(lp4776
I00
asbasbasbag61
(g77
g63
NtRp4777
(dp4778
g66
(dp4779
sg75
g4748
sg68
(lp4780
g61
(g82
g63
NtRp4781
(dp4782
g66
(dp4783
sg75
g4777
sg68
(lp4784
g61
(g62
g63
NtRp4785
(dp4786
g66
(dp4787
g74
I1
ssg75
g4781
sg68
(lp4788
Nasbasbasbag61
(g77
g63
NtRp4789
(dp4790
g66
(dp4791
sg75
g4748
sg68
(lp4792
g61
(g82
g63
NtRp4793
(dp4794
g66
(dp4795
sg75
g4789
sg68
(lp4796
g61
(g62
g63
NtRp4797
(dp4798
g66
(dp4799
g74
I1
ssg75
g4793
sg68
(lp4800
(lp4801
(g4264
(S's\x06\x00\x00\x00Groups'
tRp4802
I00
S'http://www.web2py.com/examples/default/usergroups'
p4803
tp4804
a(g4264
(S's\x07\x00\x00\x00Twitter'
tRp4805
I00
S'http://twitter.com/web2py'
p4806
tp4807
a(g4264
(S's\t\x00\x00\x00Live Chat'
tRp4808
I00
S'http://webchat.freenode.net/?channels=web2py'
p4809
tp4810
aasbasbasbasbasbasbasbag61
(g77
g63
NtRp4811
(dp4812
g66
(dp4813
sg75
g4378
sg68
(lp4814
g61
(g82
g63
NtRp4815
(dp4816
g66
(dp4817
sg75
g4811
sg68
(lp4818
g61
(g62
g63
NtRp4819
(dp4820
g66
(dp4821
g74
I2
ssg75
g4815
sg68
(lp4822
g61
(g70
g63
NtRp4823
(dp4824
g66
(dp4825
g74
I1
ssg75
Nsg68
(lp4826
g61
(g77
g63
NtRp4827
(dp4828
g66
(dp4829
sg75
g4823
sg68
(lp4830
g61
(g82
g63
NtRp4831
(dp4832
g66
(dp4833
sg75
g4827
sg68
(lp4834
g61
(g62
g63
NtRp4835
(dp4836
g66
(dp4837
g74
I1
ssg75
g4831
sg68
(lp4838
g4264
(S's\x07\x00\x00\x00Plugins'
tRp4839
asbasbasbag61
(g77
g63
NtRp4840
(dp4841
g66
(dp4842
sg75
g4823
sg68
(lp4843
g61
(g82
g63
NtRp4844
(dp4845
g66
(dp4846
sg75
g4840
sg68
(lp4847
g61
(g62
g63
NtRp4848
(dp4849
g66
(dp4850
g74
I1
ssg75
g4844
sg68
(lp4851
I00
asbasbasbag61
(g77
g63
NtRp4852
(dp4853
g66
(dp4854
sg75
g4823
sg68
(lp4855
g61
(g82
g63
NtRp4856
(dp4857
g66
(dp4858
sg75
g4852
sg68
(lp4859
g61
(g62
g63
NtRp4860
(dp4861
g66
(dp4862
g74
I1
ssg75
g4856
sg68
(lp4863
Nasbasbasbag61
(g77
g63
NtRp4864
(dp4865
g66
(dp4866
sg75
g4823
sg68
(lp4867
g61
(g82
g63
NtRp4868
(dp4869
g66
(dp4870
sg75
g4864
sg68
(lp4871
g61
(g62
g63
NtRp4872
(dp4873
g66
(dp4874
g74
I1
ssg75
g4868
sg68
(lp4875
(lp4876
(S'plugin_wiki'
p4877
I00
S'http://web2py.com/examples/default/download'
p4878
tp4879
a(g4264
(S's\r\x00\x00\x00Other Plugins'
tRp4880
I00
g4610
tp4881
a(g4264
(S's\x0e\x00\x00\x00Layout Plugins'
tRp4882
I00
g4613
tp4883
aasbasbasbasbasbasbasbasbasbasbasbasbasbasbasbasbasbasbasbag61
(g77
g63
NtRp4884
(dp4885
g66
(dp4886
sg75
g3728
sg68
(lp4887
g61
(g82
g63
NtRp4888
(dp4889
g66
(dp4890
g86
g87
ssg75
g4884
sg68
(lp4891
S'meta'
p4892
asbag61
(g82
g63
NtRp4893
(dp4894
g66
(dp4895
g93
g94
ssg75
g4884
sg68
(lp4896
S':'
asbag61
(g82
g63
NtRp4897
(dp4898
g66
(dp4899
sg75
g4884
sg68
(lp4900
g61
(g62
g63
NtRp4901
(dp4902
g66
(dp4903
g74
I5
ssg75
g4897
sg68
(lp4904
g61
(g70
g63
NtRp4905
(dp4906
g66
(dp4907
g74
I4
ssg75
Nsg68
(lp4908
g61
(g77
g63
NtRp4909
(dp4910
g66
(dp4911
sg75
g4905
sg68
(lp4912
g61
(g82
g63
NtRp4913
(dp4914
g66
(dp4915
g86
g87
ssg75
g4909
sg68
(lp4916
S'author'
p4917
asbag61
(g82
g63
NtRp4918
(dp4919
g66
(dp4920
g93
g94
ssg75
g4909
sg68
(lp4921
S':'
asbag61
(g82
g63
NtRp4922
(dp4923
g66
(dp4924
sg75
g4909
sg68
(lp4925
g61
(g62
g63
NtRp4926
(dp4927
g66
(dp4928
g74
I4
ssg75
g4922
sg68
(lp4929
S'Your Name <you@example.com>'
p4930
asbasbasbag61
(g77
g63
NtRp4931
(dp4932
g66
(dp4933
sg75
g4905
sg68
(lp4934
g61
(g82
g63
NtRp4935
(dp4936
g66
(dp4937
g86
g87
ssg75
g4931
sg68
(lp4938
S'copyright'
p4939
asbag61
(g82
g63
NtRp4940
(dp4941
g66
(dp4942
g93
g94
ssg75
g4931
sg68
(lp4943
S':'
asbag61
(g82
g63
NtRp4944
(dp4945
g66
(dp4946
sg75
g4931
sg68
(lp4947
g61
(g62
g63
NtRp4948
(dp4949
g66
(dp4950
g74
I4
ssg75
g4944
sg68
(lp4951
S'Copyright 2011'
p4952
asbasbasbag61
(g77
g63
NtRp4953
(dp4954
g66
(dp4955
sg75
g4905
sg68
(lp4956
g61
(g82
g63
NtRp4957
(dp4958
g66
(dp4959
g86
g87
ssg75
g4953
sg68
(lp4960
S'description'
p4961
asbag61
(g82
g63
NtRp4962
(dp4963
g66
(dp4964
g93
g94
ssg75
g4953
sg68
(lp4965
S':'
asbag61
(g82
g63
NtRp4966
(dp4967
g66
(dp4968
sg75
g4953
sg68
(lp4969
g61
(g62
g63
NtRp4970
(dp4971
g66
(dp4972
g74
I4
ssg75
g4966
sg68
(lp4973
S'a cool new app'
p4974
asbasbasbag61
(g77
g63
NtRp4975
(dp4976
g66
(dp4977
sg75
g4905
sg68
(lp4978
g61
(g82
g63
NtRp4979
(dp4980
g66
(dp4981
g86
g87
ssg75
g4975
sg68
(lp4982
S'generator'
p4983
asbag61
(g82
g63
NtRp4984
(dp4985
g66
(dp4986
g93
g94
ssg75
g4975
sg68
(lp4987
S':'
asbag61
(g82
g63
NtRp4988
(dp4989
g66
(dp4990
sg75
g4975
sg68
(lp4991
g61
(g62
g63
NtRp4992
(dp4993
g66
(dp4994
g74
I4
ssg75
g4988
sg68
(lp4995
S'Web2py Web Framework'
p4996
asbasbasbag61
(g77
g63
NtRp4997
(dp4998
g66
(dp4999
sg75
g4905
sg68
(lp5000
g61
(g82
g63
NtRp5001
(dp5002
g66
(dp5003
g86
g87
ssg75
g4997
sg68
(lp5004
S'keywords'
p5005
asbag61
(g82
g63
NtRp5006
(dp5007
g66
(dp5008
g93
g94
ssg75
g4997
sg68
(lp5009
S':'
asbag61
(g82
g63
NtRp5010
(dp5011
g66
(dp5012
sg75
g4997
sg68
(lp5013
g61
(g62
g63
NtRp5014
(dp5015
g66
(dp5016
g74
I4
ssg75
g5010
sg68
(lp5017
S'web2py, python, framework'
p5018
asbasbasbasbasbasbasbag61
(g77
g63
NtRp5019
(dp5020
g66
(dp5021
sg75
g3728
sg68
(lp5022
g61
(g82
g63
NtRp5023
(dp5024
g66
(dp5025
g86
g87
ssg75
g5019
sg68
(lp5026
S'postprocessing'
p5027
asbag61
(g82
g63
NtRp5028
(dp5029
g66
(dp5030
g93
g94
ssg75
g5019
sg68
(lp5031
S':'
asbag61
(g82
g63
NtRp5032
(dp5033
g66
(dp5034
sg75
g5019
sg68
(lp5035
g61
(g62
g63
NtRp5036
(dp5037
g66
(dp5038
g74
I5
ssg75
g5032
sg68
(lp5039
g61
(g70
g63
NtRp5040
(dp5041
g66
(dp5042
g74
I4
ssg75
Nsg68
(lp5043
sbasbasbasbag61
(g77
g63
NtRp5044
(dp5045
g66
(dp5046
sg75
g3728
sg68
(lp5047
g61
(g82
g63
NtRp5048
(dp5049
g66
(dp5050
g86
g87
ssg75
g5044
sg68
(lp5051
S'session_file'
p5052
asbag61
(g82
g63
NtRp5053
(dp5054
g66
(dp5055
g93
g94
ssg75
g5044
sg68
(lp5056
S':'
asbag61
(g82
g63
NtRp5057
(dp5058
g66
(dp5059
sg75
g5044
sg68
(lp5060
g61
(g62
g63
NtRp5061
(dp5062
g66
(dp5063
g74
I5
ssg75
g5057
sg68
(lp5064
S"<open file 'C:\\Users\\omkara\\Desktop\\web2py\\applications\\SlugBarter\\sessions\\127.0.0.1-e6ebae72-1bbc-48a5-9458-95dbb65a4e54', mode 'rb+' at 0x0641C800>"
p5065
asbasbasbag61
(g77
g63
NtRp5066
(dp5067
g66
(dp5068
sg75
g3728
sg68
(lp5069
g61
(g82
g63
NtRp5070
(dp5071
g66
(dp5072
g86
g87
ssg75
g5066
sg68
(lp5073
S'session_filename'
p5074
asbag61
(g82
g63
NtRp5075
(dp5076
g66
(dp5077
g93
g94
ssg75
g5066
sg68
(lp5078
S':'
asbag61
(g82
g63
NtRp5079
(dp5080
g66
(dp5081
sg75
g5066
sg68
(lp5082
g61
(g62
g63
NtRp5083
(dp5084
g66
(dp5085
g74
I5
ssg75
g5079
sg68
(lp5086
S'C:\\Users\\omkara\\Desktop\\web2py\\applications\\SlugBarter\\sessions\\127.0.0.1-e6ebae72-1bbc-48a5-9458-95dbb65a4e54'
p5087
asbasbasbag61
(g77
g63
NtRp5088
(dp5089
g66
(dp5090
sg75
g3728
sg68
(lp5091
g61
(g82
g63
NtRp5092
(dp5093
g66
(dp5094
g86
g87
ssg75
g5088
sg68
(lp5095
S'session_id'
p5096
asbag61
(g82
g63
NtRp5097
(dp5098
g66
(dp5099
g93
g94
ssg75
g5088
sg68
(lp5100
S':'
asbag61
(g82
g63
NtRp5101
(dp5102
g66
(dp5103
sg75
g5088
sg68
(lp5104
g61
(g62
g63
NtRp5105
(dp5106
g66
(dp5107
g74
I5
ssg75
g5101
sg68
(lp5108
S'127.0.0.1-e6ebae72-1bbc-48a5-9458-95dbb65a4e54'
p5109
asbasbasbag61
(g77
g63
NtRp5110
(dp5111
g66
(dp5112
sg75
g3728
sg68
(lp5113
g61
(g82
g63
NtRp5114
(dp5115
g66
(dp5116
g86
g87
ssg75
g5110
sg68
(lp5117
S'session_id_name'
p5118
asbag61
(g82
g63
NtRp5119
(dp5120
g66
(dp5121
g93
g94
ssg75
g5110
sg68
(lp5122
S':'
asbag61
(g82
g63
NtRp5123
(dp5124
g66
(dp5125
sg75
g5110
sg68
(lp5126
g61
(g62
g63
NtRp5127
(dp5128
g66
(dp5129
g74
I5
ssg75
g5123
sg68
(lp5130
g3785
asbasbasbag61
(g77
g63
NtRp5131
(dp5132
g66
(dp5133
sg75
g3728
sg68
(lp5134
g61
(g82
g63
NtRp5135
(dp5136
g66
(dp5137
g86
g87
ssg75
g5131
sg68
(lp5138
S'session_locked'
p5139
asbag61
(g82
g63
NtRp5140
(dp5141
g66
(dp5142
g93
g94
ssg75
g5131
sg68
(lp5143
S':'
asbag61
(g82
g63
NtRp5144
(dp5145
g66
(dp5146
sg75
g5131
sg68
(lp5147
g61
(g62
g63
NtRp5148
(dp5149
g66
(dp5150
g74
I5
ssg75
g5144
sg68
(lp5151
g1973
asbasbasbag61
(g77
g63
NtRp5152
(dp5153
g66
(dp5154
sg75
g3728
sg68
(lp5155
g61
(g82
g63
NtRp5156
(dp5157
g66
(dp5158
g86
g87
ssg75
g5152
sg68
(lp5159
S'session_new'
p5160
asbag61
(g82
g63
NtRp5161
(dp5162
g66
(dp5163
g93
g94
ssg75
g5152
sg68
(lp5164
S':'
asbag61
(g82
g63
NtRp5165
(dp5166
g66
(dp5167
sg75
g5152
sg68
(lp5168
g61
(g62
g63
NtRp5169
(dp5170
g66
(dp5171
g74
I5
ssg75
g5165
sg68
(lp5172
g104
asbasbasbag61
(g77
g63
NtRp5173
(dp5174
g66
(dp5175
sg75
g3728
sg68
(lp5176
g61
(g82
g63
NtRp5177
(dp5178
g66
(dp5179
g86
g87
ssg75
g5173
sg68
(lp5180
S'status'
p5181
asbag61
(g82
g63
NtRp5182
(dp5183
g66
(dp5184
g93
g94
ssg75
g5173
sg68
(lp5185
S':'
asbag61
(g82
g63
NtRp5186
(dp5187
g66
(dp5188
sg75
g5173
sg68
(lp5189
g61
(g62
g63
NtRp5190
(dp5191
g66
(dp5192
g74
I5
ssg75
g5186
sg68
(lp5193
S'200'
p5194
asbasbasbag61
(g77
g63
NtRp5195
(dp5196
g66
(dp5197
sg75
g3728
sg68
(lp5198
g61
(g82
g63
NtRp5199
(dp5200
g66
(dp5201
g86
g87
ssg75
g5195
sg68
(lp5202
S'subtitle'
p5203
asbag61
(g82
g63
NtRp5204
(dp5205
g66
(dp5206
g93
g94
ssg75
g5195
sg68
(lp5207
S':'
asbag61
(g82
g63
NtRp5208
(dp5209
g66
(dp5210
sg75
g5195
sg68
(lp5211
g61
(g62
g63
NtRp5212
(dp5213
g66
(dp5214
g74
I5
ssg75
g5208
sg68
(lp5215
g4264
(S's\r\x00\x00\x00customize me!'
tRp5216
asbasbasbag61
(g77
g63
NtRp5217
(dp5218
g66
(dp5219
sg75
g3728
sg68
(lp5220
g61
(g82
g63
NtRp5221
(dp5222
g66
(dp5223
g86
g87
ssg75
g5217
sg68
(lp5224
S'title'
p5225
asbag61
(g82
g63
NtRp5226
(dp5227
g66
(dp5228
g93
g94
ssg75
g5217
sg68
(lp5229
S':'
asbag61
(g82
g63
NtRp5230
(dp5231
g66
(dp5232
sg75
g5217
sg68
(lp5233
g61
(g62
g63
NtRp5234
(dp5235
g66
(dp5236
g74
I5
ssg75
g5230
sg68
(lp5237
S'Slugbarter'
p5238
asbasbasbag61
(g77
g63
NtRp5239
(dp5240
g66
(dp5241
sg75
g3728
sg68
(lp5242
g61
(g82
g63
NtRp5243
(dp5244
g66
(dp5245
g86
g87
ssg75
g5239
sg68
(lp5246
g2637
asbag61
(g82
g63
NtRp5247
(dp5248
g66
(dp5249
g93
g94
ssg75
g5239
sg68
(lp5250
S':'
asbag61
(g82
g63
NtRp5251
(dp5252
g66
(dp5253
sg75
g5239
sg68
(lp5254
g61
(g62
g63
NtRp5255
(dp5256
g66
(dp5257
g74
I5
ssg75
g5251
sg68
(lp5258
g2650
asbasbasbag61
(g77
g63
NtRp5259
(dp5260
g66
(dp5261
sg75
g3728
sg68
(lp5262
g61
(g82
g63
NtRp5263
(dp5264
g66
(dp5265
g86
g87
ssg75
g5259
sg68
(lp5266
S'view'
p5267
asbag61
(g82
g63
NtRp5268
(dp5269
g66
(dp5270
g93
g94
ssg75
g5259
sg68
(lp5271
S':'
asbag61
(g82
g63
NtRp5272
(dp5273
g66
(dp5274
sg75
g5259
sg68
(lp5275
g61
(g62
g63
NtRp5276
(dp5277
g66
(dp5278
g74
I5
ssg75
g5272
sg68
(lp5279
S'default/index.html'
p5280
asbasbasbasbasbsS'locals'
p5281
(dp5282
S'polymodel'
p5283
S'None'
p5284
sS'lowertablename'
p5285
S"'auth_user'"
p5286
sS'singular'
p5287
S"'Auth user'"
p5288
sS'migrate'
p5289
g1973
sS'fields'
p5290
S'(<gluon.dal.Field object at 0x063EBAF0>, <gluon.dal.Field object at 0x063EB870>, <gluon.dal.Field object at 0x063EB790>, <gluon.dal.Field object at 0x063EB830>, <gluon.dal.Field object at 0x063EB050>, <gluon.dal.Field object at 0x063EB6D0>, <gluon.dal.Field object at 0x063EB5B0>, <gluon.dal.Field object at 0x063EB650>, <gluon.dal.Field object at 0x063EB1B0>, <gluon.dal.Field object at 0x063EB170>, <gluon.dal.Field object at 0x063EB110>)'
p5291
sS'sequence_name'
p5292
S'None'
p5293
sg48
g21
sS'tablename'
p5294
S"'auth_user'"
p5295
sS'fake_migrate'
p5296
g104
sS'self'
p5297
S"<DAL {'auth_event': <Table {'origin': <gluon.dal..._key': <gluon.dal.Field object at 0x06163CF0>}>}>"
p5298
sS'table_class'
p5299
S"<class 'gluon.dal.Table'>"
p5300
sS'format'
p5301
S'None'
p5302
sS'trigger_name'
p5303
S'None'
p5304
sS'plural'
p5305
S"'Auth users'"
p5306
sS'primarykey'
p5307
S'None'
p5308
sssS'traceback'
p5309
S'Traceback (most recent call last):\n  File "gluon/restricted.py", line 205, in restricted\n  File "C:\\Users\\omkara\\Desktop\\web2py\\applications\\SlugBarter\\models\\registerForm.py", line 22, in <module>\n  File "gluon/dal.py", line 6292, in define_table\nSyntaxError: invalid table name: auth_user\n'
p5310
s.