(dp1
S'output'
p2
S"<type 'exceptions.AttributeError'> 'function' object has no attribute 'login'"
p3
sS'layer'
p4
S'C:\\Users\\omkara\\Desktop\\web2py\\applications\\SlugBarter\\controllers/default.py'
p5
sS'code'
p6
S'# -*- coding: utf-8 -*-\n# this file is released under public domain and you can use without limitations\n\n#########################################################################\n## This is a samples controller\n## - index is the default action of any application\n## - user is required for authentication and authorization\n## - download is for downloading files uploaded in the db (does streaming)\n## - call exposes all registered services (none by default)\n#########################################################################\n\n#controller for when the user is at index page\ndef index():\n  return dict()\n    \n#controller for when the user registers\ndef register():\n    return dict(form = auth.register())\n   \n#controller for when the user login\ndef login(): \n  form = auth.login()\n  session.userName = form.vars.name\n  return dict(form = form)\n    \ndef mypage():\n    username = session.userName\n    return dict(username = username)\n    \n@auth.requires.login   \ndef postlisting():\n    form = SQLFORM(db.listing)\n    if form.process().accepted:\n        session.flash = T(\'Accepted\')\n    elif form.errors:\n        session.flash = T(\'Form has errors\')\n    else:\n        session.flash = T("Please complete all the information in the form")\n        \n    return dict(form = form)\n    \ndef user():\n    """\n    exposes:\n    http://..../[app]/default/user/login\n    http://..../[app]/default/user/logout\n    http://..../[app]/default/user/register\n    http://..../[app]/default/user/profile\n    http://..../[app]/default/user/retrieve_password\n    http://..../[app]/default/user/change_password\n    use @auth.requires_login()\n        @auth.requires_membership(\'group name\')\n        @auth.requires_permission(\'read\',\'table name\',record_id)\n    to decorate functions that need access control\n    """\n    return dict(form=auth())\n\n\ndef download():\n    """\n    allows downloading of uploaded files\n    http://..../[app]/default/download/[filename]\n    """\n    return response.download(request,db)\n\n\ndef call():\n    """\n    exposes services. for example:\n    http://..../[app]/default/call/jsonrpc\n    decorate with @services.jsonrpc the functions to expose\n    supports xml, json, xmlrpc, jsonrpc, amfrpc, rss, csv\n    """\n    return service()\n\n\n@auth.requires_signature()\ndef data():\n    """\n    http://..../[app]/default/data/tables\n    http://..../[app]/default/data/create/[table]\n    http://..../[app]/default/data/read/[table]/[id]\n    http://..../[app]/default/data/update/[table]/[id]\n    http://..../[app]/default/data/delete/[table]/[id]\n    http://..../[app]/default/data/select/[table]\n    http://..../[app]/default/data/search/[table]\n    but URLs must be signed, i.e. linked with\n      A(\'table\',_href=URL(\'data/tables\',user_signature=True))\n    or with the signed load operator\n      LOAD(\'default\',\'data.load\',args=\'tables\',ajax=True,user_signature=True)\n    """\n    return dict(form=crud())\n\nresponse._vars=response._caller(postlisting)\n'
p7
sS'snapshot'
p8
(dp9
S'exception'
p10
(dp11
S'__hash__'
p12
S"<method-wrapper '__hash__' of exceptions.AttributeError object at 0x06AFB580>"
p13
sS'__setattr__'
p14
S"<method-wrapper '__setattr__' of exceptions.AttributeError object at 0x06AFB580>"
p15
sS'__reduce_ex__'
p16
S'<built-in method __reduce_ex__ of exceptions.AttributeError object at 0x06AFB580>'
p17
sS'__getslice__'
p18
S"<method-wrapper '__getslice__' of exceptions.AttributeError object at 0x06AFB580>"
p19
sS'__getitem__'
p20
S"<method-wrapper '__getitem__' of exceptions.AttributeError object at 0x06AFB580>"
p21
sS'__setstate__'
p22
S'<built-in method __setstate__ of exceptions.AttributeError object at 0x06AFB580>'
p23
sS'__reduce__'
p24
S'<built-in method __reduce__ of exceptions.AttributeError object at 0x06AFB580>'
p25
sS'__str__'
p26
S"<method-wrapper '__str__' of exceptions.AttributeError object at 0x06AFB580>"
p27
sS'args'
p28
S'("\'function\' object has no attribute \'login\'",)'
p29
sS'__getattribute__'
p30
S"<method-wrapper '__getattribute__' of exceptions.AttributeError object at 0x06AFB580>"
p31
sS'__class__'
p32
S"<type 'exceptions.AttributeError'>"
p33
sS'__delattr__'
p34
S"<method-wrapper '__delattr__' of exceptions.AttributeError object at 0x06AFB580>"
p35
sS'__repr__'
p36
S"<method-wrapper '__repr__' of exceptions.AttributeError object at 0x06AFB580>"
p37
sS'__dict__'
p38
S'{}'
p39
sS'__doc__'
p40
S"'Attribute not found.'"
p41
sS'__init__'
p42
S"<method-wrapper '__init__' of exceptions.AttributeError object at 0x06AFB580>"
p43
sS'__new__'
p44
S'<built-in method __new__ of type object at 0x1E1CDA68>'
p45
ssS'evalue'
p46
S"'function' object has no attribute 'login'"
p47
sS'request'
p48
ccopy_reg
_reconstructor
p49
(cgluon.html
BEAUTIFY
p50
c__builtin__
object
p51
NtRp52
(dp53
S'attributes'
p54
(dp55
sS'components'
p56
(lp57
g49
(cgluon.html
TABLE
p58
g51
NtRp59
(dp60
g54
(dp61
S'level'
p62
I5
ssS'parent'
p63
Nsg56
(lp64
g49
(cgluon.html
TR
p65
g51
NtRp66
(dp67
g54
(dp68
sg63
g59
sg56
(lp69
g49
(cgluon.html
TD
p70
g51
NtRp71
(dp72
g54
(dp73
S'_style'
p74
S'font-weight:bold;vertical-align:top'
p75
ssg63
g66
sg56
(lp76
S'ajax'
p77
asbag49
(g70
g51
NtRp78
(dp79
g54
(dp80
S'_valign'
p81
S'top'
p82
ssg63
g66
sg56
(lp83
S':'
asbag49
(g70
g51
NtRp84
(dp85
g54
(dp86
sg63
g66
sg56
(lp87
g49
(g50
g51
NtRp88
(dp89
g54
(dp90
g62
I5
ssg63
g84
sg56
(lp91
S'False'
p92
asbasbasbag49
(g65
g51
NtRp93
(dp94
g54
(dp95
sg63
g59
sg56
(lp96
g49
(g70
g51
NtRp97
(dp98
g54
(dp99
g74
g75
ssg63
g93
sg56
(lp100
S'application'
p101
asbag49
(g70
g51
NtRp102
(dp103
g54
(dp104
g81
g82
ssg63
g93
sg56
(lp105
S':'
asbag49
(g70
g51
NtRp106
(dp107
g54
(dp108
sg63
g93
sg56
(lp109
g49
(g50
g51
NtRp110
(dp111
g54
(dp112
g62
I5
ssg63
g106
sg56
(lp113
S'SlugBarter'
p114
asbasbasbag49
(g65
g51
NtRp115
(dp116
g54
(dp117
sg63
g59
sg56
(lp118
g49
(g70
g51
NtRp119
(dp120
g54
(dp121
g74
g75
ssg63
g115
sg56
(lp122
g28
asbag49
(g70
g51
NtRp123
(dp124
g54
(dp125
g81
g82
ssg63
g115
sg56
(lp126
S':'
asbag49
(g70
g51
NtRp127
(dp128
g54
(dp129
sg63
g115
sg56
(lp130
g49
(g50
g51
NtRp131
(dp132
g54
(dp133
g62
I5
ssg63
g127
sg56
(lp134
g49
(g58
g51
NtRp135
(dp136
g54
(dp137
g62
I4
ssg63
Nsg56
(lp138
sbasbasbasbag49
(g65
g51
NtRp139
(dp140
g54
(dp141
sg63
g59
sg56
(lp142
g49
(g70
g51
NtRp143
(dp144
g54
(dp145
g74
g75
ssg63
g139
sg56
(lp146
S'body'
p147
asbag49
(g70
g51
NtRp148
(dp149
g54
(dp150
g81
g82
ssg63
g139
sg56
(lp151
S':'
asbag49
(g70
g51
NtRp152
(dp153
g54
(dp154
sg63
g139
sg56
(lp155
g49
(g50
g51
NtRp156
(dp157
g54
(dp158
g62
I5
ssg63
g152
sg56
(lp159
S"<open file '<fdopen>', mode 'w+b' at 0x066C9CC8>"
p160
asbasbasbag49
(g65
g51
NtRp161
(dp162
g54
(dp163
sg63
g59
sg56
(lp164
g49
(g70
g51
NtRp165
(dp166
g54
(dp167
g74
g75
ssg63
g161
sg56
(lp168
S'client'
p169
asbag49
(g70
g51
NtRp170
(dp171
g54
(dp172
g81
g82
ssg63
g161
sg56
(lp173
S':'
asbag49
(g70
g51
NtRp174
(dp175
g54
(dp176
sg63
g161
sg56
(lp177
g49
(g50
g51
NtRp178
(dp179
g54
(dp180
g62
I5
ssg63
g174
sg56
(lp181
S'127.0.0.1'
p182
asbasbasbag49
(g65
g51
NtRp183
(dp184
g54
(dp185
sg63
g59
sg56
(lp186
g49
(g70
g51
NtRp187
(dp188
g54
(dp189
g74
g75
ssg63
g183
sg56
(lp190
S'controller'
p191
asbag49
(g70
g51
NtRp192
(dp193
g54
(dp194
g81
g82
ssg63
g183
sg56
(lp195
S':'
asbag49
(g70
g51
NtRp196
(dp197
g54
(dp198
sg63
g183
sg56
(lp199
g49
(g50
g51
NtRp200
(dp201
g54
(dp202
g62
I5
ssg63
g196
sg56
(lp203
S'default'
p204
asbasbasbag49
(g65
g51
NtRp205
(dp206
g54
(dp207
sg63
g59
sg56
(lp208
g49
(g70
g51
NtRp209
(dp210
g54
(dp211
g74
g75
ssg63
g205
sg56
(lp212
S'cookies'
p213
asbag49
(g70
g51
NtRp214
(dp215
g54
(dp216
g81
g82
ssg63
g205
sg56
(lp217
S':'
asbag49
(g70
g51
NtRp218
(dp219
g54
(dp220
sg63
g205
sg56
(lp221
g49
(g50
g51
NtRp222
(dp223
g54
(dp224
g62
I5
ssg63
g218
sg56
(lp225
g49
(g58
g51
NtRp226
(dp227
g54
(dp228
g62
I4
ssg63
Nsg56
(lp229
g49
(g65
g51
NtRp230
(dp231
g54
(dp232
sg63
g226
sg56
(lp233
g49
(g70
g51
NtRp234
(dp235
g54
(dp236
g74
g75
ssg63
g230
sg56
(lp237
S'session_id_admin'
p238
asbag49
(g70
g51
NtRp239
(dp240
g54
(dp241
g81
g82
ssg63
g230
sg56
(lp242
S':'
asbag49
(g70
g51
NtRp243
(dp244
g54
(dp245
sg63
g230
sg56
(lp246
g49
(g50
g51
NtRp247
(dp248
g54
(dp249
g62
I4
ssg63
g243
sg56
(lp250
g49
(g58
g51
NtRp251
(dp252
g54
(dp253
g62
I3
ssg63
Nsg56
(lp254
g49
(g65
g51
NtRp255
(dp256
g54
(dp257
sg63
g251
sg56
(lp258
g49
(g70
g51
NtRp259
(dp260
g54
(dp261
g74
g75
ssg63
g255
sg56
(lp262
S'comment'
p263
asbag49
(g70
g51
NtRp264
(dp265
g54
(dp266
g81
g82
ssg63
g255
sg56
(lp267
S':'
asbag49
(g70
g51
NtRp268
(dp269
g54
(dp270
sg63
g255
sg56
(lp271
g49
(g50
g51
NtRp272
(dp273
g54
(dp274
g62
I3
ssg63
g268
sg56
(lp275
S''
asbasbasbag49
(g65
g51
NtRp276
(dp277
g54
(dp278
sg63
g251
sg56
(lp279
g49
(g70
g51
NtRp280
(dp281
g54
(dp282
g74
g75
ssg63
g276
sg56
(lp283
S'domain'
p284
asbag49
(g70
g51
NtRp285
(dp286
g54
(dp287
g81
g82
ssg63
g276
sg56
(lp288
S':'
asbag49
(g70
g51
NtRp289
(dp290
g54
(dp291
sg63
g276
sg56
(lp292
g49
(g50
g51
NtRp293
(dp294
g54
(dp295
g62
I3
ssg63
g289
sg56
(lp296
S''
asbasbasbag49
(g65
g51
NtRp297
(dp298
g54
(dp299
sg63
g251
sg56
(lp300
g49
(g70
g51
NtRp301
(dp302
g54
(dp303
g74
g75
ssg63
g297
sg56
(lp304
S'expires'
p305
asbag49
(g70
g51
NtRp306
(dp307
g54
(dp308
g81
g82
ssg63
g297
sg56
(lp309
S':'
asbag49
(g70
g51
NtRp310
(dp311
g54
(dp312
sg63
g297
sg56
(lp313
g49
(g50
g51
NtRp314
(dp315
g54
(dp316
g62
I3
ssg63
g310
sg56
(lp317
S''
asbasbasbag49
(g65
g51
NtRp318
(dp319
g54
(dp320
sg63
g251
sg56
(lp321
g49
(g70
g51
NtRp322
(dp323
g54
(dp324
g74
g75
ssg63
g318
sg56
(lp325
S'max-age'
p326
asbag49
(g70
g51
NtRp327
(dp328
g54
(dp329
g81
g82
ssg63
g318
sg56
(lp330
S':'
asbag49
(g70
g51
NtRp331
(dp332
g54
(dp333
sg63
g318
sg56
(lp334
g49
(g50
g51
NtRp335
(dp336
g54
(dp337
g62
I3
ssg63
g331
sg56
(lp338
S''
asbasbasbag49
(g65
g51
NtRp339
(dp340
g54
(dp341
sg63
g251
sg56
(lp342
g49
(g70
g51
NtRp343
(dp344
g54
(dp345
g74
g75
ssg63
g339
sg56
(lp346
S'path'
p347
asbag49
(g70
g51
NtRp348
(dp349
g54
(dp350
g81
g82
ssg63
g339
sg56
(lp351
S':'
asbag49
(g70
g51
NtRp352
(dp353
g54
(dp354
sg63
g339
sg56
(lp355
g49
(g50
g51
NtRp356
(dp357
g54
(dp358
g62
I3
ssg63
g352
sg56
(lp359
S''
asbasbasbag49
(g65
g51
NtRp360
(dp361
g54
(dp362
sg63
g251
sg56
(lp363
g49
(g70
g51
NtRp364
(dp365
g54
(dp366
g74
g75
ssg63
g360
sg56
(lp367
S'secure'
p368
asbag49
(g70
g51
NtRp369
(dp370
g54
(dp371
g81
g82
ssg63
g360
sg56
(lp372
S':'
asbag49
(g70
g51
NtRp373
(dp374
g54
(dp375
sg63
g360
sg56
(lp376
g49
(g50
g51
NtRp377
(dp378
g54
(dp379
g62
I3
ssg63
g373
sg56
(lp380
S''
asbasbasbag49
(g65
g51
NtRp381
(dp382
g54
(dp383
sg63
g251
sg56
(lp384
g49
(g70
g51
NtRp385
(dp386
g54
(dp387
g74
g75
ssg63
g381
sg56
(lp388
S'version'
p389
asbag49
(g70
g51
NtRp390
(dp391
g54
(dp392
g81
g82
ssg63
g381
sg56
(lp393
S':'
asbag49
(g70
g51
NtRp394
(dp395
g54
(dp396
sg63
g381
sg56
(lp397
g49
(g50
g51
NtRp398
(dp399
g54
(dp400
g62
I3
ssg63
g394
sg56
(lp401
S''
asbasbasbasbasbasbasbag49
(g65
g51
NtRp402
(dp403
g54
(dp404
sg63
g226
sg56
(lp405
g49
(g70
g51
NtRp406
(dp407
g54
(dp408
g74
g75
ssg63
g402
sg56
(lp409
S'session_id_onlinenotes_p1_'
p410
asbag49
(g70
g51
NtRp411
(dp412
g54
(dp413
g81
g82
ssg63
g402
sg56
(lp414
S':'
asbag49
(g70
g51
NtRp415
(dp416
g54
(dp417
sg63
g402
sg56
(lp418
g49
(g50
g51
NtRp419
(dp420
g54
(dp421
g62
I4
ssg63
g415
sg56
(lp422
g49
(g58
g51
NtRp423
(dp424
g54
(dp425
g62
I3
ssg63
Nsg56
(lp426
g49
(g65
g51
NtRp427
(dp428
g54
(dp429
sg63
g423
sg56
(lp430
g49
(g70
g51
NtRp431
(dp432
g54
(dp433
g74
g75
ssg63
g427
sg56
(lp434
g263
asbag49
(g70
g51
NtRp435
(dp436
g54
(dp437
g81
g82
ssg63
g427
sg56
(lp438
S':'
asbag49
(g70
g51
NtRp439
(dp440
g54
(dp441
sg63
g427
sg56
(lp442
g49
(g50
g51
NtRp443
(dp444
g54
(dp445
g62
I3
ssg63
g439
sg56
(lp446
S''
asbasbasbag49
(g65
g51
NtRp447
(dp448
g54
(dp449
sg63
g423
sg56
(lp450
g49
(g70
g51
NtRp451
(dp452
g54
(dp453
g74
g75
ssg63
g447
sg56
(lp454
g284
asbag49
(g70
g51
NtRp455
(dp456
g54
(dp457
g81
g82
ssg63
g447
sg56
(lp458
S':'
asbag49
(g70
g51
NtRp459
(dp460
g54
(dp461
sg63
g447
sg56
(lp462
g49
(g50
g51
NtRp463
(dp464
g54
(dp465
g62
I3
ssg63
g459
sg56
(lp466
S''
asbasbasbag49
(g65
g51
NtRp467
(dp468
g54
(dp469
sg63
g423
sg56
(lp470
g49
(g70
g51
NtRp471
(dp472
g54
(dp473
g74
g75
ssg63
g467
sg56
(lp474
g305
asbag49
(g70
g51
NtRp475
(dp476
g54
(dp477
g81
g82
ssg63
g467
sg56
(lp478
S':'
asbag49
(g70
g51
NtRp479
(dp480
g54
(dp481
sg63
g467
sg56
(lp482
g49
(g50
g51
NtRp483
(dp484
g54
(dp485
g62
I3
ssg63
g479
sg56
(lp486
S''
asbasbasbag49
(g65
g51
NtRp487
(dp488
g54
(dp489
sg63
g423
sg56
(lp490
g49
(g70
g51
NtRp491
(dp492
g54
(dp493
g74
g75
ssg63
g487
sg56
(lp494
g326
asbag49
(g70
g51
NtRp495
(dp496
g54
(dp497
g81
g82
ssg63
g487
sg56
(lp498
S':'
asbag49
(g70
g51
NtRp499
(dp500
g54
(dp501
sg63
g487
sg56
(lp502
g49
(g50
g51
NtRp503
(dp504
g54
(dp505
g62
I3
ssg63
g499
sg56
(lp506
S''
asbasbasbag49
(g65
g51
NtRp507
(dp508
g54
(dp509
sg63
g423
sg56
(lp510
g49
(g70
g51
NtRp511
(dp512
g54
(dp513
g74
g75
ssg63
g507
sg56
(lp514
g347
asbag49
(g70
g51
NtRp515
(dp516
g54
(dp517
g81
g82
ssg63
g507
sg56
(lp518
S':'
asbag49
(g70
g51
NtRp519
(dp520
g54
(dp521
sg63
g507
sg56
(lp522
g49
(g50
g51
NtRp523
(dp524
g54
(dp525
g62
I3
ssg63
g519
sg56
(lp526
S''
asbasbasbag49
(g65
g51
NtRp527
(dp528
g54
(dp529
sg63
g423
sg56
(lp530
g49
(g70
g51
NtRp531
(dp532
g54
(dp533
g74
g75
ssg63
g527
sg56
(lp534
g368
asbag49
(g70
g51
NtRp535
(dp536
g54
(dp537
g81
g82
ssg63
g527
sg56
(lp538
S':'
asbag49
(g70
g51
NtRp539
(dp540
g54
(dp541
sg63
g527
sg56
(lp542
g49
(g50
g51
NtRp543
(dp544
g54
(dp545
g62
I3
ssg63
g539
sg56
(lp546
S''
asbasbasbag49
(g65
g51
NtRp547
(dp548
g54
(dp549
sg63
g423
sg56
(lp550
g49
(g70
g51
NtRp551
(dp552
g54
(dp553
g74
g75
ssg63
g547
sg56
(lp554
g389
asbag49
(g70
g51
NtRp555
(dp556
g54
(dp557
g81
g82
ssg63
g547
sg56
(lp558
S':'
asbag49
(g70
g51
NtRp559
(dp560
g54
(dp561
sg63
g547
sg56
(lp562
g49
(g50
g51
NtRp563
(dp564
g54
(dp565
g62
I3
ssg63
g559
sg56
(lp566
S''
asbasbasbasbasbasbasbag49
(g65
g51
NtRp567
(dp568
g54
(dp569
sg63
g226
sg56
(lp570
g49
(g70
g51
NtRp571
(dp572
g54
(dp573
g74
g75
ssg63
g567
sg56
(lp574
S'session_id_slug_register_page'
p575
asbag49
(g70
g51
NtRp576
(dp577
g54
(dp578
g81
g82
ssg63
g567
sg56
(lp579
S':'
asbag49
(g70
g51
NtRp580
(dp581
g54
(dp582
sg63
g567
sg56
(lp583
g49
(g50
g51
NtRp584
(dp585
g54
(dp586
g62
I4
ssg63
g580
sg56
(lp587
g49
(g58
g51
NtRp588
(dp589
g54
(dp590
g62
I3
ssg63
Nsg56
(lp591
g49
(g65
g51
NtRp592
(dp593
g54
(dp594
sg63
g588
sg56
(lp595
g49
(g70
g51
NtRp596
(dp597
g54
(dp598
g74
g75
ssg63
g592
sg56
(lp599
g263
asbag49
(g70
g51
NtRp600
(dp601
g54
(dp602
g81
g82
ssg63
g592
sg56
(lp603
S':'
asbag49
(g70
g51
NtRp604
(dp605
g54
(dp606
sg63
g592
sg56
(lp607
g49
(g50
g51
NtRp608
(dp609
g54
(dp610
g62
I3
ssg63
g604
sg56
(lp611
S''
asbasbasbag49
(g65
g51
NtRp612
(dp613
g54
(dp614
sg63
g588
sg56
(lp615
g49
(g70
g51
NtRp616
(dp617
g54
(dp618
g74
g75
ssg63
g612
sg56
(lp619
g284
asbag49
(g70
g51
NtRp620
(dp621
g54
(dp622
g81
g82
ssg63
g612
sg56
(lp623
S':'
asbag49
(g70
g51
NtRp624
(dp625
g54
(dp626
sg63
g612
sg56
(lp627
g49
(g50
g51
NtRp628
(dp629
g54
(dp630
g62
I3
ssg63
g624
sg56
(lp631
S''
asbasbasbag49
(g65
g51
NtRp632
(dp633
g54
(dp634
sg63
g588
sg56
(lp635
g49
(g70
g51
NtRp636
(dp637
g54
(dp638
g74
g75
ssg63
g632
sg56
(lp639
g305
asbag49
(g70
g51
NtRp640
(dp641
g54
(dp642
g81
g82
ssg63
g632
sg56
(lp643
S':'
asbag49
(g70
g51
NtRp644
(dp645
g54
(dp646
sg63
g632
sg56
(lp647
g49
(g50
g51
NtRp648
(dp649
g54
(dp650
g62
I3
ssg63
g644
sg56
(lp651
S''
asbasbasbag49
(g65
g51
NtRp652
(dp653
g54
(dp654
sg63
g588
sg56
(lp655
g49
(g70
g51
NtRp656
(dp657
g54
(dp658
g74
g75
ssg63
g652
sg56
(lp659
g326
asbag49
(g70
g51
NtRp660
(dp661
g54
(dp662
g81
g82
ssg63
g652
sg56
(lp663
S':'
asbag49
(g70
g51
NtRp664
(dp665
g54
(dp666
sg63
g652
sg56
(lp667
g49
(g50
g51
NtRp668
(dp669
g54
(dp670
g62
I3
ssg63
g664
sg56
(lp671
S''
asbasbasbag49
(g65
g51
NtRp672
(dp673
g54
(dp674
sg63
g588
sg56
(lp675
g49
(g70
g51
NtRp676
(dp677
g54
(dp678
g74
g75
ssg63
g672
sg56
(lp679
g347
asbag49
(g70
g51
NtRp680
(dp681
g54
(dp682
g81
g82
ssg63
g672
sg56
(lp683
S':'
asbag49
(g70
g51
NtRp684
(dp685
g54
(dp686
sg63
g672
sg56
(lp687
g49
(g50
g51
NtRp688
(dp689
g54
(dp690
g62
I3
ssg63
g684
sg56
(lp691
S''
asbasbasbag49
(g65
g51
NtRp692
(dp693
g54
(dp694
sg63
g588
sg56
(lp695
g49
(g70
g51
NtRp696
(dp697
g54
(dp698
g74
g75
ssg63
g692
sg56
(lp699
g368
asbag49
(g70
g51
NtRp700
(dp701
g54
(dp702
g81
g82
ssg63
g692
sg56
(lp703
S':'
asbag49
(g70
g51
NtRp704
(dp705
g54
(dp706
sg63
g692
sg56
(lp707
g49
(g50
g51
NtRp708
(dp709
g54
(dp710
g62
I3
ssg63
g704
sg56
(lp711
S''
asbasbasbag49
(g65
g51
NtRp712
(dp713
g54
(dp714
sg63
g588
sg56
(lp715
g49
(g70
g51
NtRp716
(dp717
g54
(dp718
g74
g75
ssg63
g712
sg56
(lp719
g389
asbag49
(g70
g51
NtRp720
(dp721
g54
(dp722
g81
g82
ssg63
g712
sg56
(lp723
S':'
asbag49
(g70
g51
NtRp724
(dp725
g54
(dp726
sg63
g712
sg56
(lp727
g49
(g50
g51
NtRp728
(dp729
g54
(dp730
g62
I3
ssg63
g724
sg56
(lp731
S''
asbasbasbasbasbasbasbag49
(g65
g51
NtRp732
(dp733
g54
(dp734
sg63
g226
sg56
(lp735
g49
(g70
g51
NtRp736
(dp737
g54
(dp738
g74
g75
ssg63
g732
sg56
(lp739
S'session_id_slugbarter'
p740
asbag49
(g70
g51
NtRp741
(dp742
g54
(dp743
g81
g82
ssg63
g732
sg56
(lp744
S':'
asbag49
(g70
g51
NtRp745
(dp746
g54
(dp747
sg63
g732
sg56
(lp748
g49
(g50
g51
NtRp749
(dp750
g54
(dp751
g62
I4
ssg63
g745
sg56
(lp752
g49
(g58
g51
NtRp753
(dp754
g54
(dp755
g62
I3
ssg63
Nsg56
(lp756
g49
(g65
g51
NtRp757
(dp758
g54
(dp759
sg63
g753
sg56
(lp760
g49
(g70
g51
NtRp761
(dp762
g54
(dp763
g74
g75
ssg63
g757
sg56
(lp764
g263
asbag49
(g70
g51
NtRp765
(dp766
g54
(dp767
g81
g82
ssg63
g757
sg56
(lp768
S':'
asbag49
(g70
g51
NtRp769
(dp770
g54
(dp771
sg63
g757
sg56
(lp772
g49
(g50
g51
NtRp773
(dp774
g54
(dp775
g62
I3
ssg63
g769
sg56
(lp776
S''
asbasbasbag49
(g65
g51
NtRp777
(dp778
g54
(dp779
sg63
g753
sg56
(lp780
g49
(g70
g51
NtRp781
(dp782
g54
(dp783
g74
g75
ssg63
g777
sg56
(lp784
g284
asbag49
(g70
g51
NtRp785
(dp786
g54
(dp787
g81
g82
ssg63
g777
sg56
(lp788
S':'
asbag49
(g70
g51
NtRp789
(dp790
g54
(dp791
sg63
g777
sg56
(lp792
g49
(g50
g51
NtRp793
(dp794
g54
(dp795
g62
I3
ssg63
g789
sg56
(lp796
S''
asbasbasbag49
(g65
g51
NtRp797
(dp798
g54
(dp799
sg63
g753
sg56
(lp800
g49
(g70
g51
NtRp801
(dp802
g54
(dp803
g74
g75
ssg63
g797
sg56
(lp804
g305
asbag49
(g70
g51
NtRp805
(dp806
g54
(dp807
g81
g82
ssg63
g797
sg56
(lp808
S':'
asbag49
(g70
g51
NtRp809
(dp810
g54
(dp811
sg63
g797
sg56
(lp812
g49
(g50
g51
NtRp813
(dp814
g54
(dp815
g62
I3
ssg63
g809
sg56
(lp816
S''
asbasbasbag49
(g65
g51
NtRp817
(dp818
g54
(dp819
sg63
g753
sg56
(lp820
g49
(g70
g51
NtRp821
(dp822
g54
(dp823
g74
g75
ssg63
g817
sg56
(lp824
g326
asbag49
(g70
g51
NtRp825
(dp826
g54
(dp827
g81
g82
ssg63
g817
sg56
(lp828
S':'
asbag49
(g70
g51
NtRp829
(dp830
g54
(dp831
sg63
g817
sg56
(lp832
g49
(g50
g51
NtRp833
(dp834
g54
(dp835
g62
I3
ssg63
g829
sg56
(lp836
S''
asbasbasbag49
(g65
g51
NtRp837
(dp838
g54
(dp839
sg63
g753
sg56
(lp840
g49
(g70
g51
NtRp841
(dp842
g54
(dp843
g74
g75
ssg63
g837
sg56
(lp844
g347
asbag49
(g70
g51
NtRp845
(dp846
g54
(dp847
g81
g82
ssg63
g837
sg56
(lp848
S':'
asbag49
(g70
g51
NtRp849
(dp850
g54
(dp851
sg63
g837
sg56
(lp852
g49
(g50
g51
NtRp853
(dp854
g54
(dp855
g62
I3
ssg63
g849
sg56
(lp856
S''
asbasbasbag49
(g65
g51
NtRp857
(dp858
g54
(dp859
sg63
g753
sg56
(lp860
g49
(g70
g51
NtRp861
(dp862
g54
(dp863
g74
g75
ssg63
g857
sg56
(lp864
g368
asbag49
(g70
g51
NtRp865
(dp866
g54
(dp867
g81
g82
ssg63
g857
sg56
(lp868
S':'
asbag49
(g70
g51
NtRp869
(dp870
g54
(dp871
sg63
g857
sg56
(lp872
g49
(g50
g51
NtRp873
(dp874
g54
(dp875
g62
I3
ssg63
g869
sg56
(lp876
S''
asbasbasbag49
(g65
g51
NtRp877
(dp878
g54
(dp879
sg63
g753
sg56
(lp880
g49
(g70
g51
NtRp881
(dp882
g54
(dp883
g74
g75
ssg63
g877
sg56
(lp884
g389
asbag49
(g70
g51
NtRp885
(dp886
g54
(dp887
g81
g82
ssg63
g877
sg56
(lp888
S':'
asbag49
(g70
g51
NtRp889
(dp890
g54
(dp891
sg63
g877
sg56
(lp892
g49
(g50
g51
NtRp893
(dp894
g54
(dp895
g62
I3
ssg63
g889
sg56
(lp896
S''
asbasbasbasbasbasbasbag49
(g65
g51
NtRp897
(dp898
g54
(dp899
sg63
g226
sg56
(lp900
g49
(g70
g51
NtRp901
(dp902
g54
(dp903
g74
g75
ssg63
g897
sg56
(lp904
S'session_id_testapp'
p905
asbag49
(g70
g51
NtRp906
(dp907
g54
(dp908
g81
g82
ssg63
g897
sg56
(lp909
S':'
asbag49
(g70
g51
NtRp910
(dp911
g54
(dp912
sg63
g897
sg56
(lp913
g49
(g50
g51
NtRp914
(dp915
g54
(dp916
g62
I4
ssg63
g910
sg56
(lp917
g49
(g58
g51
NtRp918
(dp919
g54
(dp920
g62
I3
ssg63
Nsg56
(lp921
g49
(g65
g51
NtRp922
(dp923
g54
(dp924
sg63
g918
sg56
(lp925
g49
(g70
g51
NtRp926
(dp927
g54
(dp928
g74
g75
ssg63
g922
sg56
(lp929
g263
asbag49
(g70
g51
NtRp930
(dp931
g54
(dp932
g81
g82
ssg63
g922
sg56
(lp933
S':'
asbag49
(g70
g51
NtRp934
(dp935
g54
(dp936
sg63
g922
sg56
(lp937
g49
(g50
g51
NtRp938
(dp939
g54
(dp940
g62
I3
ssg63
g934
sg56
(lp941
S''
asbasbasbag49
(g65
g51
NtRp942
(dp943
g54
(dp944
sg63
g918
sg56
(lp945
g49
(g70
g51
NtRp946
(dp947
g54
(dp948
g74
g75
ssg63
g942
sg56
(lp949
g284
asbag49
(g70
g51
NtRp950
(dp951
g54
(dp952
g81
g82
ssg63
g942
sg56
(lp953
S':'
asbag49
(g70
g51
NtRp954
(dp955
g54
(dp956
sg63
g942
sg56
(lp957
g49
(g50
g51
NtRp958
(dp959
g54
(dp960
g62
I3
ssg63
g954
sg56
(lp961
S''
asbasbasbag49
(g65
g51
NtRp962
(dp963
g54
(dp964
sg63
g918
sg56
(lp965
g49
(g70
g51
NtRp966
(dp967
g54
(dp968
g74
g75
ssg63
g962
sg56
(lp969
g305
asbag49
(g70
g51
NtRp970
(dp971
g54
(dp972
g81
g82
ssg63
g962
sg56
(lp973
S':'
asbag49
(g70
g51
NtRp974
(dp975
g54
(dp976
sg63
g962
sg56
(lp977
g49
(g50
g51
NtRp978
(dp979
g54
(dp980
g62
I3
ssg63
g974
sg56
(lp981
S''
asbasbasbag49
(g65
g51
NtRp982
(dp983
g54
(dp984
sg63
g918
sg56
(lp985
g49
(g70
g51
NtRp986
(dp987
g54
(dp988
g74
g75
ssg63
g982
sg56
(lp989
g326
asbag49
(g70
g51
NtRp990
(dp991
g54
(dp992
g81
g82
ssg63
g982
sg56
(lp993
S':'
asbag49
(g70
g51
NtRp994
(dp995
g54
(dp996
sg63
g982
sg56
(lp997
g49
(g50
g51
NtRp998
(dp999
g54
(dp1000
g62
I3
ssg63
g994
sg56
(lp1001
S''
asbasbasbag49
(g65
g51
NtRp1002
(dp1003
g54
(dp1004
sg63
g918
sg56
(lp1005
g49
(g70
g51
NtRp1006
(dp1007
g54
(dp1008
g74
g75
ssg63
g1002
sg56
(lp1009
g347
asbag49
(g70
g51
NtRp1010
(dp1011
g54
(dp1012
g81
g82
ssg63
g1002
sg56
(lp1013
S':'
asbag49
(g70
g51
NtRp1014
(dp1015
g54
(dp1016
sg63
g1002
sg56
(lp1017
g49
(g50
g51
NtRp1018
(dp1019
g54
(dp1020
g62
I3
ssg63
g1014
sg56
(lp1021
S''
asbasbasbag49
(g65
g51
NtRp1022
(dp1023
g54
(dp1024
sg63
g918
sg56
(lp1025
g49
(g70
g51
NtRp1026
(dp1027
g54
(dp1028
g74
g75
ssg63
g1022
sg56
(lp1029
g368
asbag49
(g70
g51
NtRp1030
(dp1031
g54
(dp1032
g81
g82
ssg63
g1022
sg56
(lp1033
S':'
asbag49
(g70
g51
NtRp1034
(dp1035
g54
(dp1036
sg63
g1022
sg56
(lp1037
g49
(g50
g51
NtRp1038
(dp1039
g54
(dp1040
g62
I3
ssg63
g1034
sg56
(lp1041
S''
asbasbasbag49
(g65
g51
NtRp1042
(dp1043
g54
(dp1044
sg63
g918
sg56
(lp1045
g49
(g70
g51
NtRp1046
(dp1047
g54
(dp1048
g74
g75
ssg63
g1042
sg56
(lp1049
g389
asbag49
(g70
g51
NtRp1050
(dp1051
g54
(dp1052
g81
g82
ssg63
g1042
sg56
(lp1053
S':'
asbag49
(g70
g51
NtRp1054
(dp1055
g54
(dp1056
sg63
g1042
sg56
(lp1057
g49
(g50
g51
NtRp1058
(dp1059
g54
(dp1060
g62
I3
ssg63
g1054
sg56
(lp1061
S''
asbasbasbasbasbasbasbag49
(g65
g51
NtRp1062
(dp1063
g54
(dp1064
sg63
g226
sg56
(lp1065
g49
(g70
g51
NtRp1066
(dp1067
g54
(dp1068
g74
g75
ssg63
g1062
sg56
(lp1069
S'session_id_welcome'
p1070
asbag49
(g70
g51
NtRp1071
(dp1072
g54
(dp1073
g81
g82
ssg63
g1062
sg56
(lp1074
S':'
asbag49
(g70
g51
NtRp1075
(dp1076
g54
(dp1077
sg63
g1062
sg56
(lp1078
g49
(g50
g51
NtRp1079
(dp1080
g54
(dp1081
g62
I4
ssg63
g1075
sg56
(lp1082
g49
(g58
g51
NtRp1083
(dp1084
g54
(dp1085
g62
I3
ssg63
Nsg56
(lp1086
g49
(g65
g51
NtRp1087
(dp1088
g54
(dp1089
sg63
g1083
sg56
(lp1090
g49
(g70
g51
NtRp1091
(dp1092
g54
(dp1093
g74
g75
ssg63
g1087
sg56
(lp1094
g263
asbag49
(g70
g51
NtRp1095
(dp1096
g54
(dp1097
g81
g82
ssg63
g1087
sg56
(lp1098
S':'
asbag49
(g70
g51
NtRp1099
(dp1100
g54
(dp1101
sg63
g1087
sg56
(lp1102
g49
(g50
g51
NtRp1103
(dp1104
g54
(dp1105
g62
I3
ssg63
g1099
sg56
(lp1106
S''
asbasbasbag49
(g65
g51
NtRp1107
(dp1108
g54
(dp1109
sg63
g1083
sg56
(lp1110
g49
(g70
g51
NtRp1111
(dp1112
g54
(dp1113
g74
g75
ssg63
g1107
sg56
(lp1114
g284
asbag49
(g70
g51
NtRp1115
(dp1116
g54
(dp1117
g81
g82
ssg63
g1107
sg56
(lp1118
S':'
asbag49
(g70
g51
NtRp1119
(dp1120
g54
(dp1121
sg63
g1107
sg56
(lp1122
g49
(g50
g51
NtRp1123
(dp1124
g54
(dp1125
g62
I3
ssg63
g1119
sg56
(lp1126
S''
asbasbasbag49
(g65
g51
NtRp1127
(dp1128
g54
(dp1129
sg63
g1083
sg56
(lp1130
g49
(g70
g51
NtRp1131
(dp1132
g54
(dp1133
g74
g75
ssg63
g1127
sg56
(lp1134
g305
asbag49
(g70
g51
NtRp1135
(dp1136
g54
(dp1137
g81
g82
ssg63
g1127
sg56
(lp1138
S':'
asbag49
(g70
g51
NtRp1139
(dp1140
g54
(dp1141
sg63
g1127
sg56
(lp1142
g49
(g50
g51
NtRp1143
(dp1144
g54
(dp1145
g62
I3
ssg63
g1139
sg56
(lp1146
S''
asbasbasbag49
(g65
g51
NtRp1147
(dp1148
g54
(dp1149
sg63
g1083
sg56
(lp1150
g49
(g70
g51
NtRp1151
(dp1152
g54
(dp1153
g74
g75
ssg63
g1147
sg56
(lp1154
g326
asbag49
(g70
g51
NtRp1155
(dp1156
g54
(dp1157
g81
g82
ssg63
g1147
sg56
(lp1158
S':'
asbag49
(g70
g51
NtRp1159
(dp1160
g54
(dp1161
sg63
g1147
sg56
(lp1162
g49
(g50
g51
NtRp1163
(dp1164
g54
(dp1165
g62
I3
ssg63
g1159
sg56
(lp1166
S''
asbasbasbag49
(g65
g51
NtRp1167
(dp1168
g54
(dp1169
sg63
g1083
sg56
(lp1170
g49
(g70
g51
NtRp1171
(dp1172
g54
(dp1173
g74
g75
ssg63
g1167
sg56
(lp1174
g347
asbag49
(g70
g51
NtRp1175
(dp1176
g54
(dp1177
g81
g82
ssg63
g1167
sg56
(lp1178
S':'
asbag49
(g70
g51
NtRp1179
(dp1180
g54
(dp1181
sg63
g1167
sg56
(lp1182
g49
(g50
g51
NtRp1183
(dp1184
g54
(dp1185
g62
I3
ssg63
g1179
sg56
(lp1186
S''
asbasbasbag49
(g65
g51
NtRp1187
(dp1188
g54
(dp1189
sg63
g1083
sg56
(lp1190
g49
(g70
g51
NtRp1191
(dp1192
g54
(dp1193
g74
g75
ssg63
g1187
sg56
(lp1194
g368
asbag49
(g70
g51
NtRp1195
(dp1196
g54
(dp1197
g81
g82
ssg63
g1187
sg56
(lp1198
S':'
asbag49
(g70
g51
NtRp1199
(dp1200
g54
(dp1201
sg63
g1187
sg56
(lp1202
g49
(g50
g51
NtRp1203
(dp1204
g54
(dp1205
g62
I3
ssg63
g1199
sg56
(lp1206
S''
asbasbasbag49
(g65
g51
NtRp1207
(dp1208
g54
(dp1209
sg63
g1083
sg56
(lp1210
g49
(g70
g51
NtRp1211
(dp1212
g54
(dp1213
g74
g75
ssg63
g1207
sg56
(lp1214
g389
asbag49
(g70
g51
NtRp1215
(dp1216
g54
(dp1217
g81
g82
ssg63
g1207
sg56
(lp1218
S':'
asbag49
(g70
g51
NtRp1219
(dp1220
g54
(dp1221
sg63
g1207
sg56
(lp1222
g49
(g50
g51
NtRp1223
(dp1224
g54
(dp1225
g62
I3
ssg63
g1219
sg56
(lp1226
S''
asbasbasbasbasbasbasbasbasbasbasbag49
(g65
g51
NtRp1227
(dp1228
g54
(dp1229
sg63
g59
sg56
(lp1230
g49
(g70
g51
NtRp1231
(dp1232
g54
(dp1233
g74
g75
ssg63
g1227
sg56
(lp1234
S'env'
p1235
asbag49
(g70
g51
NtRp1236
(dp1237
g54
(dp1238
g81
g82
ssg63
g1227
sg56
(lp1239
S':'
asbag49
(g70
g51
NtRp1240
(dp1241
g54
(dp1242
sg63
g1227
sg56
(lp1243
g49
(g50
g51
NtRp1244
(dp1245
g54
(dp1246
g62
I5
ssg63
g1240
sg56
(lp1247
g49
(g58
g51
NtRp1248
(dp1249
g54
(dp1250
g62
I4
ssg63
Nsg56
(lp1251
g49
(g65
g51
NtRp1252
(dp1253
g54
(dp1254
sg63
g1248
sg56
(lp1255
g49
(g70
g51
NtRp1256
(dp1257
g54
(dp1258
g74
g75
ssg63
g1252
sg56
(lp1259
S'app_folders'
p1260
asbag49
(g70
g51
NtRp1261
(dp1262
g54
(dp1263
g81
g82
ssg63
g1252
sg56
(lp1264
S':'
asbag49
(g70
g51
NtRp1265
(dp1266
g54
(dp1267
sg63
g1252
sg56
(lp1268
g49
(g50
g51
NtRp1269
(dp1270
g54
(dp1271
g62
I4
ssg63
g1265
sg56
(lp1272
S"set(['C:\\\\Users\\\\omkara\\\\Desktop\\\\web2py\\\\applications\\\\newA\\\\', 'C:\\\\Users\\\\omkara\\\\Desktop\\\\web2py\\\\applications\\\\slug_register_page\\\\', 'C:\\\\Users\\\\omkara\\\\Desktop\\\\web2py\\\\applications\\\\admin\\\\', 'C:\\\\Users\\\\omkara\\\\Desktop\\\\web2py\\\\applications\\\\welcome\\\\', 'C:\\\\Users\\\\omkara\\\\Desktop\\\\web2py\\\\applications\\\\slug_register\\\\', 'C:\\\\Users\\\\omkara\\\\Desktop\\\\web2py\\\\applications\\\\OnlineNotes_p1_\\\\', 'C:\\\\Users\\\\omkara\\\\Desktop\\\\web2py\\\\applications\\\\SlugBarter\\\\', 'C:\\\\Users\\\\omkara\\\\Desktop\\\\web2py\\\\applications\\\\testApp\\\\'])"
p1273
asbasbasbag49
(g65
g51
NtRp1274
(dp1275
g54
(dp1276
sg63
g1248
sg56
(lp1277
g49
(g70
g51
NtRp1278
(dp1279
g54
(dp1280
g74
g75
ssg63
g1274
sg56
(lp1281
S'applications_parent'
p1282
asbag49
(g70
g51
NtRp1283
(dp1284
g54
(dp1285
g81
g82
ssg63
g1274
sg56
(lp1286
S':'
asbag49
(g70
g51
NtRp1287
(dp1288
g54
(dp1289
sg63
g1274
sg56
(lp1290
g49
(g50
g51
NtRp1291
(dp1292
g54
(dp1293
g62
I4
ssg63
g1287
sg56
(lp1294
S'C:\\Users\\omkara\\Desktop\\web2py'
p1295
asbasbasbag49
(g65
g51
NtRp1296
(dp1297
g54
(dp1298
sg63
g1248
sg56
(lp1299
g49
(g70
g51
NtRp1300
(dp1301
g54
(dp1302
g74
g75
ssg63
g1296
sg56
(lp1303
S'cmd_args'
p1304
asbag49
(g70
g51
NtRp1305
(dp1306
g54
(dp1307
g81
g82
ssg63
g1296
sg56
(lp1308
S':'
asbag49
(g70
g51
NtRp1309
(dp1310
g54
(dp1311
sg63
g1296
sg56
(lp1312
g49
(g50
g51
NtRp1313
(dp1314
g54
(dp1315
g62
I4
ssg63
g1309
sg56
(lp1316
g49
(g58
g51
NtRp1317
(dp1318
g54
(dp1319
g62
I3
ssg63
Nsg56
(lp1320
sbasbasbasbag49
(g65
g51
NtRp1321
(dp1322
g54
(dp1323
sg63
g1248
sg56
(lp1324
g49
(g70
g51
NtRp1325
(dp1326
g54
(dp1327
g74
g75
ssg63
g1321
sg56
(lp1328
S'cmd_options'
p1329
asbag49
(g70
g51
NtRp1330
(dp1331
g54
(dp1332
g81
g82
ssg63
g1321
sg56
(lp1333
S':'
asbag49
(g70
g51
NtRp1334
(dp1335
g54
(dp1336
sg63
g1321
sg56
(lp1337
g49
(g50
g51
NtRp1338
(dp1339
g54
(dp1340
g62
I4
ssg63
g1334
sg56
(lp1341
S"<Values at 0x27b1f80: {'verbose': False, 'ip': '127.0.0.1', 'shutdown_timeout': 5, 'taskbar': False, 'nocron': False, 'pid_filename': 'httpserver.pid', 'maxthreads': None, 'softcron': False, 'server_name': 'omkara-PC', 'bpython': False, 'nogui': False, 'port': 8000, 'extcron': False, 'debuglevel': 30, 'test': None, 'folder': 'C:\\\\Users\\\\omkara\\\\Desktop\\\\web2py', 'config': '', 'import_models': False, 'winservice': '', 'shell': None, 'run': '', 'log_filename': 'httpserver.log', 'args': [''], 'socket_timeout': 5, 'ssl_ca_certificate': None, 'scheduler': None, 'profiler_filename': None, 'ssl_private_key': '', 'password': '<ask>', 'request_queue_size': 5, 'ssl_certificate': '', 'cronjob': False, 'numthreads': None, 'quiet': False, 'interfaces': None, 'minthreads': None, 'timeout': 10, 'plain': False, 'nobanner': False}>"
p1342
asbasbasbag49
(g65
g51
NtRp1343
(dp1344
g54
(dp1345
sg63
g1248
sg56
(lp1346
g49
(g70
g51
NtRp1347
(dp1348
g54
(dp1349
g74
g75
ssg63
g1343
sg56
(lp1350
S'content_length'
p1351
asbag49
(g70
g51
NtRp1352
(dp1353
g54
(dp1354
g81
g82
ssg63
g1343
sg56
(lp1355
S':'
asbag49
(g70
g51
NtRp1356
(dp1357
g54
(dp1358
sg63
g1343
sg56
(lp1359
g49
(g50
g51
NtRp1360
(dp1361
g54
(dp1362
g62
I4
ssg63
g1356
sg56
(lp1363
S'592'
p1364
asbasbasbag49
(g65
g51
NtRp1365
(dp1366
g54
(dp1367
sg63
g1248
sg56
(lp1368
g49
(g70
g51
NtRp1369
(dp1370
g54
(dp1371
g74
g75
ssg63
g1365
sg56
(lp1372
S'content_type'
p1373
asbag49
(g70
g51
NtRp1374
(dp1375
g54
(dp1376
g81
g82
ssg63
g1365
sg56
(lp1377
S':'
asbag49
(g70
g51
NtRp1378
(dp1379
g54
(dp1380
sg63
g1365
sg56
(lp1381
g49
(g50
g51
NtRp1382
(dp1383
g54
(dp1384
g62
I4
ssg63
g1378
sg56
(lp1385
S'multipart/form-data; boundary=----WebKitFormBoundaryWjo8t4etjhJ1wdWr'
p1386
asbasbasbag49
(g65
g51
NtRp1387
(dp1388
g54
(dp1389
sg63
g1248
sg56
(lp1390
g49
(g70
g51
NtRp1391
(dp1392
g54
(dp1393
g74
g75
ssg63
g1387
sg56
(lp1394
S'db_sessions'
p1395
asbag49
(g70
g51
NtRp1396
(dp1397
g54
(dp1398
g81
g82
ssg63
g1387
sg56
(lp1399
S':'
asbag49
(g70
g51
NtRp1400
(dp1401
g54
(dp1402
sg63
g1387
sg56
(lp1403
g49
(g50
g51
NtRp1404
(dp1405
g54
(dp1406
g62
I4
ssg63
g1400
sg56
(lp1407
S'set([])'
p1408
asbasbasbag49
(g65
g51
NtRp1409
(dp1410
g54
(dp1411
sg63
g1248
sg56
(lp1412
g49
(g70
g51
NtRp1413
(dp1414
g54
(dp1415
g74
g75
ssg63
g1409
sg56
(lp1416
S'debugging'
p1417
asbag49
(g70
g51
NtRp1418
(dp1419
g54
(dp1420
g81
g82
ssg63
g1409
sg56
(lp1421
S':'
asbag49
(g70
g51
NtRp1422
(dp1423
g54
(dp1424
sg63
g1409
sg56
(lp1425
g49
(g50
g51
NtRp1426
(dp1427
g54
(dp1428
g62
I4
ssg63
g1422
sg56
(lp1429
g92
asbasbasbag49
(g65
g51
NtRp1430
(dp1431
g54
(dp1432
sg63
g1248
sg56
(lp1433
g49
(g70
g51
NtRp1434
(dp1435
g54
(dp1436
g74
g75
ssg63
g1430
sg56
(lp1437
S'gluon_parent'
p1438
asbag49
(g70
g51
NtRp1439
(dp1440
g54
(dp1441
g81
g82
ssg63
g1430
sg56
(lp1442
S':'
asbag49
(g70
g51
NtRp1443
(dp1444
g54
(dp1445
sg63
g1430
sg56
(lp1446
g49
(g50
g51
NtRp1447
(dp1448
g54
(dp1449
g62
I4
ssg63
g1443
sg56
(lp1450
S'C:\\Users\\omkara\\Desktop\\web2py'
p1451
asbasbasbag49
(g65
g51
NtRp1452
(dp1453
g54
(dp1454
sg63
g1248
sg56
(lp1455
g49
(g70
g51
NtRp1456
(dp1457
g54
(dp1458
g74
g75
ssg63
g1452
sg56
(lp1459
S'http_accept'
p1460
asbag49
(g70
g51
NtRp1461
(dp1462
g54
(dp1463
g81
g82
ssg63
g1452
sg56
(lp1464
S':'
asbag49
(g70
g51
NtRp1465
(dp1466
g54
(dp1467
sg63
g1452
sg56
(lp1468
g49
(g50
g51
NtRp1469
(dp1470
g54
(dp1471
g62
I4
ssg63
g1465
sg56
(lp1472
S'text/html,application/xhtml+xml,application/xml;q=0.9,*/*;q=0.8'
p1473
asbasbasbag49
(g65
g51
NtRp1474
(dp1475
g54
(dp1476
sg63
g1248
sg56
(lp1477
g49
(g70
g51
NtRp1478
(dp1479
g54
(dp1480
g74
g75
ssg63
g1474
sg56
(lp1481
S'http_accept_charset'
p1482
asbag49
(g70
g51
NtRp1483
(dp1484
g54
(dp1485
g81
g82
ssg63
g1474
sg56
(lp1486
S':'
asbag49
(g70
g51
NtRp1487
(dp1488
g54
(dp1489
sg63
g1474
sg56
(lp1490
g49
(g50
g51
NtRp1491
(dp1492
g54
(dp1493
g62
I4
ssg63
g1487
sg56
(lp1494
S'ISO-8859-1,utf-8;q=0.7,*;q=0.3'
p1495
asbasbasbag49
(g65
g51
NtRp1496
(dp1497
g54
(dp1498
sg63
g1248
sg56
(lp1499
g49
(g70
g51
NtRp1500
(dp1501
g54
(dp1502
g74
g75
ssg63
g1496
sg56
(lp1503
S'http_accept_encoding'
p1504
asbag49
(g70
g51
NtRp1505
(dp1506
g54
(dp1507
g81
g82
ssg63
g1496
sg56
(lp1508
S':'
asbag49
(g70
g51
NtRp1509
(dp1510
g54
(dp1511
sg63
g1496
sg56
(lp1512
g49
(g50
g51
NtRp1513
(dp1514
g54
(dp1515
g62
I4
ssg63
g1509
sg56
(lp1516
S'gzip,deflate,sdch'
p1517
asbasbasbag49
(g65
g51
NtRp1518
(dp1519
g54
(dp1520
sg63
g1248
sg56
(lp1521
g49
(g70
g51
NtRp1522
(dp1523
g54
(dp1524
g74
g75
ssg63
g1518
sg56
(lp1525
S'http_accept_language'
p1526
asbag49
(g70
g51
NtRp1527
(dp1528
g54
(dp1529
g81
g82
ssg63
g1518
sg56
(lp1530
S':'
asbag49
(g70
g51
NtRp1531
(dp1532
g54
(dp1533
sg63
g1518
sg56
(lp1534
g49
(g50
g51
NtRp1535
(dp1536
g54
(dp1537
g62
I4
ssg63
g1531
sg56
(lp1538
S'en-US,en;q=0.8'
p1539
asbasbasbag49
(g65
g51
NtRp1540
(dp1541
g54
(dp1542
sg63
g1248
sg56
(lp1543
g49
(g70
g51
NtRp1544
(dp1545
g54
(dp1546
g74
g75
ssg63
g1540
sg56
(lp1547
S'http_cache_control'
p1548
asbag49
(g70
g51
NtRp1549
(dp1550
g54
(dp1551
g81
g82
ssg63
g1540
sg56
(lp1552
S':'
asbag49
(g70
g51
NtRp1553
(dp1554
g54
(dp1555
sg63
g1540
sg56
(lp1556
g49
(g50
g51
NtRp1557
(dp1558
g54
(dp1559
g62
I4
ssg63
g1553
sg56
(lp1560
S'max-age=0'
p1561
asbasbasbag49
(g65
g51
NtRp1562
(dp1563
g54
(dp1564
sg63
g1248
sg56
(lp1565
g49
(g70
g51
NtRp1566
(dp1567
g54
(dp1568
g74
g75
ssg63
g1562
sg56
(lp1569
S'http_connection'
p1570
asbag49
(g70
g51
NtRp1571
(dp1572
g54
(dp1573
g81
g82
ssg63
g1562
sg56
(lp1574
S':'
asbag49
(g70
g51
NtRp1575
(dp1576
g54
(dp1577
sg63
g1562
sg56
(lp1578
g49
(g50
g51
NtRp1579
(dp1580
g54
(dp1581
g62
I4
ssg63
g1575
sg56
(lp1582
S'keep-alive'
p1583
asbasbasbag49
(g65
g51
NtRp1584
(dp1585
g54
(dp1586
sg63
g1248
sg56
(lp1587
g49
(g70
g51
NtRp1588
(dp1589
g54
(dp1590
g74
g75
ssg63
g1584
sg56
(lp1591
S'http_content_length'
p1592
asbag49
(g70
g51
NtRp1593
(dp1594
g54
(dp1595
g81
g82
ssg63
g1584
sg56
(lp1596
S':'
asbag49
(g70
g51
NtRp1597
(dp1598
g54
(dp1599
sg63
g1584
sg56
(lp1600
g49
(g50
g51
NtRp1601
(dp1602
g54
(dp1603
g62
I4
ssg63
g1597
sg56
(lp1604
g1364
asbasbasbag49
(g65
g51
NtRp1605
(dp1606
g54
(dp1607
sg63
g1248
sg56
(lp1608
g49
(g70
g51
NtRp1609
(dp1610
g54
(dp1611
g74
g75
ssg63
g1605
sg56
(lp1612
S'http_content_type'
p1613
asbag49
(g70
g51
NtRp1614
(dp1615
g54
(dp1616
g81
g82
ssg63
g1605
sg56
(lp1617
S':'
asbag49
(g70
g51
NtRp1618
(dp1619
g54
(dp1620
sg63
g1605
sg56
(lp1621
g49
(g50
g51
NtRp1622
(dp1623
g54
(dp1624
g62
I4
ssg63
g1618
sg56
(lp1625
g1386
asbasbasbag49
(g65
g51
NtRp1626
(dp1627
g54
(dp1628
sg63
g1248
sg56
(lp1629
g49
(g70
g51
NtRp1630
(dp1631
g54
(dp1632
g74
g75
ssg63
g1626
sg56
(lp1633
S'http_cookie'
p1634
asbag49
(g70
g51
NtRp1635
(dp1636
g54
(dp1637
g81
g82
ssg63
g1626
sg56
(lp1638
S':'
asbag49
(g70
g51
NtRp1639
(dp1640
g54
(dp1641
sg63
g1626
sg56
(lp1642
g49
(g50
g51
NtRp1643
(dp1644
g54
(dp1645
g62
I4
ssg63
g1639
sg56
(lp1646
S'session_id_slug_register_page=127.0.0.1-c2775933-22a4-419d-80e2-4c993aff45c7; session_id_welcome=127.0.0.1-a1b3016b-66b8-408b-ae8e-37231f35f16e; session_id_testapp=127.0.0.1-07eafbbd-d252-4b2b-84dc-0b0d16c3c06d; session_id_slugbarter=127.0.0.1-e6ebae72-1bbc-48a5-9458-95dbb65a4e54; session_id_onlinenotes_p1_=127.0.0.1-2b1a349f-aa95-4718-93d5-e7df1c85d951; session_id_admin=127.0.0.1-dcf0163e-0560-4f31-a592-e577714771db'
p1647
asbasbasbag49
(g65
g51
NtRp1648
(dp1649
g54
(dp1650
sg63
g1248
sg56
(lp1651
g49
(g70
g51
NtRp1652
(dp1653
g54
(dp1654
g74
g75
ssg63
g1648
sg56
(lp1655
S'http_host'
p1656
asbag49
(g70
g51
NtRp1657
(dp1658
g54
(dp1659
g81
g82
ssg63
g1648
sg56
(lp1660
S':'
asbag49
(g70
g51
NtRp1661
(dp1662
g54
(dp1663
sg63
g1648
sg56
(lp1664
g49
(g50
g51
NtRp1665
(dp1666
g54
(dp1667
g62
I4
ssg63
g1661
sg56
(lp1668
S'127.0.0.1:8000'
p1669
asbasbasbag49
(g65
g51
NtRp1670
(dp1671
g54
(dp1672
sg63
g1248
sg56
(lp1673
g49
(g70
g51
NtRp1674
(dp1675
g54
(dp1676
g74
g75
ssg63
g1670
sg56
(lp1677
S'http_origin'
p1678
asbag49
(g70
g51
NtRp1679
(dp1680
g54
(dp1681
g81
g82
ssg63
g1670
sg56
(lp1682
S':'
asbag49
(g70
g51
NtRp1683
(dp1684
g54
(dp1685
sg63
g1670
sg56
(lp1686
g49
(g50
g51
NtRp1687
(dp1688
g54
(dp1689
g62
I4
ssg63
g1683
sg56
(lp1690
S'http://127.0.0.1:8000'
p1691
asbasbasbag49
(g65
g51
NtRp1692
(dp1693
g54
(dp1694
sg63
g1248
sg56
(lp1695
g49
(g70
g51
NtRp1696
(dp1697
g54
(dp1698
g74
g75
ssg63
g1692
sg56
(lp1699
S'http_referer'
p1700
asbag49
(g70
g51
NtRp1701
(dp1702
g54
(dp1703
g81
g82
ssg63
g1692
sg56
(lp1704
S':'
asbag49
(g70
g51
NtRp1705
(dp1706
g54
(dp1707
sg63
g1692
sg56
(lp1708
g49
(g50
g51
NtRp1709
(dp1710
g54
(dp1711
g62
I4
ssg63
g1705
sg56
(lp1712
S'http://127.0.0.1:8000/SlugBarter/default/postlisting.html'
p1713
asbasbasbag49
(g65
g51
NtRp1714
(dp1715
g54
(dp1716
sg63
g1248
sg56
(lp1717
g49
(g70
g51
NtRp1718
(dp1719
g54
(dp1720
g74
g75
ssg63
g1714
sg56
(lp1721
S'http_user_agent'
p1722
asbag49
(g70
g51
NtRp1723
(dp1724
g54
(dp1725
g81
g82
ssg63
g1714
sg56
(lp1726
S':'
asbag49
(g70
g51
NtRp1727
(dp1728
g54
(dp1729
sg63
g1714
sg56
(lp1730
g49
(g50
g51
NtRp1731
(dp1732
g54
(dp1733
g62
I4
ssg63
g1727
sg56
(lp1734
S'Mozilla/5.0 (Windows NT 6.1) AppleWebKit/537.11 (KHTML, like Gecko) Chrome/23.0.1271.64 Safari/537.11'
p1735
asbasbasbag49
(g65
g51
NtRp1736
(dp1737
g54
(dp1738
sg63
g1248
sg56
(lp1739
g49
(g70
g51
NtRp1740
(dp1741
g54
(dp1742
g74
g75
ssg63
g1736
sg56
(lp1743
S'is_jython'
p1744
asbag49
(g70
g51
NtRp1745
(dp1746
g54
(dp1747
g81
g82
ssg63
g1736
sg56
(lp1748
S':'
asbag49
(g70
g51
NtRp1749
(dp1750
g54
(dp1751
sg63
g1736
sg56
(lp1752
g49
(g50
g51
NtRp1753
(dp1754
g54
(dp1755
g62
I4
ssg63
g1749
sg56
(lp1756
g92
asbasbasbag49
(g65
g51
NtRp1757
(dp1758
g54
(dp1759
sg63
g1248
sg56
(lp1760
g49
(g70
g51
NtRp1761
(dp1762
g54
(dp1763
g74
g75
ssg63
g1757
sg56
(lp1764
S'is_pypy'
p1765
asbag49
(g70
g51
NtRp1766
(dp1767
g54
(dp1768
g81
g82
ssg63
g1757
sg56
(lp1769
S':'
asbag49
(g70
g51
NtRp1770
(dp1771
g54
(dp1772
sg63
g1757
sg56
(lp1773
g49
(g50
g51
NtRp1774
(dp1775
g54
(dp1776
g62
I4
ssg63
g1770
sg56
(lp1777
g92
asbasbasbag49
(g65
g51
NtRp1778
(dp1779
g54
(dp1780
sg63
g1248
sg56
(lp1781
g49
(g70
g51
NtRp1782
(dp1783
g54
(dp1784
g74
g75
ssg63
g1778
sg56
(lp1785
S'path_info'
p1786
asbag49
(g70
g51
NtRp1787
(dp1788
g54
(dp1789
g81
g82
ssg63
g1778
sg56
(lp1790
S':'
asbag49
(g70
g51
NtRp1791
(dp1792
g54
(dp1793
sg63
g1778
sg56
(lp1794
g49
(g50
g51
NtRp1795
(dp1796
g54
(dp1797
g62
I4
ssg63
g1791
sg56
(lp1798
S'/SlugBarter/default/postlisting.html'
p1799
asbasbasbag49
(g65
g51
NtRp1800
(dp1801
g54
(dp1802
sg63
g1248
sg56
(lp1803
g49
(g70
g51
NtRp1804
(dp1805
g54
(dp1806
g74
g75
ssg63
g1800
sg56
(lp1807
S'query_string'
p1808
asbag49
(g70
g51
NtRp1809
(dp1810
g54
(dp1811
g81
g82
ssg63
g1800
sg56
(lp1812
S':'
asbag49
(g70
g51
NtRp1813
(dp1814
g54
(dp1815
sg63
g1800
sg56
(lp1816
g49
(g50
g51
NtRp1817
(dp1818
g54
(dp1819
g62
I4
ssg63
g1813
sg56
(lp1820
S''
asbasbasbag49
(g65
g51
NtRp1821
(dp1822
g54
(dp1823
sg63
g1248
sg56
(lp1824
g49
(g70
g51
NtRp1825
(dp1826
g54
(dp1827
g74
g75
ssg63
g1821
sg56
(lp1828
S'remote_addr'
p1829
asbag49
(g70
g51
NtRp1830
(dp1831
g54
(dp1832
g81
g82
ssg63
g1821
sg56
(lp1833
S':'
asbag49
(g70
g51
NtRp1834
(dp1835
g54
(dp1836
sg63
g1821
sg56
(lp1837
g49
(g50
g51
NtRp1838
(dp1839
g54
(dp1840
g62
I4
ssg63
g1834
sg56
(lp1841
g182
asbasbasbag49
(g65
g51
NtRp1842
(dp1843
g54
(dp1844
sg63
g1248
sg56
(lp1845
g49
(g70
g51
NtRp1846
(dp1847
g54
(dp1848
g74
g75
ssg63
g1842
sg56
(lp1849
S'remote_port'
p1850
asbag49
(g70
g51
NtRp1851
(dp1852
g54
(dp1853
g81
g82
ssg63
g1842
sg56
(lp1854
S':'
asbag49
(g70
g51
NtRp1855
(dp1856
g54
(dp1857
sg63
g1842
sg56
(lp1858
g49
(g50
g51
NtRp1859
(dp1860
g54
(dp1861
g62
I4
ssg63
g1855
sg56
(lp1862
S'50002'
p1863
asbasbasbag49
(g65
g51
NtRp1864
(dp1865
g54
(dp1866
sg63
g1248
sg56
(lp1867
g49
(g70
g51
NtRp1868
(dp1869
g54
(dp1870
g74
g75
ssg63
g1864
sg56
(lp1871
S'request_method'
p1872
asbag49
(g70
g51
NtRp1873
(dp1874
g54
(dp1875
g81
g82
ssg63
g1864
sg56
(lp1876
S':'
asbag49
(g70
g51
NtRp1877
(dp1878
g54
(dp1879
sg63
g1864
sg56
(lp1880
g49
(g50
g51
NtRp1881
(dp1882
g54
(dp1883
g62
I4
ssg63
g1877
sg56
(lp1884
S'POST'
p1885
asbasbasbag49
(g65
g51
NtRp1886
(dp1887
g54
(dp1888
sg63
g1248
sg56
(lp1889
g49
(g70
g51
NtRp1890
(dp1891
g54
(dp1892
g74
g75
ssg63
g1886
sg56
(lp1893
S'script_name'
p1894
asbag49
(g70
g51
NtRp1895
(dp1896
g54
(dp1897
g81
g82
ssg63
g1886
sg56
(lp1898
S':'
asbag49
(g70
g51
NtRp1899
(dp1900
g54
(dp1901
sg63
g1886
sg56
(lp1902
g49
(g50
g51
NtRp1903
(dp1904
g54
(dp1905
g62
I4
ssg63
g1899
sg56
(lp1906
S''
asbasbasbag49
(g65
g51
NtRp1907
(dp1908
g54
(dp1909
sg63
g1248
sg56
(lp1910
g49
(g70
g51
NtRp1911
(dp1912
g54
(dp1913
g74
g75
ssg63
g1907
sg56
(lp1914
S'server_name'
p1915
asbag49
(g70
g51
NtRp1916
(dp1917
g54
(dp1918
g81
g82
ssg63
g1907
sg56
(lp1919
S':'
asbag49
(g70
g51
NtRp1920
(dp1921
g54
(dp1922
sg63
g1907
sg56
(lp1923
g49
(g50
g51
NtRp1924
(dp1925
g54
(dp1926
g62
I4
ssg63
g1920
sg56
(lp1927
S'omkara-PC'
p1928
asbasbasbag49
(g65
g51
NtRp1929
(dp1930
g54
(dp1931
sg63
g1248
sg56
(lp1932
g49
(g70
g51
NtRp1933
(dp1934
g54
(dp1935
g74
g75
ssg63
g1929
sg56
(lp1936
S'server_port'
p1937
asbag49
(g70
g51
NtRp1938
(dp1939
g54
(dp1940
g81
g82
ssg63
g1929
sg56
(lp1941
S':'
asbag49
(g70
g51
NtRp1942
(dp1943
g54
(dp1944
sg63
g1929
sg56
(lp1945
g49
(g50
g51
NtRp1946
(dp1947
g54
(dp1948
g62
I4
ssg63
g1942
sg56
(lp1949
S'8000'
p1950
asbasbasbag49
(g65
g51
NtRp1951
(dp1952
g54
(dp1953
sg63
g1248
sg56
(lp1954
g49
(g70
g51
NtRp1955
(dp1956
g54
(dp1957
g74
g75
ssg63
g1951
sg56
(lp1958
S'server_protocol'
p1959
asbag49
(g70
g51
NtRp1960
(dp1961
g54
(dp1962
g81
g82
ssg63
g1951
sg56
(lp1963
S':'
asbag49
(g70
g51
NtRp1964
(dp1965
g54
(dp1966
sg63
g1951
sg56
(lp1967
g49
(g50
g51
NtRp1968
(dp1969
g54
(dp1970
g62
I4
ssg63
g1964
sg56
(lp1971
S'HTTP/1.1'
p1972
asbasbasbag49
(g65
g51
NtRp1973
(dp1974
g54
(dp1975
sg63
g1248
sg56
(lp1976
g49
(g70
g51
NtRp1977
(dp1978
g54
(dp1979
g74
g75
ssg63
g1973
sg56
(lp1980
S'server_software'
p1981
asbag49
(g70
g51
NtRp1982
(dp1983
g54
(dp1984
g81
g82
ssg63
g1973
sg56
(lp1985
S':'
asbag49
(g70
g51
NtRp1986
(dp1987
g54
(dp1988
sg63
g1973
sg56
(lp1989
g49
(g50
g51
NtRp1990
(dp1991
g54
(dp1992
g62
I4
ssg63
g1986
sg56
(lp1993
S'Rocket 1.2.4'
p1994
asbasbasbag49
(g65
g51
NtRp1995
(dp1996
g54
(dp1997
sg63
g1248
sg56
(lp1998
g49
(g70
g51
NtRp1999
(dp2000
g54
(dp2001
g74
g75
ssg63
g1995
sg56
(lp2002
S'web2py_crontype'
p2003
asbag49
(g70
g51
NtRp2004
(dp2005
g54
(dp2006
g81
g82
ssg63
g1995
sg56
(lp2007
S':'
asbag49
(g70
g51
NtRp2008
(dp2009
g54
(dp2010
sg63
g1995
sg56
(lp2011
g49
(g50
g51
NtRp2012
(dp2013
g54
(dp2014
g62
I4
ssg63
g2008
sg56
(lp2015
S'hard'
p2016
asbasbasbag49
(g65
g51
NtRp2017
(dp2018
g54
(dp2019
sg63
g1248
sg56
(lp2020
g49
(g70
g51
NtRp2021
(dp2022
g54
(dp2023
g74
g75
ssg63
g2017
sg56
(lp2024
S'web2py_path'
p2025
asbag49
(g70
g51
NtRp2026
(dp2027
g54
(dp2028
g81
g82
ssg63
g2017
sg56
(lp2029
S':'
asbag49
(g70
g51
NtRp2030
(dp2031
g54
(dp2032
sg63
g2017
sg56
(lp2033
g49
(g50
g51
NtRp2034
(dp2035
g54
(dp2036
g62
I4
ssg63
g2030
sg56
(lp2037
g1295
asbasbasbag49
(g65
g51
NtRp2038
(dp2039
g54
(dp2040
sg63
g1248
sg56
(lp2041
g49
(g70
g51
NtRp2042
(dp2043
g54
(dp2044
g74
g75
ssg63
g2038
sg56
(lp2045
S'web2py_version'
p2046
asbag49
(g70
g51
NtRp2047
(dp2048
g54
(dp2049
g81
g82
ssg63
g2038
sg56
(lp2050
S':'
asbag49
(g70
g51
NtRp2051
(dp2052
g54
(dp2053
sg63
g2038
sg56
(lp2054
g49
(g50
g51
NtRp2055
(dp2056
g54
(dp2057
g62
I4
ssg63
g2051
sg56
(lp2058
g49
(g58
g51
NtRp2059
(dp2060
g54
(dp2061
g62
I3
ssg63
Nsg56
(lp2062
g49
(g65
g51
NtRp2063
(dp2064
g54
(dp2065
sg63
g2059
sg56
(lp2066
g49
(g70
g51
NtRp2067
(dp2068
g54
(dp2069
sg63
g2063
sg56
(lp2070
g49
(g50
g51
NtRp2071
(dp2072
g54
(dp2073
g62
I3
ssg63
g2067
sg56
(lp2074
S'1'
asbasbasbag49
(g65
g51
NtRp2075
(dp2076
g54
(dp2077
sg63
g2059
sg56
(lp2078
g49
(g70
g51
NtRp2079
(dp2080
g54
(dp2081
sg63
g2075
sg56
(lp2082
g49
(g50
g51
NtRp2083
(dp2084
g54
(dp2085
g62
I3
ssg63
g2079
sg56
(lp2086
S'99'
p2087
asbasbasbag49
(g65
g51
NtRp2088
(dp2089
g54
(dp2090
sg63
g2059
sg56
(lp2091
g49
(g70
g51
NtRp2092
(dp2093
g54
(dp2094
sg63
g2088
sg56
(lp2095
g49
(g50
g51
NtRp2096
(dp2097
g54
(dp2098
g62
I3
ssg63
g2092
sg56
(lp2099
S'7'
asbasbasbag49
(g65
g51
NtRp2100
(dp2101
g54
(dp2102
sg63
g2059
sg56
(lp2103
g49
(g70
g51
NtRp2104
(dp2105
g54
(dp2106
sg63
g2100
sg56
(lp2107
g49
(g50
g51
NtRp2108
(dp2109
g54
(dp2110
g62
I3
ssg63
g2104
sg56
(lp2111
S'datetime.datetime(2012, 3, 4, 22, 12, 8)'
p2112
asbasbasbag49
(g65
g51
NtRp2113
(dp2114
g54
(dp2115
sg63
g2059
sg56
(lp2116
g49
(g70
g51
NtRp2117
(dp2118
g54
(dp2119
sg63
g2113
sg56
(lp2120
g49
(g50
g51
NtRp2121
(dp2122
g54
(dp2123
g62
I3
ssg63
g2117
sg56
(lp2124
S'stable'
p2125
asbasbasbasbasbasbasbag49
(g65
g51
NtRp2126
(dp2127
g54
(dp2128
sg63
g1248
sg56
(lp2129
g49
(g70
g51
NtRp2130
(dp2131
g54
(dp2132
g74
g75
ssg63
g2126
sg56
(lp2133
S'wsgi_errors'
p2134
asbag49
(g70
g51
NtRp2135
(dp2136
g54
(dp2137
g81
g82
ssg63
g2126
sg56
(lp2138
S':'
asbag49
(g70
g51
NtRp2139
(dp2140
g54
(dp2141
sg63
g2126
sg56
(lp2142
g49
(g50
g51
NtRp2143
(dp2144
g54
(dp2145
g62
I4
ssg63
g2139
sg56
(lp2146
S"<open file '<stderr>', mode 'w' at 0x016000B0>"
p2147
asbasbasbag49
(g65
g51
NtRp2148
(dp2149
g54
(dp2150
sg63
g1248
sg56
(lp2151
g49
(g70
g51
NtRp2152
(dp2153
g54
(dp2154
g74
g75
ssg63
g2148
sg56
(lp2155
S'wsgi_file_wrapper'
p2156
asbag49
(g70
g51
NtRp2157
(dp2158
g54
(dp2159
g81
g82
ssg63
g2148
sg56
(lp2160
S':'
asbag49
(g70
g51
NtRp2161
(dp2162
g54
(dp2163
sg63
g2148
sg56
(lp2164
g49
(g50
g51
NtRp2165
(dp2166
g54
(dp2167
g62
I4
ssg63
g2161
sg56
(lp2168
S'<class wsgiref.util.FileWrapper at 0x025361B0>'
p2169
asbasbasbag49
(g65
g51
NtRp2170
(dp2171
g54
(dp2172
sg63
g1248
sg56
(lp2173
g49
(g70
g51
NtRp2174
(dp2175
g54
(dp2176
g74
g75
ssg63
g2170
sg56
(lp2177
S'wsgi_input'
p2178
asbag49
(g70
g51
NtRp2179
(dp2180
g54
(dp2181
g81
g82
ssg63
g2170
sg56
(lp2182
S':'
asbag49
(g70
g51
NtRp2183
(dp2184
g54
(dp2185
sg63
g2170
sg56
(lp2186
g49
(g50
g51
NtRp2187
(dp2188
g54
(dp2189
g62
I4
ssg63
g2183
sg56
(lp2190
S'<socket._fileobject object at 0x06203130>'
p2191
asbasbasbag49
(g65
g51
NtRp2192
(dp2193
g54
(dp2194
sg63
g1248
sg56
(lp2195
g49
(g70
g51
NtRp2196
(dp2197
g54
(dp2198
g74
g75
ssg63
g2192
sg56
(lp2199
S'wsgi_multiprocess'
p2200
asbag49
(g70
g51
NtRp2201
(dp2202
g54
(dp2203
g81
g82
ssg63
g2192
sg56
(lp2204
S':'
asbag49
(g70
g51
NtRp2205
(dp2206
g54
(dp2207
sg63
g2192
sg56
(lp2208
g49
(g50
g51
NtRp2209
(dp2210
g54
(dp2211
g62
I4
ssg63
g2205
sg56
(lp2212
g92
asbasbasbag49
(g65
g51
NtRp2213
(dp2214
g54
(dp2215
sg63
g1248
sg56
(lp2216
g49
(g70
g51
NtRp2217
(dp2218
g54
(dp2219
g74
g75
ssg63
g2213
sg56
(lp2220
S'wsgi_multithread'
p2221
asbag49
(g70
g51
NtRp2222
(dp2223
g54
(dp2224
g81
g82
ssg63
g2213
sg56
(lp2225
S':'
asbag49
(g70
g51
NtRp2226
(dp2227
g54
(dp2228
sg63
g2213
sg56
(lp2229
g49
(g50
g51
NtRp2230
(dp2231
g54
(dp2232
g62
I4
ssg63
g2226
sg56
(lp2233
S'True'
p2234
asbasbasbag49
(g65
g51
NtRp2235
(dp2236
g54
(dp2237
sg63
g1248
sg56
(lp2238
g49
(g70
g51
NtRp2239
(dp2240
g54
(dp2241
g74
g75
ssg63
g2235
sg56
(lp2242
S'wsgi_run_once'
p2243
asbag49
(g70
g51
NtRp2244
(dp2245
g54
(dp2246
g81
g82
ssg63
g2235
sg56
(lp2247
S':'
asbag49
(g70
g51
NtRp2248
(dp2249
g54
(dp2250
sg63
g2235
sg56
(lp2251
g49
(g50
g51
NtRp2252
(dp2253
g54
(dp2254
g62
I4
ssg63
g2248
sg56
(lp2255
g92
asbasbasbag49
(g65
g51
NtRp2256
(dp2257
g54
(dp2258
sg63
g1248
sg56
(lp2259
g49
(g70
g51
NtRp2260
(dp2261
g54
(dp2262
g74
g75
ssg63
g2256
sg56
(lp2263
S'wsgi_url_scheme'
p2264
asbag49
(g70
g51
NtRp2265
(dp2266
g54
(dp2267
g81
g82
ssg63
g2256
sg56
(lp2268
S':'
asbag49
(g70
g51
NtRp2269
(dp2270
g54
(dp2271
sg63
g2256
sg56
(lp2272
g49
(g50
g51
NtRp2273
(dp2274
g54
(dp2275
g62
I4
ssg63
g2269
sg56
(lp2276
S'http'
p2277
asbasbasbag49
(g65
g51
NtRp2278
(dp2279
g54
(dp2280
sg63
g1248
sg56
(lp2281
g49
(g70
g51
NtRp2282
(dp2283
g54
(dp2284
g74
g75
ssg63
g2278
sg56
(lp2285
S'wsgi_version'
p2286
asbag49
(g70
g51
NtRp2287
(dp2288
g54
(dp2289
g81
g82
ssg63
g2278
sg56
(lp2290
S':'
asbag49
(g70
g51
NtRp2291
(dp2292
g54
(dp2293
sg63
g2278
sg56
(lp2294
g49
(g50
g51
NtRp2295
(dp2296
g54
(dp2297
g62
I4
ssg63
g2291
sg56
(lp2298
g49
(g58
g51
NtRp2299
(dp2300
g54
(dp2301
g62
I3
ssg63
Nsg56
(lp2302
g49
(g65
g51
NtRp2303
(dp2304
g54
(dp2305
sg63
g2299
sg56
(lp2306
g49
(g70
g51
NtRp2307
(dp2308
g54
(dp2309
sg63
g2303
sg56
(lp2310
g49
(g50
g51
NtRp2311
(dp2312
g54
(dp2313
g62
I3
ssg63
g2307
sg56
(lp2314
S'1'
asbasbasbag49
(g65
g51
NtRp2315
(dp2316
g54
(dp2317
sg63
g2299
sg56
(lp2318
g49
(g70
g51
NtRp2319
(dp2320
g54
(dp2321
sg63
g2315
sg56
(lp2322
g49
(g50
g51
NtRp2323
(dp2324
g54
(dp2325
g62
I3
ssg63
g2319
sg56
(lp2326
S'0'
asbasbasbasbasbasbasbasbasbasbasbag49
(g65
g51
NtRp2327
(dp2328
g54
(dp2329
sg63
g59
sg56
(lp2330
g49
(g70
g51
NtRp2331
(dp2332
g54
(dp2333
g74
g75
ssg63
g2327
sg56
(lp2334
S'extension'
p2335
asbag49
(g70
g51
NtRp2336
(dp2337
g54
(dp2338
g81
g82
ssg63
g2327
sg56
(lp2339
S':'
asbag49
(g70
g51
NtRp2340
(dp2341
g54
(dp2342
sg63
g2327
sg56
(lp2343
g49
(g50
g51
NtRp2344
(dp2345
g54
(dp2346
g62
I5
ssg63
g2340
sg56
(lp2347
S'html'
p2348
asbasbasbag49
(g65
g51
NtRp2349
(dp2350
g54
(dp2351
sg63
g59
sg56
(lp2352
g49
(g70
g51
NtRp2353
(dp2354
g54
(dp2355
g74
g75
ssg63
g2349
sg56
(lp2356
S'folder'
p2357
asbag49
(g70
g51
NtRp2358
(dp2359
g54
(dp2360
g81
g82
ssg63
g2349
sg56
(lp2361
S':'
asbag49
(g70
g51
NtRp2362
(dp2363
g54
(dp2364
sg63
g2349
sg56
(lp2365
g49
(g50
g51
NtRp2366
(dp2367
g54
(dp2368
g62
I5
ssg63
g2362
sg56
(lp2369
S'C:\\Users\\omkara\\Desktop\\web2py\\applications\\SlugBarter\\'
p2370
asbasbasbag49
(g65
g51
NtRp2371
(dp2372
g54
(dp2373
sg63
g59
sg56
(lp2374
g49
(g70
g51
NtRp2375
(dp2376
g54
(dp2377
g74
g75
ssg63
g2371
sg56
(lp2378
S'function'
p2379
asbag49
(g70
g51
NtRp2380
(dp2381
g54
(dp2382
g81
g82
ssg63
g2371
sg56
(lp2383
S':'
asbag49
(g70
g51
NtRp2384
(dp2385
g54
(dp2386
sg63
g2371
sg56
(lp2387
g49
(g50
g51
NtRp2388
(dp2389
g54
(dp2390
g62
I5
ssg63
g2384
sg56
(lp2391
S'postlisting'
p2392
asbasbasbag49
(g65
g51
NtRp2393
(dp2394
g54
(dp2395
sg63
g59
sg56
(lp2396
g49
(g70
g51
NtRp2397
(dp2398
g54
(dp2399
g74
g75
ssg63
g2393
sg56
(lp2400
S'get_vars'
p2401
asbag49
(g70
g51
NtRp2402
(dp2403
g54
(dp2404
g81
g82
ssg63
g2393
sg56
(lp2405
S':'
asbag49
(g70
g51
NtRp2406
(dp2407
g54
(dp2408
sg63
g2393
sg56
(lp2409
g49
(g50
g51
NtRp2410
(dp2411
g54
(dp2412
g62
I5
ssg63
g2406
sg56
(lp2413
g49
(g58
g51
NtRp2414
(dp2415
g54
(dp2416
g62
I4
ssg63
Nsg56
(lp2417
sbasbasbasbag49
(g65
g51
NtRp2418
(dp2419
g54
(dp2420
sg63
g59
sg56
(lp2421
g49
(g70
g51
NtRp2422
(dp2423
g54
(dp2424
g74
g75
ssg63
g2418
sg56
(lp2425
S'global_settings'
p2426
asbag49
(g70
g51
NtRp2427
(dp2428
g54
(dp2429
g81
g82
ssg63
g2418
sg56
(lp2430
S':'
asbag49
(g70
g51
NtRp2431
(dp2432
g54
(dp2433
sg63
g2418
sg56
(lp2434
g49
(g50
g51
NtRp2435
(dp2436
g54
(dp2437
g62
I5
ssg63
g2431
sg56
(lp2438
g49
(g58
g51
NtRp2439
(dp2440
g54
(dp2441
g62
I4
ssg63
Nsg56
(lp2442
g49
(g65
g51
NtRp2443
(dp2444
g54
(dp2445
sg63
g2439
sg56
(lp2446
g49
(g70
g51
NtRp2447
(dp2448
g54
(dp2449
g74
g75
ssg63
g2443
sg56
(lp2450
g1260
asbag49
(g70
g51
NtRp2451
(dp2452
g54
(dp2453
g81
g82
ssg63
g2443
sg56
(lp2454
S':'
asbag49
(g70
g51
NtRp2455
(dp2456
g54
(dp2457
sg63
g2443
sg56
(lp2458
g49
(g50
g51
NtRp2459
(dp2460
g54
(dp2461
g62
I4
ssg63
g2455
sg56
(lp2462
S"set(['C:\\\\Users\\\\omkara\\\\Desktop\\\\web2py\\\\applications\\\\newA\\\\', 'C:\\\\Users\\\\omkara\\\\Desktop\\\\web2py\\\\applications\\\\slug_register_page\\\\', 'C:\\\\Users\\\\omkara\\\\Desktop\\\\web2py\\\\applications\\\\admin\\\\', 'C:\\\\Users\\\\omkara\\\\Desktop\\\\web2py\\\\applications\\\\welcome\\\\', 'C:\\\\Users\\\\omkara\\\\Desktop\\\\web2py\\\\applications\\\\slug_register\\\\', 'C:\\\\Users\\\\omkara\\\\Desktop\\\\web2py\\\\applications\\\\OnlineNotes_p1_\\\\', 'C:\\\\Users\\\\omkara\\\\Desktop\\\\web2py\\\\applications\\\\SlugBarter\\\\', 'C:\\\\Users\\\\omkara\\\\Desktop\\\\web2py\\\\applications\\\\testApp\\\\'])"
p2463
asbasbasbag49
(g65
g51
NtRp2464
(dp2465
g54
(dp2466
sg63
g2439
sg56
(lp2467
g49
(g70
g51
NtRp2468
(dp2469
g54
(dp2470
g74
g75
ssg63
g2464
sg56
(lp2471
g1282
asbag49
(g70
g51
NtRp2472
(dp2473
g54
(dp2474
g81
g82
ssg63
g2464
sg56
(lp2475
S':'
asbag49
(g70
g51
NtRp2476
(dp2477
g54
(dp2478
sg63
g2464
sg56
(lp2479
g49
(g50
g51
NtRp2480
(dp2481
g54
(dp2482
g62
I4
ssg63
g2476
sg56
(lp2483
g1295
asbasbasbag49
(g65
g51
NtRp2484
(dp2485
g54
(dp2486
sg63
g2439
sg56
(lp2487
g49
(g70
g51
NtRp2488
(dp2489
g54
(dp2490
g74
g75
ssg63
g2484
sg56
(lp2491
g1304
asbag49
(g70
g51
NtRp2492
(dp2493
g54
(dp2494
g81
g82
ssg63
g2484
sg56
(lp2495
S':'
asbag49
(g70
g51
NtRp2496
(dp2497
g54
(dp2498
sg63
g2484
sg56
(lp2499
g49
(g50
g51
NtRp2500
(dp2501
g54
(dp2502
g62
I4
ssg63
g2496
sg56
(lp2503
g49
(g58
g51
NtRp2504
(dp2505
g54
(dp2506
g62
I3
ssg63
Nsg56
(lp2507
sbasbasbasbag49
(g65
g51
NtRp2508
(dp2509
g54
(dp2510
sg63
g2439
sg56
(lp2511
g49
(g70
g51
NtRp2512
(dp2513
g54
(dp2514
g74
g75
ssg63
g2508
sg56
(lp2515
g1329
asbag49
(g70
g51
NtRp2516
(dp2517
g54
(dp2518
g81
g82
ssg63
g2508
sg56
(lp2519
S':'
asbag49
(g70
g51
NtRp2520
(dp2521
g54
(dp2522
sg63
g2508
sg56
(lp2523
g49
(g50
g51
NtRp2524
(dp2525
g54
(dp2526
g62
I4
ssg63
g2520
sg56
(lp2527
S"<Values at 0x27b1f80: {'verbose': False, 'ip': '127.0.0.1', 'shutdown_timeout': 5, 'taskbar': False, 'nocron': False, 'pid_filename': 'httpserver.pid', 'maxthreads': None, 'softcron': False, 'server_name': 'omkara-PC', 'bpython': False, 'nogui': False, 'port': 8000, 'extcron': False, 'debuglevel': 30, 'test': None, 'folder': 'C:\\\\Users\\\\omkara\\\\Desktop\\\\web2py', 'config': '', 'import_models': False, 'winservice': '', 'shell': None, 'run': '', 'log_filename': 'httpserver.log', 'args': [''], 'socket_timeout': 5, 'ssl_ca_certificate': None, 'scheduler': None, 'profiler_filename': None, 'ssl_private_key': '', 'password': '<ask>', 'request_queue_size': 5, 'ssl_certificate': '', 'cronjob': False, 'numthreads': None, 'quiet': False, 'interfaces': None, 'minthreads': None, 'timeout': 10, 'plain': False, 'nobanner': False}>"
p2528
asbasbasbag49
(g65
g51
NtRp2529
(dp2530
g54
(dp2531
sg63
g2439
sg56
(lp2532
g49
(g70
g51
NtRp2533
(dp2534
g54
(dp2535
g74
g75
ssg63
g2529
sg56
(lp2536
g1395
asbag49
(g70
g51
NtRp2537
(dp2538
g54
(dp2539
g81
g82
ssg63
g2529
sg56
(lp2540
S':'
asbag49
(g70
g51
NtRp2541
(dp2542
g54
(dp2543
sg63
g2529
sg56
(lp2544
g49
(g50
g51
NtRp2545
(dp2546
g54
(dp2547
g62
I4
ssg63
g2541
sg56
(lp2548
S'set([])'
p2549
asbasbasbag49
(g65
g51
NtRp2550
(dp2551
g54
(dp2552
sg63
g2439
sg56
(lp2553
g49
(g70
g51
NtRp2554
(dp2555
g54
(dp2556
g74
g75
ssg63
g2550
sg56
(lp2557
g1417
asbag49
(g70
g51
NtRp2558
(dp2559
g54
(dp2560
g81
g82
ssg63
g2550
sg56
(lp2561
S':'
asbag49
(g70
g51
NtRp2562
(dp2563
g54
(dp2564
sg63
g2550
sg56
(lp2565
g49
(g50
g51
NtRp2566
(dp2567
g54
(dp2568
g62
I4
ssg63
g2562
sg56
(lp2569
g92
asbasbasbag49
(g65
g51
NtRp2570
(dp2571
g54
(dp2572
sg63
g2439
sg56
(lp2573
g49
(g70
g51
NtRp2574
(dp2575
g54
(dp2576
g74
g75
ssg63
g2570
sg56
(lp2577
g1438
asbag49
(g70
g51
NtRp2578
(dp2579
g54
(dp2580
g81
g82
ssg63
g2570
sg56
(lp2581
S':'
asbag49
(g70
g51
NtRp2582
(dp2583
g54
(dp2584
sg63
g2570
sg56
(lp2585
g49
(g50
g51
NtRp2586
(dp2587
g54
(dp2588
g62
I4
ssg63
g2582
sg56
(lp2589
g1451
asbasbasbag49
(g65
g51
NtRp2590
(dp2591
g54
(dp2592
sg63
g2439
sg56
(lp2593
g49
(g70
g51
NtRp2594
(dp2595
g54
(dp2596
g74
g75
ssg63
g2590
sg56
(lp2597
g1744
asbag49
(g70
g51
NtRp2598
(dp2599
g54
(dp2600
g81
g82
ssg63
g2590
sg56
(lp2601
S':'
asbag49
(g70
g51
NtRp2602
(dp2603
g54
(dp2604
sg63
g2590
sg56
(lp2605
g49
(g50
g51
NtRp2606
(dp2607
g54
(dp2608
g62
I4
ssg63
g2602
sg56
(lp2609
g92
asbasbasbag49
(g65
g51
NtRp2610
(dp2611
g54
(dp2612
sg63
g2439
sg56
(lp2613
g49
(g70
g51
NtRp2614
(dp2615
g54
(dp2616
g74
g75
ssg63
g2610
sg56
(lp2617
g1765
asbag49
(g70
g51
NtRp2618
(dp2619
g54
(dp2620
g81
g82
ssg63
g2610
sg56
(lp2621
S':'
asbag49
(g70
g51
NtRp2622
(dp2623
g54
(dp2624
sg63
g2610
sg56
(lp2625
g49
(g50
g51
NtRp2626
(dp2627
g54
(dp2628
g62
I4
ssg63
g2622
sg56
(lp2629
g92
asbasbasbag49
(g65
g51
NtRp2630
(dp2631
g54
(dp2632
sg63
g2439
sg56
(lp2633
g49
(g70
g51
NtRp2634
(dp2635
g54
(dp2636
g74
g75
ssg63
g2630
sg56
(lp2637
g2003
asbag49
(g70
g51
NtRp2638
(dp2639
g54
(dp2640
g81
g82
ssg63
g2630
sg56
(lp2641
S':'
asbag49
(g70
g51
NtRp2642
(dp2643
g54
(dp2644
sg63
g2630
sg56
(lp2645
g49
(g50
g51
NtRp2646
(dp2647
g54
(dp2648
g62
I4
ssg63
g2642
sg56
(lp2649
g2016
asbasbasbag49
(g65
g51
NtRp2650
(dp2651
g54
(dp2652
sg63
g2439
sg56
(lp2653
g49
(g70
g51
NtRp2654
(dp2655
g54
(dp2656
g74
g75
ssg63
g2650
sg56
(lp2657
g2046
asbag49
(g70
g51
NtRp2658
(dp2659
g54
(dp2660
g81
g82
ssg63
g2650
sg56
(lp2661
S':'
asbag49
(g70
g51
NtRp2662
(dp2663
g54
(dp2664
sg63
g2650
sg56
(lp2665
g49
(g50
g51
NtRp2666
(dp2667
g54
(dp2668
g62
I4
ssg63
g2662
sg56
(lp2669
g49
(g58
g51
NtRp2670
(dp2671
g54
(dp2672
g62
I3
ssg63
Nsg56
(lp2673
g49
(g65
g51
NtRp2674
(dp2675
g54
(dp2676
sg63
g2670
sg56
(lp2677
g49
(g70
g51
NtRp2678
(dp2679
g54
(dp2680
sg63
g2674
sg56
(lp2681
g49
(g50
g51
NtRp2682
(dp2683
g54
(dp2684
g62
I3
ssg63
g2678
sg56
(lp2685
S'1'
asbasbasbag49
(g65
g51
NtRp2686
(dp2687
g54
(dp2688
sg63
g2670
sg56
(lp2689
g49
(g70
g51
NtRp2690
(dp2691
g54
(dp2692
sg63
g2686
sg56
(lp2693
g49
(g50
g51
NtRp2694
(dp2695
g54
(dp2696
g62
I3
ssg63
g2690
sg56
(lp2697
S'99'
p2698
asbasbasbag49
(g65
g51
NtRp2699
(dp2700
g54
(dp2701
sg63
g2670
sg56
(lp2702
g49
(g70
g51
NtRp2703
(dp2704
g54
(dp2705
sg63
g2699
sg56
(lp2706
g49
(g50
g51
NtRp2707
(dp2708
g54
(dp2709
g62
I3
ssg63
g2703
sg56
(lp2710
S'7'
asbasbasbag49
(g65
g51
NtRp2711
(dp2712
g54
(dp2713
sg63
g2670
sg56
(lp2714
g49
(g70
g51
NtRp2715
(dp2716
g54
(dp2717
sg63
g2711
sg56
(lp2718
g49
(g50
g51
NtRp2719
(dp2720
g54
(dp2721
g62
I3
ssg63
g2715
sg56
(lp2722
S'datetime.datetime(2012, 3, 4, 22, 12, 8)'
p2723
asbasbasbag49
(g65
g51
NtRp2724
(dp2725
g54
(dp2726
sg63
g2670
sg56
(lp2727
g49
(g70
g51
NtRp2728
(dp2729
g54
(dp2730
sg63
g2724
sg56
(lp2731
g49
(g50
g51
NtRp2732
(dp2733
g54
(dp2734
g62
I3
ssg63
g2728
sg56
(lp2735
g2125
asbasbasbasbasbasbasbasbasbasbasbag49
(g65
g51
NtRp2736
(dp2737
g54
(dp2738
sg63
g59
sg56
(lp2739
g49
(g70
g51
NtRp2740
(dp2741
g54
(dp2742
g74
g75
ssg63
g2736
sg56
(lp2743
S'is_https'
p2744
asbag49
(g70
g51
NtRp2745
(dp2746
g54
(dp2747
g81
g82
ssg63
g2736
sg56
(lp2748
S':'
asbag49
(g70
g51
NtRp2749
(dp2750
g54
(dp2751
sg63
g2736
sg56
(lp2752
g49
(g50
g51
NtRp2753
(dp2754
g54
(dp2755
g62
I5
ssg63
g2749
sg56
(lp2756
g92
asbasbasbag49
(g65
g51
NtRp2757
(dp2758
g54
(dp2759
sg63
g59
sg56
(lp2760
g49
(g70
g51
NtRp2761
(dp2762
g54
(dp2763
g74
g75
ssg63
g2757
sg56
(lp2764
S'is_local'
p2765
asbag49
(g70
g51
NtRp2766
(dp2767
g54
(dp2768
g81
g82
ssg63
g2757
sg56
(lp2769
S':'
asbag49
(g70
g51
NtRp2770
(dp2771
g54
(dp2772
sg63
g2757
sg56
(lp2773
g49
(g50
g51
NtRp2774
(dp2775
g54
(dp2776
g62
I5
ssg63
g2770
sg56
(lp2777
g2234
asbasbasbag49
(g65
g51
NtRp2778
(dp2779
g54
(dp2780
sg63
g59
sg56
(lp2781
g49
(g70
g51
NtRp2782
(dp2783
g54
(dp2784
g74
g75
ssg63
g2778
sg56
(lp2785
S'is_restful'
p2786
asbag49
(g70
g51
NtRp2787
(dp2788
g54
(dp2789
g81
g82
ssg63
g2778
sg56
(lp2790
S':'
asbag49
(g70
g51
NtRp2791
(dp2792
g54
(dp2793
sg63
g2778
sg56
(lp2794
g49
(g50
g51
NtRp2795
(dp2796
g54
(dp2797
g62
I5
ssg63
g2791
sg56
(lp2798
g92
asbasbasbag49
(g65
g51
NtRp2799
(dp2800
g54
(dp2801
sg63
g59
sg56
(lp2802
g49
(g70
g51
NtRp2803
(dp2804
g54
(dp2805
g74
g75
ssg63
g2799
sg56
(lp2806
S'now'
p2807
asbag49
(g70
g51
NtRp2808
(dp2809
g54
(dp2810
g81
g82
ssg63
g2799
sg56
(lp2811
S':'
asbag49
(g70
g51
NtRp2812
(dp2813
g54
(dp2814
sg63
g2799
sg56
(lp2815
g49
(g50
g51
NtRp2816
(dp2817
g54
(dp2818
g62
I5
ssg63
g2812
sg56
(lp2819
S'datetime.datetime(2012, 11, 11, 18, 49, 28, 842000)'
p2820
asbasbasbag49
(g65
g51
NtRp2821
(dp2822
g54
(dp2823
sg63
g59
sg56
(lp2824
g49
(g70
g51
NtRp2825
(dp2826
g54
(dp2827
g74
g75
ssg63
g2821
sg56
(lp2828
S'post_vars'
p2829
asbag49
(g70
g51
NtRp2830
(dp2831
g54
(dp2832
g81
g82
ssg63
g2821
sg56
(lp2833
S':'
asbag49
(g70
g51
NtRp2834
(dp2835
g54
(dp2836
sg63
g2821
sg56
(lp2837
g49
(g50
g51
NtRp2838
(dp2839
g54
(dp2840
g62
I5
ssg63
g2834
sg56
(lp2841
g49
(g58
g51
NtRp2842
(dp2843
g54
(dp2844
g62
I4
ssg63
Nsg56
(lp2845
g49
(g65
g51
NtRp2846
(dp2847
g54
(dp2848
sg63
g2842
sg56
(lp2849
g49
(g70
g51
NtRp2850
(dp2851
g54
(dp2852
g74
g75
ssg63
g2846
sg56
(lp2853
S'description'
p2854
asbag49
(g70
g51
NtRp2855
(dp2856
g54
(dp2857
g81
g82
ssg63
g2846
sg56
(lp2858
S':'
asbag49
(g70
g51
NtRp2859
(dp2860
g54
(dp2861
sg63
g2846
sg56
(lp2862
g49
(g50
g51
NtRp2863
(dp2864
g54
(dp2865
g62
I4
ssg63
g2859
sg56
(lp2866
S'Hello world'
p2867
asbasbasbag49
(g65
g51
NtRp2868
(dp2869
g54
(dp2870
sg63
g2842
sg56
(lp2871
g49
(g70
g51
NtRp2872
(dp2873
g54
(dp2874
g74
g75
ssg63
g2868
sg56
(lp2875
S'services'
p2876
asbag49
(g70
g51
NtRp2877
(dp2878
g54
(dp2879
g81
g82
ssg63
g2868
sg56
(lp2880
S':'
asbag49
(g70
g51
NtRp2881
(dp2882
g54
(dp2883
sg63
g2868
sg56
(lp2884
g49
(g50
g51
NtRp2885
(dp2886
g54
(dp2887
g62
I4
ssg63
g2881
sg56
(lp2888
S'Books'
p2889
asbasbasbag49
(g65
g51
NtRp2890
(dp2891
g54
(dp2892
sg63
g2842
sg56
(lp2893
g49
(g70
g51
NtRp2894
(dp2895
g54
(dp2896
g74
g75
ssg63
g2890
sg56
(lp2897
S'title'
p2898
asbag49
(g70
g51
NtRp2899
(dp2900
g54
(dp2901
g81
g82
ssg63
g2890
sg56
(lp2902
S':'
asbag49
(g70
g51
NtRp2903
(dp2904
g54
(dp2905
sg63
g2890
sg56
(lp2906
g49
(g50
g51
NtRp2907
(dp2908
g54
(dp2909
g62
I4
ssg63
g2903
sg56
(lp2910
S'omkara'
p2911
asbasbasbasbasbasbasbag49
(g65
g51
NtRp2912
(dp2913
g54
(dp2914
sg63
g59
sg56
(lp2915
g49
(g70
g51
NtRp2916
(dp2917
g54
(dp2918
g74
g75
ssg63
g2912
sg56
(lp2919
S'raw_extension'
p2920
asbag49
(g70
g51
NtRp2921
(dp2922
g54
(dp2923
g81
g82
ssg63
g2912
sg56
(lp2924
S':'
asbag49
(g70
g51
NtRp2925
(dp2926
g54
(dp2927
sg63
g2912
sg56
(lp2928
g49
(g50
g51
NtRp2929
(dp2930
g54
(dp2931
g62
I5
ssg63
g2925
sg56
(lp2932
g2348
asbasbasbag49
(g65
g51
NtRp2933
(dp2934
g54
(dp2935
sg63
g59
sg56
(lp2936
g49
(g70
g51
NtRp2937
(dp2938
g54
(dp2939
g74
g75
ssg63
g2933
sg56
(lp2940
S'url'
p2941
asbag49
(g70
g51
NtRp2942
(dp2943
g54
(dp2944
g81
g82
ssg63
g2933
sg56
(lp2945
S':'
asbag49
(g70
g51
NtRp2946
(dp2947
g54
(dp2948
sg63
g2933
sg56
(lp2949
g49
(g50
g51
NtRp2950
(dp2951
g54
(dp2952
g62
I5
ssg63
g2946
sg56
(lp2953
S'/SlugBarter/default/postlisting.html'
p2954
asbasbasbag49
(g65
g51
NtRp2955
(dp2956
g54
(dp2957
sg63
g59
sg56
(lp2958
g49
(g70
g51
NtRp2959
(dp2960
g54
(dp2961
g74
g75
ssg63
g2955
sg56
(lp2962
S'utcnow'
p2963
asbag49
(g70
g51
NtRp2964
(dp2965
g54
(dp2966
g81
g82
ssg63
g2955
sg56
(lp2967
S':'
asbag49
(g70
g51
NtRp2968
(dp2969
g54
(dp2970
sg63
g2955
sg56
(lp2971
g49
(g50
g51
NtRp2972
(dp2973
g54
(dp2974
g62
I5
ssg63
g2968
sg56
(lp2975
S'datetime.datetime(2012, 11, 12, 2, 49, 28, 842000)'
p2976
asbasbasbag49
(g65
g51
NtRp2977
(dp2978
g54
(dp2979
sg63
g59
sg56
(lp2980
g49
(g70
g51
NtRp2981
(dp2982
g54
(dp2983
g74
g75
ssg63
g2977
sg56
(lp2984
S'uuid'
p2985
asbag49
(g70
g51
NtRp2986
(dp2987
g54
(dp2988
g81
g82
ssg63
g2977
sg56
(lp2989
S':'
asbag49
(g70
g51
NtRp2990
(dp2991
g54
(dp2992
sg63
g2977
sg56
(lp2993
g49
(g50
g51
NtRp2994
(dp2995
g54
(dp2996
g62
I5
ssg63
g2990
sg56
(lp2997
S'SlugBarter/127.0.0.1.2012-11-11.18-49-28.7dfb4622-0cd0-4b9d-996c-d0650e210d1a'
p2998
asbasbasbag49
(g65
g51
NtRp2999
(dp3000
g54
(dp3001
sg63
g59
sg56
(lp3002
g49
(g70
g51
NtRp3003
(dp3004
g54
(dp3005
g74
g75
ssg63
g2999
sg56
(lp3006
S'vars'
p3007
asbag49
(g70
g51
NtRp3008
(dp3009
g54
(dp3010
g81
g82
ssg63
g2999
sg56
(lp3011
S':'
asbag49
(g70
g51
NtRp3012
(dp3013
g54
(dp3014
sg63
g2999
sg56
(lp3015
g49
(g50
g51
NtRp3016
(dp3017
g54
(dp3018
g62
I5
ssg63
g3012
sg56
(lp3019
g49
(g58
g51
NtRp3020
(dp3021
g54
(dp3022
g62
I4
ssg63
Nsg56
(lp3023
g49
(g65
g51
NtRp3024
(dp3025
g54
(dp3026
sg63
g3020
sg56
(lp3027
g49
(g70
g51
NtRp3028
(dp3029
g54
(dp3030
g74
g75
ssg63
g3024
sg56
(lp3031
g2854
asbag49
(g70
g51
NtRp3032
(dp3033
g54
(dp3034
g81
g82
ssg63
g3024
sg56
(lp3035
S':'
asbag49
(g70
g51
NtRp3036
(dp3037
g54
(dp3038
sg63
g3024
sg56
(lp3039
g49
(g50
g51
NtRp3040
(dp3041
g54
(dp3042
g62
I4
ssg63
g3036
sg56
(lp3043
g2867
asbasbasbag49
(g65
g51
NtRp3044
(dp3045
g54
(dp3046
sg63
g3020
sg56
(lp3047
g49
(g70
g51
NtRp3048
(dp3049
g54
(dp3050
g74
g75
ssg63
g3044
sg56
(lp3051
g2876
asbag49
(g70
g51
NtRp3052
(dp3053
g54
(dp3054
g81
g82
ssg63
g3044
sg56
(lp3055
S':'
asbag49
(g70
g51
NtRp3056
(dp3057
g54
(dp3058
sg63
g3044
sg56
(lp3059
g49
(g50
g51
NtRp3060
(dp3061
g54
(dp3062
g62
I4
ssg63
g3056
sg56
(lp3063
g2889
asbasbasbag49
(g65
g51
NtRp3064
(dp3065
g54
(dp3066
sg63
g3020
sg56
(lp3067
g49
(g70
g51
NtRp3068
(dp3069
g54
(dp3070
g74
g75
ssg63
g3064
sg56
(lp3071
g2898
asbag49
(g70
g51
NtRp3072
(dp3073
g54
(dp3074
g81
g82
ssg63
g3064
sg56
(lp3075
S':'
asbag49
(g70
g51
NtRp3076
(dp3077
g54
(dp3078
sg63
g3064
sg56
(lp3079
g49
(g50
g51
NtRp3080
(dp3081
g54
(dp3082
g62
I4
ssg63
g3076
sg56
(lp3083
g2911
asbasbasbasbasbasbasbag49
(g65
g51
NtRp3084
(dp3085
g54
(dp3086
sg63
g59
sg56
(lp3087
g49
(g70
g51
NtRp3088
(dp3089
g54
(dp3090
g74
g75
ssg63
g3084
sg56
(lp3091
S'wsgi'
p3092
asbag49
(g70
g51
NtRp3093
(dp3094
g54
(dp3095
g81
g82
ssg63
g3084
sg56
(lp3096
S':'
asbag49
(g70
g51
NtRp3097
(dp3098
g54
(dp3099
sg63
g3084
sg56
(lp3100
g49
(g50
g51
NtRp3101
(dp3102
g54
(dp3103
g62
I5
ssg63
g3097
sg56
(lp3104
g49
(g58
g51
NtRp3105
(dp3106
g54
(dp3107
g62
I4
ssg63
Nsg56
(lp3108
g49
(g65
g51
NtRp3109
(dp3110
g54
(dp3111
sg63
g3105
sg56
(lp3112
g49
(g70
g51
NtRp3113
(dp3114
g54
(dp3115
g74
g75
ssg63
g3109
sg56
(lp3116
S'environ'
p3117
asbag49
(g70
g51
NtRp3118
(dp3119
g54
(dp3120
g81
g82
ssg63
g3109
sg56
(lp3121
S':'
asbag49
(g70
g51
NtRp3122
(dp3123
g54
(dp3124
sg63
g3109
sg56
(lp3125
g49
(g50
g51
NtRp3126
(dp3127
g54
(dp3128
g62
I4
ssg63
g3122
sg56
(lp3129
g49
(g58
g51
NtRp3130
(dp3131
g54
(dp3132
g62
I3
ssg63
Nsg56
(lp3133
g49
(g65
g51
NtRp3134
(dp3135
g54
(dp3136
sg63
g3130
sg56
(lp3137
g49
(g70
g51
NtRp3138
(dp3139
g54
(dp3140
g74
g75
ssg63
g3134
sg56
(lp3141
S'CONTENT_LENGTH'
p3142
asbag49
(g70
g51
NtRp3143
(dp3144
g54
(dp3145
g81
g82
ssg63
g3134
sg56
(lp3146
S':'
asbag49
(g70
g51
NtRp3147
(dp3148
g54
(dp3149
sg63
g3134
sg56
(lp3150
g49
(g50
g51
NtRp3151
(dp3152
g54
(dp3153
g62
I3
ssg63
g3147
sg56
(lp3154
g1364
asbasbasbag49
(g65
g51
NtRp3155
(dp3156
g54
(dp3157
sg63
g3130
sg56
(lp3158
g49
(g70
g51
NtRp3159
(dp3160
g54
(dp3161
g74
g75
ssg63
g3155
sg56
(lp3162
S'CONTENT_TYPE'
p3163
asbag49
(g70
g51
NtRp3164
(dp3165
g54
(dp3166
g81
g82
ssg63
g3155
sg56
(lp3167
S':'
asbag49
(g70
g51
NtRp3168
(dp3169
g54
(dp3170
sg63
g3155
sg56
(lp3171
g49
(g50
g51
NtRp3172
(dp3173
g54
(dp3174
g62
I3
ssg63
g3168
sg56
(lp3175
g1386
asbasbasbag49
(g65
g51
NtRp3176
(dp3177
g54
(dp3178
sg63
g3130
sg56
(lp3179
g49
(g70
g51
NtRp3180
(dp3181
g54
(dp3182
g74
g75
ssg63
g3176
sg56
(lp3183
S'HTTP_ACCEPT'
p3184
asbag49
(g70
g51
NtRp3185
(dp3186
g54
(dp3187
g81
g82
ssg63
g3176
sg56
(lp3188
S':'
asbag49
(g70
g51
NtRp3189
(dp3190
g54
(dp3191
sg63
g3176
sg56
(lp3192
g49
(g50
g51
NtRp3193
(dp3194
g54
(dp3195
g62
I3
ssg63
g3189
sg56
(lp3196
g1473
asbasbasbag49
(g65
g51
NtRp3197
(dp3198
g54
(dp3199
sg63
g3130
sg56
(lp3200
g49
(g70
g51
NtRp3201
(dp3202
g54
(dp3203
g74
g75
ssg63
g3197
sg56
(lp3204
S'HTTP_ACCEPT_CHARSET'
p3205
asbag49
(g70
g51
NtRp3206
(dp3207
g54
(dp3208
g81
g82
ssg63
g3197
sg56
(lp3209
S':'
asbag49
(g70
g51
NtRp3210
(dp3211
g54
(dp3212
sg63
g3197
sg56
(lp3213
g49
(g50
g51
NtRp3214
(dp3215
g54
(dp3216
g62
I3
ssg63
g3210
sg56
(lp3217
g1495
asbasbasbag49
(g65
g51
NtRp3218
(dp3219
g54
(dp3220
sg63
g3130
sg56
(lp3221
g49
(g70
g51
NtRp3222
(dp3223
g54
(dp3224
g74
g75
ssg63
g3218
sg56
(lp3225
S'HTTP_ACCEPT_ENCODING'
p3226
asbag49
(g70
g51
NtRp3227
(dp3228
g54
(dp3229
g81
g82
ssg63
g3218
sg56
(lp3230
S':'
asbag49
(g70
g51
NtRp3231
(dp3232
g54
(dp3233
sg63
g3218
sg56
(lp3234
g49
(g50
g51
NtRp3235
(dp3236
g54
(dp3237
g62
I3
ssg63
g3231
sg56
(lp3238
g1517
asbasbasbag49
(g65
g51
NtRp3239
(dp3240
g54
(dp3241
sg63
g3130
sg56
(lp3242
g49
(g70
g51
NtRp3243
(dp3244
g54
(dp3245
g74
g75
ssg63
g3239
sg56
(lp3246
S'HTTP_ACCEPT_LANGUAGE'
p3247
asbag49
(g70
g51
NtRp3248
(dp3249
g54
(dp3250
g81
g82
ssg63
g3239
sg56
(lp3251
S':'
asbag49
(g70
g51
NtRp3252
(dp3253
g54
(dp3254
sg63
g3239
sg56
(lp3255
g49
(g50
g51
NtRp3256
(dp3257
g54
(dp3258
g62
I3
ssg63
g3252
sg56
(lp3259
g1539
asbasbasbag49
(g65
g51
NtRp3260
(dp3261
g54
(dp3262
sg63
g3130
sg56
(lp3263
g49
(g70
g51
NtRp3264
(dp3265
g54
(dp3266
g74
g75
ssg63
g3260
sg56
(lp3267
S'HTTP_CACHE_CONTROL'
p3268
asbag49
(g70
g51
NtRp3269
(dp3270
g54
(dp3271
g81
g82
ssg63
g3260
sg56
(lp3272
S':'
asbag49
(g70
g51
NtRp3273
(dp3274
g54
(dp3275
sg63
g3260
sg56
(lp3276
g49
(g50
g51
NtRp3277
(dp3278
g54
(dp3279
g62
I3
ssg63
g3273
sg56
(lp3280
g1561
asbasbasbag49
(g65
g51
NtRp3281
(dp3282
g54
(dp3283
sg63
g3130
sg56
(lp3284
g49
(g70
g51
NtRp3285
(dp3286
g54
(dp3287
g74
g75
ssg63
g3281
sg56
(lp3288
S'HTTP_CONNECTION'
p3289
asbag49
(g70
g51
NtRp3290
(dp3291
g54
(dp3292
g81
g82
ssg63
g3281
sg56
(lp3293
S':'
asbag49
(g70
g51
NtRp3294
(dp3295
g54
(dp3296
sg63
g3281
sg56
(lp3297
g49
(g50
g51
NtRp3298
(dp3299
g54
(dp3300
g62
I3
ssg63
g3294
sg56
(lp3301
g1583
asbasbasbag49
(g65
g51
NtRp3302
(dp3303
g54
(dp3304
sg63
g3130
sg56
(lp3305
g49
(g70
g51
NtRp3306
(dp3307
g54
(dp3308
g74
g75
ssg63
g3302
sg56
(lp3309
S'HTTP_CONTENT_LENGTH'
p3310
asbag49
(g70
g51
NtRp3311
(dp3312
g54
(dp3313
g81
g82
ssg63
g3302
sg56
(lp3314
S':'
asbag49
(g70
g51
NtRp3315
(dp3316
g54
(dp3317
sg63
g3302
sg56
(lp3318
g49
(g50
g51
NtRp3319
(dp3320
g54
(dp3321
g62
I3
ssg63
g3315
sg56
(lp3322
g1364
asbasbasbag49
(g65
g51
NtRp3323
(dp3324
g54
(dp3325
sg63
g3130
sg56
(lp3326
g49
(g70
g51
NtRp3327
(dp3328
g54
(dp3329
g74
g75
ssg63
g3323
sg56
(lp3330
S'HTTP_CONTENT_TYPE'
p3331
asbag49
(g70
g51
NtRp3332
(dp3333
g54
(dp3334
g81
g82
ssg63
g3323
sg56
(lp3335
S':'
asbag49
(g70
g51
NtRp3336
(dp3337
g54
(dp3338
sg63
g3323
sg56
(lp3339
g49
(g50
g51
NtRp3340
(dp3341
g54
(dp3342
g62
I3
ssg63
g3336
sg56
(lp3343
g1386
asbasbasbag49
(g65
g51
NtRp3344
(dp3345
g54
(dp3346
sg63
g3130
sg56
(lp3347
g49
(g70
g51
NtRp3348
(dp3349
g54
(dp3350
g74
g75
ssg63
g3344
sg56
(lp3351
S'HTTP_COOKIE'
p3352
asbag49
(g70
g51
NtRp3353
(dp3354
g54
(dp3355
g81
g82
ssg63
g3344
sg56
(lp3356
S':'
asbag49
(g70
g51
NtRp3357
(dp3358
g54
(dp3359
sg63
g3344
sg56
(lp3360
g49
(g50
g51
NtRp3361
(dp3362
g54
(dp3363
g62
I3
ssg63
g3357
sg56
(lp3364
g1647
asbasbasbag49
(g65
g51
NtRp3365
(dp3366
g54
(dp3367
sg63
g3130
sg56
(lp3368
g49
(g70
g51
NtRp3369
(dp3370
g54
(dp3371
g74
g75
ssg63
g3365
sg56
(lp3372
S'HTTP_HOST'
p3373
asbag49
(g70
g51
NtRp3374
(dp3375
g54
(dp3376
g81
g82
ssg63
g3365
sg56
(lp3377
S':'
asbag49
(g70
g51
NtRp3378
(dp3379
g54
(dp3380
sg63
g3365
sg56
(lp3381
g49
(g50
g51
NtRp3382
(dp3383
g54
(dp3384
g62
I3
ssg63
g3378
sg56
(lp3385
g1669
asbasbasbag49
(g65
g51
NtRp3386
(dp3387
g54
(dp3388
sg63
g3130
sg56
(lp3389
g49
(g70
g51
NtRp3390
(dp3391
g54
(dp3392
g74
g75
ssg63
g3386
sg56
(lp3393
S'HTTP_ORIGIN'
p3394
asbag49
(g70
g51
NtRp3395
(dp3396
g54
(dp3397
g81
g82
ssg63
g3386
sg56
(lp3398
S':'
asbag49
(g70
g51
NtRp3399
(dp3400
g54
(dp3401
sg63
g3386
sg56
(lp3402
g49
(g50
g51
NtRp3403
(dp3404
g54
(dp3405
g62
I3
ssg63
g3399
sg56
(lp3406
g1691
asbasbasbag49
(g65
g51
NtRp3407
(dp3408
g54
(dp3409
sg63
g3130
sg56
(lp3410
g49
(g70
g51
NtRp3411
(dp3412
g54
(dp3413
g74
g75
ssg63
g3407
sg56
(lp3414
S'HTTP_REFERER'
p3415
asbag49
(g70
g51
NtRp3416
(dp3417
g54
(dp3418
g81
g82
ssg63
g3407
sg56
(lp3419
S':'
asbag49
(g70
g51
NtRp3420
(dp3421
g54
(dp3422
sg63
g3407
sg56
(lp3423
g49
(g50
g51
NtRp3424
(dp3425
g54
(dp3426
g62
I3
ssg63
g3420
sg56
(lp3427
g1713
asbasbasbag49
(g65
g51
NtRp3428
(dp3429
g54
(dp3430
sg63
g3130
sg56
(lp3431
g49
(g70
g51
NtRp3432
(dp3433
g54
(dp3434
g74
g75
ssg63
g3428
sg56
(lp3435
S'HTTP_USER_AGENT'
p3436
asbag49
(g70
g51
NtRp3437
(dp3438
g54
(dp3439
g81
g82
ssg63
g3428
sg56
(lp3440
S':'
asbag49
(g70
g51
NtRp3441
(dp3442
g54
(dp3443
sg63
g3428
sg56
(lp3444
g49
(g50
g51
NtRp3445
(dp3446
g54
(dp3447
g62
I3
ssg63
g3441
sg56
(lp3448
g1735
asbasbasbag49
(g65
g51
NtRp3449
(dp3450
g54
(dp3451
sg63
g3130
sg56
(lp3452
g49
(g70
g51
NtRp3453
(dp3454
g54
(dp3455
g74
g75
ssg63
g3449
sg56
(lp3456
S'PATH_INFO'
p3457
asbag49
(g70
g51
NtRp3458
(dp3459
g54
(dp3460
g81
g82
ssg63
g3449
sg56
(lp3461
S':'
asbag49
(g70
g51
NtRp3462
(dp3463
g54
(dp3464
sg63
g3449
sg56
(lp3465
g49
(g50
g51
NtRp3466
(dp3467
g54
(dp3468
g62
I3
ssg63
g3462
sg56
(lp3469
g1799
asbasbasbag49
(g65
g51
NtRp3470
(dp3471
g54
(dp3472
sg63
g3130
sg56
(lp3473
g49
(g70
g51
NtRp3474
(dp3475
g54
(dp3476
g74
g75
ssg63
g3470
sg56
(lp3477
S'QUERY_STRING'
p3478
asbag49
(g70
g51
NtRp3479
(dp3480
g54
(dp3481
g81
g82
ssg63
g3470
sg56
(lp3482
S':'
asbag49
(g70
g51
NtRp3483
(dp3484
g54
(dp3485
sg63
g3470
sg56
(lp3486
g49
(g50
g51
NtRp3487
(dp3488
g54
(dp3489
g62
I3
ssg63
g3483
sg56
(lp3490
S''
asbasbasbag49
(g65
g51
NtRp3491
(dp3492
g54
(dp3493
sg63
g3130
sg56
(lp3494
g49
(g70
g51
NtRp3495
(dp3496
g54
(dp3497
g74
g75
ssg63
g3491
sg56
(lp3498
S'REMOTE_ADDR'
p3499
asbag49
(g70
g51
NtRp3500
(dp3501
g54
(dp3502
g81
g82
ssg63
g3491
sg56
(lp3503
S':'
asbag49
(g70
g51
NtRp3504
(dp3505
g54
(dp3506
sg63
g3491
sg56
(lp3507
g49
(g50
g51
NtRp3508
(dp3509
g54
(dp3510
g62
I3
ssg63
g3504
sg56
(lp3511
g182
asbasbasbag49
(g65
g51
NtRp3512
(dp3513
g54
(dp3514
sg63
g3130
sg56
(lp3515
g49
(g70
g51
NtRp3516
(dp3517
g54
(dp3518
g74
g75
ssg63
g3512
sg56
(lp3519
S'REMOTE_PORT'
p3520
asbag49
(g70
g51
NtRp3521
(dp3522
g54
(dp3523
g81
g82
ssg63
g3512
sg56
(lp3524
S':'
asbag49
(g70
g51
NtRp3525
(dp3526
g54
(dp3527
sg63
g3512
sg56
(lp3528
g49
(g50
g51
NtRp3529
(dp3530
g54
(dp3531
g62
I3
ssg63
g3525
sg56
(lp3532
g1863
asbasbasbag49
(g65
g51
NtRp3533
(dp3534
g54
(dp3535
sg63
g3130
sg56
(lp3536
g49
(g70
g51
NtRp3537
(dp3538
g54
(dp3539
g74
g75
ssg63
g3533
sg56
(lp3540
S'REQUEST_METHOD'
p3541
asbag49
(g70
g51
NtRp3542
(dp3543
g54
(dp3544
g81
g82
ssg63
g3533
sg56
(lp3545
S':'
asbag49
(g70
g51
NtRp3546
(dp3547
g54
(dp3548
sg63
g3533
sg56
(lp3549
g49
(g50
g51
NtRp3550
(dp3551
g54
(dp3552
g62
I3
ssg63
g3546
sg56
(lp3553
g1885
asbasbasbag49
(g65
g51
NtRp3554
(dp3555
g54
(dp3556
sg63
g3130
sg56
(lp3557
g49
(g70
g51
NtRp3558
(dp3559
g54
(dp3560
g74
g75
ssg63
g3554
sg56
(lp3561
S'SCRIPT_NAME'
p3562
asbag49
(g70
g51
NtRp3563
(dp3564
g54
(dp3565
g81
g82
ssg63
g3554
sg56
(lp3566
S':'
asbag49
(g70
g51
NtRp3567
(dp3568
g54
(dp3569
sg63
g3554
sg56
(lp3570
g49
(g50
g51
NtRp3571
(dp3572
g54
(dp3573
g62
I3
ssg63
g3567
sg56
(lp3574
S''
asbasbasbag49
(g65
g51
NtRp3575
(dp3576
g54
(dp3577
sg63
g3130
sg56
(lp3578
g49
(g70
g51
NtRp3579
(dp3580
g54
(dp3581
g74
g75
ssg63
g3575
sg56
(lp3582
S'SERVER_NAME'
p3583
asbag49
(g70
g51
NtRp3584
(dp3585
g54
(dp3586
g81
g82
ssg63
g3575
sg56
(lp3587
S':'
asbag49
(g70
g51
NtRp3588
(dp3589
g54
(dp3590
sg63
g3575
sg56
(lp3591
g49
(g50
g51
NtRp3592
(dp3593
g54
(dp3594
g62
I3
ssg63
g3588
sg56
(lp3595
g1928
asbasbasbag49
(g65
g51
NtRp3596
(dp3597
g54
(dp3598
sg63
g3130
sg56
(lp3599
g49
(g70
g51
NtRp3600
(dp3601
g54
(dp3602
g74
g75
ssg63
g3596
sg56
(lp3603
S'SERVER_PORT'
p3604
asbag49
(g70
g51
NtRp3605
(dp3606
g54
(dp3607
g81
g82
ssg63
g3596
sg56
(lp3608
S':'
asbag49
(g70
g51
NtRp3609
(dp3610
g54
(dp3611
sg63
g3596
sg56
(lp3612
g49
(g50
g51
NtRp3613
(dp3614
g54
(dp3615
g62
I3
ssg63
g3609
sg56
(lp3616
g1950
asbasbasbag49
(g65
g51
NtRp3617
(dp3618
g54
(dp3619
sg63
g3130
sg56
(lp3620
g49
(g70
g51
NtRp3621
(dp3622
g54
(dp3623
g74
g75
ssg63
g3617
sg56
(lp3624
S'SERVER_PROTOCOL'
p3625
asbag49
(g70
g51
NtRp3626
(dp3627
g54
(dp3628
g81
g82
ssg63
g3617
sg56
(lp3629
S':'
asbag49
(g70
g51
NtRp3630
(dp3631
g54
(dp3632
sg63
g3617
sg56
(lp3633
g49
(g50
g51
NtRp3634
(dp3635
g54
(dp3636
g62
I3
ssg63
g3630
sg56
(lp3637
g1972
asbasbasbag49
(g65
g51
NtRp3638
(dp3639
g54
(dp3640
sg63
g3130
sg56
(lp3641
g49
(g70
g51
NtRp3642
(dp3643
g54
(dp3644
g74
g75
ssg63
g3638
sg56
(lp3645
S'SERVER_SOFTWARE'
p3646
asbag49
(g70
g51
NtRp3647
(dp3648
g54
(dp3649
g81
g82
ssg63
g3638
sg56
(lp3650
S':'
asbag49
(g70
g51
NtRp3651
(dp3652
g54
(dp3653
sg63
g3638
sg56
(lp3654
g49
(g50
g51
NtRp3655
(dp3656
g54
(dp3657
g62
I3
ssg63
g3651
sg56
(lp3658
g1994
asbasbasbag49
(g65
g51
NtRp3659
(dp3660
g54
(dp3661
sg63
g3130
sg56
(lp3662
g49
(g70
g51
NtRp3663
(dp3664
g54
(dp3665
g74
g75
ssg63
g3659
sg56
(lp3666
S'wsgi.errors'
p3667
asbag49
(g70
g51
NtRp3668
(dp3669
g54
(dp3670
g81
g82
ssg63
g3659
sg56
(lp3671
S':'
asbag49
(g70
g51
NtRp3672
(dp3673
g54
(dp3674
sg63
g3659
sg56
(lp3675
g49
(g50
g51
NtRp3676
(dp3677
g54
(dp3678
g62
I3
ssg63
g3672
sg56
(lp3679
S"<open file '<stderr>', mode 'w' at 0x016000B0>"
p3680
asbasbasbag49
(g65
g51
NtRp3681
(dp3682
g54
(dp3683
sg63
g3130
sg56
(lp3684
g49
(g70
g51
NtRp3685
(dp3686
g54
(dp3687
g74
g75
ssg63
g3681
sg56
(lp3688
S'wsgi.file_wrapper'
p3689
asbag49
(g70
g51
NtRp3690
(dp3691
g54
(dp3692
g81
g82
ssg63
g3681
sg56
(lp3693
S':'
asbag49
(g70
g51
NtRp3694
(dp3695
g54
(dp3696
sg63
g3681
sg56
(lp3697
g49
(g50
g51
NtRp3698
(dp3699
g54
(dp3700
g62
I3
ssg63
g3694
sg56
(lp3701
S'<class wsgiref.util.FileWrapper at 0x025361B0>'
p3702
asbasbasbag49
(g65
g51
NtRp3703
(dp3704
g54
(dp3705
sg63
g3130
sg56
(lp3706
g49
(g70
g51
NtRp3707
(dp3708
g54
(dp3709
g74
g75
ssg63
g3703
sg56
(lp3710
S'wsgi.input'
p3711
asbag49
(g70
g51
NtRp3712
(dp3713
g54
(dp3714
g81
g82
ssg63
g3703
sg56
(lp3715
S':'
asbag49
(g70
g51
NtRp3716
(dp3717
g54
(dp3718
sg63
g3703
sg56
(lp3719
g49
(g50
g51
NtRp3720
(dp3721
g54
(dp3722
g62
I3
ssg63
g3716
sg56
(lp3723
S"<open file '<fdopen>', mode 'w+b' at 0x066C9CC8>"
p3724
asbasbasbag49
(g65
g51
NtRp3725
(dp3726
g54
(dp3727
sg63
g3130
sg56
(lp3728
g49
(g70
g51
NtRp3729
(dp3730
g54
(dp3731
g74
g75
ssg63
g3725
sg56
(lp3732
S'wsgi.multiprocess'
p3733
asbag49
(g70
g51
NtRp3734
(dp3735
g54
(dp3736
g81
g82
ssg63
g3725
sg56
(lp3737
S':'
asbag49
(g70
g51
NtRp3738
(dp3739
g54
(dp3740
sg63
g3725
sg56
(lp3741
g49
(g50
g51
NtRp3742
(dp3743
g54
(dp3744
g62
I3
ssg63
g3738
sg56
(lp3745
g92
asbasbasbag49
(g65
g51
NtRp3746
(dp3747
g54
(dp3748
sg63
g3130
sg56
(lp3749
g49
(g70
g51
NtRp3750
(dp3751
g54
(dp3752
g74
g75
ssg63
g3746
sg56
(lp3753
S'wsgi.multithread'
p3754
asbag49
(g70
g51
NtRp3755
(dp3756
g54
(dp3757
g81
g82
ssg63
g3746
sg56
(lp3758
S':'
asbag49
(g70
g51
NtRp3759
(dp3760
g54
(dp3761
sg63
g3746
sg56
(lp3762
g49
(g50
g51
NtRp3763
(dp3764
g54
(dp3765
g62
I3
ssg63
g3759
sg56
(lp3766
g2234
asbasbasbag49
(g65
g51
NtRp3767
(dp3768
g54
(dp3769
sg63
g3130
sg56
(lp3770
g49
(g70
g51
NtRp3771
(dp3772
g54
(dp3773
g74
g75
ssg63
g3767
sg56
(lp3774
S'wsgi.run_once'
p3775
asbag49
(g70
g51
NtRp3776
(dp3777
g54
(dp3778
g81
g82
ssg63
g3767
sg56
(lp3779
S':'
asbag49
(g70
g51
NtRp3780
(dp3781
g54
(dp3782
sg63
g3767
sg56
(lp3783
g49
(g50
g51
NtRp3784
(dp3785
g54
(dp3786
g62
I3
ssg63
g3780
sg56
(lp3787
g92
asbasbasbag49
(g65
g51
NtRp3788
(dp3789
g54
(dp3790
sg63
g3130
sg56
(lp3791
g49
(g70
g51
NtRp3792
(dp3793
g54
(dp3794
g74
g75
ssg63
g3788
sg56
(lp3795
S'wsgi.url_scheme'
p3796
asbag49
(g70
g51
NtRp3797
(dp3798
g54
(dp3799
g81
g82
ssg63
g3788
sg56
(lp3800
S':'
asbag49
(g70
g51
NtRp3801
(dp3802
g54
(dp3803
sg63
g3788
sg56
(lp3804
g49
(g50
g51
NtRp3805
(dp3806
g54
(dp3807
g62
I3
ssg63
g3801
sg56
(lp3808
g2277
asbasbasbag49
(g65
g51
NtRp3809
(dp3810
g54
(dp3811
sg63
g3130
sg56
(lp3812
g49
(g70
g51
NtRp3813
(dp3814
g54
(dp3815
g74
g75
ssg63
g3809
sg56
(lp3816
S'wsgi.version'
p3817
asbag49
(g70
g51
NtRp3818
(dp3819
g54
(dp3820
g81
g82
ssg63
g3809
sg56
(lp3821
S':'
asbag49
(g70
g51
NtRp3822
(dp3823
g54
(dp3824
sg63
g3809
sg56
(lp3825
g49
(g50
g51
NtRp3826
(dp3827
g54
(dp3828
g62
I3
ssg63
g3822
sg56
(lp3829
S'1'
asbasbasbasbasbasbasbasbasbasbasbasbasbsS'frames'
p3830
(lp3831
(dp3832
S'file'
p3833
S'C:\\Users\\omkara\\Desktop\\web2py\\gluon\\restricted.py'
p3834
sS'dump'
p3835
(dp3836
sS'lnum'
p3837
I205
sS'lines'
p3838
(dp3839
sS'call'
p3840
S"(code='# -*- coding: utf-8 -*-\\n# this file is released ...))\\n\\nresponse._vars=response._caller(postlisting)\\n', environment={'A': <class 'gluon.html.A'>, 'Auth': <class 'gluon.tools.Auth'>, 'B': <class 'gluon.html.B'>, 'BEAUTIFY': <class 'gluon.html.BEAUTIFY'>, 'BODY': <class 'gluon.html.BODY'>, 'BR': <class 'gluon.html.BR'>, 'BUTTON': <class 'gluon.html.BUTTON'>, 'CAT': <class 'gluon.html.CAT'>, 'CENTER': <class 'gluon.html.CENTER'>, 'CLEANUP': <class 'gluon.validators.CLEANUP'>, ...}, layer=r'C:\\Users\\omkara\\Desktop\\web2py\\applications\\SlugBarter\\controllers/default.py')"
p3841
sS'func'
p3842
S'restricted'
p3843
sa(dp3844
g3833
S'C:\\Users\\omkara\\Desktop\\web2py\\applications\\SlugBarter\\controllers\\default.py'
p3845
sg3835
(dp3846
sg3837
I30
sg3838
(dp3847
I32
S'    form = SQLFORM(db.listing)'
p3848
sI33
S'    if form.process().accepted:'
p3849
sI34
S"        session.flash = T('Accepted')"
p3850
sI25
S''
sI26
S'def mypage():'
p3851
sI27
S'    username = session.userName'
p3852
sI28
S'    return dict(username = username)'
p3853
sI29
S''
sI30
S'@auth.requires.login'
p3854
sI31
S'def postlisting():'
p3855
ssg3840
S'()'
p3856
sg3842
S'<module>'
p3857
sasS'pyver'
p3858
S'Python 2.5.4: C:\\Users\\omkara\\Desktop\\web2py\\web2py.exe'
p3859
sS'session'
p3860
g49
(g50
g51
NtRp3861
(dp3862
g54
(dp3863
sg56
(lp3864
g49
(g58
g51
NtRp3865
(dp3866
g54
(dp3867
g62
I5
ssg63
Nsg56
(lp3868
g49
(g65
g51
NtRp3869
(dp3870
g54
(dp3871
sg63
g3865
sg56
(lp3872
g49
(g70
g51
NtRp3873
(dp3874
g54
(dp3875
g74
g75
ssg63
g3869
sg56
(lp3876
S'last_query'
p3877
asbag49
(g70
g51
NtRp3878
(dp3879
g54
(dp3880
g81
g82
ssg63
g3869
sg56
(lp3881
S':'
asbag49
(g70
g51
NtRp3882
(dp3883
g54
(dp3884
sg63
g3869
sg56
(lp3885
g49
(g50
g51
NtRp3886
(dp3887
g54
(dp3888
g62
I5
ssg63
g3882
sg56
(lp3889
S'db.listing.id>0'
p3890
asbasbasbasbasbsS'etype'
p3891
S"<type 'exceptions.AttributeError'>"
p3892
sS'date'
p3893
S'Sun Nov 11 18:49:28 2012'
p3894
sS'response'
p3895
g49
(g50
g51
NtRp3896
(dp3897
g54
(dp3898
sg56
(lp3899
g49
(g58
g51
NtRp3900
(dp3901
g54
(dp3902
g62
I5
ssg63
Nsg56
(lp3903
g49
(g65
g51
NtRp3904
(dp3905
g54
(dp3906
sg63
g3900
sg56
(lp3907
g49
(g70
g51
NtRp3908
(dp3909
g54
(dp3910
g74
g75
ssg63
g3904
sg56
(lp3911
g147
asbag49
(g70
g51
NtRp3912
(dp3913
g54
(dp3914
g81
g82
ssg63
g3904
sg56
(lp3915
S':'
asbag49
(g70
g51
NtRp3916
(dp3917
g54
(dp3918
sg63
g3904
sg56
(lp3919
g49
(g50
g51
NtRp3920
(dp3921
g54
(dp3922
g62
I5
ssg63
g3916
sg56
(lp3923
S'<cStringIO.StringO object at 0x066528A0>'
p3924
asbasbasbag49
(g65
g51
NtRp3925
(dp3926
g54
(dp3927
sg63
g3900
sg56
(lp3928
g49
(g70
g51
NtRp3929
(dp3930
g54
(dp3931
g74
g75
ssg63
g3925
sg56
(lp3932
g213
asbag49
(g70
g51
NtRp3933
(dp3934
g54
(dp3935
g81
g82
ssg63
g3925
sg56
(lp3936
S':'
asbag49
(g70
g51
NtRp3937
(dp3938
g54
(dp3939
sg63
g3925
sg56
(lp3940
g49
(g50
g51
NtRp3941
(dp3942
g54
(dp3943
g62
I5
ssg63
g3937
sg56
(lp3944
g49
(g58
g51
NtRp3945
(dp3946
g54
(dp3947
g62
I4
ssg63
Nsg56
(lp3948
g49
(g65
g51
NtRp3949
(dp3950
g54
(dp3951
sg63
g3945
sg56
(lp3952
g49
(g70
g51
NtRp3953
(dp3954
g54
(dp3955
g74
g75
ssg63
g3949
sg56
(lp3956
S'session_id_slugbarter'
p3957
asbag49
(g70
g51
NtRp3958
(dp3959
g54
(dp3960
g81
g82
ssg63
g3949
sg56
(lp3961
S':'
asbag49
(g70
g51
NtRp3962
(dp3963
g54
(dp3964
sg63
g3949
sg56
(lp3965
g49
(g50
g51
NtRp3966
(dp3967
g54
(dp3968
g62
I4
ssg63
g3962
sg56
(lp3969
g49
(g58
g51
NtRp3970
(dp3971
g54
(dp3972
g62
I3
ssg63
Nsg56
(lp3973
g49
(g65
g51
NtRp3974
(dp3975
g54
(dp3976
sg63
g3970
sg56
(lp3977
g49
(g70
g51
NtRp3978
(dp3979
g54
(dp3980
g74
g75
ssg63
g3974
sg56
(lp3981
g263
asbag49
(g70
g51
NtRp3982
(dp3983
g54
(dp3984
g81
g82
ssg63
g3974
sg56
(lp3985
S':'
asbag49
(g70
g51
NtRp3986
(dp3987
g54
(dp3988
sg63
g3974
sg56
(lp3989
g49
(g50
g51
NtRp3990
(dp3991
g54
(dp3992
g62
I3
ssg63
g3986
sg56
(lp3993
S''
asbasbasbag49
(g65
g51
NtRp3994
(dp3995
g54
(dp3996
sg63
g3970
sg56
(lp3997
g49
(g70
g51
NtRp3998
(dp3999
g54
(dp4000
g74
g75
ssg63
g3994
sg56
(lp4001
g284
asbag49
(g70
g51
NtRp4002
(dp4003
g54
(dp4004
g81
g82
ssg63
g3994
sg56
(lp4005
S':'
asbag49
(g70
g51
NtRp4006
(dp4007
g54
(dp4008
sg63
g3994
sg56
(lp4009
g49
(g50
g51
NtRp4010
(dp4011
g54
(dp4012
g62
I3
ssg63
g4006
sg56
(lp4013
S''
asbasbasbag49
(g65
g51
NtRp4014
(dp4015
g54
(dp4016
sg63
g3970
sg56
(lp4017
g49
(g70
g51
NtRp4018
(dp4019
g54
(dp4020
g74
g75
ssg63
g4014
sg56
(lp4021
g305
asbag49
(g70
g51
NtRp4022
(dp4023
g54
(dp4024
g81
g82
ssg63
g4014
sg56
(lp4025
S':'
asbag49
(g70
g51
NtRp4026
(dp4027
g54
(dp4028
sg63
g4014
sg56
(lp4029
g49
(g50
g51
NtRp4030
(dp4031
g54
(dp4032
g62
I3
ssg63
g4026
sg56
(lp4033
S''
asbasbasbag49
(g65
g51
NtRp4034
(dp4035
g54
(dp4036
sg63
g3970
sg56
(lp4037
g49
(g70
g51
NtRp4038
(dp4039
g54
(dp4040
g74
g75
ssg63
g4034
sg56
(lp4041
g326
asbag49
(g70
g51
NtRp4042
(dp4043
g54
(dp4044
g81
g82
ssg63
g4034
sg56
(lp4045
S':'
asbag49
(g70
g51
NtRp4046
(dp4047
g54
(dp4048
sg63
g4034
sg56
(lp4049
g49
(g50
g51
NtRp4050
(dp4051
g54
(dp4052
g62
I3
ssg63
g4046
sg56
(lp4053
S''
asbasbasbag49
(g65
g51
NtRp4054
(dp4055
g54
(dp4056
sg63
g3970
sg56
(lp4057
g49
(g70
g51
NtRp4058
(dp4059
g54
(dp4060
g74
g75
ssg63
g4054
sg56
(lp4061
g347
asbag49
(g70
g51
NtRp4062
(dp4063
g54
(dp4064
g81
g82
ssg63
g4054
sg56
(lp4065
S':'
asbag49
(g70
g51
NtRp4066
(dp4067
g54
(dp4068
sg63
g4054
sg56
(lp4069
g49
(g50
g51
NtRp4070
(dp4071
g54
(dp4072
g62
I3
ssg63
g4066
sg56
(lp4073
S'/'
asbasbasbag49
(g65
g51
NtRp4074
(dp4075
g54
(dp4076
sg63
g3970
sg56
(lp4077
g49
(g70
g51
NtRp4078
(dp4079
g54
(dp4080
g74
g75
ssg63
g4074
sg56
(lp4081
g368
asbag49
(g70
g51
NtRp4082
(dp4083
g54
(dp4084
g81
g82
ssg63
g4074
sg56
(lp4085
S':'
asbag49
(g70
g51
NtRp4086
(dp4087
g54
(dp4088
sg63
g4074
sg56
(lp4089
g49
(g50
g51
NtRp4090
(dp4091
g54
(dp4092
g62
I3
ssg63
g4086
sg56
(lp4093
S''
asbasbasbag49
(g65
g51
NtRp4094
(dp4095
g54
(dp4096
sg63
g3970
sg56
(lp4097
g49
(g70
g51
NtRp4098
(dp4099
g54
(dp4100
g74
g75
ssg63
g4094
sg56
(lp4101
g389
asbag49
(g70
g51
NtRp4102
(dp4103
g54
(dp4104
g81
g82
ssg63
g4094
sg56
(lp4105
S':'
asbag49
(g70
g51
NtRp4106
(dp4107
g54
(dp4108
sg63
g4094
sg56
(lp4109
g49
(g50
g51
NtRp4110
(dp4111
g54
(dp4112
g62
I3
ssg63
g4106
sg56
(lp4113
S''
asbasbasbasbasbasbasbasbasbasbasbag49
(g65
g51
NtRp4114
(dp4115
g54
(dp4116
sg63
g3900
sg56
(lp4117
g49
(g70
g51
NtRp4118
(dp4119
g54
(dp4120
g74
g75
ssg63
g4114
sg56
(lp4121
S'delimiters'
p4122
asbag49
(g70
g51
NtRp4123
(dp4124
g54
(dp4125
g81
g82
ssg63
g4114
sg56
(lp4126
S':'
asbag49
(g70
g51
NtRp4127
(dp4128
g54
(dp4129
sg63
g4114
sg56
(lp4130
g49
(g50
g51
NtRp4131
(dp4132
g54
(dp4133
g62
I5
ssg63
g4127
sg56
(lp4134
g49
(g58
g51
NtRp4135
(dp4136
g54
(dp4137
g62
I4
ssg63
Nsg56
(lp4138
g49
(g65
g51
NtRp4139
(dp4140
g54
(dp4141
sg63
g4135
sg56
(lp4142
g49
(g70
g51
NtRp4143
(dp4144
g54
(dp4145
sg63
g4139
sg56
(lp4146
g49
(g50
g51
NtRp4147
(dp4148
g54
(dp4149
g62
I4
ssg63
g4143
sg56
(lp4150
S'{{'
p4151
asbasbasbag49
(g65
g51
NtRp4152
(dp4153
g54
(dp4154
sg63
g4135
sg56
(lp4155
g49
(g70
g51
NtRp4156
(dp4157
g54
(dp4158
sg63
g4152
sg56
(lp4159
g49
(g50
g51
NtRp4160
(dp4161
g54
(dp4162
g62
I4
ssg63
g4156
sg56
(lp4163
S'}}'
p4164
asbasbasbasbasbasbasbag49
(g65
g51
NtRp4165
(dp4166
g54
(dp4167
sg63
g3900
sg56
(lp4168
g49
(g70
g51
NtRp4169
(dp4170
g54
(dp4171
g74
g75
ssg63
g4165
sg56
(lp4172
S'files'
p4173
asbag49
(g70
g51
NtRp4174
(dp4175
g54
(dp4176
g81
g82
ssg63
g4165
sg56
(lp4177
S':'
asbag49
(g70
g51
NtRp4178
(dp4179
g54
(dp4180
sg63
g4165
sg56
(lp4181
g49
(g50
g51
NtRp4182
(dp4183
g54
(dp4184
g62
I5
ssg63
g4178
sg56
(lp4185
g49
(g58
g51
NtRp4186
(dp4187
g54
(dp4188
g62
I4
ssg63
Nsg56
(lp4189
sbasbasbasbag49
(g65
g51
NtRp4190
(dp4191
g54
(dp4192
sg63
g3900
sg56
(lp4193
g49
(g70
g51
NtRp4194
(dp4195
g54
(dp4196
g74
g75
ssg63
g4190
sg56
(lp4197
S'flash'
p4198
asbag49
(g70
g51
NtRp4199
(dp4200
g54
(dp4201
g81
g82
ssg63
g4190
sg56
(lp4202
S':'
asbag49
(g70
g51
NtRp4203
(dp4204
g54
(dp4205
sg63
g4190
sg56
(lp4206
g49
(g50
g51
NtRp4207
(dp4208
g54
(dp4209
g62
I5
ssg63
g4203
sg56
(lp4210
S''
asbasbasbag49
(g65
g51
NtRp4211
(dp4212
g54
(dp4213
sg63
g3900
sg56
(lp4214
g49
(g70
g51
NtRp4215
(dp4216
g54
(dp4217
g74
g75
ssg63
g4211
sg56
(lp4218
S'generic_patterns'
p4219
asbag49
(g70
g51
NtRp4220
(dp4221
g54
(dp4222
g81
g82
ssg63
g4211
sg56
(lp4223
S':'
asbag49
(g70
g51
NtRp4224
(dp4225
g54
(dp4226
sg63
g4211
sg56
(lp4227
g49
(g50
g51
NtRp4228
(dp4229
g54
(dp4230
g62
I5
ssg63
g4224
sg56
(lp4231
g49
(g58
g51
NtRp4232
(dp4233
g54
(dp4234
g62
I4
ssg63
Nsg56
(lp4235
g49
(g65
g51
NtRp4236
(dp4237
g54
(dp4238
sg63
g4232
sg56
(lp4239
g49
(g70
g51
NtRp4240
(dp4241
g54
(dp4242
sg63
g4236
sg56
(lp4243
g49
(g50
g51
NtRp4244
(dp4245
g54
(dp4246
g62
I4
ssg63
g4240
sg56
(lp4247
S'*'
asbasbasbasbasbasbasbag49
(g65
g51
NtRp4248
(dp4249
g54
(dp4250
sg63
g3900
sg56
(lp4251
g49
(g70
g51
NtRp4252
(dp4253
g54
(dp4254
g74
g75
ssg63
g4248
sg56
(lp4255
S'headers'
p4256
asbag49
(g70
g51
NtRp4257
(dp4258
g54
(dp4259
g81
g82
ssg63
g4248
sg56
(lp4260
S':'
asbag49
(g70
g51
NtRp4261
(dp4262
g54
(dp4263
sg63
g4248
sg56
(lp4264
g49
(g50
g51
NtRp4265
(dp4266
g54
(dp4267
g62
I5
ssg63
g4261
sg56
(lp4268
g49
(g58
g51
NtRp4269
(dp4270
g54
(dp4271
g62
I4
ssg63
Nsg56
(lp4272
g49
(g65
g51
NtRp4273
(dp4274
g54
(dp4275
sg63
g4269
sg56
(lp4276
g49
(g70
g51
NtRp4277
(dp4278
g54
(dp4279
g74
g75
ssg63
g4273
sg56
(lp4280
S'Cache-Control'
p4281
asbag49
(g70
g51
NtRp4282
(dp4283
g54
(dp4284
g81
g82
ssg63
g4273
sg56
(lp4285
S':'
asbag49
(g70
g51
NtRp4286
(dp4287
g54
(dp4288
sg63
g4273
sg56
(lp4289
g49
(g50
g51
NtRp4290
(dp4291
g54
(dp4292
g62
I4
ssg63
g4286
sg56
(lp4293
S'no-store, no-cache, must-revalidate, post-check=0, pre-check=0'
p4294
asbasbasbag49
(g65
g51
NtRp4295
(dp4296
g54
(dp4297
sg63
g4269
sg56
(lp4298
g49
(g70
g51
NtRp4299
(dp4300
g54
(dp4301
g74
g75
ssg63
g4295
sg56
(lp4302
S'Content-Type'
p4303
asbag49
(g70
g51
NtRp4304
(dp4305
g54
(dp4306
g81
g82
ssg63
g4295
sg56
(lp4307
S':'
asbag49
(g70
g51
NtRp4308
(dp4309
g54
(dp4310
sg63
g4295
sg56
(lp4311
g49
(g50
g51
NtRp4312
(dp4313
g54
(dp4314
g62
I4
ssg63
g4308
sg56
(lp4315
S'text/html; charset=utf-8'
p4316
asbasbasbag49
(g65
g51
NtRp4317
(dp4318
g54
(dp4319
sg63
g4269
sg56
(lp4320
g49
(g70
g51
NtRp4321
(dp4322
g54
(dp4323
g74
g75
ssg63
g4317
sg56
(lp4324
S'Expires'
p4325
asbag49
(g70
g51
NtRp4326
(dp4327
g54
(dp4328
g81
g82
ssg63
g4317
sg56
(lp4329
S':'
asbag49
(g70
g51
NtRp4330
(dp4331
g54
(dp4332
sg63
g4317
sg56
(lp4333
g49
(g50
g51
NtRp4334
(dp4335
g54
(dp4336
g62
I4
ssg63
g4330
sg56
(lp4337
S'Mon, 12 Nov 2012 02:49:28 GMT'
p4338
asbasbasbag49
(g65
g51
NtRp4339
(dp4340
g54
(dp4341
sg63
g4269
sg56
(lp4342
g49
(g70
g51
NtRp4343
(dp4344
g54
(dp4345
g74
g75
ssg63
g4339
sg56
(lp4346
S'Pragma'
p4347
asbag49
(g70
g51
NtRp4348
(dp4349
g54
(dp4350
g81
g82
ssg63
g4339
sg56
(lp4351
S':'
asbag49
(g70
g51
NtRp4352
(dp4353
g54
(dp4354
sg63
g4339
sg56
(lp4355
g49
(g50
g51
NtRp4356
(dp4357
g54
(dp4358
g62
I4
ssg63
g4352
sg56
(lp4359
S'no-cache'
p4360
asbasbasbag49
(g65
g51
NtRp4361
(dp4362
g54
(dp4363
sg63
g4269
sg56
(lp4364
g49
(g70
g51
NtRp4365
(dp4366
g54
(dp4367
g74
g75
ssg63
g4361
sg56
(lp4368
S'X-Powered-By'
p4369
asbag49
(g70
g51
NtRp4370
(dp4371
g54
(dp4372
g81
g82
ssg63
g4361
sg56
(lp4373
S':'
asbag49
(g70
g51
NtRp4374
(dp4375
g54
(dp4376
sg63
g4361
sg56
(lp4377
g49
(g50
g51
NtRp4378
(dp4379
g54
(dp4380
g62
I4
ssg63
g4374
sg56
(lp4381
S'web2py'
p4382
asbasbasbasbasbasbasbag49
(g65
g51
NtRp4383
(dp4384
g54
(dp4385
sg63
g3900
sg56
(lp4386
g49
(g70
g51
NtRp4387
(dp4388
g54
(dp4389
g74
g75
ssg63
g4383
sg56
(lp4390
S'menu'
p4391
asbag49
(g70
g51
NtRp4392
(dp4393
g54
(dp4394
g81
g82
ssg63
g4383
sg56
(lp4395
S':'
asbag49
(g70
g51
NtRp4396
(dp4397
g54
(dp4398
sg63
g4383
sg56
(lp4399
g49
(g50
g51
NtRp4400
(dp4401
g54
(dp4402
g62
I5
ssg63
g4396
sg56
(lp4403
g49
(g58
g51
NtRp4404
(dp4405
g54
(dp4406
g62
I4
ssg63
Nsg56
(lp4407
g49
(g65
g51
NtRp4408
(dp4409
g54
(dp4410
sg63
g4404
sg56
(lp4411
g49
(g70
g51
NtRp4412
(dp4413
g54
(dp4414
sg63
g4408
sg56
(lp4415
g49
(g50
g51
NtRp4416
(dp4417
g54
(dp4418
g62
I4
ssg63
g4412
sg56
(lp4419
g49
(g58
g51
NtRp4420
(dp4421
g54
(dp4422
g62
I3
ssg63
Nsg56
(lp4423
g49
(g65
g51
NtRp4424
(dp4425
g54
(dp4426
sg63
g4420
sg56
(lp4427
g49
(g70
g51
NtRp4428
(dp4429
g54
(dp4430
sg63
g4424
sg56
(lp4431
g49
(g50
g51
NtRp4432
(dp4433
g54
(dp4434
g62
I3
ssg63
g4428
sg56
(lp4435
cgluon.languages
lazyT_unpickle
p4436
(S's\x04\x00\x00\x00Home'
tRp4437
asbasbasbag49
(g65
g51
NtRp4438
(dp4439
g54
(dp4440
sg63
g4420
sg56
(lp4441
g49
(g70
g51
NtRp4442
(dp4443
g54
(dp4444
sg63
g4438
sg56
(lp4445
g49
(g50
g51
NtRp4446
(dp4447
g54
(dp4448
g62
I3
ssg63
g4442
sg56
(lp4449
g92
asbasbasbag49
(g65
g51
NtRp4450
(dp4451
g54
(dp4452
sg63
g4420
sg56
(lp4453
g49
(g70
g51
NtRp4454
(dp4455
g54
(dp4456
sg63
g4450
sg56
(lp4457
g49
(g50
g51
NtRp4458
(dp4459
g54
(dp4460
g62
I3
ssg63
g4454
sg56
(lp4461
S'/SlugBarter/default/index'
p4462
asbasbasbag49
(g65
g51
NtRp4463
(dp4464
g54
(dp4465
sg63
g4420
sg56
(lp4466
g49
(g70
g51
NtRp4467
(dp4468
g54
(dp4469
sg63
g4463
sg56
(lp4470
g49
(g50
g51
NtRp4471
(dp4472
g54
(dp4473
g62
I3
ssg63
g4467
sg56
(lp4474
g49
(g58
g51
NtRp4475
(dp4476
g54
(dp4477
g62
I2
ssg63
Nsg56
(lp4478
sbasbasbasbasbasbasbasbag49
(g65
g51
NtRp4479
(dp4480
g54
(dp4481
sg63
g4404
sg56
(lp4482
g49
(g70
g51
NtRp4483
(dp4484
g54
(dp4485
sg63
g4479
sg56
(lp4486
g49
(g50
g51
NtRp4487
(dp4488
g54
(dp4489
g62
I4
ssg63
g4483
sg56
(lp4490
g49
(g58
g51
NtRp4491
(dp4492
g54
(dp4493
g62
I3
ssg63
Nsg56
(lp4494
g49
(g65
g51
NtRp4495
(dp4496
g54
(dp4497
sg63
g4491
sg56
(lp4498
g49
(g70
g51
NtRp4499
(dp4500
g54
(dp4501
sg63
g4495
sg56
(lp4502
g49
(g50
g51
NtRp4503
(dp4504
g54
(dp4505
g62
I3
ssg63
g4499
sg56
(lp4506
g49
(cgluon.html
SPAN
p4507
g51
NtRp4508
(dp4509
g54
(dp4510
g74
S'color:yellow'
p4511
ssg63
Nsg56
(lp4512
g4382
asbasbasbasbag49
(g65
g51
NtRp4513
(dp4514
g54
(dp4515
sg63
g4491
sg56
(lp4516
g49
(g70
g51
NtRp4517
(dp4518
g54
(dp4519
sg63
g4513
sg56
(lp4520
g49
(g50
g51
NtRp4521
(dp4522
g54
(dp4523
g62
I3
ssg63
g4517
sg56
(lp4524
g92
asbasbasbag49
(g65
g51
NtRp4525
(dp4526
g54
(dp4527
sg63
g4491
sg56
(lp4528
g49
(g70
g51
NtRp4529
(dp4530
g54
(dp4531
sg63
g4525
sg56
(lp4532
g49
(g50
g51
NtRp4533
(dp4534
g54
(dp4535
g62
I3
ssg63
g4529
sg56
(lp4536
S'None'
p4537
asbasbasbag49
(g65
g51
NtRp4538
(dp4539
g54
(dp4540
sg63
g4491
sg56
(lp4541
g49
(g70
g51
NtRp4542
(dp4543
g54
(dp4544
sg63
g4538
sg56
(lp4545
g49
(g50
g51
NtRp4546
(dp4547
g54
(dp4548
g62
I3
ssg63
g4542
sg56
(lp4549
g49
(g58
g51
NtRp4550
(dp4551
g54
(dp4552
g62
I2
ssg63
Nsg56
(lp4553
g49
(g65
g51
NtRp4554
(dp4555
g54
(dp4556
sg63
g4550
sg56
(lp4557
g49
(g70
g51
NtRp4558
(dp4559
g54
(dp4560
sg63
g4554
sg56
(lp4561
g49
(g50
g51
NtRp4562
(dp4563
g54
(dp4564
g62
I2
ssg63
g4558
sg56
(lp4565
g49
(g58
g51
NtRp4566
(dp4567
g54
(dp4568
g62
I1
ssg63
Nsg56
(lp4569
g49
(g65
g51
NtRp4570
(dp4571
g54
(dp4572
sg63
g4566
sg56
(lp4573
g49
(g70
g51
NtRp4574
(dp4575
g54
(dp4576
sg63
g4570
sg56
(lp4577
g49
(g50
g51
NtRp4578
(dp4579
g54
(dp4580
g62
I1
ssg63
g4574
sg56
(lp4581
g4436
(S's\x08\x00\x00\x00My Sites'
tRp4582
asbasbasbag49
(g65
g51
NtRp4583
(dp4584
g54
(dp4585
sg63
g4566
sg56
(lp4586
g49
(g70
g51
NtRp4587
(dp4588
g54
(dp4589
sg63
g4583
sg56
(lp4590
g49
(g50
g51
NtRp4591
(dp4592
g54
(dp4593
g62
I1
ssg63
g4587
sg56
(lp4594
I00
asbasbasbag49
(g65
g51
NtRp4595
(dp4596
g54
(dp4597
sg63
g4566
sg56
(lp4598
g49
(g70
g51
NtRp4599
(dp4600
g54
(dp4601
sg63
g4595
sg56
(lp4602
g49
(g50
g51
NtRp4603
(dp4604
g54
(dp4605
g62
I1
ssg63
g4599
sg56
(lp4606
S'/admin/default/site'
p4607
asbasbasbasbasbasbasbag49
(g65
g51
NtRp4608
(dp4609
g54
(dp4610
sg63
g4550
sg56
(lp4611
g49
(g70
g51
NtRp4612
(dp4613
g54
(dp4614
sg63
g4608
sg56
(lp4615
g49
(g50
g51
NtRp4616
(dp4617
g54
(dp4618
g62
I2
ssg63
g4612
sg56
(lp4619
g49
(g58
g51
NtRp4620
(dp4621
g54
(dp4622
g62
I1
ssg63
Nsg56
(lp4623
g49
(g65
g51
NtRp4624
(dp4625
g54
(dp4626
sg63
g4620
sg56
(lp4627
g49
(g70
g51
NtRp4628
(dp4629
g54
(dp4630
sg63
g4624
sg56
(lp4631
g49
(g50
g51
NtRp4632
(dp4633
g54
(dp4634
g62
I1
ssg63
g4628
sg56
(lp4635
g4436
(S's\x08\x00\x00\x00This App'
tRp4636
asbasbasbag49
(g65
g51
NtRp4637
(dp4638
g54
(dp4639
sg63
g4620
sg56
(lp4640
g49
(g70
g51
NtRp4641
(dp4642
g54
(dp4643
sg63
g4637
sg56
(lp4644
g49
(g50
g51
NtRp4645
(dp4646
g54
(dp4647
g62
I1
ssg63
g4641
sg56
(lp4648
I00
asbasbasbag49
(g65
g51
NtRp4649
(dp4650
g54
(dp4651
sg63
g4620
sg56
(lp4652
g49
(g70
g51
NtRp4653
(dp4654
g54
(dp4655
sg63
g4649
sg56
(lp4656
g49
(g50
g51
NtRp4657
(dp4658
g54
(dp4659
g62
I1
ssg63
g4653
sg56
(lp4660
S'/admin/default/design/SlugBarter'
p4661
asbasbasbag49
(g65
g51
NtRp4662
(dp4663
g54
(dp4664
sg63
g4620
sg56
(lp4665
g49
(g70
g51
NtRp4666
(dp4667
g54
(dp4668
sg63
g4662
sg56
(lp4669
g49
(g50
g51
NtRp4670
(dp4671
g54
(dp4672
g62
I1
ssg63
g4666
sg56
(lp4673
(lp4674
(g4436
(S's\n\x00\x00\x00Controller'
tRp4675
I00
S'/admin/default/edit/SlugBarter/controllers/default.py'
tp4676
a(g4436
(S's\x04\x00\x00\x00View'
tRp4677
I00
S'/admin/default/edit/SlugBarter/views/default/postlisting.html'
tp4678
a(g4436
(S's\x06\x00\x00\x00Layout'
tRp4679
I00
S'/admin/default/edit/SlugBarter/views/layout.html'
tp4680
a(g4436
(S's\n\x00\x00\x00Stylesheet'
tRp4681
I00
S'/admin/default/edit/SlugBarter/static/css/web2py.css'
tp4682
a(g4436
(S's\x08\x00\x00\x00DB Model'
tRp4683
I00
S'/admin/default/edit/SlugBarter/models/db.py'
tp4684
a(g4436
(S's\n\x00\x00\x00Menu Model'
tRp4685
I00
S'/admin/default/edit/SlugBarter/models/menu.py'
tp4686
a(g4436
(S's\x08\x00\x00\x00Database'
tRp4687
I00
S'/SlugBarter/appadmin/index'
tp4688
a(g4436
(S's\x06\x00\x00\x00Errors'
tRp4689
I00
S'/admin/default/errors/SlugBarter'
tp4690
a(g4436
(S's\x05\x00\x00\x00About'
tRp4691
I00
S'/admin/default/about/SlugBarter'
tp4692
aasbasbasbasbasbasbasbag49
(g65
g51
NtRp4693
(dp4694
g54
(dp4695
sg63
g4550
sg56
(lp4696
g49
(g70
g51
NtRp4697
(dp4698
g54
(dp4699
sg63
g4693
sg56
(lp4700
g49
(g50
g51
NtRp4701
(dp4702
g54
(dp4703
g62
I2
ssg63
g4697
sg56
(lp4704
g49
(g58
g51
NtRp4705
(dp4706
g54
(dp4707
g62
I1
ssg63
Nsg56
(lp4708
g49
(g65
g51
NtRp4709
(dp4710
g54
(dp4711
sg63
g4705
sg56
(lp4712
g49
(g70
g51
NtRp4713
(dp4714
g54
(dp4715
sg63
g4709
sg56
(lp4716
g49
(g50
g51
NtRp4717
(dp4718
g54
(dp4719
g62
I1
ssg63
g4713
sg56
(lp4720
S'web2py.com'
p4721
asbasbasbag49
(g65
g51
NtRp4722
(dp4723
g54
(dp4724
sg63
g4705
sg56
(lp4725
g49
(g70
g51
NtRp4726
(dp4727
g54
(dp4728
sg63
g4722
sg56
(lp4729
g49
(g50
g51
NtRp4730
(dp4731
g54
(dp4732
g62
I1
ssg63
g4726
sg56
(lp4733
I00
asbasbasbag49
(g65
g51
NtRp4734
(dp4735
g54
(dp4736
sg63
g4705
sg56
(lp4737
g49
(g70
g51
NtRp4738
(dp4739
g54
(dp4740
sg63
g4734
sg56
(lp4741
g49
(g50
g51
NtRp4742
(dp4743
g54
(dp4744
g62
I1
ssg63
g4738
sg56
(lp4745
S'http://www.web2py.com'
p4746
asbasbasbag49
(g65
g51
NtRp4747
(dp4748
g54
(dp4749
sg63
g4705
sg56
(lp4750
g49
(g70
g51
NtRp4751
(dp4752
g54
(dp4753
sg63
g4747
sg56
(lp4754
g49
(g50
g51
NtRp4755
(dp4756
g54
(dp4757
g62
I1
ssg63
g4751
sg56
(lp4758
(lp4759
(g4436
(S's\x08\x00\x00\x00Download'
tRp4760
I00
S'http://www.web2py.com/examples/default/download'
p4761
tp4762
a(g4436
(S's\x07\x00\x00\x00Support'
tRp4763
I00
S'http://www.web2py.com/examples/default/support'
p4764
tp4765
a(g4436
(S's\x04\x00\x00\x00Demo'
tRp4766
I00
S'http://web2py.com/demo_admin'
p4767
tp4768
a(g4436
(S's\x0e\x00\x00\x00Quick Examples'
tRp4769
I00
S'http://web2py.com/examples/default/examples'
p4770
tp4771
a(g4436
(S's\x03\x00\x00\x00FAQ'
tRp4772
I00
S'http://web2py.com/AlterEgo'
p4773
tp4774
a(g4436
(S's\x06\x00\x00\x00Videos'
tRp4775
I00
S'http://www.web2py.com/examples/default/videos/'
p4776
tp4777
a(g4436
(S's\x11\x00\x00\x00Free Applications'
tRp4778
I00
S'http://web2py.com/appliances'
p4779
tp4780
a(g4436
(S's\x07\x00\x00\x00Plugins'
tRp4781
I00
S'http://web2py.com/plugins'
p4782
tp4783
a(g4436
(S's\x07\x00\x00\x00Layouts'
tRp4784
I00
S'http://web2py.com/layouts'
p4785
tp4786
a(g4436
(S's\x07\x00\x00\x00Recipes'
tRp4787
I00
S'http://web2pyslices.com/'
p4788
tp4789
a(g4436
(S's\x08\x00\x00\x00Semantic'
tRp4790
I00
S'http://web2py.com/semantic'
p4791
tp4792
aasbasbasbasbasbasbasbag49
(g65
g51
NtRp4793
(dp4794
g54
(dp4795
sg63
g4550
sg56
(lp4796
g49
(g70
g51
NtRp4797
(dp4798
g54
(dp4799
sg63
g4793
sg56
(lp4800
g49
(g50
g51
NtRp4801
(dp4802
g54
(dp4803
g62
I2
ssg63
g4797
sg56
(lp4804
g49
(g58
g51
NtRp4805
(dp4806
g54
(dp4807
g62
I1
ssg63
Nsg56
(lp4808
g49
(g65
g51
NtRp4809
(dp4810
g54
(dp4811
sg63
g4805
sg56
(lp4812
g49
(g70
g51
NtRp4813
(dp4814
g54
(dp4815
sg63
g4809
sg56
(lp4816
g49
(g50
g51
NtRp4817
(dp4818
g54
(dp4819
g62
I1
ssg63
g4813
sg56
(lp4820
g4436
(S's\r\x00\x00\x00Documentation'
tRp4821
asbasbasbag49
(g65
g51
NtRp4822
(dp4823
g54
(dp4824
sg63
g4805
sg56
(lp4825
g49
(g70
g51
NtRp4826
(dp4827
g54
(dp4828
sg63
g4822
sg56
(lp4829
g49
(g50
g51
NtRp4830
(dp4831
g54
(dp4832
g62
I1
ssg63
g4826
sg56
(lp4833
I00
asbasbasbag49
(g65
g51
NtRp4834
(dp4835
g54
(dp4836
sg63
g4805
sg56
(lp4837
g49
(g70
g51
NtRp4838
(dp4839
g54
(dp4840
sg63
g4834
sg56
(lp4841
g49
(g50
g51
NtRp4842
(dp4843
g54
(dp4844
g62
I1
ssg63
g4838
sg56
(lp4845
S'http://www.web2py.com/book'
p4846
asbasbasbag49
(g65
g51
NtRp4847
(dp4848
g54
(dp4849
sg63
g4805
sg56
(lp4850
g49
(g70
g51
NtRp4851
(dp4852
g54
(dp4853
sg63
g4847
sg56
(lp4854
g49
(g50
g51
NtRp4855
(dp4856
g54
(dp4857
g62
I1
ssg63
g4851
sg56
(lp4858
(lp4859
(g4436
(S's\x07\x00\x00\x00Preface'
tRp4860
I00
S'http://www.web2py.com/book/default/chapter/00'
p4861
tp4862
a(g4436
(S's\x0c\x00\x00\x00Introduction'
tRp4863
I00
S'http://www.web2py.com/book/default/chapter/01'
p4864
tp4865
a(g4436
(S's\x06\x00\x00\x00Python'
tRp4866
I00
S'http://www.web2py.com/book/default/chapter/02'
p4867
tp4868
a(g4436
(S's\x08\x00\x00\x00Overview'
tRp4869
I00
S'http://www.web2py.com/book/default/chapter/03'
p4870
tp4871
a(g4436
(S's\x08\x00\x00\x00The Core'
tRp4872
I00
S'http://www.web2py.com/book/default/chapter/04'
p4873
tp4874
a(g4436
(S's\t\x00\x00\x00The Views'
tRp4875
I00
S'http://www.web2py.com/book/default/chapter/05'
p4876
tp4877
a(g4436
(S's\x08\x00\x00\x00Database'
tRp4878
I00
S'http://www.web2py.com/book/default/chapter/06'
p4879
tp4880
a(g4436
(S's\x14\x00\x00\x00Forms and Validators'
tRp4881
I00
S'http://www.web2py.com/book/default/chapter/07'
p4882
tp4883
a(g4436
(S's\r\x00\x00\x00Email and SMS'
tRp4884
I00
S'http://www.web2py.com/book/default/chapter/08'
p4885
tp4886
a(g4436
(S's\x0e\x00\x00\x00Access Control'
tRp4887
I00
S'http://www.web2py.com/book/default/chapter/09'
p4888
tp4889
a(g4436
(S's\x08\x00\x00\x00Services'
tRp4890
I00
S'http://www.web2py.com/book/default/chapter/10'
p4891
tp4892
a(g4436
(S's\x0c\x00\x00\x00Ajax Recipes'
tRp4893
I00
S'http://www.web2py.com/book/default/chapter/11'
p4894
tp4895
a(g4436
(S's\x16\x00\x00\x00Components and Plugins'
tRp4896
I00
S'http://www.web2py.com/book/default/chapter/12'
p4897
tp4898
a(g4436
(S's\x12\x00\x00\x00Deployment Recipes'
tRp4899
I00
S'http://www.web2py.com/book/default/chapter/13'
p4900
tp4901
a(g4436
(S's\r\x00\x00\x00Other Recipes'
tRp4902
I00
S'http://www.web2py.com/book/default/chapter/14'
p4903
tp4904
a(g4436
(S's\r\x00\x00\x00Buy this book'
tRp4905
I00
S'http://stores.lulu.com/web2py'
p4906
tp4907
aasbasbasbasbasbasbasbag49
(g65
g51
NtRp4908
(dp4909
g54
(dp4910
sg63
g4550
sg56
(lp4911
g49
(g70
g51
NtRp4912
(dp4913
g54
(dp4914
sg63
g4908
sg56
(lp4915
g49
(g50
g51
NtRp4916
(dp4917
g54
(dp4918
g62
I2
ssg63
g4912
sg56
(lp4919
g49
(g58
g51
NtRp4920
(dp4921
g54
(dp4922
g62
I1
ssg63
Nsg56
(lp4923
g49
(g65
g51
NtRp4924
(dp4925
g54
(dp4926
sg63
g4920
sg56
(lp4927
g49
(g70
g51
NtRp4928
(dp4929
g54
(dp4930
sg63
g4924
sg56
(lp4931
g49
(g50
g51
NtRp4932
(dp4933
g54
(dp4934
g62
I1
ssg63
g4928
sg56
(lp4935
g4436
(S's\t\x00\x00\x00Community'
tRp4936
asbasbasbag49
(g65
g51
NtRp4937
(dp4938
g54
(dp4939
sg63
g4920
sg56
(lp4940
g49
(g70
g51
NtRp4941
(dp4942
g54
(dp4943
sg63
g4937
sg56
(lp4944
g49
(g50
g51
NtRp4945
(dp4946
g54
(dp4947
g62
I1
ssg63
g4941
sg56
(lp4948
I00
asbasbasbag49
(g65
g51
NtRp4949
(dp4950
g54
(dp4951
sg63
g4920
sg56
(lp4952
g49
(g70
g51
NtRp4953
(dp4954
g54
(dp4955
sg63
g4949
sg56
(lp4956
g49
(g50
g51
NtRp4957
(dp4958
g54
(dp4959
g62
I1
ssg63
g4953
sg56
(lp4960
Nasbasbasbag49
(g65
g51
NtRp4961
(dp4962
g54
(dp4963
sg63
g4920
sg56
(lp4964
g49
(g70
g51
NtRp4965
(dp4966
g54
(dp4967
sg63
g4961
sg56
(lp4968
g49
(g50
g51
NtRp4969
(dp4970
g54
(dp4971
g62
I1
ssg63
g4965
sg56
(lp4972
(lp4973
(g4436
(S's\x06\x00\x00\x00Groups'
tRp4974
I00
S'http://www.web2py.com/examples/default/usergroups'
p4975
tp4976
a(g4436
(S's\x07\x00\x00\x00Twitter'
tRp4977
I00
S'http://twitter.com/web2py'
p4978
tp4979
a(g4436
(S's\t\x00\x00\x00Live Chat'
tRp4980
I00
S'http://webchat.freenode.net/?channels=web2py'
p4981
tp4982
aasbasbasbasbasbasbasbag49
(g65
g51
NtRp4983
(dp4984
g54
(dp4985
sg63
g4550
sg56
(lp4986
g49
(g70
g51
NtRp4987
(dp4988
g54
(dp4989
sg63
g4983
sg56
(lp4990
g49
(g50
g51
NtRp4991
(dp4992
g54
(dp4993
g62
I2
ssg63
g4987
sg56
(lp4994
g49
(g58
g51
NtRp4995
(dp4996
g54
(dp4997
g62
I1
ssg63
Nsg56
(lp4998
g49
(g65
g51
NtRp4999
(dp5000
g54
(dp5001
sg63
g4995
sg56
(lp5002
g49
(g70
g51
NtRp5003
(dp5004
g54
(dp5005
sg63
g4999
sg56
(lp5006
g49
(g50
g51
NtRp5007
(dp5008
g54
(dp5009
g62
I1
ssg63
g5003
sg56
(lp5010
g4436
(S's\x07\x00\x00\x00Plugins'
tRp5011
asbasbasbag49
(g65
g51
NtRp5012
(dp5013
g54
(dp5014
sg63
g4995
sg56
(lp5015
g49
(g70
g51
NtRp5016
(dp5017
g54
(dp5018
sg63
g5012
sg56
(lp5019
g49
(g50
g51
NtRp5020
(dp5021
g54
(dp5022
g62
I1
ssg63
g5016
sg56
(lp5023
I00
asbasbasbag49
(g65
g51
NtRp5024
(dp5025
g54
(dp5026
sg63
g4995
sg56
(lp5027
g49
(g70
g51
NtRp5028
(dp5029
g54
(dp5030
sg63
g5024
sg56
(lp5031
g49
(g50
g51
NtRp5032
(dp5033
g54
(dp5034
g62
I1
ssg63
g5028
sg56
(lp5035
Nasbasbasbag49
(g65
g51
NtRp5036
(dp5037
g54
(dp5038
sg63
g4995
sg56
(lp5039
g49
(g70
g51
NtRp5040
(dp5041
g54
(dp5042
sg63
g5036
sg56
(lp5043
g49
(g50
g51
NtRp5044
(dp5045
g54
(dp5046
g62
I1
ssg63
g5040
sg56
(lp5047
(lp5048
(S'plugin_wiki'
p5049
I00
S'http://web2py.com/examples/default/download'
p5050
tp5051
a(g4436
(S's\r\x00\x00\x00Other Plugins'
tRp5052
I00
g4782
tp5053
a(g4436
(S's\x0e\x00\x00\x00Layout Plugins'
tRp5054
I00
g4785
tp5055
aasbasbasbasbasbasbasbasbasbasbasbasbasbasbasbasbasbasbasbag49
(g65
g51
NtRp5056
(dp5057
g54
(dp5058
sg63
g3900
sg56
(lp5059
g49
(g70
g51
NtRp5060
(dp5061
g54
(dp5062
g74
g75
ssg63
g5056
sg56
(lp5063
S'meta'
p5064
asbag49
(g70
g51
NtRp5065
(dp5066
g54
(dp5067
g81
g82
ssg63
g5056
sg56
(lp5068
S':'
asbag49
(g70
g51
NtRp5069
(dp5070
g54
(dp5071
sg63
g5056
sg56
(lp5072
g49
(g50
g51
NtRp5073
(dp5074
g54
(dp5075
g62
I5
ssg63
g5069
sg56
(lp5076
g49
(g58
g51
NtRp5077
(dp5078
g54
(dp5079
g62
I4
ssg63
Nsg56
(lp5080
g49
(g65
g51
NtRp5081
(dp5082
g54
(dp5083
sg63
g5077
sg56
(lp5084
g49
(g70
g51
NtRp5085
(dp5086
g54
(dp5087
g74
g75
ssg63
g5081
sg56
(lp5088
S'author'
p5089
asbag49
(g70
g51
NtRp5090
(dp5091
g54
(dp5092
g81
g82
ssg63
g5081
sg56
(lp5093
S':'
asbag49
(g70
g51
NtRp5094
(dp5095
g54
(dp5096
sg63
g5081
sg56
(lp5097
g49
(g50
g51
NtRp5098
(dp5099
g54
(dp5100
g62
I4
ssg63
g5094
sg56
(lp5101
S'Your Name <you@example.com>'
p5102
asbasbasbag49
(g65
g51
NtRp5103
(dp5104
g54
(dp5105
sg63
g5077
sg56
(lp5106
g49
(g70
g51
NtRp5107
(dp5108
g54
(dp5109
g74
g75
ssg63
g5103
sg56
(lp5110
S'copyright'
p5111
asbag49
(g70
g51
NtRp5112
(dp5113
g54
(dp5114
g81
g82
ssg63
g5103
sg56
(lp5115
S':'
asbag49
(g70
g51
NtRp5116
(dp5117
g54
(dp5118
sg63
g5103
sg56
(lp5119
g49
(g50
g51
NtRp5120
(dp5121
g54
(dp5122
g62
I4
ssg63
g5116
sg56
(lp5123
S'Copyright 2011'
p5124
asbasbasbag49
(g65
g51
NtRp5125
(dp5126
g54
(dp5127
sg63
g5077
sg56
(lp5128
g49
(g70
g51
NtRp5129
(dp5130
g54
(dp5131
g74
g75
ssg63
g5125
sg56
(lp5132
S'description'
p5133
asbag49
(g70
g51
NtRp5134
(dp5135
g54
(dp5136
g81
g82
ssg63
g5125
sg56
(lp5137
S':'
asbag49
(g70
g51
NtRp5138
(dp5139
g54
(dp5140
sg63
g5125
sg56
(lp5141
g49
(g50
g51
NtRp5142
(dp5143
g54
(dp5144
g62
I4
ssg63
g5138
sg56
(lp5145
S'a cool new app'
p5146
asbasbasbag49
(g65
g51
NtRp5147
(dp5148
g54
(dp5149
sg63
g5077
sg56
(lp5150
g49
(g70
g51
NtRp5151
(dp5152
g54
(dp5153
g74
g75
ssg63
g5147
sg56
(lp5154
S'generator'
p5155
asbag49
(g70
g51
NtRp5156
(dp5157
g54
(dp5158
g81
g82
ssg63
g5147
sg56
(lp5159
S':'
asbag49
(g70
g51
NtRp5160
(dp5161
g54
(dp5162
sg63
g5147
sg56
(lp5163
g49
(g50
g51
NtRp5164
(dp5165
g54
(dp5166
g62
I4
ssg63
g5160
sg56
(lp5167
S'Web2py Web Framework'
p5168
asbasbasbag49
(g65
g51
NtRp5169
(dp5170
g54
(dp5171
sg63
g5077
sg56
(lp5172
g49
(g70
g51
NtRp5173
(dp5174
g54
(dp5175
g74
g75
ssg63
g5169
sg56
(lp5176
S'keywords'
p5177
asbag49
(g70
g51
NtRp5178
(dp5179
g54
(dp5180
g81
g82
ssg63
g5169
sg56
(lp5181
S':'
asbag49
(g70
g51
NtRp5182
(dp5183
g54
(dp5184
sg63
g5169
sg56
(lp5185
g49
(g50
g51
NtRp5186
(dp5187
g54
(dp5188
g62
I4
ssg63
g5182
sg56
(lp5189
S'web2py, python, framework'
p5190
asbasbasbasbasbasbasbag49
(g65
g51
NtRp5191
(dp5192
g54
(dp5193
sg63
g3900
sg56
(lp5194
g49
(g70
g51
NtRp5195
(dp5196
g54
(dp5197
g74
g75
ssg63
g5191
sg56
(lp5198
S'postprocessing'
p5199
asbag49
(g70
g51
NtRp5200
(dp5201
g54
(dp5202
g81
g82
ssg63
g5191
sg56
(lp5203
S':'
asbag49
(g70
g51
NtRp5204
(dp5205
g54
(dp5206
sg63
g5191
sg56
(lp5207
g49
(g50
g51
NtRp5208
(dp5209
g54
(dp5210
g62
I5
ssg63
g5204
sg56
(lp5211
g49
(g58
g51
NtRp5212
(dp5213
g54
(dp5214
g62
I4
ssg63
Nsg56
(lp5215
sbasbasbasbag49
(g65
g51
NtRp5216
(dp5217
g54
(dp5218
sg63
g3900
sg56
(lp5219
g49
(g70
g51
NtRp5220
(dp5221
g54
(dp5222
g74
g75
ssg63
g5216
sg56
(lp5223
S'session_file'
p5224
asbag49
(g70
g51
NtRp5225
(dp5226
g54
(dp5227
g81
g82
ssg63
g5216
sg56
(lp5228
S':'
asbag49
(g70
g51
NtRp5229
(dp5230
g54
(dp5231
sg63
g5216
sg56
(lp5232
g49
(g50
g51
NtRp5233
(dp5234
g54
(dp5235
g62
I5
ssg63
g5229
sg56
(lp5236
S"<open file 'C:\\Users\\omkara\\Desktop\\web2py\\applications\\SlugBarter\\sessions\\127.0.0.1-e6ebae72-1bbc-48a5-9458-95dbb65a4e54', mode 'rb+' at 0x06BC4848>"
p5237
asbasbasbag49
(g65
g51
NtRp5238
(dp5239
g54
(dp5240
sg63
g3900
sg56
(lp5241
g49
(g70
g51
NtRp5242
(dp5243
g54
(dp5244
g74
g75
ssg63
g5238
sg56
(lp5245
S'session_filename'
p5246
asbag49
(g70
g51
NtRp5247
(dp5248
g54
(dp5249
g81
g82
ssg63
g5238
sg56
(lp5250
S':'
asbag49
(g70
g51
NtRp5251
(dp5252
g54
(dp5253
sg63
g5238
sg56
(lp5254
g49
(g50
g51
NtRp5255
(dp5256
g54
(dp5257
g62
I5
ssg63
g5251
sg56
(lp5258
S'C:\\Users\\omkara\\Desktop\\web2py\\applications\\SlugBarter\\sessions\\127.0.0.1-e6ebae72-1bbc-48a5-9458-95dbb65a4e54'
p5259
asbasbasbag49
(g65
g51
NtRp5260
(dp5261
g54
(dp5262
sg63
g3900
sg56
(lp5263
g49
(g70
g51
NtRp5264
(dp5265
g54
(dp5266
g74
g75
ssg63
g5260
sg56
(lp5267
S'session_id'
p5268
asbag49
(g70
g51
NtRp5269
(dp5270
g54
(dp5271
g81
g82
ssg63
g5260
sg56
(lp5272
S':'
asbag49
(g70
g51
NtRp5273
(dp5274
g54
(dp5275
sg63
g5260
sg56
(lp5276
g49
(g50
g51
NtRp5277
(dp5278
g54
(dp5279
g62
I5
ssg63
g5273
sg56
(lp5280
S'127.0.0.1-e6ebae72-1bbc-48a5-9458-95dbb65a4e54'
p5281
asbasbasbag49
(g65
g51
NtRp5282
(dp5283
g54
(dp5284
sg63
g3900
sg56
(lp5285
g49
(g70
g51
NtRp5286
(dp5287
g54
(dp5288
g74
g75
ssg63
g5282
sg56
(lp5289
S'session_id_name'
p5290
asbag49
(g70
g51
NtRp5291
(dp5292
g54
(dp5293
g81
g82
ssg63
g5282
sg56
(lp5294
S':'
asbag49
(g70
g51
NtRp5295
(dp5296
g54
(dp5297
sg63
g5282
sg56
(lp5298
g49
(g50
g51
NtRp5299
(dp5300
g54
(dp5301
g62
I5
ssg63
g5295
sg56
(lp5302
g3957
asbasbasbag49
(g65
g51
NtRp5303
(dp5304
g54
(dp5305
sg63
g3900
sg56
(lp5306
g49
(g70
g51
NtRp5307
(dp5308
g54
(dp5309
g74
g75
ssg63
g5303
sg56
(lp5310
S'session_locked'
p5311
asbag49
(g70
g51
NtRp5312
(dp5313
g54
(dp5314
g81
g82
ssg63
g5303
sg56
(lp5315
S':'
asbag49
(g70
g51
NtRp5316
(dp5317
g54
(dp5318
sg63
g5303
sg56
(lp5319
g49
(g50
g51
NtRp5320
(dp5321
g54
(dp5322
g62
I5
ssg63
g5316
sg56
(lp5323
g2234
asbasbasbag49
(g65
g51
NtRp5324
(dp5325
g54
(dp5326
sg63
g3900
sg56
(lp5327
g49
(g70
g51
NtRp5328
(dp5329
g54
(dp5330
g74
g75
ssg63
g5324
sg56
(lp5331
S'session_new'
p5332
asbag49
(g70
g51
NtRp5333
(dp5334
g54
(dp5335
g81
g82
ssg63
g5324
sg56
(lp5336
S':'
asbag49
(g70
g51
NtRp5337
(dp5338
g54
(dp5339
sg63
g5324
sg56
(lp5340
g49
(g50
g51
NtRp5341
(dp5342
g54
(dp5343
g62
I5
ssg63
g5337
sg56
(lp5344
g92
asbasbasbag49
(g65
g51
NtRp5345
(dp5346
g54
(dp5347
sg63
g3900
sg56
(lp5348
g49
(g70
g51
NtRp5349
(dp5350
g54
(dp5351
g74
g75
ssg63
g5345
sg56
(lp5352
S'status'
p5353
asbag49
(g70
g51
NtRp5354
(dp5355
g54
(dp5356
g81
g82
ssg63
g5345
sg56
(lp5357
S':'
asbag49
(g70
g51
NtRp5358
(dp5359
g54
(dp5360
sg63
g5345
sg56
(lp5361
g49
(g50
g51
NtRp5362
(dp5363
g54
(dp5364
g62
I5
ssg63
g5358
sg56
(lp5365
S'200'
p5366
asbasbasbag49
(g65
g51
NtRp5367
(dp5368
g54
(dp5369
sg63
g3900
sg56
(lp5370
g49
(g70
g51
NtRp5371
(dp5372
g54
(dp5373
g74
g75
ssg63
g5367
sg56
(lp5374
S'subtitle'
p5375
asbag49
(g70
g51
NtRp5376
(dp5377
g54
(dp5378
g81
g82
ssg63
g5367
sg56
(lp5379
S':'
asbag49
(g70
g51
NtRp5380
(dp5381
g54
(dp5382
sg63
g5367
sg56
(lp5383
g49
(g50
g51
NtRp5384
(dp5385
g54
(dp5386
g62
I5
ssg63
g5380
sg56
(lp5387
g4436
(S's\r\x00\x00\x00customize me!'
tRp5388
asbasbasbag49
(g65
g51
NtRp5389
(dp5390
g54
(dp5391
sg63
g3900
sg56
(lp5392
g49
(g70
g51
NtRp5393
(dp5394
g54
(dp5395
g74
g75
ssg63
g5389
sg56
(lp5396
S'title'
p5397
asbag49
(g70
g51
NtRp5398
(dp5399
g54
(dp5400
g81
g82
ssg63
g5389
sg56
(lp5401
S':'
asbag49
(g70
g51
NtRp5402
(dp5403
g54
(dp5404
sg63
g5389
sg56
(lp5405
g49
(g50
g51
NtRp5406
(dp5407
g54
(dp5408
g62
I5
ssg63
g5402
sg56
(lp5409
S'Slugbarter'
p5410
asbasbasbag49
(g65
g51
NtRp5411
(dp5412
g54
(dp5413
sg63
g3900
sg56
(lp5414
g49
(g70
g51
NtRp5415
(dp5416
g54
(dp5417
g74
g75
ssg63
g5411
sg56
(lp5418
g2985
asbag49
(g70
g51
NtRp5419
(dp5420
g54
(dp5421
g81
g82
ssg63
g5411
sg56
(lp5422
S':'
asbag49
(g70
g51
NtRp5423
(dp5424
g54
(dp5425
sg63
g5411
sg56
(lp5426
g49
(g50
g51
NtRp5427
(dp5428
g54
(dp5429
g62
I5
ssg63
g5423
sg56
(lp5430
g2998
asbasbasbag49
(g65
g51
NtRp5431
(dp5432
g54
(dp5433
sg63
g3900
sg56
(lp5434
g49
(g70
g51
NtRp5435
(dp5436
g54
(dp5437
g74
g75
ssg63
g5431
sg56
(lp5438
S'view'
p5439
asbag49
(g70
g51
NtRp5440
(dp5441
g54
(dp5442
g81
g82
ssg63
g5431
sg56
(lp5443
S':'
asbag49
(g70
g51
NtRp5444
(dp5445
g54
(dp5446
sg63
g5431
sg56
(lp5447
g49
(g50
g51
NtRp5448
(dp5449
g54
(dp5450
g62
I5
ssg63
g5444
sg56
(lp5451
S'default/postlisting.html'
p5452
asbasbasbasbasbsS'locals'
p5453
(dp5454
S'Service'
p5455
S"<class 'gluon.tools.Service'>"
p5456
sS'OBJECT'
p5457
S"<class 'gluon.html.OBJECT'>"
p5458
sS'SQLDB'
p5459
S"<class 'gluon.dal.DAL'>"
p5460
sg3860
S"<Storage {'last_query': 'db.listing.id>0', '_for...reate]': 'b03e2190-eaa9-4917-83d6-eb825ad9ff09'}>"
p5461
sS'LINK'
p5462
S"<class 'gluon.html.LINK'>"
p5463
sS'BR'
p5464
S"<class 'gluon.html.BR'>"
p5465
sS'local_import'
p5466
S'<function <lambda> at 0x06203E70>'
p5467
sS'OPTGROUP'
p5468
S"<class 'gluon.html.OPTGROUP'>"
p5469
sS'PRE'
p5470
S"<class 'gluon.html.PRE'>"
p5471
sS'IS_INT_IN_RANGE'
p5472
S"<class 'gluon.validators.IS_INT_IN_RANGE'>"
p5473
sS'IS_LOWER'
p5474
S"<class 'gluon.validators.IS_LOWER'>"
p5475
sS'IS_STRONG'
p5476
S"<class 'gluon.validators.IS_STRONG'>"
p5477
sS'cache'
p5478
S'<gluon.cache.Cache object at 0x06B22850>'
p5479
sS'IS_IN_DB'
p5480
S"<class 'gluon.validators.IS_IN_DB'>"
p5481
sS'TAG'
p5482
S'<gluon.html.__TAG__ object at 0x01E7FD50>'
p5483
sS'SQLField'
p5484
S"<class 'gluon.dal.Field'>"
p5485
sS'mail'
p5486
S'<gluon.tools.Mail object at 0x06F87110>'
p5487
sS'BODY'
p5488
S"<class 'gluon.html.BODY'>"
p5489
sS'IS_DATE_IN_RANGE'
p5490
S"<class 'gluon.validators.IS_DATE_IN_RANGE'>"
p5491
sS'IFRAME'
p5492
S"<class 'gluon.html.IFRAME'>"
p5493
sS'URL'
p5494
S'<function URL at 0x01EE7DF0>'
p5495
sS'__file__'
p5496
S"r'C:\\Users\\omkara\\Desktop\\web2py\\applications\\SlugBarter\\controllers/default.py'"
p5497
sS'db'
p5498
S"<DAL {'auth_event': <Table {'origin': <gluon.dal..._key': <gluon.dal.Field object at 0x06BE3F30>}>}>"
p5499
sS'auth'
p5500
S'<gluon.tools.Auth object at 0x06099550>'
p5501
sS'P'
S"<class 'gluon.html.P'>"
p5502
sS'TFOOT'
p5503
S"<class 'gluon.html.TFOOT'>"
p5504
sS'XHTML'
p5505
S"<class 'gluon.html.XHTML'>"
p5506
sS'datetime'
p5507
S"<type 'datetime.datetime'>"
p5508
sS'ON'
p5509
g2234
sS'OL'
p5510
S"<class 'gluon.html.OL'>"
p5511
sS'TEXTAREA'
p5512
S"<class 'gluon.html.TEXTAREA'>"
p5513
sS'MENU'
p5514
S"<class 'gluon.html.MENU'>"
p5515
sS'EM'
p5516
S"<class 'gluon.html.EM'>"
p5517
sS'CODE'
p5518
S"<class 'gluon.html.CODE'>"
p5519
sS'HTTP'
p5520
S"<class 'gluon.http.HTTP'>"
p5521
sS'HR'
p5522
S"<class 'gluon.html.HR'>"
p5523
sS'IS_DATETIME'
p5524
S"<class 'gluon.validators.IS_DATETIME'>"
p5525
sS'STYLE'
p5526
S"<class 'gluon.html.STYLE'>"
p5527
sS'LABEL'
p5528
S"<class 'gluon.html.LABEL'>"
p5529
sS'META'
p5530
S"<class 'gluon.html.META'>"
p5531
sS'plugins'
p5532
S'<gluon.tools.PluginManager object at 0x06009330>'
p5533
sS'SELECT'
p5534
S"<class 'gluon.html.SELECT'>"
p5535
sS'index'
p5536
S'<function index at 0x06203D30>'
p5537
sS'use_janrain'
p5538
S'<function use_janrain at 0x02974570>'
p5539
sS'CENTER'
p5540
S"<class 'gluon.html.CENTER'>"
p5541
sS'prettydate'
p5542
S'<function prettydate at 0x0296BB70>'
p5543
sS'Crud'
p5544
S"<class 'gluon.tools.Crud'>"
p5545
sS'Auth'
p5546
S"<class 'gluon.tools.Auth'>"
p5547
sS'__builtins__'
p5548
S"{'ArithmeticError': <type 'exceptions.ArithmeticError'>, 'AssertionError': <type 'exceptions.AssertionError'>, 'AttributeError': <type 'exceptions.AttributeError'>, 'BaseException': <type 'exceptions.BaseException'>, 'DeprecationWarning': <type 'exceptions.DeprecationWarning'>, 'EOFError': <type 'exceptions.EOFError'>, 'Ellipsis': Ellipsis, 'EnvironmentError': <type 'exceptions.EnvironmentError'>, 'Exception': <type 'exceptions.Exception'>, 'False': False, ...}"
p5549
sS'HTML'
p5550
S"<class 'gluon.html.HTML'>"
p5551
sS'SQLFORM'
p5552
S"<class 'gluon.sqlhtml.SQLFORM'>"
p5553
sS'LOAD'
p5554
S'<function LOAD at 0x0212A6F0>'
p5555
sS'redirect'
p5556
S'<function redirect at 0x01B42AB0>'
p5557
sS'FIELDSET'
p5558
S"<class 'gluon.html.FIELDSET'>"
p5559
sS'IS_EQUAL_TO'
p5560
S"<class 'gluon.validators.IS_EQUAL_TO'>"
p5561
sS'embed64'
p5562
S'<function embed64 at 0x01EF5930>'
p5563
sS'IS_LIST_OF'
p5564
S"<class 'gluon.validators.IS_LIST_OF'>"
p5565
sS'INPUT'
p5566
S"<class 'gluon.html.INPUT'>"
p5567
sS'EMBED'
p5568
S"<class 'gluon.html.EMBED'>"
p5569
sS'_'
S'<function _ at 0x06203730>'
p5570
sS'FORM'
p5571
S"<class 'gluon.html.FORM'>"
p5572
sS'H2'
p5573
S"<class 'gluon.html.H2'>"
p5574
sS'H3'
p5575
S"<class 'gluon.html.H3'>"
p5576
sS'BUTTON'
p5577
S"<class 'gluon.html.BUTTON'>"
p5578
sS'H1'
p5579
S"<class 'gluon.html.H1'>"
p5580
sS'H6'
p5581
S"<class 'gluon.html.H6'>"
p5582
sS'H4'
p5583
S"<class 'gluon.html.H4'>"
p5584
sS'H5'
p5585
S"<class 'gluon.html.H5'>"
p5586
sS'UL'
p5587
S"<class 'gluon.html.UL'>"
p5588
sS'IS_UPPER'
p5589
S"<class 'gluon.validators.IS_UPPER'>"
p5590
sS'xmlescape'
p5591
S'<function xmlescape at 0x01EE7D70>'
p5592
sS'login'
p5593
S'<function login at 0x06203630>'
p5594
sS'IS_TIME'
p5595
S"<class 'gluon.validators.IS_TIME'>"
p5596
sS'OPTION'
p5597
S"<class 'gluon.html.OPTION'>"
p5598
sS'TITLE'
p5599
S"<class 'gluon.html.TITLE'>"
p5600
sS'CRYPT'
p5601
S"<class 'gluon.validators.CRYPT'>"
p5602
sS'IS_EMPTY_OR'
p5603
S"<class 'gluon.validators.IS_EMPTY_OR'>"
p5604
sS'MARKMIN'
p5605
S"<class 'gluon.html.MARKMIN'>"
p5606
sS'__name__'
p5607
S"'__restricted__'"
p5608
sS'COL'
p5609
S"<class 'gluon.html.COL'>"
p5610
sS'service'
p5611
S'<gluon.tools.Service object at 0x06D01A30>'
p5612
sS'SCRIPT'
p5613
S"<class 'gluon.html.SCRIPT'>"
p5614
sS'TABLE'
p5615
S"<class 'gluon.html.TABLE'>"
p5616
sS'IS_IPV4'
p5617
S"<class 'gluon.validators.IS_IPV4'>"
p5618
sS'IS_LENGTH'
p5619
S"<class 'gluon.validators.IS_LENGTH'>"
p5620
sS'XML'
p5621
S"<class 'gluon.html.XML'>"
p5622
sS'B'
S"<class 'gluon.html.B'>"
p5623
sS'IMG'
p5624
S"<class 'gluon.html.IMG'>"
p5625
sS'SQLTABLE'
p5626
S"<class 'gluon.sqlhtml.SQLTABLE'>"
p5627
sS'IS_MATCH'
p5628
S"<class 'gluon.validators.IS_MATCH'>"
p5629
sS'IS_ALPHANUMERIC'
p5630
S"<class 'gluon.validators.IS_ALPHANUMERIC'>"
p5631
sS'SPAN'
p5632
S"<class 'gluon.html.SPAN'>"
p5633
sS'IS_SLUG'
p5634
S"<class 'gluon.validators.IS_SLUG'>"
p5635
sS'CLEANUP'
p5636
S"<class 'gluon.validators.CLEANUP'>"
p5637
sS'IS_DATE'
p5638
S"<class 'gluon.validators.IS_DATE'>"
p5639
sS'IS_EMAIL'
p5640
S"<class 'gluon.validators.IS_EMAIL'>"
p5641
sS'IS_DECIMAL_IN_RANGE'
p5642
S"<class 'gluon.validators.IS_DECIMAL_IN_RANGE'>"
p5643
sS'IS_NOT_EMPTY'
p5644
S"<class 'gluon.validators.IS_NOT_EMPTY'>"
p5645
sS'IS_FLOAT_IN_RANGE'
p5646
S"<class 'gluon.validators.IS_FLOAT_IN_RANGE'>"
p5647
sS'BEAUTIFY'
p5648
S"<class 'gluon.html.BEAUTIFY'>"
p5649
sS'TBODY'
p5650
S"<class 'gluon.html.TBODY'>"
p5651
sS'CAT'
p5652
S"<class 'gluon.html.CAT'>"
p5653
sS'Field'
p5654
S"<class 'gluon.dal.Field'>"
p5655
sS'DIV'
p5656
S"<class 'gluon.html.DIV'>"
p5657
sS'LEGEND'
p5658
S"<class 'gluon.html.LEGEND'>"
p5659
sS'COLGROUP'
p5660
S"<class 'gluon.html.COLGROUP'>"
p5661
sS'DAL'
p5662
S"<class 'gluon.dal.DAL'>"
p5663
sS'TT'
p5664
S"<class 'gluon.html.TT'>"
p5665
sS'TR'
p5666
S"<class 'gluon.html.TR'>"
p5667
sS'LI'
p5668
S"<class 'gluon.html.LI'>"
p5669
sS'TH'
p5670
S"<class 'gluon.html.TH'>"
p5671
sS'TD'
p5672
S"<class 'gluon.html.TD'>"
p5673
sS'PluginManager'
p5674
S"<class 'gluon.tools.PluginManager'>"
p5675
sS'IS_URL'
p5676
S"<class 'gluon.validators.IS_URL'>"
p5677
sS'A'
S"<class 'gluon.html.A'>"
p5678
sS'HEAD'
p5679
S"<class 'gluon.html.HEAD'>"
p5680
sS'IS_DATETIME_IN_RANGE'
p5681
S"<class 'gluon.validators.IS_DATETIME_IN_RANGE'>"
p5682
sS'IS_IMAGE'
p5683
S"<class 'gluon.validators.IS_IMAGE'>"
p5684
sS'I'
S"<class 'gluon.html.I'>"
p5685
sS'crud'
p5686
S'<gluon.tools.Crud object at 0x06D01190>'
p5687
sS'IS_NOT_IN_DB'
p5688
S"<class 'gluon.validators.IS_NOT_IN_DB'>"
p5689
sg3895
S"<Storage {'body': <cStringIO.StringO object at 0...0x05ED60F0>, 'view': 'default/postlisting.html'}>"
p5690
sS'THEAD'
p5691
S"<class 'gluon.html.THEAD'>"
p5692
sS'IS_NULL_OR'
p5693
S"<class 'gluon.validators.IS_EMPTY_OR'>"
p5694
sS'register'
p5695
S'<function register at 0x062035F0>'
p5696
sg48
S"<Storage {'body': <open file '<fdopen>', mode 'w...listing/create', 'description': 'Hello world'}>}>"
p5697
sS'IS_EXPR'
p5698
S"<class 'gluon.validators.IS_EXPR'>"
p5699
sS'IS_IN_SET'
p5700
S"<class 'gluon.validators.IS_IN_SET'>"
p5701
sS'IS_UPLOAD_FILENAME'
p5702
S"<class 'gluon.validators.IS_UPLOAD_FILENAME'>"
p5703
sS'mypage'
p5704
S'<function mypage at 0x06203470>'
p5705
sS'T'
S'<gluon.languages.translator object at 0x072940F0>'
p5706
sssS'traceback'
p5707
S'Traceback (most recent call last):\n  File "gluon/restricted.py", line 205, in restricted\n  File "C:\\Users\\omkara\\Desktop\\web2py\\applications\\SlugBarter\\controllers/default.py", line 30, in <module>\nAttributeError: \'function\' object has no attribute \'login\'\n'
p5708
s.