(dp1
S'output'
p2
S"<type 'exceptions.ValueError'> invalid literal for int() with base 10: 'None'"
p3
sS'layer'
p4
S'C:\\Users\\omkara\\Desktop\\web2py\\applications\\SlugBarter\\controllers/appadmin.py'
p5
sS'code'
p6
S'# -*- coding: utf-8 -*-\n\n# ##########################################################\n# ## make sure administrator is on localhost\n# ###########################################################\n\nimport os\nimport socket\nimport datetime\nimport copy\nimport gluon.contenttype\nimport gluon.fileutils\n\n# ## critical --- make a copy of the environment\n\nglobal_env = copy.copy(globals())\nglobal_env[\'datetime\'] = datetime\n\nhttp_host = request.env.http_host.split(\':\')[0]\nremote_addr = request.env.remote_addr\ntry:\n    hosts = (http_host, socket.gethostname(),\n             socket.gethostbyname(http_host),\n             \'::1\',\'127.0.0.1\',\'::ffff:127.0.0.1\')\nexcept:\n    hosts = (http_host, )\n\nif request.env.http_x_forwarded_for or request.env.wsgi_url_scheme\\\n     in [\'https\', \'HTTPS\']:\n    session.secure()\nelif (remote_addr not in hosts) and (remote_addr != "127.0.0.1"):\n    raise HTTP(200, T(\'appadmin is disabled because insecure channel\'))\n\nif (request.application==\'admin\' and not session.authorized) or \\\n        (request.application!=\'admin\' and not gluon.fileutils.check_credentials(request)):\n    redirect(URL(\'admin\', \'default\', \'index\',\n                 vars=dict(send=URL(args=request.args,vars=request.vars))))\n\nignore_rw = True\nresponse.view = \'appadmin.html\'\nresponse.menu = [[T(\'design\'), False, URL(\'admin\', \'default\', \'design\',\n                 args=[request.application])], [T(\'db\'), False,\n                 URL(\'index\')], [T(\'state\'), False,\n                 URL(\'state\')], [T(\'cache\'), False,\n                 URL(\'ccache\')]]\n\n# ##########################################################\n# ## auxiliary functions\n# ###########################################################\n\n\ndef get_databases(request):\n    dbs = {}\n    for (key, value) in global_env.items():\n        cond = False\n        try:\n            cond = isinstance(value, GQLDB)\n        except:\n            cond = isinstance(value, SQLDB)\n        if cond:\n            dbs[key] = value\n    return dbs\n\n\ndatabases = get_databases(None)\n\n\ndef eval_in_global_env(text):\n    exec (\'_ret=%s\' % text, {}, global_env)\n    return global_env[\'_ret\']\n\n\ndef get_database(request):\n    if request.args and request.args[0] in databases:\n        return eval_in_global_env(request.args[0])\n    else:\n        session.flash = T(\'invalid request\')\n        redirect(URL(\'index\'))\n\n\ndef get_table(request):\n    db = get_database(request)\n    if len(request.args) > 1 and request.args[1] in db.tables:\n        return (db, request.args[1])\n    else:\n        session.flash = T(\'invalid request\')\n        redirect(URL(\'index\'))\n\n\ndef get_query(request):\n    try:\n        return eval_in_global_env(request.vars.query)\n    except Exception:\n        return None\n\n\ndef query_by_table_type(tablename,db,request=request):\n    keyed = hasattr(db[tablename],\'_primarykey\')\n    if keyed:\n        firstkey = db[tablename][db[tablename]._primarykey[0]]\n        cond = \'>0\'\n        if firstkey.type in [\'string\', \'text\']:\n            cond = \'!=""\'\n        qry = \'%s.%s.%s%s\' % (request.args[0], request.args[1], firstkey.name, cond)\n    else:\n        qry = \'%s.%s.id>0\' % tuple(request.args[:2])\n    return qry\n\n\n\n# ##########################################################\n# ## list all databases and tables\n# ###########################################################\n\n\ndef index():\n    return dict(databases=databases)\n\n\n# ##########################################################\n# ## insert a new record\n# ###########################################################\n\n\ndef insert():\n    (db, table) = get_table(request)\n    form = SQLFORM(db[table], ignore_rw=ignore_rw)\n    if form.accepts(request.vars, session):\n        response.flash = T(\'new record inserted\')\n    return dict(form=form,table=db[table])\n\n\n# ##########################################################\n# ## list all records in table and insert new record\n# ###########################################################\n\n\ndef download():\n    import os\n    db = get_database(request)\n    return response.download(request,db)\n\ndef csv():\n    import gluon.contenttype\n    response.headers[\'Content-Type\'] = \\\n        gluon.contenttype.contenttype(\'.csv\')\n    db = get_database(request)\n    query = get_query(request)\n    if not query:\n        return None\n    response.headers[\'Content-disposition\'] = \'attachment; filename=%s_%s.csv\'\\\n         % tuple(request.vars.query.split(\'.\')[:2])\n    return str(db(query,ignore_common_filters=True).select())\n\n\ndef import_csv(table, file):\n    table.import_from_csv_file(file)\n\ndef select():\n    import re\n    db = get_database(request)\n    dbname = request.args[0]\n    regex = re.compile(\'(?P<table>\\w+)\\.(?P<field>\\w+)=(?P<value>\\d+)\')\n    if len(request.args)>1 and hasattr(db[request.args[1]],\'_primarykey\'):\n        regex = re.compile(\'(?P<table>\\w+)\\.(?P<field>\\w+)=(?P<value>.+)\')\n    if request.vars.query:\n        match = regex.match(request.vars.query)\n        if match:\n            request.vars.query = \'%s.%s.%s==%s\' % (request.args[0],\n                    match.group(\'table\'), match.group(\'field\'),\n                    match.group(\'value\'))\n    else:\n        request.vars.query = session.last_query\n    query = get_query(request)\n    if request.vars.start:\n        start = int(request.vars.start)\n    else:\n        start = 0\n    nrows = 0\n    stop = start + 100\n    table = None\n    rows = []\n    orderby = request.vars.orderby\n    if orderby:\n        orderby = dbname + \'.\' + orderby\n        if orderby == session.last_orderby:\n            if orderby[0] == \'~\':\n                orderby = orderby[1:]\n            else:\n                orderby = \'~\' + orderby\n    session.last_orderby = orderby\n    session.last_query = request.vars.query\n    form = FORM(TABLE(TR(T(\'Query:\'), \'\', INPUT(_style=\'width:400px\',\n                _name=\'query\', _value=request.vars.query or \'\',\n                requires=IS_NOT_EMPTY(error_message=T("Cannot be empty")))), TR(T(\'Update:\'),\n                INPUT(_name=\'update_check\', _type=\'checkbox\',\n                value=False), INPUT(_style=\'width:400px\',\n                _name=\'update_fields\', _value=request.vars.update_fields\n                 or \'\')), TR(T(\'Delete:\'), INPUT(_name=\'delete_check\',\n                _class=\'delete\', _type=\'checkbox\', value=False), \'\'),\n                TR(\'\', \'\', INPUT(_type=\'submit\', _value=\'submit\'))),\n                _action=URL(r=request,args=request.args))\n    if request.vars.csvfile != None:\n        try:\n            import_csv(db[request.vars.table],\n                       request.vars.csvfile.file)\n            response.flash = T(\'data uploaded\')\n        except Exception, e:\n            response.flash = DIV(T(\'unable to parse csv file\'),PRE(str(e)))\n    if form.accepts(request.vars, formname=None):\n#         regex = re.compile(request.args[0] + \'\\.(?P<table>\\w+)\\.id\\>0\')\n        regex = re.compile(request.args[0] + \'\\.(?P<table>\\w+)\\..+\')\n\n        match = regex.match(form.vars.query.strip())\n        if match:\n            table = match.group(\'table\')\n        try:\n            nrows = db(query).count()\n            if form.vars.update_check and form.vars.update_fields:\n                db(query).update(**eval_in_global_env(\'dict(%s)\'\n                                  % form.vars.update_fields))\n                response.flash = T(\'%s rows updated\', nrows)\n            elif form.vars.delete_check:\n                db(query).delete()\n                response.flash = T(\'%s rows deleted\', nrows)\n            nrows = db(query).count()\n            if orderby:\n                rows = db(query,ignore_common_filters=True).select(limitby=(start, stop), orderby=eval_in_global_env(orderby))\n            else:\n                rows = db(query,ignore_common_filters=True).select(limitby=(start, stop))\n        except Exception, e:\n            (rows, nrows) = ([], 0)\n            response.flash = DIV(T(\'Invalid Query\'),PRE(str(e)))\n    return dict(\n        form=form,\n        table=table,\n        start=start,\n        stop=stop,\n        nrows=nrows,\n        rows=rows,\n        query=request.vars.query,\n        )\n\n\n# ##########################################################\n# ## edit delete one record\n# ###########################################################\n\n\ndef update():\n    (db, table) = get_table(request)\n    keyed = hasattr(db[table],\'_primarykey\')\n    record = None\n    if keyed:\n        key = [f for f in request.vars if f in db[table]._primarykey]\n        if key:\n            record = db(db[table][key[0]] == request.vars[key[0]], ignore_common_filters=True).select().first()\n    else:\n        record = db(db[table].id == request.args(2),ignore_common_filters=True).select().first()\n\n    if not record:\n        qry = query_by_table_type(table, db)\n        session.flash = T(\'record does not exist\')\n        redirect(URL(\'select\', args=request.args[:1],\n                     vars=dict(query=qry)))\n\n    if keyed:\n        for k in db[table]._primarykey:\n            db[table][k].writable=False\n\n    form = SQLFORM(db[table], record, deletable=True, delete_label=T(\'Check to delete\'),\n                   ignore_rw=ignore_rw and not keyed,\n                   linkto=URL(\'select\',\n                   args=request.args[:1]), upload=URL(r=request,\n                   f=\'download\', args=request.args[:1]))\n\n    if form.accepts(request.vars, session):\n        session.flash = T(\'done!\')\n        qry = query_by_table_type(table, db)\n        redirect(URL(\'select\', args=request.args[:1],\n                 vars=dict(query=qry)))\n    return dict(form=form,table=db[table])\n\n\n# ##########################################################\n# ## get global variables\n# ###########################################################\n\n\ndef state():\n    return dict()\n\ndef ccache():\n    form = FORM(\n        P(TAG.BUTTON("Clear CACHE?", _type="submit", _name="yes", _value="yes")),\n        P(TAG.BUTTON("Clear RAM", _type="submit", _name="ram", _value="ram")),\n        P(TAG.BUTTON("Clear DISK", _type="submit", _name="disk", _value="disk")),\n    )\n\n    if form.accepts(request.vars, session):\n        clear_ram = False\n        clear_disk = False\n        session.flash = ""\n        if request.vars.yes:\n            clear_ram = clear_disk = True\n        if request.vars.ram:\n            clear_ram = True\n        if request.vars.disk:\n            clear_disk = True\n\n        if clear_ram:\n            cache.ram.clear()\n            session.flash += "Ram Cleared "\n        if clear_disk:\n            cache.disk.clear()\n            session.flash += "Disk Cleared"\n\n        redirect(URL(r=request))\n\n    try:\n        from guppy import hpy; hp=hpy()\n    except ImportError:\n        hp = False\n\n    import shelve, os, copy, time, math\n    from gluon import portalocker\n\n    ram = {\n        \'entries\': 0,\n        \'bytes\': 0,\n        \'objects\': 0,\n        \'hits\': 0,\n        \'misses\': 0,\n        \'ratio\': 0,\n        \'oldest\': time.time(),\n        \'keys\': []\n    }\n    disk = copy.copy(ram)\n    total = copy.copy(ram)\n    disk[\'keys\'] = []\n    total[\'keys\'] = []\n\n    def GetInHMS(seconds):\n        hours = math.floor(seconds / 3600)\n        seconds -= hours * 3600\n        minutes = math.floor(seconds / 60)\n        seconds -= minutes * 60\n        seconds = math.floor(seconds)\n\n        return (hours, minutes, seconds)\n\n    for key, value in cache.ram.storage.items():\n        if isinstance(value, dict):\n            ram[\'hits\'] = value[\'hit_total\'] - value[\'misses\']\n            ram[\'misses\'] = value[\'misses\']\n            try:\n                ram[\'ratio\'] = ram[\'hits\'] * 100 / value[\'hit_total\']\n            except (KeyError, ZeroDivisionError):\n                ram[\'ratio\'] = 0\n        else:\n            if hp:\n                ram[\'bytes\'] += hp.iso(value[1]).size\n                ram[\'objects\'] += hp.iso(value[1]).count\n            ram[\'entries\'] += 1\n            if value[0] < ram[\'oldest\']:\n                ram[\'oldest\'] = value[0]\n            ram[\'keys\'].append((key, GetInHMS(time.time() - value[0])))\n\n    locker = open(os.path.join(request.folder,\n                                        \'cache/cache.lock\'), \'a\')\n    portalocker.lock(locker, portalocker.LOCK_EX)\n    disk_storage = shelve.open(os.path.join(request.folder, \'cache/cache.shelve\'))\n    try:\n        for key, value in disk_storage.items():\n            if isinstance(value, dict):\n                disk[\'hits\'] = value[\'hit_total\'] - value[\'misses\']\n                disk[\'misses\'] = value[\'misses\']\n                try:\n                    disk[\'ratio\'] = disk[\'hits\'] * 100 / value[\'hit_total\']\n                except (KeyError, ZeroDivisionError):\n                    disk[\'ratio\'] = 0\n            else:\n                if hp:\n                    disk[\'bytes\'] += hp.iso(value[1]).size\n                    disk[\'objects\'] += hp.iso(value[1]).count\n                disk[\'entries\'] += 1\n                if value[0] < disk[\'oldest\']:\n                    disk[\'oldest\'] = value[0]\n                disk[\'keys\'].append((key, GetInHMS(time.time() - value[0])))\n\n    finally:\n        portalocker.unlock(locker)\n        locker.close()\n        disk_storage.close()\n\n    total[\'entries\'] = ram[\'entries\'] + disk[\'entries\']\n    total[\'bytes\'] = ram[\'bytes\'] + disk[\'bytes\']\n    total[\'objects\'] = ram[\'objects\'] + disk[\'objects\']\n    total[\'hits\'] = ram[\'hits\'] + disk[\'hits\']\n    total[\'misses\'] = ram[\'misses\'] + disk[\'misses\']\n    total[\'keys\'] = ram[\'keys\'] + disk[\'keys\']\n    try:\n        total[\'ratio\'] = total[\'hits\'] * 100 / (total[\'hits\'] + total[\'misses\'])\n    except (KeyError, ZeroDivisionError):\n        total[\'ratio\'] = 0\n\n    if disk[\'oldest\'] < ram[\'oldest\']:\n        total[\'oldest\'] = disk[\'oldest\']\n    else:\n        total[\'oldest\'] = ram[\'oldest\']\n\n    ram[\'oldest\'] = GetInHMS(time.time() - ram[\'oldest\'])\n    disk[\'oldest\'] = GetInHMS(time.time() - disk[\'oldest\'])\n    total[\'oldest\'] = GetInHMS(time.time() - total[\'oldest\'])\n\n    def key_table(keys):\n        return TABLE(\n            TR(TD(B(\'Key\')), TD(B(\'Time in Cache (h:m:s)\'))),\n            *[TR(TD(k[0]), TD(\'%02d:%02d:%02d\' % k[1])) for k in keys],\n            **dict(_class=\'cache-keys\',\n                   _style="border-collapse: separate; border-spacing: .5em;"))\n\n    ram[\'keys\'] = key_table(ram[\'keys\'])\n    disk[\'keys\'] = key_table(disk[\'keys\'])\n    total[\'keys\'] = key_table(total[\'keys\'])\n\n    return dict(form=form, total=total,\n                ram=ram, disk=disk, object_stats=hp != False)\n\n\n\n\nresponse._vars=response._caller(update)\n'
p7
sS'snapshot'
p8
(dp9
S'exception'
p10
(dp11
S'__hash__'
p12
S"<method-wrapper '__hash__' of exceptions.ValueError object at 0x066668F0>"
p13
sS'__setattr__'
p14
S"<method-wrapper '__setattr__' of exceptions.ValueError object at 0x066668F0>"
p15
sS'__reduce_ex__'
p16
S'<built-in method __reduce_ex__ of exceptions.ValueError object at 0x066668F0>'
p17
sS'__getslice__'
p18
S"<method-wrapper '__getslice__' of exceptions.ValueError object at 0x066668F0>"
p19
sS'__getitem__'
p20
S"<method-wrapper '__getitem__' of exceptions.ValueError object at 0x066668F0>"
p21
sS'__setstate__'
p22
S'<built-in method __setstate__ of exceptions.ValueError object at 0x066668F0>'
p23
sS'__reduce__'
p24
S'<built-in method __reduce__ of exceptions.ValueError object at 0x066668F0>'
p25
sS'__str__'
p26
S"<method-wrapper '__str__' of exceptions.ValueError object at 0x066668F0>"
p27
sS'args'
p28
S'("invalid literal for int() with base 10: \'None\'",)'
p29
sS'__getattribute__'
p30
S"<method-wrapper '__getattribute__' of exceptions.ValueError object at 0x066668F0>"
p31
sS'__class__'
p32
S"<type 'exceptions.ValueError'>"
p33
sS'__delattr__'
p34
S"<method-wrapper '__delattr__' of exceptions.ValueError object at 0x066668F0>"
p35
sS'__repr__'
p36
S"<method-wrapper '__repr__' of exceptions.ValueError object at 0x066668F0>"
p37
sS'__dict__'
p38
S'{}'
p39
sS'__doc__'
p40
S"'Inappropriate argument value (of correct type).'"
p41
sS'__init__'
p42
S"<method-wrapper '__init__' of exceptions.ValueError object at 0x066668F0>"
p43
sS'__new__'
p44
S'<built-in method __new__ of type object at 0x1E1CE080>'
p45
ssS'evalue'
p46
S"invalid literal for int() with base 10: 'None'"
p47
sS'request'
p48
ccopy_reg
_reconstructor
p49
(cgluon.html
BEAUTIFY
p50
c__builtin__
object
p51
NtRp52
(dp53
S'attributes'
p54
(dp55
sS'components'
p56
(lp57
g49
(cgluon.html
TABLE
p58
g51
NtRp59
(dp60
g54
(dp61
S'level'
p62
I5
ssS'parent'
p63
Nsg56
(lp64
g49
(cgluon.html
TR
p65
g51
NtRp66
(dp67
g54
(dp68
sg63
g59
sg56
(lp69
g49
(cgluon.html
TD
p70
g51
NtRp71
(dp72
g54
(dp73
S'_style'
p74
S'font-weight:bold;vertical-align:top'
p75
ssg63
g66
sg56
(lp76
S'ajax'
p77
asbag49
(g70
g51
NtRp78
(dp79
g54
(dp80
S'_valign'
p81
S'top'
p82
ssg63
g66
sg56
(lp83
S':'
asbag49
(g70
g51
NtRp84
(dp85
g54
(dp86
sg63
g66
sg56
(lp87
g49
(g50
g51
NtRp88
(dp89
g54
(dp90
g62
I5
ssg63
g84
sg56
(lp91
S'False'
p92
asbasbasbag49
(g65
g51
NtRp93
(dp94
g54
(dp95
sg63
g59
sg56
(lp96
g49
(g70
g51
NtRp97
(dp98
g54
(dp99
g74
g75
ssg63
g93
sg56
(lp100
S'application'
p101
asbag49
(g70
g51
NtRp102
(dp103
g54
(dp104
g81
g82
ssg63
g93
sg56
(lp105
S':'
asbag49
(g70
g51
NtRp106
(dp107
g54
(dp108
sg63
g93
sg56
(lp109
g49
(g50
g51
NtRp110
(dp111
g54
(dp112
g62
I5
ssg63
g106
sg56
(lp113
S'SlugBarter'
p114
asbasbasbag49
(g65
g51
NtRp115
(dp116
g54
(dp117
sg63
g59
sg56
(lp118
g49
(g70
g51
NtRp119
(dp120
g54
(dp121
g74
g75
ssg63
g115
sg56
(lp122
g28
asbag49
(g70
g51
NtRp123
(dp124
g54
(dp125
g81
g82
ssg63
g115
sg56
(lp126
S':'
asbag49
(g70
g51
NtRp127
(dp128
g54
(dp129
sg63
g115
sg56
(lp130
g49
(g50
g51
NtRp131
(dp132
g54
(dp133
g62
I5
ssg63
g127
sg56
(lp134
g49
(g58
g51
NtRp135
(dp136
g54
(dp137
g62
I4
ssg63
Nsg56
(lp138
g49
(g65
g51
NtRp139
(dp140
g54
(dp141
sg63
g135
sg56
(lp142
g49
(g70
g51
NtRp143
(dp144
g54
(dp145
sg63
g139
sg56
(lp146
g49
(g50
g51
NtRp147
(dp148
g54
(dp149
g62
I4
ssg63
g143
sg56
(lp150
S'db'
p151
asbasbasbag49
(g65
g51
NtRp152
(dp153
g54
(dp154
sg63
g135
sg56
(lp155
g49
(g70
g51
NtRp156
(dp157
g54
(dp158
sg63
g152
sg56
(lp159
g49
(g50
g51
NtRp160
(dp161
g54
(dp162
g62
I4
ssg63
g156
sg56
(lp163
S'auth_user'
p164
asbasbasbag49
(g65
g51
NtRp165
(dp166
g54
(dp167
sg63
g135
sg56
(lp168
g49
(g70
g51
NtRp169
(dp170
g54
(dp171
sg63
g165
sg56
(lp172
g49
(g50
g51
NtRp173
(dp174
g54
(dp175
g62
I4
ssg63
g169
sg56
(lp176
S'None'
p177
asbasbasbasbasbasbasbag49
(g65
g51
NtRp178
(dp179
g54
(dp180
sg63
g59
sg56
(lp181
g49
(g70
g51
NtRp182
(dp183
g54
(dp184
g74
g75
ssg63
g178
sg56
(lp185
S'body'
p186
asbag49
(g70
g51
NtRp187
(dp188
g54
(dp189
g81
g82
ssg63
g178
sg56
(lp190
S':'
asbag49
(g70
g51
NtRp191
(dp192
g54
(dp193
sg63
g178
sg56
(lp194
g49
(g50
g51
NtRp195
(dp196
g54
(dp197
g62
I5
ssg63
g191
sg56
(lp198
S'<cStringIO.StringO object at 0x0681F2C0>'
p199
asbasbasbag49
(g65
g51
NtRp200
(dp201
g54
(dp202
sg63
g59
sg56
(lp203
g49
(g70
g51
NtRp204
(dp205
g54
(dp206
g74
g75
ssg63
g200
sg56
(lp207
S'client'
p208
asbag49
(g70
g51
NtRp209
(dp210
g54
(dp211
g81
g82
ssg63
g200
sg56
(lp212
S':'
asbag49
(g70
g51
NtRp213
(dp214
g54
(dp215
sg63
g200
sg56
(lp216
g49
(g50
g51
NtRp217
(dp218
g54
(dp219
g62
I5
ssg63
g213
sg56
(lp220
S'127.0.0.1'
p221
asbasbasbag49
(g65
g51
NtRp222
(dp223
g54
(dp224
sg63
g59
sg56
(lp225
g49
(g70
g51
NtRp226
(dp227
g54
(dp228
g74
g75
ssg63
g222
sg56
(lp229
S'controller'
p230
asbag49
(g70
g51
NtRp231
(dp232
g54
(dp233
g81
g82
ssg63
g222
sg56
(lp234
S':'
asbag49
(g70
g51
NtRp235
(dp236
g54
(dp237
sg63
g222
sg56
(lp238
g49
(g50
g51
NtRp239
(dp240
g54
(dp241
g62
I5
ssg63
g235
sg56
(lp242
S'appadmin'
p243
asbasbasbag49
(g65
g51
NtRp244
(dp245
g54
(dp246
sg63
g59
sg56
(lp247
g49
(g70
g51
NtRp248
(dp249
g54
(dp250
g74
g75
ssg63
g244
sg56
(lp251
S'cookies'
p252
asbag49
(g70
g51
NtRp253
(dp254
g54
(dp255
g81
g82
ssg63
g244
sg56
(lp256
S':'
asbag49
(g70
g51
NtRp257
(dp258
g54
(dp259
sg63
g244
sg56
(lp260
g49
(g50
g51
NtRp261
(dp262
g54
(dp263
g62
I5
ssg63
g257
sg56
(lp264
g49
(g58
g51
NtRp265
(dp266
g54
(dp267
g62
I4
ssg63
Nsg56
(lp268
g49
(g65
g51
NtRp269
(dp270
g54
(dp271
sg63
g265
sg56
(lp272
g49
(g70
g51
NtRp273
(dp274
g54
(dp275
g74
g75
ssg63
g269
sg56
(lp276
S'session_id_admin'
p277
asbag49
(g70
g51
NtRp278
(dp279
g54
(dp280
g81
g82
ssg63
g269
sg56
(lp281
S':'
asbag49
(g70
g51
NtRp282
(dp283
g54
(dp284
sg63
g269
sg56
(lp285
g49
(g50
g51
NtRp286
(dp287
g54
(dp288
g62
I4
ssg63
g282
sg56
(lp289
g49
(g58
g51
NtRp290
(dp291
g54
(dp292
g62
I3
ssg63
Nsg56
(lp293
g49
(g65
g51
NtRp294
(dp295
g54
(dp296
sg63
g290
sg56
(lp297
g49
(g70
g51
NtRp298
(dp299
g54
(dp300
g74
g75
ssg63
g294
sg56
(lp301
S'comment'
p302
asbag49
(g70
g51
NtRp303
(dp304
g54
(dp305
g81
g82
ssg63
g294
sg56
(lp306
S':'
asbag49
(g70
g51
NtRp307
(dp308
g54
(dp309
sg63
g294
sg56
(lp310
g49
(g50
g51
NtRp311
(dp312
g54
(dp313
g62
I3
ssg63
g307
sg56
(lp314
S''
asbasbasbag49
(g65
g51
NtRp315
(dp316
g54
(dp317
sg63
g290
sg56
(lp318
g49
(g70
g51
NtRp319
(dp320
g54
(dp321
g74
g75
ssg63
g315
sg56
(lp322
S'domain'
p323
asbag49
(g70
g51
NtRp324
(dp325
g54
(dp326
g81
g82
ssg63
g315
sg56
(lp327
S':'
asbag49
(g70
g51
NtRp328
(dp329
g54
(dp330
sg63
g315
sg56
(lp331
g49
(g50
g51
NtRp332
(dp333
g54
(dp334
g62
I3
ssg63
g328
sg56
(lp335
S''
asbasbasbag49
(g65
g51
NtRp336
(dp337
g54
(dp338
sg63
g290
sg56
(lp339
g49
(g70
g51
NtRp340
(dp341
g54
(dp342
g74
g75
ssg63
g336
sg56
(lp343
S'expires'
p344
asbag49
(g70
g51
NtRp345
(dp346
g54
(dp347
g81
g82
ssg63
g336
sg56
(lp348
S':'
asbag49
(g70
g51
NtRp349
(dp350
g54
(dp351
sg63
g336
sg56
(lp352
g49
(g50
g51
NtRp353
(dp354
g54
(dp355
g62
I3
ssg63
g349
sg56
(lp356
S''
asbasbasbag49
(g65
g51
NtRp357
(dp358
g54
(dp359
sg63
g290
sg56
(lp360
g49
(g70
g51
NtRp361
(dp362
g54
(dp363
g74
g75
ssg63
g357
sg56
(lp364
S'max-age'
p365
asbag49
(g70
g51
NtRp366
(dp367
g54
(dp368
g81
g82
ssg63
g357
sg56
(lp369
S':'
asbag49
(g70
g51
NtRp370
(dp371
g54
(dp372
sg63
g357
sg56
(lp373
g49
(g50
g51
NtRp374
(dp375
g54
(dp376
g62
I3
ssg63
g370
sg56
(lp377
S''
asbasbasbag49
(g65
g51
NtRp378
(dp379
g54
(dp380
sg63
g290
sg56
(lp381
g49
(g70
g51
NtRp382
(dp383
g54
(dp384
g74
g75
ssg63
g378
sg56
(lp385
S'path'
p386
asbag49
(g70
g51
NtRp387
(dp388
g54
(dp389
g81
g82
ssg63
g378
sg56
(lp390
S':'
asbag49
(g70
g51
NtRp391
(dp392
g54
(dp393
sg63
g378
sg56
(lp394
g49
(g50
g51
NtRp395
(dp396
g54
(dp397
g62
I3
ssg63
g391
sg56
(lp398
S''
asbasbasbag49
(g65
g51
NtRp399
(dp400
g54
(dp401
sg63
g290
sg56
(lp402
g49
(g70
g51
NtRp403
(dp404
g54
(dp405
g74
g75
ssg63
g399
sg56
(lp406
S'secure'
p407
asbag49
(g70
g51
NtRp408
(dp409
g54
(dp410
g81
g82
ssg63
g399
sg56
(lp411
S':'
asbag49
(g70
g51
NtRp412
(dp413
g54
(dp414
sg63
g399
sg56
(lp415
g49
(g50
g51
NtRp416
(dp417
g54
(dp418
g62
I3
ssg63
g412
sg56
(lp419
S''
asbasbasbag49
(g65
g51
NtRp420
(dp421
g54
(dp422
sg63
g290
sg56
(lp423
g49
(g70
g51
NtRp424
(dp425
g54
(dp426
g74
g75
ssg63
g420
sg56
(lp427
S'version'
p428
asbag49
(g70
g51
NtRp429
(dp430
g54
(dp431
g81
g82
ssg63
g420
sg56
(lp432
S':'
asbag49
(g70
g51
NtRp433
(dp434
g54
(dp435
sg63
g420
sg56
(lp436
g49
(g50
g51
NtRp437
(dp438
g54
(dp439
g62
I3
ssg63
g433
sg56
(lp440
S''
asbasbasbasbasbasbasbag49
(g65
g51
NtRp441
(dp442
g54
(dp443
sg63
g265
sg56
(lp444
g49
(g70
g51
NtRp445
(dp446
g54
(dp447
g74
g75
ssg63
g441
sg56
(lp448
S'session_id_onlinenotes_p1_'
p449
asbag49
(g70
g51
NtRp450
(dp451
g54
(dp452
g81
g82
ssg63
g441
sg56
(lp453
S':'
asbag49
(g70
g51
NtRp454
(dp455
g54
(dp456
sg63
g441
sg56
(lp457
g49
(g50
g51
NtRp458
(dp459
g54
(dp460
g62
I4
ssg63
g454
sg56
(lp461
g49
(g58
g51
NtRp462
(dp463
g54
(dp464
g62
I3
ssg63
Nsg56
(lp465
g49
(g65
g51
NtRp466
(dp467
g54
(dp468
sg63
g462
sg56
(lp469
g49
(g70
g51
NtRp470
(dp471
g54
(dp472
g74
g75
ssg63
g466
sg56
(lp473
g302
asbag49
(g70
g51
NtRp474
(dp475
g54
(dp476
g81
g82
ssg63
g466
sg56
(lp477
S':'
asbag49
(g70
g51
NtRp478
(dp479
g54
(dp480
sg63
g466
sg56
(lp481
g49
(g50
g51
NtRp482
(dp483
g54
(dp484
g62
I3
ssg63
g478
sg56
(lp485
S''
asbasbasbag49
(g65
g51
NtRp486
(dp487
g54
(dp488
sg63
g462
sg56
(lp489
g49
(g70
g51
NtRp490
(dp491
g54
(dp492
g74
g75
ssg63
g486
sg56
(lp493
g323
asbag49
(g70
g51
NtRp494
(dp495
g54
(dp496
g81
g82
ssg63
g486
sg56
(lp497
S':'
asbag49
(g70
g51
NtRp498
(dp499
g54
(dp500
sg63
g486
sg56
(lp501
g49
(g50
g51
NtRp502
(dp503
g54
(dp504
g62
I3
ssg63
g498
sg56
(lp505
S''
asbasbasbag49
(g65
g51
NtRp506
(dp507
g54
(dp508
sg63
g462
sg56
(lp509
g49
(g70
g51
NtRp510
(dp511
g54
(dp512
g74
g75
ssg63
g506
sg56
(lp513
g344
asbag49
(g70
g51
NtRp514
(dp515
g54
(dp516
g81
g82
ssg63
g506
sg56
(lp517
S':'
asbag49
(g70
g51
NtRp518
(dp519
g54
(dp520
sg63
g506
sg56
(lp521
g49
(g50
g51
NtRp522
(dp523
g54
(dp524
g62
I3
ssg63
g518
sg56
(lp525
S''
asbasbasbag49
(g65
g51
NtRp526
(dp527
g54
(dp528
sg63
g462
sg56
(lp529
g49
(g70
g51
NtRp530
(dp531
g54
(dp532
g74
g75
ssg63
g526
sg56
(lp533
g365
asbag49
(g70
g51
NtRp534
(dp535
g54
(dp536
g81
g82
ssg63
g526
sg56
(lp537
S':'
asbag49
(g70
g51
NtRp538
(dp539
g54
(dp540
sg63
g526
sg56
(lp541
g49
(g50
g51
NtRp542
(dp543
g54
(dp544
g62
I3
ssg63
g538
sg56
(lp545
S''
asbasbasbag49
(g65
g51
NtRp546
(dp547
g54
(dp548
sg63
g462
sg56
(lp549
g49
(g70
g51
NtRp550
(dp551
g54
(dp552
g74
g75
ssg63
g546
sg56
(lp553
g386
asbag49
(g70
g51
NtRp554
(dp555
g54
(dp556
g81
g82
ssg63
g546
sg56
(lp557
S':'
asbag49
(g70
g51
NtRp558
(dp559
g54
(dp560
sg63
g546
sg56
(lp561
g49
(g50
g51
NtRp562
(dp563
g54
(dp564
g62
I3
ssg63
g558
sg56
(lp565
S''
asbasbasbag49
(g65
g51
NtRp566
(dp567
g54
(dp568
sg63
g462
sg56
(lp569
g49
(g70
g51
NtRp570
(dp571
g54
(dp572
g74
g75
ssg63
g566
sg56
(lp573
g407
asbag49
(g70
g51
NtRp574
(dp575
g54
(dp576
g81
g82
ssg63
g566
sg56
(lp577
S':'
asbag49
(g70
g51
NtRp578
(dp579
g54
(dp580
sg63
g566
sg56
(lp581
g49
(g50
g51
NtRp582
(dp583
g54
(dp584
g62
I3
ssg63
g578
sg56
(lp585
S''
asbasbasbag49
(g65
g51
NtRp586
(dp587
g54
(dp588
sg63
g462
sg56
(lp589
g49
(g70
g51
NtRp590
(dp591
g54
(dp592
g74
g75
ssg63
g586
sg56
(lp593
g428
asbag49
(g70
g51
NtRp594
(dp595
g54
(dp596
g81
g82
ssg63
g586
sg56
(lp597
S':'
asbag49
(g70
g51
NtRp598
(dp599
g54
(dp600
sg63
g586
sg56
(lp601
g49
(g50
g51
NtRp602
(dp603
g54
(dp604
g62
I3
ssg63
g598
sg56
(lp605
S''
asbasbasbasbasbasbasbag49
(g65
g51
NtRp606
(dp607
g54
(dp608
sg63
g265
sg56
(lp609
g49
(g70
g51
NtRp610
(dp611
g54
(dp612
g74
g75
ssg63
g606
sg56
(lp613
S'session_id_slug_register_page'
p614
asbag49
(g70
g51
NtRp615
(dp616
g54
(dp617
g81
g82
ssg63
g606
sg56
(lp618
S':'
asbag49
(g70
g51
NtRp619
(dp620
g54
(dp621
sg63
g606
sg56
(lp622
g49
(g50
g51
NtRp623
(dp624
g54
(dp625
g62
I4
ssg63
g619
sg56
(lp626
g49
(g58
g51
NtRp627
(dp628
g54
(dp629
g62
I3
ssg63
Nsg56
(lp630
g49
(g65
g51
NtRp631
(dp632
g54
(dp633
sg63
g627
sg56
(lp634
g49
(g70
g51
NtRp635
(dp636
g54
(dp637
g74
g75
ssg63
g631
sg56
(lp638
g302
asbag49
(g70
g51
NtRp639
(dp640
g54
(dp641
g81
g82
ssg63
g631
sg56
(lp642
S':'
asbag49
(g70
g51
NtRp643
(dp644
g54
(dp645
sg63
g631
sg56
(lp646
g49
(g50
g51
NtRp647
(dp648
g54
(dp649
g62
I3
ssg63
g643
sg56
(lp650
S''
asbasbasbag49
(g65
g51
NtRp651
(dp652
g54
(dp653
sg63
g627
sg56
(lp654
g49
(g70
g51
NtRp655
(dp656
g54
(dp657
g74
g75
ssg63
g651
sg56
(lp658
g323
asbag49
(g70
g51
NtRp659
(dp660
g54
(dp661
g81
g82
ssg63
g651
sg56
(lp662
S':'
asbag49
(g70
g51
NtRp663
(dp664
g54
(dp665
sg63
g651
sg56
(lp666
g49
(g50
g51
NtRp667
(dp668
g54
(dp669
g62
I3
ssg63
g663
sg56
(lp670
S''
asbasbasbag49
(g65
g51
NtRp671
(dp672
g54
(dp673
sg63
g627
sg56
(lp674
g49
(g70
g51
NtRp675
(dp676
g54
(dp677
g74
g75
ssg63
g671
sg56
(lp678
g344
asbag49
(g70
g51
NtRp679
(dp680
g54
(dp681
g81
g82
ssg63
g671
sg56
(lp682
S':'
asbag49
(g70
g51
NtRp683
(dp684
g54
(dp685
sg63
g671
sg56
(lp686
g49
(g50
g51
NtRp687
(dp688
g54
(dp689
g62
I3
ssg63
g683
sg56
(lp690
S''
asbasbasbag49
(g65
g51
NtRp691
(dp692
g54
(dp693
sg63
g627
sg56
(lp694
g49
(g70
g51
NtRp695
(dp696
g54
(dp697
g74
g75
ssg63
g691
sg56
(lp698
g365
asbag49
(g70
g51
NtRp699
(dp700
g54
(dp701
g81
g82
ssg63
g691
sg56
(lp702
S':'
asbag49
(g70
g51
NtRp703
(dp704
g54
(dp705
sg63
g691
sg56
(lp706
g49
(g50
g51
NtRp707
(dp708
g54
(dp709
g62
I3
ssg63
g703
sg56
(lp710
S''
asbasbasbag49
(g65
g51
NtRp711
(dp712
g54
(dp713
sg63
g627
sg56
(lp714
g49
(g70
g51
NtRp715
(dp716
g54
(dp717
g74
g75
ssg63
g711
sg56
(lp718
g386
asbag49
(g70
g51
NtRp719
(dp720
g54
(dp721
g81
g82
ssg63
g711
sg56
(lp722
S':'
asbag49
(g70
g51
NtRp723
(dp724
g54
(dp725
sg63
g711
sg56
(lp726
g49
(g50
g51
NtRp727
(dp728
g54
(dp729
g62
I3
ssg63
g723
sg56
(lp730
S''
asbasbasbag49
(g65
g51
NtRp731
(dp732
g54
(dp733
sg63
g627
sg56
(lp734
g49
(g70
g51
NtRp735
(dp736
g54
(dp737
g74
g75
ssg63
g731
sg56
(lp738
g407
asbag49
(g70
g51
NtRp739
(dp740
g54
(dp741
g81
g82
ssg63
g731
sg56
(lp742
S':'
asbag49
(g70
g51
NtRp743
(dp744
g54
(dp745
sg63
g731
sg56
(lp746
g49
(g50
g51
NtRp747
(dp748
g54
(dp749
g62
I3
ssg63
g743
sg56
(lp750
S''
asbasbasbag49
(g65
g51
NtRp751
(dp752
g54
(dp753
sg63
g627
sg56
(lp754
g49
(g70
g51
NtRp755
(dp756
g54
(dp757
g74
g75
ssg63
g751
sg56
(lp758
g428
asbag49
(g70
g51
NtRp759
(dp760
g54
(dp761
g81
g82
ssg63
g751
sg56
(lp762
S':'
asbag49
(g70
g51
NtRp763
(dp764
g54
(dp765
sg63
g751
sg56
(lp766
g49
(g50
g51
NtRp767
(dp768
g54
(dp769
g62
I3
ssg63
g763
sg56
(lp770
S''
asbasbasbasbasbasbasbag49
(g65
g51
NtRp771
(dp772
g54
(dp773
sg63
g265
sg56
(lp774
g49
(g70
g51
NtRp775
(dp776
g54
(dp777
g74
g75
ssg63
g771
sg56
(lp778
S'session_id_slugbarter'
p779
asbag49
(g70
g51
NtRp780
(dp781
g54
(dp782
g81
g82
ssg63
g771
sg56
(lp783
S':'
asbag49
(g70
g51
NtRp784
(dp785
g54
(dp786
sg63
g771
sg56
(lp787
g49
(g50
g51
NtRp788
(dp789
g54
(dp790
g62
I4
ssg63
g784
sg56
(lp791
g49
(g58
g51
NtRp792
(dp793
g54
(dp794
g62
I3
ssg63
Nsg56
(lp795
g49
(g65
g51
NtRp796
(dp797
g54
(dp798
sg63
g792
sg56
(lp799
g49
(g70
g51
NtRp800
(dp801
g54
(dp802
g74
g75
ssg63
g796
sg56
(lp803
g302
asbag49
(g70
g51
NtRp804
(dp805
g54
(dp806
g81
g82
ssg63
g796
sg56
(lp807
S':'
asbag49
(g70
g51
NtRp808
(dp809
g54
(dp810
sg63
g796
sg56
(lp811
g49
(g50
g51
NtRp812
(dp813
g54
(dp814
g62
I3
ssg63
g808
sg56
(lp815
S''
asbasbasbag49
(g65
g51
NtRp816
(dp817
g54
(dp818
sg63
g792
sg56
(lp819
g49
(g70
g51
NtRp820
(dp821
g54
(dp822
g74
g75
ssg63
g816
sg56
(lp823
g323
asbag49
(g70
g51
NtRp824
(dp825
g54
(dp826
g81
g82
ssg63
g816
sg56
(lp827
S':'
asbag49
(g70
g51
NtRp828
(dp829
g54
(dp830
sg63
g816
sg56
(lp831
g49
(g50
g51
NtRp832
(dp833
g54
(dp834
g62
I3
ssg63
g828
sg56
(lp835
S''
asbasbasbag49
(g65
g51
NtRp836
(dp837
g54
(dp838
sg63
g792
sg56
(lp839
g49
(g70
g51
NtRp840
(dp841
g54
(dp842
g74
g75
ssg63
g836
sg56
(lp843
g344
asbag49
(g70
g51
NtRp844
(dp845
g54
(dp846
g81
g82
ssg63
g836
sg56
(lp847
S':'
asbag49
(g70
g51
NtRp848
(dp849
g54
(dp850
sg63
g836
sg56
(lp851
g49
(g50
g51
NtRp852
(dp853
g54
(dp854
g62
I3
ssg63
g848
sg56
(lp855
S''
asbasbasbag49
(g65
g51
NtRp856
(dp857
g54
(dp858
sg63
g792
sg56
(lp859
g49
(g70
g51
NtRp860
(dp861
g54
(dp862
g74
g75
ssg63
g856
sg56
(lp863
g365
asbag49
(g70
g51
NtRp864
(dp865
g54
(dp866
g81
g82
ssg63
g856
sg56
(lp867
S':'
asbag49
(g70
g51
NtRp868
(dp869
g54
(dp870
sg63
g856
sg56
(lp871
g49
(g50
g51
NtRp872
(dp873
g54
(dp874
g62
I3
ssg63
g868
sg56
(lp875
S''
asbasbasbag49
(g65
g51
NtRp876
(dp877
g54
(dp878
sg63
g792
sg56
(lp879
g49
(g70
g51
NtRp880
(dp881
g54
(dp882
g74
g75
ssg63
g876
sg56
(lp883
g386
asbag49
(g70
g51
NtRp884
(dp885
g54
(dp886
g81
g82
ssg63
g876
sg56
(lp887
S':'
asbag49
(g70
g51
NtRp888
(dp889
g54
(dp890
sg63
g876
sg56
(lp891
g49
(g50
g51
NtRp892
(dp893
g54
(dp894
g62
I3
ssg63
g888
sg56
(lp895
S''
asbasbasbag49
(g65
g51
NtRp896
(dp897
g54
(dp898
sg63
g792
sg56
(lp899
g49
(g70
g51
NtRp900
(dp901
g54
(dp902
g74
g75
ssg63
g896
sg56
(lp903
g407
asbag49
(g70
g51
NtRp904
(dp905
g54
(dp906
g81
g82
ssg63
g896
sg56
(lp907
S':'
asbag49
(g70
g51
NtRp908
(dp909
g54
(dp910
sg63
g896
sg56
(lp911
g49
(g50
g51
NtRp912
(dp913
g54
(dp914
g62
I3
ssg63
g908
sg56
(lp915
S''
asbasbasbag49
(g65
g51
NtRp916
(dp917
g54
(dp918
sg63
g792
sg56
(lp919
g49
(g70
g51
NtRp920
(dp921
g54
(dp922
g74
g75
ssg63
g916
sg56
(lp923
g428
asbag49
(g70
g51
NtRp924
(dp925
g54
(dp926
g81
g82
ssg63
g916
sg56
(lp927
S':'
asbag49
(g70
g51
NtRp928
(dp929
g54
(dp930
sg63
g916
sg56
(lp931
g49
(g50
g51
NtRp932
(dp933
g54
(dp934
g62
I3
ssg63
g928
sg56
(lp935
S''
asbasbasbasbasbasbasbag49
(g65
g51
NtRp936
(dp937
g54
(dp938
sg63
g265
sg56
(lp939
g49
(g70
g51
NtRp940
(dp941
g54
(dp942
g74
g75
ssg63
g936
sg56
(lp943
S'session_id_testapp'
p944
asbag49
(g70
g51
NtRp945
(dp946
g54
(dp947
g81
g82
ssg63
g936
sg56
(lp948
S':'
asbag49
(g70
g51
NtRp949
(dp950
g54
(dp951
sg63
g936
sg56
(lp952
g49
(g50
g51
NtRp953
(dp954
g54
(dp955
g62
I4
ssg63
g949
sg56
(lp956
g49
(g58
g51
NtRp957
(dp958
g54
(dp959
g62
I3
ssg63
Nsg56
(lp960
g49
(g65
g51
NtRp961
(dp962
g54
(dp963
sg63
g957
sg56
(lp964
g49
(g70
g51
NtRp965
(dp966
g54
(dp967
g74
g75
ssg63
g961
sg56
(lp968
g302
asbag49
(g70
g51
NtRp969
(dp970
g54
(dp971
g81
g82
ssg63
g961
sg56
(lp972
S':'
asbag49
(g70
g51
NtRp973
(dp974
g54
(dp975
sg63
g961
sg56
(lp976
g49
(g50
g51
NtRp977
(dp978
g54
(dp979
g62
I3
ssg63
g973
sg56
(lp980
S''
asbasbasbag49
(g65
g51
NtRp981
(dp982
g54
(dp983
sg63
g957
sg56
(lp984
g49
(g70
g51
NtRp985
(dp986
g54
(dp987
g74
g75
ssg63
g981
sg56
(lp988
g323
asbag49
(g70
g51
NtRp989
(dp990
g54
(dp991
g81
g82
ssg63
g981
sg56
(lp992
S':'
asbag49
(g70
g51
NtRp993
(dp994
g54
(dp995
sg63
g981
sg56
(lp996
g49
(g50
g51
NtRp997
(dp998
g54
(dp999
g62
I3
ssg63
g993
sg56
(lp1000
S''
asbasbasbag49
(g65
g51
NtRp1001
(dp1002
g54
(dp1003
sg63
g957
sg56
(lp1004
g49
(g70
g51
NtRp1005
(dp1006
g54
(dp1007
g74
g75
ssg63
g1001
sg56
(lp1008
g344
asbag49
(g70
g51
NtRp1009
(dp1010
g54
(dp1011
g81
g82
ssg63
g1001
sg56
(lp1012
S':'
asbag49
(g70
g51
NtRp1013
(dp1014
g54
(dp1015
sg63
g1001
sg56
(lp1016
g49
(g50
g51
NtRp1017
(dp1018
g54
(dp1019
g62
I3
ssg63
g1013
sg56
(lp1020
S''
asbasbasbag49
(g65
g51
NtRp1021
(dp1022
g54
(dp1023
sg63
g957
sg56
(lp1024
g49
(g70
g51
NtRp1025
(dp1026
g54
(dp1027
g74
g75
ssg63
g1021
sg56
(lp1028
g365
asbag49
(g70
g51
NtRp1029
(dp1030
g54
(dp1031
g81
g82
ssg63
g1021
sg56
(lp1032
S':'
asbag49
(g70
g51
NtRp1033
(dp1034
g54
(dp1035
sg63
g1021
sg56
(lp1036
g49
(g50
g51
NtRp1037
(dp1038
g54
(dp1039
g62
I3
ssg63
g1033
sg56
(lp1040
S''
asbasbasbag49
(g65
g51
NtRp1041
(dp1042
g54
(dp1043
sg63
g957
sg56
(lp1044
g49
(g70
g51
NtRp1045
(dp1046
g54
(dp1047
g74
g75
ssg63
g1041
sg56
(lp1048
g386
asbag49
(g70
g51
NtRp1049
(dp1050
g54
(dp1051
g81
g82
ssg63
g1041
sg56
(lp1052
S':'
asbag49
(g70
g51
NtRp1053
(dp1054
g54
(dp1055
sg63
g1041
sg56
(lp1056
g49
(g50
g51
NtRp1057
(dp1058
g54
(dp1059
g62
I3
ssg63
g1053
sg56
(lp1060
S''
asbasbasbag49
(g65
g51
NtRp1061
(dp1062
g54
(dp1063
sg63
g957
sg56
(lp1064
g49
(g70
g51
NtRp1065
(dp1066
g54
(dp1067
g74
g75
ssg63
g1061
sg56
(lp1068
g407
asbag49
(g70
g51
NtRp1069
(dp1070
g54
(dp1071
g81
g82
ssg63
g1061
sg56
(lp1072
S':'
asbag49
(g70
g51
NtRp1073
(dp1074
g54
(dp1075
sg63
g1061
sg56
(lp1076
g49
(g50
g51
NtRp1077
(dp1078
g54
(dp1079
g62
I3
ssg63
g1073
sg56
(lp1080
S''
asbasbasbag49
(g65
g51
NtRp1081
(dp1082
g54
(dp1083
sg63
g957
sg56
(lp1084
g49
(g70
g51
NtRp1085
(dp1086
g54
(dp1087
g74
g75
ssg63
g1081
sg56
(lp1088
g428
asbag49
(g70
g51
NtRp1089
(dp1090
g54
(dp1091
g81
g82
ssg63
g1081
sg56
(lp1092
S':'
asbag49
(g70
g51
NtRp1093
(dp1094
g54
(dp1095
sg63
g1081
sg56
(lp1096
g49
(g50
g51
NtRp1097
(dp1098
g54
(dp1099
g62
I3
ssg63
g1093
sg56
(lp1100
S''
asbasbasbasbasbasbasbag49
(g65
g51
NtRp1101
(dp1102
g54
(dp1103
sg63
g265
sg56
(lp1104
g49
(g70
g51
NtRp1105
(dp1106
g54
(dp1107
g74
g75
ssg63
g1101
sg56
(lp1108
S'session_id_welcome'
p1109
asbag49
(g70
g51
NtRp1110
(dp1111
g54
(dp1112
g81
g82
ssg63
g1101
sg56
(lp1113
S':'
asbag49
(g70
g51
NtRp1114
(dp1115
g54
(dp1116
sg63
g1101
sg56
(lp1117
g49
(g50
g51
NtRp1118
(dp1119
g54
(dp1120
g62
I4
ssg63
g1114
sg56
(lp1121
g49
(g58
g51
NtRp1122
(dp1123
g54
(dp1124
g62
I3
ssg63
Nsg56
(lp1125
g49
(g65
g51
NtRp1126
(dp1127
g54
(dp1128
sg63
g1122
sg56
(lp1129
g49
(g70
g51
NtRp1130
(dp1131
g54
(dp1132
g74
g75
ssg63
g1126
sg56
(lp1133
g302
asbag49
(g70
g51
NtRp1134
(dp1135
g54
(dp1136
g81
g82
ssg63
g1126
sg56
(lp1137
S':'
asbag49
(g70
g51
NtRp1138
(dp1139
g54
(dp1140
sg63
g1126
sg56
(lp1141
g49
(g50
g51
NtRp1142
(dp1143
g54
(dp1144
g62
I3
ssg63
g1138
sg56
(lp1145
S''
asbasbasbag49
(g65
g51
NtRp1146
(dp1147
g54
(dp1148
sg63
g1122
sg56
(lp1149
g49
(g70
g51
NtRp1150
(dp1151
g54
(dp1152
g74
g75
ssg63
g1146
sg56
(lp1153
g323
asbag49
(g70
g51
NtRp1154
(dp1155
g54
(dp1156
g81
g82
ssg63
g1146
sg56
(lp1157
S':'
asbag49
(g70
g51
NtRp1158
(dp1159
g54
(dp1160
sg63
g1146
sg56
(lp1161
g49
(g50
g51
NtRp1162
(dp1163
g54
(dp1164
g62
I3
ssg63
g1158
sg56
(lp1165
S''
asbasbasbag49
(g65
g51
NtRp1166
(dp1167
g54
(dp1168
sg63
g1122
sg56
(lp1169
g49
(g70
g51
NtRp1170
(dp1171
g54
(dp1172
g74
g75
ssg63
g1166
sg56
(lp1173
g344
asbag49
(g70
g51
NtRp1174
(dp1175
g54
(dp1176
g81
g82
ssg63
g1166
sg56
(lp1177
S':'
asbag49
(g70
g51
NtRp1178
(dp1179
g54
(dp1180
sg63
g1166
sg56
(lp1181
g49
(g50
g51
NtRp1182
(dp1183
g54
(dp1184
g62
I3
ssg63
g1178
sg56
(lp1185
S''
asbasbasbag49
(g65
g51
NtRp1186
(dp1187
g54
(dp1188
sg63
g1122
sg56
(lp1189
g49
(g70
g51
NtRp1190
(dp1191
g54
(dp1192
g74
g75
ssg63
g1186
sg56
(lp1193
g365
asbag49
(g70
g51
NtRp1194
(dp1195
g54
(dp1196
g81
g82
ssg63
g1186
sg56
(lp1197
S':'
asbag49
(g70
g51
NtRp1198
(dp1199
g54
(dp1200
sg63
g1186
sg56
(lp1201
g49
(g50
g51
NtRp1202
(dp1203
g54
(dp1204
g62
I3
ssg63
g1198
sg56
(lp1205
S''
asbasbasbag49
(g65
g51
NtRp1206
(dp1207
g54
(dp1208
sg63
g1122
sg56
(lp1209
g49
(g70
g51
NtRp1210
(dp1211
g54
(dp1212
g74
g75
ssg63
g1206
sg56
(lp1213
g386
asbag49
(g70
g51
NtRp1214
(dp1215
g54
(dp1216
g81
g82
ssg63
g1206
sg56
(lp1217
S':'
asbag49
(g70
g51
NtRp1218
(dp1219
g54
(dp1220
sg63
g1206
sg56
(lp1221
g49
(g50
g51
NtRp1222
(dp1223
g54
(dp1224
g62
I3
ssg63
g1218
sg56
(lp1225
S''
asbasbasbag49
(g65
g51
NtRp1226
(dp1227
g54
(dp1228
sg63
g1122
sg56
(lp1229
g49
(g70
g51
NtRp1230
(dp1231
g54
(dp1232
g74
g75
ssg63
g1226
sg56
(lp1233
g407
asbag49
(g70
g51
NtRp1234
(dp1235
g54
(dp1236
g81
g82
ssg63
g1226
sg56
(lp1237
S':'
asbag49
(g70
g51
NtRp1238
(dp1239
g54
(dp1240
sg63
g1226
sg56
(lp1241
g49
(g50
g51
NtRp1242
(dp1243
g54
(dp1244
g62
I3
ssg63
g1238
sg56
(lp1245
S''
asbasbasbag49
(g65
g51
NtRp1246
(dp1247
g54
(dp1248
sg63
g1122
sg56
(lp1249
g49
(g70
g51
NtRp1250
(dp1251
g54
(dp1252
g74
g75
ssg63
g1246
sg56
(lp1253
g428
asbag49
(g70
g51
NtRp1254
(dp1255
g54
(dp1256
g81
g82
ssg63
g1246
sg56
(lp1257
S':'
asbag49
(g70
g51
NtRp1258
(dp1259
g54
(dp1260
sg63
g1246
sg56
(lp1261
g49
(g50
g51
NtRp1262
(dp1263
g54
(dp1264
g62
I3
ssg63
g1258
sg56
(lp1265
S''
asbasbasbasbasbasbasbasbasbasbasbag49
(g65
g51
NtRp1266
(dp1267
g54
(dp1268
sg63
g59
sg56
(lp1269
g49
(g70
g51
NtRp1270
(dp1271
g54
(dp1272
g74
g75
ssg63
g1266
sg56
(lp1273
S'env'
p1274
asbag49
(g70
g51
NtRp1275
(dp1276
g54
(dp1277
g81
g82
ssg63
g1266
sg56
(lp1278
S':'
asbag49
(g70
g51
NtRp1279
(dp1280
g54
(dp1281
sg63
g1266
sg56
(lp1282
g49
(g50
g51
NtRp1283
(dp1284
g54
(dp1285
g62
I5
ssg63
g1279
sg56
(lp1286
g49
(g58
g51
NtRp1287
(dp1288
g54
(dp1289
g62
I4
ssg63
Nsg56
(lp1290
g49
(g65
g51
NtRp1291
(dp1292
g54
(dp1293
sg63
g1287
sg56
(lp1294
g49
(g70
g51
NtRp1295
(dp1296
g54
(dp1297
g74
g75
ssg63
g1291
sg56
(lp1298
S'app_folders'
p1299
asbag49
(g70
g51
NtRp1300
(dp1301
g54
(dp1302
g81
g82
ssg63
g1291
sg56
(lp1303
S':'
asbag49
(g70
g51
NtRp1304
(dp1305
g54
(dp1306
sg63
g1291
sg56
(lp1307
g49
(g50
g51
NtRp1308
(dp1309
g54
(dp1310
g62
I4
ssg63
g1304
sg56
(lp1311
S"set(['C:\\\\Users\\\\omkara\\\\Desktop\\\\web2py\\\\applications\\\\newA\\\\', 'C:\\\\Users\\\\omkara\\\\Desktop\\\\web2py\\\\applications\\\\slug_register_page\\\\', 'C:\\\\Users\\\\omkara\\\\Desktop\\\\web2py\\\\applications\\\\admin\\\\', 'C:\\\\Users\\\\omkara\\\\Desktop\\\\web2py\\\\applications\\\\welcome\\\\', 'C:\\\\Users\\\\omkara\\\\Desktop\\\\web2py\\\\applications\\\\slug_register\\\\', 'C:\\\\Users\\\\omkara\\\\Desktop\\\\web2py\\\\applications\\\\SlugBarter\\\\', 'C:\\\\Users\\\\omkara\\\\Desktop\\\\web2py\\\\applications\\\\testApp\\\\'])"
p1312
asbasbasbag49
(g65
g51
NtRp1313
(dp1314
g54
(dp1315
sg63
g1287
sg56
(lp1316
g49
(g70
g51
NtRp1317
(dp1318
g54
(dp1319
g74
g75
ssg63
g1313
sg56
(lp1320
S'applications_parent'
p1321
asbag49
(g70
g51
NtRp1322
(dp1323
g54
(dp1324
g81
g82
ssg63
g1313
sg56
(lp1325
S':'
asbag49
(g70
g51
NtRp1326
(dp1327
g54
(dp1328
sg63
g1313
sg56
(lp1329
g49
(g50
g51
NtRp1330
(dp1331
g54
(dp1332
g62
I4
ssg63
g1326
sg56
(lp1333
S'C:\\Users\\omkara\\Desktop\\web2py'
p1334
asbasbasbag49
(g65
g51
NtRp1335
(dp1336
g54
(dp1337
sg63
g1287
sg56
(lp1338
g49
(g70
g51
NtRp1339
(dp1340
g54
(dp1341
g74
g75
ssg63
g1335
sg56
(lp1342
S'cmd_args'
p1343
asbag49
(g70
g51
NtRp1344
(dp1345
g54
(dp1346
g81
g82
ssg63
g1335
sg56
(lp1347
S':'
asbag49
(g70
g51
NtRp1348
(dp1349
g54
(dp1350
sg63
g1335
sg56
(lp1351
g49
(g50
g51
NtRp1352
(dp1353
g54
(dp1354
g62
I4
ssg63
g1348
sg56
(lp1355
g49
(g58
g51
NtRp1356
(dp1357
g54
(dp1358
g62
I3
ssg63
Nsg56
(lp1359
sbasbasbasbag49
(g65
g51
NtRp1360
(dp1361
g54
(dp1362
sg63
g1287
sg56
(lp1363
g49
(g70
g51
NtRp1364
(dp1365
g54
(dp1366
g74
g75
ssg63
g1360
sg56
(lp1367
S'cmd_options'
p1368
asbag49
(g70
g51
NtRp1369
(dp1370
g54
(dp1371
g81
g82
ssg63
g1360
sg56
(lp1372
S':'
asbag49
(g70
g51
NtRp1373
(dp1374
g54
(dp1375
sg63
g1360
sg56
(lp1376
g49
(g50
g51
NtRp1377
(dp1378
g54
(dp1379
g62
I4
ssg63
g1373
sg56
(lp1380
S"<Values at 0x27b1f80: {'verbose': False, 'ip': '127.0.0.1', 'shutdown_timeout': 5, 'taskbar': False, 'nocron': False, 'pid_filename': 'httpserver.pid', 'maxthreads': None, 'softcron': False, 'server_name': 'omkara-PC', 'bpython': False, 'nogui': False, 'port': 8000, 'extcron': False, 'debuglevel': 30, 'test': None, 'folder': 'C:\\\\Users\\\\omkara\\\\Desktop\\\\web2py', 'config': '', 'import_models': False, 'winservice': '', 'shell': None, 'run': '', 'log_filename': 'httpserver.log', 'args': [''], 'socket_timeout': 5, 'ssl_ca_certificate': None, 'scheduler': None, 'profiler_filename': None, 'ssl_private_key': '', 'password': '<ask>', 'request_queue_size': 5, 'ssl_certificate': '', 'cronjob': False, 'numthreads': None, 'quiet': False, 'interfaces': None, 'minthreads': None, 'timeout': 10, 'plain': False, 'nobanner': False}>"
p1381
asbasbasbag49
(g65
g51
NtRp1382
(dp1383
g54
(dp1384
sg63
g1287
sg56
(lp1385
g49
(g70
g51
NtRp1386
(dp1387
g54
(dp1388
g74
g75
ssg63
g1382
sg56
(lp1389
S'db_sessions'
p1390
asbag49
(g70
g51
NtRp1391
(dp1392
g54
(dp1393
g81
g82
ssg63
g1382
sg56
(lp1394
S':'
asbag49
(g70
g51
NtRp1395
(dp1396
g54
(dp1397
sg63
g1382
sg56
(lp1398
g49
(g50
g51
NtRp1399
(dp1400
g54
(dp1401
g62
I4
ssg63
g1395
sg56
(lp1402
S'set([])'
p1403
asbasbasbag49
(g65
g51
NtRp1404
(dp1405
g54
(dp1406
sg63
g1287
sg56
(lp1407
g49
(g70
g51
NtRp1408
(dp1409
g54
(dp1410
g74
g75
ssg63
g1404
sg56
(lp1411
S'debugging'
p1412
asbag49
(g70
g51
NtRp1413
(dp1414
g54
(dp1415
g81
g82
ssg63
g1404
sg56
(lp1416
S':'
asbag49
(g70
g51
NtRp1417
(dp1418
g54
(dp1419
sg63
g1404
sg56
(lp1420
g49
(g50
g51
NtRp1421
(dp1422
g54
(dp1423
g62
I4
ssg63
g1417
sg56
(lp1424
g92
asbasbasbag49
(g65
g51
NtRp1425
(dp1426
g54
(dp1427
sg63
g1287
sg56
(lp1428
g49
(g70
g51
NtRp1429
(dp1430
g54
(dp1431
g74
g75
ssg63
g1425
sg56
(lp1432
S'gluon_parent'
p1433
asbag49
(g70
g51
NtRp1434
(dp1435
g54
(dp1436
g81
g82
ssg63
g1425
sg56
(lp1437
S':'
asbag49
(g70
g51
NtRp1438
(dp1439
g54
(dp1440
sg63
g1425
sg56
(lp1441
g49
(g50
g51
NtRp1442
(dp1443
g54
(dp1444
g62
I4
ssg63
g1438
sg56
(lp1445
S'C:\\Users\\omkara\\Desktop\\web2py'
p1446
asbasbasbag49
(g65
g51
NtRp1447
(dp1448
g54
(dp1449
sg63
g1287
sg56
(lp1450
g49
(g70
g51
NtRp1451
(dp1452
g54
(dp1453
g74
g75
ssg63
g1447
sg56
(lp1454
S'http_accept'
p1455
asbag49
(g70
g51
NtRp1456
(dp1457
g54
(dp1458
g81
g82
ssg63
g1447
sg56
(lp1459
S':'
asbag49
(g70
g51
NtRp1460
(dp1461
g54
(dp1462
sg63
g1447
sg56
(lp1463
g49
(g50
g51
NtRp1464
(dp1465
g54
(dp1466
g62
I4
ssg63
g1460
sg56
(lp1467
S'text/html,application/xhtml+xml,application/xml;q=0.9,*/*;q=0.8'
p1468
asbasbasbag49
(g65
g51
NtRp1469
(dp1470
g54
(dp1471
sg63
g1287
sg56
(lp1472
g49
(g70
g51
NtRp1473
(dp1474
g54
(dp1475
g74
g75
ssg63
g1469
sg56
(lp1476
S'http_accept_charset'
p1477
asbag49
(g70
g51
NtRp1478
(dp1479
g54
(dp1480
g81
g82
ssg63
g1469
sg56
(lp1481
S':'
asbag49
(g70
g51
NtRp1482
(dp1483
g54
(dp1484
sg63
g1469
sg56
(lp1485
g49
(g50
g51
NtRp1486
(dp1487
g54
(dp1488
g62
I4
ssg63
g1482
sg56
(lp1489
S'ISO-8859-1,utf-8;q=0.7,*;q=0.3'
p1490
asbasbasbag49
(g65
g51
NtRp1491
(dp1492
g54
(dp1493
sg63
g1287
sg56
(lp1494
g49
(g70
g51
NtRp1495
(dp1496
g54
(dp1497
g74
g75
ssg63
g1491
sg56
(lp1498
S'http_accept_encoding'
p1499
asbag49
(g70
g51
NtRp1500
(dp1501
g54
(dp1502
g81
g82
ssg63
g1491
sg56
(lp1503
S':'
asbag49
(g70
g51
NtRp1504
(dp1505
g54
(dp1506
sg63
g1491
sg56
(lp1507
g49
(g50
g51
NtRp1508
(dp1509
g54
(dp1510
g62
I4
ssg63
g1504
sg56
(lp1511
S'gzip,deflate,sdch'
p1512
asbasbasbag49
(g65
g51
NtRp1513
(dp1514
g54
(dp1515
sg63
g1287
sg56
(lp1516
g49
(g70
g51
NtRp1517
(dp1518
g54
(dp1519
g74
g75
ssg63
g1513
sg56
(lp1520
S'http_accept_language'
p1521
asbag49
(g70
g51
NtRp1522
(dp1523
g54
(dp1524
g81
g82
ssg63
g1513
sg56
(lp1525
S':'
asbag49
(g70
g51
NtRp1526
(dp1527
g54
(dp1528
sg63
g1513
sg56
(lp1529
g49
(g50
g51
NtRp1530
(dp1531
g54
(dp1532
g62
I4
ssg63
g1526
sg56
(lp1533
S'en-US,en;q=0.8'
p1534
asbasbasbag49
(g65
g51
NtRp1535
(dp1536
g54
(dp1537
sg63
g1287
sg56
(lp1538
g49
(g70
g51
NtRp1539
(dp1540
g54
(dp1541
g74
g75
ssg63
g1535
sg56
(lp1542
S'http_connection'
p1543
asbag49
(g70
g51
NtRp1544
(dp1545
g54
(dp1546
g81
g82
ssg63
g1535
sg56
(lp1547
S':'
asbag49
(g70
g51
NtRp1548
(dp1549
g54
(dp1550
sg63
g1535
sg56
(lp1551
g49
(g50
g51
NtRp1552
(dp1553
g54
(dp1554
g62
I4
ssg63
g1548
sg56
(lp1555
S'keep-alive'
p1556
asbasbasbag49
(g65
g51
NtRp1557
(dp1558
g54
(dp1559
sg63
g1287
sg56
(lp1560
g49
(g70
g51
NtRp1561
(dp1562
g54
(dp1563
g74
g75
ssg63
g1557
sg56
(lp1564
S'http_cookie'
p1565
asbag49
(g70
g51
NtRp1566
(dp1567
g54
(dp1568
g81
g82
ssg63
g1557
sg56
(lp1569
S':'
asbag49
(g70
g51
NtRp1570
(dp1571
g54
(dp1572
sg63
g1557
sg56
(lp1573
g49
(g50
g51
NtRp1574
(dp1575
g54
(dp1576
g62
I4
ssg63
g1570
sg56
(lp1577
S'session_id_onlinenotes_p1_=127.0.0.1-2b1a349f-aa95-4718-93d5-e7df1c85d951; session_id_slug_register_page=127.0.0.1-c2775933-22a4-419d-80e2-4c993aff45c7; session_id_welcome=127.0.0.1-a1b3016b-66b8-408b-ae8e-37231f35f16e; session_id_testapp=127.0.0.1-07eafbbd-d252-4b2b-84dc-0b0d16c3c06d; session_id_admin=127.0.0.1-dcf0163e-0560-4f31-a592-e577714771db; session_id_slugbarter=127.0.0.1-e6ebae72-1bbc-48a5-9458-95dbb65a4e54'
p1578
asbasbasbag49
(g65
g51
NtRp1579
(dp1580
g54
(dp1581
sg63
g1287
sg56
(lp1582
g49
(g70
g51
NtRp1583
(dp1584
g54
(dp1585
g74
g75
ssg63
g1579
sg56
(lp1586
S'http_host'
p1587
asbag49
(g70
g51
NtRp1588
(dp1589
g54
(dp1590
g81
g82
ssg63
g1579
sg56
(lp1591
S':'
asbag49
(g70
g51
NtRp1592
(dp1593
g54
(dp1594
sg63
g1579
sg56
(lp1595
g49
(g50
g51
NtRp1596
(dp1597
g54
(dp1598
g62
I4
ssg63
g1592
sg56
(lp1599
S'127.0.0.1:8000'
p1600
asbasbasbag49
(g65
g51
NtRp1601
(dp1602
g54
(dp1603
sg63
g1287
sg56
(lp1604
g49
(g70
g51
NtRp1605
(dp1606
g54
(dp1607
g74
g75
ssg63
g1601
sg56
(lp1608
S'http_referer'
p1609
asbag49
(g70
g51
NtRp1610
(dp1611
g54
(dp1612
g81
g82
ssg63
g1601
sg56
(lp1613
S':'
asbag49
(g70
g51
NtRp1614
(dp1615
g54
(dp1616
sg63
g1601
sg56
(lp1617
g49
(g50
g51
NtRp1618
(dp1619
g54
(dp1620
g62
I4
ssg63
g1614
sg56
(lp1621
S'http://127.0.0.1:8000/SlugBarter/appadmin/select/db?query=db.listing.id%3E0'
p1622
asbasbasbag49
(g65
g51
NtRp1623
(dp1624
g54
(dp1625
sg63
g1287
sg56
(lp1626
g49
(g70
g51
NtRp1627
(dp1628
g54
(dp1629
g74
g75
ssg63
g1623
sg56
(lp1630
S'http_user_agent'
p1631
asbag49
(g70
g51
NtRp1632
(dp1633
g54
(dp1634
g81
g82
ssg63
g1623
sg56
(lp1635
S':'
asbag49
(g70
g51
NtRp1636
(dp1637
g54
(dp1638
sg63
g1623
sg56
(lp1639
g49
(g50
g51
NtRp1640
(dp1641
g54
(dp1642
g62
I4
ssg63
g1636
sg56
(lp1643
S'Mozilla/5.0 (Windows NT 6.1) AppleWebKit/537.11 (KHTML, like Gecko) Chrome/23.0.1271.64 Safari/537.11'
p1644
asbasbasbag49
(g65
g51
NtRp1645
(dp1646
g54
(dp1647
sg63
g1287
sg56
(lp1648
g49
(g70
g51
NtRp1649
(dp1650
g54
(dp1651
g74
g75
ssg63
g1645
sg56
(lp1652
S'is_jython'
p1653
asbag49
(g70
g51
NtRp1654
(dp1655
g54
(dp1656
g81
g82
ssg63
g1645
sg56
(lp1657
S':'
asbag49
(g70
g51
NtRp1658
(dp1659
g54
(dp1660
sg63
g1645
sg56
(lp1661
g49
(g50
g51
NtRp1662
(dp1663
g54
(dp1664
g62
I4
ssg63
g1658
sg56
(lp1665
g92
asbasbasbag49
(g65
g51
NtRp1666
(dp1667
g54
(dp1668
sg63
g1287
sg56
(lp1669
g49
(g70
g51
NtRp1670
(dp1671
g54
(dp1672
g74
g75
ssg63
g1666
sg56
(lp1673
S'is_pypy'
p1674
asbag49
(g70
g51
NtRp1675
(dp1676
g54
(dp1677
g81
g82
ssg63
g1666
sg56
(lp1678
S':'
asbag49
(g70
g51
NtRp1679
(dp1680
g54
(dp1681
sg63
g1666
sg56
(lp1682
g49
(g50
g51
NtRp1683
(dp1684
g54
(dp1685
g62
I4
ssg63
g1679
sg56
(lp1686
g92
asbasbasbag49
(g65
g51
NtRp1687
(dp1688
g54
(dp1689
sg63
g1287
sg56
(lp1690
g49
(g70
g51
NtRp1691
(dp1692
g54
(dp1693
g74
g75
ssg63
g1687
sg56
(lp1694
S'path_info'
p1695
asbag49
(g70
g51
NtRp1696
(dp1697
g54
(dp1698
g81
g82
ssg63
g1687
sg56
(lp1699
S':'
asbag49
(g70
g51
NtRp1700
(dp1701
g54
(dp1702
sg63
g1687
sg56
(lp1703
g49
(g50
g51
NtRp1704
(dp1705
g54
(dp1706
g62
I4
ssg63
g1700
sg56
(lp1707
S'/SlugBarter/appadmin/update/db/auth_user/None'
p1708
asbasbasbag49
(g65
g51
NtRp1709
(dp1710
g54
(dp1711
sg63
g1287
sg56
(lp1712
g49
(g70
g51
NtRp1713
(dp1714
g54
(dp1715
g74
g75
ssg63
g1709
sg56
(lp1716
S'query_string'
p1717
asbag49
(g70
g51
NtRp1718
(dp1719
g54
(dp1720
g81
g82
ssg63
g1709
sg56
(lp1721
S':'
asbag49
(g70
g51
NtRp1722
(dp1723
g54
(dp1724
sg63
g1709
sg56
(lp1725
g49
(g50
g51
NtRp1726
(dp1727
g54
(dp1728
g62
I4
ssg63
g1722
sg56
(lp1729
S''
asbasbasbag49
(g65
g51
NtRp1730
(dp1731
g54
(dp1732
sg63
g1287
sg56
(lp1733
g49
(g70
g51
NtRp1734
(dp1735
g54
(dp1736
g74
g75
ssg63
g1730
sg56
(lp1737
S'remote_addr'
p1738
asbag49
(g70
g51
NtRp1739
(dp1740
g54
(dp1741
g81
g82
ssg63
g1730
sg56
(lp1742
S':'
asbag49
(g70
g51
NtRp1743
(dp1744
g54
(dp1745
sg63
g1730
sg56
(lp1746
g49
(g50
g51
NtRp1747
(dp1748
g54
(dp1749
g62
I4
ssg63
g1743
sg56
(lp1750
g221
asbasbasbag49
(g65
g51
NtRp1751
(dp1752
g54
(dp1753
sg63
g1287
sg56
(lp1754
g49
(g70
g51
NtRp1755
(dp1756
g54
(dp1757
g74
g75
ssg63
g1751
sg56
(lp1758
S'remote_port'
p1759
asbag49
(g70
g51
NtRp1760
(dp1761
g54
(dp1762
g81
g82
ssg63
g1751
sg56
(lp1763
S':'
asbag49
(g70
g51
NtRp1764
(dp1765
g54
(dp1766
sg63
g1751
sg56
(lp1767
g49
(g50
g51
NtRp1768
(dp1769
g54
(dp1770
g62
I4
ssg63
g1764
sg56
(lp1771
S'49332'
p1772
asbasbasbag49
(g65
g51
NtRp1773
(dp1774
g54
(dp1775
sg63
g1287
sg56
(lp1776
g49
(g70
g51
NtRp1777
(dp1778
g54
(dp1779
g74
g75
ssg63
g1773
sg56
(lp1780
S'request_method'
p1781
asbag49
(g70
g51
NtRp1782
(dp1783
g54
(dp1784
g81
g82
ssg63
g1773
sg56
(lp1785
S':'
asbag49
(g70
g51
NtRp1786
(dp1787
g54
(dp1788
sg63
g1773
sg56
(lp1789
g49
(g50
g51
NtRp1790
(dp1791
g54
(dp1792
g62
I4
ssg63
g1786
sg56
(lp1793
S'GET'
p1794
asbasbasbag49
(g65
g51
NtRp1795
(dp1796
g54
(dp1797
sg63
g1287
sg56
(lp1798
g49
(g70
g51
NtRp1799
(dp1800
g54
(dp1801
g74
g75
ssg63
g1795
sg56
(lp1802
S'script_name'
p1803
asbag49
(g70
g51
NtRp1804
(dp1805
g54
(dp1806
g81
g82
ssg63
g1795
sg56
(lp1807
S':'
asbag49
(g70
g51
NtRp1808
(dp1809
g54
(dp1810
sg63
g1795
sg56
(lp1811
g49
(g50
g51
NtRp1812
(dp1813
g54
(dp1814
g62
I4
ssg63
g1808
sg56
(lp1815
S''
asbasbasbag49
(g65
g51
NtRp1816
(dp1817
g54
(dp1818
sg63
g1287
sg56
(lp1819
g49
(g70
g51
NtRp1820
(dp1821
g54
(dp1822
g74
g75
ssg63
g1816
sg56
(lp1823
S'server_name'
p1824
asbag49
(g70
g51
NtRp1825
(dp1826
g54
(dp1827
g81
g82
ssg63
g1816
sg56
(lp1828
S':'
asbag49
(g70
g51
NtRp1829
(dp1830
g54
(dp1831
sg63
g1816
sg56
(lp1832
g49
(g50
g51
NtRp1833
(dp1834
g54
(dp1835
g62
I4
ssg63
g1829
sg56
(lp1836
S'omkara-PC'
p1837
asbasbasbag49
(g65
g51
NtRp1838
(dp1839
g54
(dp1840
sg63
g1287
sg56
(lp1841
g49
(g70
g51
NtRp1842
(dp1843
g54
(dp1844
g74
g75
ssg63
g1838
sg56
(lp1845
S'server_port'
p1846
asbag49
(g70
g51
NtRp1847
(dp1848
g54
(dp1849
g81
g82
ssg63
g1838
sg56
(lp1850
S':'
asbag49
(g70
g51
NtRp1851
(dp1852
g54
(dp1853
sg63
g1838
sg56
(lp1854
g49
(g50
g51
NtRp1855
(dp1856
g54
(dp1857
g62
I4
ssg63
g1851
sg56
(lp1858
S'8000'
p1859
asbasbasbag49
(g65
g51
NtRp1860
(dp1861
g54
(dp1862
sg63
g1287
sg56
(lp1863
g49
(g70
g51
NtRp1864
(dp1865
g54
(dp1866
g74
g75
ssg63
g1860
sg56
(lp1867
S'server_protocol'
p1868
asbag49
(g70
g51
NtRp1869
(dp1870
g54
(dp1871
g81
g82
ssg63
g1860
sg56
(lp1872
S':'
asbag49
(g70
g51
NtRp1873
(dp1874
g54
(dp1875
sg63
g1860
sg56
(lp1876
g49
(g50
g51
NtRp1877
(dp1878
g54
(dp1879
g62
I4
ssg63
g1873
sg56
(lp1880
S'HTTP/1.1'
p1881
asbasbasbag49
(g65
g51
NtRp1882
(dp1883
g54
(dp1884
sg63
g1287
sg56
(lp1885
g49
(g70
g51
NtRp1886
(dp1887
g54
(dp1888
g74
g75
ssg63
g1882
sg56
(lp1889
S'server_software'
p1890
asbag49
(g70
g51
NtRp1891
(dp1892
g54
(dp1893
g81
g82
ssg63
g1882
sg56
(lp1894
S':'
asbag49
(g70
g51
NtRp1895
(dp1896
g54
(dp1897
sg63
g1882
sg56
(lp1898
g49
(g50
g51
NtRp1899
(dp1900
g54
(dp1901
g62
I4
ssg63
g1895
sg56
(lp1902
S'Rocket 1.2.4'
p1903
asbasbasbag49
(g65
g51
NtRp1904
(dp1905
g54
(dp1906
sg63
g1287
sg56
(lp1907
g49
(g70
g51
NtRp1908
(dp1909
g54
(dp1910
g74
g75
ssg63
g1904
sg56
(lp1911
S'web2py_crontype'
p1912
asbag49
(g70
g51
NtRp1913
(dp1914
g54
(dp1915
g81
g82
ssg63
g1904
sg56
(lp1916
S':'
asbag49
(g70
g51
NtRp1917
(dp1918
g54
(dp1919
sg63
g1904
sg56
(lp1920
g49
(g50
g51
NtRp1921
(dp1922
g54
(dp1923
g62
I4
ssg63
g1917
sg56
(lp1924
S'hard'
p1925
asbasbasbag49
(g65
g51
NtRp1926
(dp1927
g54
(dp1928
sg63
g1287
sg56
(lp1929
g49
(g70
g51
NtRp1930
(dp1931
g54
(dp1932
g74
g75
ssg63
g1926
sg56
(lp1933
S'web2py_path'
p1934
asbag49
(g70
g51
NtRp1935
(dp1936
g54
(dp1937
g81
g82
ssg63
g1926
sg56
(lp1938
S':'
asbag49
(g70
g51
NtRp1939
(dp1940
g54
(dp1941
sg63
g1926
sg56
(lp1942
g49
(g50
g51
NtRp1943
(dp1944
g54
(dp1945
g62
I4
ssg63
g1939
sg56
(lp1946
g1334
asbasbasbag49
(g65
g51
NtRp1947
(dp1948
g54
(dp1949
sg63
g1287
sg56
(lp1950
g49
(g70
g51
NtRp1951
(dp1952
g54
(dp1953
g74
g75
ssg63
g1947
sg56
(lp1954
S'web2py_version'
p1955
asbag49
(g70
g51
NtRp1956
(dp1957
g54
(dp1958
g81
g82
ssg63
g1947
sg56
(lp1959
S':'
asbag49
(g70
g51
NtRp1960
(dp1961
g54
(dp1962
sg63
g1947
sg56
(lp1963
g49
(g50
g51
NtRp1964
(dp1965
g54
(dp1966
g62
I4
ssg63
g1960
sg56
(lp1967
g49
(g58
g51
NtRp1968
(dp1969
g54
(dp1970
g62
I3
ssg63
Nsg56
(lp1971
g49
(g65
g51
NtRp1972
(dp1973
g54
(dp1974
sg63
g1968
sg56
(lp1975
g49
(g70
g51
NtRp1976
(dp1977
g54
(dp1978
sg63
g1972
sg56
(lp1979
g49
(g50
g51
NtRp1980
(dp1981
g54
(dp1982
g62
I3
ssg63
g1976
sg56
(lp1983
S'1'
asbasbasbag49
(g65
g51
NtRp1984
(dp1985
g54
(dp1986
sg63
g1968
sg56
(lp1987
g49
(g70
g51
NtRp1988
(dp1989
g54
(dp1990
sg63
g1984
sg56
(lp1991
g49
(g50
g51
NtRp1992
(dp1993
g54
(dp1994
g62
I3
ssg63
g1988
sg56
(lp1995
S'99'
p1996
asbasbasbag49
(g65
g51
NtRp1997
(dp1998
g54
(dp1999
sg63
g1968
sg56
(lp2000
g49
(g70
g51
NtRp2001
(dp2002
g54
(dp2003
sg63
g1997
sg56
(lp2004
g49
(g50
g51
NtRp2005
(dp2006
g54
(dp2007
g62
I3
ssg63
g2001
sg56
(lp2008
S'7'
asbasbasbag49
(g65
g51
NtRp2009
(dp2010
g54
(dp2011
sg63
g1968
sg56
(lp2012
g49
(g70
g51
NtRp2013
(dp2014
g54
(dp2015
sg63
g2009
sg56
(lp2016
g49
(g50
g51
NtRp2017
(dp2018
g54
(dp2019
g62
I3
ssg63
g2013
sg56
(lp2020
S'datetime.datetime(2012, 3, 4, 22, 12, 8)'
p2021
asbasbasbag49
(g65
g51
NtRp2022
(dp2023
g54
(dp2024
sg63
g1968
sg56
(lp2025
g49
(g70
g51
NtRp2026
(dp2027
g54
(dp2028
sg63
g2022
sg56
(lp2029
g49
(g50
g51
NtRp2030
(dp2031
g54
(dp2032
g62
I3
ssg63
g2026
sg56
(lp2033
S'stable'
p2034
asbasbasbasbasbasbasbag49
(g65
g51
NtRp2035
(dp2036
g54
(dp2037
sg63
g1287
sg56
(lp2038
g49
(g70
g51
NtRp2039
(dp2040
g54
(dp2041
g74
g75
ssg63
g2035
sg56
(lp2042
S'wsgi_errors'
p2043
asbag49
(g70
g51
NtRp2044
(dp2045
g54
(dp2046
g81
g82
ssg63
g2035
sg56
(lp2047
S':'
asbag49
(g70
g51
NtRp2048
(dp2049
g54
(dp2050
sg63
g2035
sg56
(lp2051
g49
(g50
g51
NtRp2052
(dp2053
g54
(dp2054
g62
I4
ssg63
g2048
sg56
(lp2055
S"<open file '<stderr>', mode 'w' at 0x016000B0>"
p2056
asbasbasbag49
(g65
g51
NtRp2057
(dp2058
g54
(dp2059
sg63
g1287
sg56
(lp2060
g49
(g70
g51
NtRp2061
(dp2062
g54
(dp2063
g74
g75
ssg63
g2057
sg56
(lp2064
S'wsgi_file_wrapper'
p2065
asbag49
(g70
g51
NtRp2066
(dp2067
g54
(dp2068
g81
g82
ssg63
g2057
sg56
(lp2069
S':'
asbag49
(g70
g51
NtRp2070
(dp2071
g54
(dp2072
sg63
g2057
sg56
(lp2073
g49
(g50
g51
NtRp2074
(dp2075
g54
(dp2076
g62
I4
ssg63
g2070
sg56
(lp2077
S'<class wsgiref.util.FileWrapper at 0x025361B0>'
p2078
asbasbasbag49
(g65
g51
NtRp2079
(dp2080
g54
(dp2081
sg63
g1287
sg56
(lp2082
g49
(g70
g51
NtRp2083
(dp2084
g54
(dp2085
g74
g75
ssg63
g2079
sg56
(lp2086
S'wsgi_input'
p2087
asbag49
(g70
g51
NtRp2088
(dp2089
g54
(dp2090
g81
g82
ssg63
g2079
sg56
(lp2091
S':'
asbag49
(g70
g51
NtRp2092
(dp2093
g54
(dp2094
sg63
g2079
sg56
(lp2095
g49
(g50
g51
NtRp2096
(dp2097
g54
(dp2098
g62
I4
ssg63
g2092
sg56
(lp2099
S'<socket._fileobject object at 0x0636F070>'
p2100
asbasbasbag49
(g65
g51
NtRp2101
(dp2102
g54
(dp2103
sg63
g1287
sg56
(lp2104
g49
(g70
g51
NtRp2105
(dp2106
g54
(dp2107
g74
g75
ssg63
g2101
sg56
(lp2108
S'wsgi_multiprocess'
p2109
asbag49
(g70
g51
NtRp2110
(dp2111
g54
(dp2112
g81
g82
ssg63
g2101
sg56
(lp2113
S':'
asbag49
(g70
g51
NtRp2114
(dp2115
g54
(dp2116
sg63
g2101
sg56
(lp2117
g49
(g50
g51
NtRp2118
(dp2119
g54
(dp2120
g62
I4
ssg63
g2114
sg56
(lp2121
g92
asbasbasbag49
(g65
g51
NtRp2122
(dp2123
g54
(dp2124
sg63
g1287
sg56
(lp2125
g49
(g70
g51
NtRp2126
(dp2127
g54
(dp2128
g74
g75
ssg63
g2122
sg56
(lp2129
S'wsgi_multithread'
p2130
asbag49
(g70
g51
NtRp2131
(dp2132
g54
(dp2133
g81
g82
ssg63
g2122
sg56
(lp2134
S':'
asbag49
(g70
g51
NtRp2135
(dp2136
g54
(dp2137
sg63
g2122
sg56
(lp2138
g49
(g50
g51
NtRp2139
(dp2140
g54
(dp2141
g62
I4
ssg63
g2135
sg56
(lp2142
S'True'
p2143
asbasbasbag49
(g65
g51
NtRp2144
(dp2145
g54
(dp2146
sg63
g1287
sg56
(lp2147
g49
(g70
g51
NtRp2148
(dp2149
g54
(dp2150
g74
g75
ssg63
g2144
sg56
(lp2151
S'wsgi_run_once'
p2152
asbag49
(g70
g51
NtRp2153
(dp2154
g54
(dp2155
g81
g82
ssg63
g2144
sg56
(lp2156
S':'
asbag49
(g70
g51
NtRp2157
(dp2158
g54
(dp2159
sg63
g2144
sg56
(lp2160
g49
(g50
g51
NtRp2161
(dp2162
g54
(dp2163
g62
I4
ssg63
g2157
sg56
(lp2164
g92
asbasbasbag49
(g65
g51
NtRp2165
(dp2166
g54
(dp2167
sg63
g1287
sg56
(lp2168
g49
(g70
g51
NtRp2169
(dp2170
g54
(dp2171
g74
g75
ssg63
g2165
sg56
(lp2172
S'wsgi_url_scheme'
p2173
asbag49
(g70
g51
NtRp2174
(dp2175
g54
(dp2176
g81
g82
ssg63
g2165
sg56
(lp2177
S':'
asbag49
(g70
g51
NtRp2178
(dp2179
g54
(dp2180
sg63
g2165
sg56
(lp2181
g49
(g50
g51
NtRp2182
(dp2183
g54
(dp2184
g62
I4
ssg63
g2178
sg56
(lp2185
S'http'
p2186
asbasbasbag49
(g65
g51
NtRp2187
(dp2188
g54
(dp2189
sg63
g1287
sg56
(lp2190
g49
(g70
g51
NtRp2191
(dp2192
g54
(dp2193
g74
g75
ssg63
g2187
sg56
(lp2194
S'wsgi_version'
p2195
asbag49
(g70
g51
NtRp2196
(dp2197
g54
(dp2198
g81
g82
ssg63
g2187
sg56
(lp2199
S':'
asbag49
(g70
g51
NtRp2200
(dp2201
g54
(dp2202
sg63
g2187
sg56
(lp2203
g49
(g50
g51
NtRp2204
(dp2205
g54
(dp2206
g62
I4
ssg63
g2200
sg56
(lp2207
g49
(g58
g51
NtRp2208
(dp2209
g54
(dp2210
g62
I3
ssg63
Nsg56
(lp2211
g49
(g65
g51
NtRp2212
(dp2213
g54
(dp2214
sg63
g2208
sg56
(lp2215
g49
(g70
g51
NtRp2216
(dp2217
g54
(dp2218
sg63
g2212
sg56
(lp2219
g49
(g50
g51
NtRp2220
(dp2221
g54
(dp2222
g62
I3
ssg63
g2216
sg56
(lp2223
S'1'
asbasbasbag49
(g65
g51
NtRp2224
(dp2225
g54
(dp2226
sg63
g2208
sg56
(lp2227
g49
(g70
g51
NtRp2228
(dp2229
g54
(dp2230
sg63
g2224
sg56
(lp2231
g49
(g50
g51
NtRp2232
(dp2233
g54
(dp2234
g62
I3
ssg63
g2228
sg56
(lp2235
S'0'
asbasbasbasbasbasbasbasbasbasbasbag49
(g65
g51
NtRp2236
(dp2237
g54
(dp2238
sg63
g59
sg56
(lp2239
g49
(g70
g51
NtRp2240
(dp2241
g54
(dp2242
g74
g75
ssg63
g2236
sg56
(lp2243
S'extension'
p2244
asbag49
(g70
g51
NtRp2245
(dp2246
g54
(dp2247
g81
g82
ssg63
g2236
sg56
(lp2248
S':'
asbag49
(g70
g51
NtRp2249
(dp2250
g54
(dp2251
sg63
g2236
sg56
(lp2252
g49
(g50
g51
NtRp2253
(dp2254
g54
(dp2255
g62
I5
ssg63
g2249
sg56
(lp2256
S'html'
p2257
asbasbasbag49
(g65
g51
NtRp2258
(dp2259
g54
(dp2260
sg63
g59
sg56
(lp2261
g49
(g70
g51
NtRp2262
(dp2263
g54
(dp2264
g74
g75
ssg63
g2258
sg56
(lp2265
S'folder'
p2266
asbag49
(g70
g51
NtRp2267
(dp2268
g54
(dp2269
g81
g82
ssg63
g2258
sg56
(lp2270
S':'
asbag49
(g70
g51
NtRp2271
(dp2272
g54
(dp2273
sg63
g2258
sg56
(lp2274
g49
(g50
g51
NtRp2275
(dp2276
g54
(dp2277
g62
I5
ssg63
g2271
sg56
(lp2278
S'C:\\Users\\omkara\\Desktop\\web2py\\applications\\SlugBarter\\'
p2279
asbasbasbag49
(g65
g51
NtRp2280
(dp2281
g54
(dp2282
sg63
g59
sg56
(lp2283
g49
(g70
g51
NtRp2284
(dp2285
g54
(dp2286
g74
g75
ssg63
g2280
sg56
(lp2287
S'function'
p2288
asbag49
(g70
g51
NtRp2289
(dp2290
g54
(dp2291
g81
g82
ssg63
g2280
sg56
(lp2292
S':'
asbag49
(g70
g51
NtRp2293
(dp2294
g54
(dp2295
sg63
g2280
sg56
(lp2296
g49
(g50
g51
NtRp2297
(dp2298
g54
(dp2299
g62
I5
ssg63
g2293
sg56
(lp2300
S'update'
p2301
asbasbasbag49
(g65
g51
NtRp2302
(dp2303
g54
(dp2304
sg63
g59
sg56
(lp2305
g49
(g70
g51
NtRp2306
(dp2307
g54
(dp2308
g74
g75
ssg63
g2302
sg56
(lp2309
S'get_vars'
p2310
asbag49
(g70
g51
NtRp2311
(dp2312
g54
(dp2313
g81
g82
ssg63
g2302
sg56
(lp2314
S':'
asbag49
(g70
g51
NtRp2315
(dp2316
g54
(dp2317
sg63
g2302
sg56
(lp2318
g49
(g50
g51
NtRp2319
(dp2320
g54
(dp2321
g62
I5
ssg63
g2315
sg56
(lp2322
g49
(g58
g51
NtRp2323
(dp2324
g54
(dp2325
g62
I4
ssg63
Nsg56
(lp2326
sbasbasbasbag49
(g65
g51
NtRp2327
(dp2328
g54
(dp2329
sg63
g59
sg56
(lp2330
g49
(g70
g51
NtRp2331
(dp2332
g54
(dp2333
g74
g75
ssg63
g2327
sg56
(lp2334
S'global_settings'
p2335
asbag49
(g70
g51
NtRp2336
(dp2337
g54
(dp2338
g81
g82
ssg63
g2327
sg56
(lp2339
S':'
asbag49
(g70
g51
NtRp2340
(dp2341
g54
(dp2342
sg63
g2327
sg56
(lp2343
g49
(g50
g51
NtRp2344
(dp2345
g54
(dp2346
g62
I5
ssg63
g2340
sg56
(lp2347
g49
(g58
g51
NtRp2348
(dp2349
g54
(dp2350
g62
I4
ssg63
Nsg56
(lp2351
g49
(g65
g51
NtRp2352
(dp2353
g54
(dp2354
sg63
g2348
sg56
(lp2355
g49
(g70
g51
NtRp2356
(dp2357
g54
(dp2358
g74
g75
ssg63
g2352
sg56
(lp2359
g1299
asbag49
(g70
g51
NtRp2360
(dp2361
g54
(dp2362
g81
g82
ssg63
g2352
sg56
(lp2363
S':'
asbag49
(g70
g51
NtRp2364
(dp2365
g54
(dp2366
sg63
g2352
sg56
(lp2367
g49
(g50
g51
NtRp2368
(dp2369
g54
(dp2370
g62
I4
ssg63
g2364
sg56
(lp2371
S"set(['C:\\\\Users\\\\omkara\\\\Desktop\\\\web2py\\\\applications\\\\newA\\\\', 'C:\\\\Users\\\\omkara\\\\Desktop\\\\web2py\\\\applications\\\\slug_register_page\\\\', 'C:\\\\Users\\\\omkara\\\\Desktop\\\\web2py\\\\applications\\\\admin\\\\', 'C:\\\\Users\\\\omkara\\\\Desktop\\\\web2py\\\\applications\\\\welcome\\\\', 'C:\\\\Users\\\\omkara\\\\Desktop\\\\web2py\\\\applications\\\\slug_register\\\\', 'C:\\\\Users\\\\omkara\\\\Desktop\\\\web2py\\\\applications\\\\SlugBarter\\\\', 'C:\\\\Users\\\\omkara\\\\Desktop\\\\web2py\\\\applications\\\\testApp\\\\'])"
p2372
asbasbasbag49
(g65
g51
NtRp2373
(dp2374
g54
(dp2375
sg63
g2348
sg56
(lp2376
g49
(g70
g51
NtRp2377
(dp2378
g54
(dp2379
g74
g75
ssg63
g2373
sg56
(lp2380
g1321
asbag49
(g70
g51
NtRp2381
(dp2382
g54
(dp2383
g81
g82
ssg63
g2373
sg56
(lp2384
S':'
asbag49
(g70
g51
NtRp2385
(dp2386
g54
(dp2387
sg63
g2373
sg56
(lp2388
g49
(g50
g51
NtRp2389
(dp2390
g54
(dp2391
g62
I4
ssg63
g2385
sg56
(lp2392
g1334
asbasbasbag49
(g65
g51
NtRp2393
(dp2394
g54
(dp2395
sg63
g2348
sg56
(lp2396
g49
(g70
g51
NtRp2397
(dp2398
g54
(dp2399
g74
g75
ssg63
g2393
sg56
(lp2400
g1343
asbag49
(g70
g51
NtRp2401
(dp2402
g54
(dp2403
g81
g82
ssg63
g2393
sg56
(lp2404
S':'
asbag49
(g70
g51
NtRp2405
(dp2406
g54
(dp2407
sg63
g2393
sg56
(lp2408
g49
(g50
g51
NtRp2409
(dp2410
g54
(dp2411
g62
I4
ssg63
g2405
sg56
(lp2412
g49
(g58
g51
NtRp2413
(dp2414
g54
(dp2415
g62
I3
ssg63
Nsg56
(lp2416
sbasbasbasbag49
(g65
g51
NtRp2417
(dp2418
g54
(dp2419
sg63
g2348
sg56
(lp2420
g49
(g70
g51
NtRp2421
(dp2422
g54
(dp2423
g74
g75
ssg63
g2417
sg56
(lp2424
g1368
asbag49
(g70
g51
NtRp2425
(dp2426
g54
(dp2427
g81
g82
ssg63
g2417
sg56
(lp2428
S':'
asbag49
(g70
g51
NtRp2429
(dp2430
g54
(dp2431
sg63
g2417
sg56
(lp2432
g49
(g50
g51
NtRp2433
(dp2434
g54
(dp2435
g62
I4
ssg63
g2429
sg56
(lp2436
S"<Values at 0x27b1f80: {'verbose': False, 'ip': '127.0.0.1', 'shutdown_timeout': 5, 'taskbar': False, 'nocron': False, 'pid_filename': 'httpserver.pid', 'maxthreads': None, 'softcron': False, 'server_name': 'omkara-PC', 'bpython': False, 'nogui': False, 'port': 8000, 'extcron': False, 'debuglevel': 30, 'test': None, 'folder': 'C:\\\\Users\\\\omkara\\\\Desktop\\\\web2py', 'config': '', 'import_models': False, 'winservice': '', 'shell': None, 'run': '', 'log_filename': 'httpserver.log', 'args': [''], 'socket_timeout': 5, 'ssl_ca_certificate': None, 'scheduler': None, 'profiler_filename': None, 'ssl_private_key': '', 'password': '<ask>', 'request_queue_size': 5, 'ssl_certificate': '', 'cronjob': False, 'numthreads': None, 'quiet': False, 'interfaces': None, 'minthreads': None, 'timeout': 10, 'plain': False, 'nobanner': False}>"
p2437
asbasbasbag49
(g65
g51
NtRp2438
(dp2439
g54
(dp2440
sg63
g2348
sg56
(lp2441
g49
(g70
g51
NtRp2442
(dp2443
g54
(dp2444
g74
g75
ssg63
g2438
sg56
(lp2445
g1390
asbag49
(g70
g51
NtRp2446
(dp2447
g54
(dp2448
g81
g82
ssg63
g2438
sg56
(lp2449
S':'
asbag49
(g70
g51
NtRp2450
(dp2451
g54
(dp2452
sg63
g2438
sg56
(lp2453
g49
(g50
g51
NtRp2454
(dp2455
g54
(dp2456
g62
I4
ssg63
g2450
sg56
(lp2457
S'set([])'
p2458
asbasbasbag49
(g65
g51
NtRp2459
(dp2460
g54
(dp2461
sg63
g2348
sg56
(lp2462
g49
(g70
g51
NtRp2463
(dp2464
g54
(dp2465
g74
g75
ssg63
g2459
sg56
(lp2466
g1412
asbag49
(g70
g51
NtRp2467
(dp2468
g54
(dp2469
g81
g82
ssg63
g2459
sg56
(lp2470
S':'
asbag49
(g70
g51
NtRp2471
(dp2472
g54
(dp2473
sg63
g2459
sg56
(lp2474
g49
(g50
g51
NtRp2475
(dp2476
g54
(dp2477
g62
I4
ssg63
g2471
sg56
(lp2478
g92
asbasbasbag49
(g65
g51
NtRp2479
(dp2480
g54
(dp2481
sg63
g2348
sg56
(lp2482
g49
(g70
g51
NtRp2483
(dp2484
g54
(dp2485
g74
g75
ssg63
g2479
sg56
(lp2486
g1433
asbag49
(g70
g51
NtRp2487
(dp2488
g54
(dp2489
g81
g82
ssg63
g2479
sg56
(lp2490
S':'
asbag49
(g70
g51
NtRp2491
(dp2492
g54
(dp2493
sg63
g2479
sg56
(lp2494
g49
(g50
g51
NtRp2495
(dp2496
g54
(dp2497
g62
I4
ssg63
g2491
sg56
(lp2498
g1446
asbasbasbag49
(g65
g51
NtRp2499
(dp2500
g54
(dp2501
sg63
g2348
sg56
(lp2502
g49
(g70
g51
NtRp2503
(dp2504
g54
(dp2505
g74
g75
ssg63
g2499
sg56
(lp2506
g1653
asbag49
(g70
g51
NtRp2507
(dp2508
g54
(dp2509
g81
g82
ssg63
g2499
sg56
(lp2510
S':'
asbag49
(g70
g51
NtRp2511
(dp2512
g54
(dp2513
sg63
g2499
sg56
(lp2514
g49
(g50
g51
NtRp2515
(dp2516
g54
(dp2517
g62
I4
ssg63
g2511
sg56
(lp2518
g92
asbasbasbag49
(g65
g51
NtRp2519
(dp2520
g54
(dp2521
sg63
g2348
sg56
(lp2522
g49
(g70
g51
NtRp2523
(dp2524
g54
(dp2525
g74
g75
ssg63
g2519
sg56
(lp2526
g1674
asbag49
(g70
g51
NtRp2527
(dp2528
g54
(dp2529
g81
g82
ssg63
g2519
sg56
(lp2530
S':'
asbag49
(g70
g51
NtRp2531
(dp2532
g54
(dp2533
sg63
g2519
sg56
(lp2534
g49
(g50
g51
NtRp2535
(dp2536
g54
(dp2537
g62
I4
ssg63
g2531
sg56
(lp2538
g92
asbasbasbag49
(g65
g51
NtRp2539
(dp2540
g54
(dp2541
sg63
g2348
sg56
(lp2542
g49
(g70
g51
NtRp2543
(dp2544
g54
(dp2545
g74
g75
ssg63
g2539
sg56
(lp2546
g1912
asbag49
(g70
g51
NtRp2547
(dp2548
g54
(dp2549
g81
g82
ssg63
g2539
sg56
(lp2550
S':'
asbag49
(g70
g51
NtRp2551
(dp2552
g54
(dp2553
sg63
g2539
sg56
(lp2554
g49
(g50
g51
NtRp2555
(dp2556
g54
(dp2557
g62
I4
ssg63
g2551
sg56
(lp2558
g1925
asbasbasbag49
(g65
g51
NtRp2559
(dp2560
g54
(dp2561
sg63
g2348
sg56
(lp2562
g49
(g70
g51
NtRp2563
(dp2564
g54
(dp2565
g74
g75
ssg63
g2559
sg56
(lp2566
g1955
asbag49
(g70
g51
NtRp2567
(dp2568
g54
(dp2569
g81
g82
ssg63
g2559
sg56
(lp2570
S':'
asbag49
(g70
g51
NtRp2571
(dp2572
g54
(dp2573
sg63
g2559
sg56
(lp2574
g49
(g50
g51
NtRp2575
(dp2576
g54
(dp2577
g62
I4
ssg63
g2571
sg56
(lp2578
g49
(g58
g51
NtRp2579
(dp2580
g54
(dp2581
g62
I3
ssg63
Nsg56
(lp2582
g49
(g65
g51
NtRp2583
(dp2584
g54
(dp2585
sg63
g2579
sg56
(lp2586
g49
(g70
g51
NtRp2587
(dp2588
g54
(dp2589
sg63
g2583
sg56
(lp2590
g49
(g50
g51
NtRp2591
(dp2592
g54
(dp2593
g62
I3
ssg63
g2587
sg56
(lp2594
S'1'
asbasbasbag49
(g65
g51
NtRp2595
(dp2596
g54
(dp2597
sg63
g2579
sg56
(lp2598
g49
(g70
g51
NtRp2599
(dp2600
g54
(dp2601
sg63
g2595
sg56
(lp2602
g49
(g50
g51
NtRp2603
(dp2604
g54
(dp2605
g62
I3
ssg63
g2599
sg56
(lp2606
S'99'
p2607
asbasbasbag49
(g65
g51
NtRp2608
(dp2609
g54
(dp2610
sg63
g2579
sg56
(lp2611
g49
(g70
g51
NtRp2612
(dp2613
g54
(dp2614
sg63
g2608
sg56
(lp2615
g49
(g50
g51
NtRp2616
(dp2617
g54
(dp2618
g62
I3
ssg63
g2612
sg56
(lp2619
S'7'
asbasbasbag49
(g65
g51
NtRp2620
(dp2621
g54
(dp2622
sg63
g2579
sg56
(lp2623
g49
(g70
g51
NtRp2624
(dp2625
g54
(dp2626
sg63
g2620
sg56
(lp2627
g49
(g50
g51
NtRp2628
(dp2629
g54
(dp2630
g62
I3
ssg63
g2624
sg56
(lp2631
S'datetime.datetime(2012, 3, 4, 22, 12, 8)'
p2632
asbasbasbag49
(g65
g51
NtRp2633
(dp2634
g54
(dp2635
sg63
g2579
sg56
(lp2636
g49
(g70
g51
NtRp2637
(dp2638
g54
(dp2639
sg63
g2633
sg56
(lp2640
g49
(g50
g51
NtRp2641
(dp2642
g54
(dp2643
g62
I3
ssg63
g2637
sg56
(lp2644
g2034
asbasbasbasbasbasbasbasbasbasbasbag49
(g65
g51
NtRp2645
(dp2646
g54
(dp2647
sg63
g59
sg56
(lp2648
g49
(g70
g51
NtRp2649
(dp2650
g54
(dp2651
g74
g75
ssg63
g2645
sg56
(lp2652
S'is_https'
p2653
asbag49
(g70
g51
NtRp2654
(dp2655
g54
(dp2656
g81
g82
ssg63
g2645
sg56
(lp2657
S':'
asbag49
(g70
g51
NtRp2658
(dp2659
g54
(dp2660
sg63
g2645
sg56
(lp2661
g49
(g50
g51
NtRp2662
(dp2663
g54
(dp2664
g62
I5
ssg63
g2658
sg56
(lp2665
g92
asbasbasbag49
(g65
g51
NtRp2666
(dp2667
g54
(dp2668
sg63
g59
sg56
(lp2669
g49
(g70
g51
NtRp2670
(dp2671
g54
(dp2672
g74
g75
ssg63
g2666
sg56
(lp2673
S'is_local'
p2674
asbag49
(g70
g51
NtRp2675
(dp2676
g54
(dp2677
g81
g82
ssg63
g2666
sg56
(lp2678
S':'
asbag49
(g70
g51
NtRp2679
(dp2680
g54
(dp2681
sg63
g2666
sg56
(lp2682
g49
(g50
g51
NtRp2683
(dp2684
g54
(dp2685
g62
I5
ssg63
g2679
sg56
(lp2686
g2143
asbasbasbag49
(g65
g51
NtRp2687
(dp2688
g54
(dp2689
sg63
g59
sg56
(lp2690
g49
(g70
g51
NtRp2691
(dp2692
g54
(dp2693
g74
g75
ssg63
g2687
sg56
(lp2694
S'is_restful'
p2695
asbag49
(g70
g51
NtRp2696
(dp2697
g54
(dp2698
g81
g82
ssg63
g2687
sg56
(lp2699
S':'
asbag49
(g70
g51
NtRp2700
(dp2701
g54
(dp2702
sg63
g2687
sg56
(lp2703
g49
(g50
g51
NtRp2704
(dp2705
g54
(dp2706
g62
I5
ssg63
g2700
sg56
(lp2707
g92
asbasbasbag49
(g65
g51
NtRp2708
(dp2709
g54
(dp2710
sg63
g59
sg56
(lp2711
g49
(g70
g51
NtRp2712
(dp2713
g54
(dp2714
g74
g75
ssg63
g2708
sg56
(lp2715
S'now'
p2716
asbag49
(g70
g51
NtRp2717
(dp2718
g54
(dp2719
g81
g82
ssg63
g2708
sg56
(lp2720
S':'
asbag49
(g70
g51
NtRp2721
(dp2722
g54
(dp2723
sg63
g2708
sg56
(lp2724
g49
(g50
g51
NtRp2725
(dp2726
g54
(dp2727
g62
I5
ssg63
g2721
sg56
(lp2728
S'datetime.datetime(2012, 11, 11, 18, 37, 2, 512000)'
p2729
asbasbasbag49
(g65
g51
NtRp2730
(dp2731
g54
(dp2732
sg63
g59
sg56
(lp2733
g49
(g70
g51
NtRp2734
(dp2735
g54
(dp2736
g74
g75
ssg63
g2730
sg56
(lp2737
S'post_vars'
p2738
asbag49
(g70
g51
NtRp2739
(dp2740
g54
(dp2741
g81
g82
ssg63
g2730
sg56
(lp2742
S':'
asbag49
(g70
g51
NtRp2743
(dp2744
g54
(dp2745
sg63
g2730
sg56
(lp2746
g49
(g50
g51
NtRp2747
(dp2748
g54
(dp2749
g62
I5
ssg63
g2743
sg56
(lp2750
g49
(g58
g51
NtRp2751
(dp2752
g54
(dp2753
g62
I4
ssg63
Nsg56
(lp2754
sbasbasbasbag49
(g65
g51
NtRp2755
(dp2756
g54
(dp2757
sg63
g59
sg56
(lp2758
g49
(g70
g51
NtRp2759
(dp2760
g54
(dp2761
g74
g75
ssg63
g2755
sg56
(lp2762
S'raw_args'
p2763
asbag49
(g70
g51
NtRp2764
(dp2765
g54
(dp2766
g81
g82
ssg63
g2755
sg56
(lp2767
S':'
asbag49
(g70
g51
NtRp2768
(dp2769
g54
(dp2770
sg63
g2755
sg56
(lp2771
g49
(g50
g51
NtRp2772
(dp2773
g54
(dp2774
g62
I5
ssg63
g2768
sg56
(lp2775
S'db/auth_user/None'
p2776
asbasbasbag49
(g65
g51
NtRp2777
(dp2778
g54
(dp2779
sg63
g59
sg56
(lp2780
g49
(g70
g51
NtRp2781
(dp2782
g54
(dp2783
g74
g75
ssg63
g2777
sg56
(lp2784
S'url'
p2785
asbag49
(g70
g51
NtRp2786
(dp2787
g54
(dp2788
g81
g82
ssg63
g2777
sg56
(lp2789
S':'
asbag49
(g70
g51
NtRp2790
(dp2791
g54
(dp2792
sg63
g2777
sg56
(lp2793
g49
(g50
g51
NtRp2794
(dp2795
g54
(dp2796
g62
I5
ssg63
g2790
sg56
(lp2797
S'/SlugBarter/appadmin/update/db/auth_user/None'
p2798
asbasbasbag49
(g65
g51
NtRp2799
(dp2800
g54
(dp2801
sg63
g59
sg56
(lp2802
g49
(g70
g51
NtRp2803
(dp2804
g54
(dp2805
g74
g75
ssg63
g2799
sg56
(lp2806
S'utcnow'
p2807
asbag49
(g70
g51
NtRp2808
(dp2809
g54
(dp2810
g81
g82
ssg63
g2799
sg56
(lp2811
S':'
asbag49
(g70
g51
NtRp2812
(dp2813
g54
(dp2814
sg63
g2799
sg56
(lp2815
g49
(g50
g51
NtRp2816
(dp2817
g54
(dp2818
g62
I5
ssg63
g2812
sg56
(lp2819
S'datetime.datetime(2012, 11, 12, 2, 37, 2, 513000)'
p2820
asbasbasbag49
(g65
g51
NtRp2821
(dp2822
g54
(dp2823
sg63
g59
sg56
(lp2824
g49
(g70
g51
NtRp2825
(dp2826
g54
(dp2827
g74
g75
ssg63
g2821
sg56
(lp2828
S'uuid'
p2829
asbag49
(g70
g51
NtRp2830
(dp2831
g54
(dp2832
g81
g82
ssg63
g2821
sg56
(lp2833
S':'
asbag49
(g70
g51
NtRp2834
(dp2835
g54
(dp2836
sg63
g2821
sg56
(lp2837
g49
(g50
g51
NtRp2838
(dp2839
g54
(dp2840
g62
I5
ssg63
g2834
sg56
(lp2841
S'SlugBarter/127.0.0.1.2012-11-11.18-37-02.12a1965d-4f92-47fe-9c18-497322b79e2c'
p2842
asbasbasbag49
(g65
g51
NtRp2843
(dp2844
g54
(dp2845
sg63
g59
sg56
(lp2846
g49
(g70
g51
NtRp2847
(dp2848
g54
(dp2849
g74
g75
ssg63
g2843
sg56
(lp2850
S'vars'
p2851
asbag49
(g70
g51
NtRp2852
(dp2853
g54
(dp2854
g81
g82
ssg63
g2843
sg56
(lp2855
S':'
asbag49
(g70
g51
NtRp2856
(dp2857
g54
(dp2858
sg63
g2843
sg56
(lp2859
g49
(g50
g51
NtRp2860
(dp2861
g54
(dp2862
g62
I5
ssg63
g2856
sg56
(lp2863
g49
(g58
g51
NtRp2864
(dp2865
g54
(dp2866
g62
I4
ssg63
Nsg56
(lp2867
sbasbasbasbag49
(g65
g51
NtRp2868
(dp2869
g54
(dp2870
sg63
g59
sg56
(lp2871
g49
(g70
g51
NtRp2872
(dp2873
g54
(dp2874
g74
g75
ssg63
g2868
sg56
(lp2875
S'wsgi'
p2876
asbag49
(g70
g51
NtRp2877
(dp2878
g54
(dp2879
g81
g82
ssg63
g2868
sg56
(lp2880
S':'
asbag49
(g70
g51
NtRp2881
(dp2882
g54
(dp2883
sg63
g2868
sg56
(lp2884
g49
(g50
g51
NtRp2885
(dp2886
g54
(dp2887
g62
I5
ssg63
g2881
sg56
(lp2888
g49
(g58
g51
NtRp2889
(dp2890
g54
(dp2891
g62
I4
ssg63
Nsg56
(lp2892
g49
(g65
g51
NtRp2893
(dp2894
g54
(dp2895
sg63
g2889
sg56
(lp2896
g49
(g70
g51
NtRp2897
(dp2898
g54
(dp2899
g74
g75
ssg63
g2893
sg56
(lp2900
S'environ'
p2901
asbag49
(g70
g51
NtRp2902
(dp2903
g54
(dp2904
g81
g82
ssg63
g2893
sg56
(lp2905
S':'
asbag49
(g70
g51
NtRp2906
(dp2907
g54
(dp2908
sg63
g2893
sg56
(lp2909
g49
(g50
g51
NtRp2910
(dp2911
g54
(dp2912
g62
I4
ssg63
g2906
sg56
(lp2913
g49
(g58
g51
NtRp2914
(dp2915
g54
(dp2916
g62
I3
ssg63
Nsg56
(lp2917
g49
(g65
g51
NtRp2918
(dp2919
g54
(dp2920
sg63
g2914
sg56
(lp2921
g49
(g70
g51
NtRp2922
(dp2923
g54
(dp2924
g74
g75
ssg63
g2918
sg56
(lp2925
S'HTTP_ACCEPT'
p2926
asbag49
(g70
g51
NtRp2927
(dp2928
g54
(dp2929
g81
g82
ssg63
g2918
sg56
(lp2930
S':'
asbag49
(g70
g51
NtRp2931
(dp2932
g54
(dp2933
sg63
g2918
sg56
(lp2934
g49
(g50
g51
NtRp2935
(dp2936
g54
(dp2937
g62
I3
ssg63
g2931
sg56
(lp2938
g1468
asbasbasbag49
(g65
g51
NtRp2939
(dp2940
g54
(dp2941
sg63
g2914
sg56
(lp2942
g49
(g70
g51
NtRp2943
(dp2944
g54
(dp2945
g74
g75
ssg63
g2939
sg56
(lp2946
S'HTTP_ACCEPT_CHARSET'
p2947
asbag49
(g70
g51
NtRp2948
(dp2949
g54
(dp2950
g81
g82
ssg63
g2939
sg56
(lp2951
S':'
asbag49
(g70
g51
NtRp2952
(dp2953
g54
(dp2954
sg63
g2939
sg56
(lp2955
g49
(g50
g51
NtRp2956
(dp2957
g54
(dp2958
g62
I3
ssg63
g2952
sg56
(lp2959
g1490
asbasbasbag49
(g65
g51
NtRp2960
(dp2961
g54
(dp2962
sg63
g2914
sg56
(lp2963
g49
(g70
g51
NtRp2964
(dp2965
g54
(dp2966
g74
g75
ssg63
g2960
sg56
(lp2967
S'HTTP_ACCEPT_ENCODING'
p2968
asbag49
(g70
g51
NtRp2969
(dp2970
g54
(dp2971
g81
g82
ssg63
g2960
sg56
(lp2972
S':'
asbag49
(g70
g51
NtRp2973
(dp2974
g54
(dp2975
sg63
g2960
sg56
(lp2976
g49
(g50
g51
NtRp2977
(dp2978
g54
(dp2979
g62
I3
ssg63
g2973
sg56
(lp2980
g1512
asbasbasbag49
(g65
g51
NtRp2981
(dp2982
g54
(dp2983
sg63
g2914
sg56
(lp2984
g49
(g70
g51
NtRp2985
(dp2986
g54
(dp2987
g74
g75
ssg63
g2981
sg56
(lp2988
S'HTTP_ACCEPT_LANGUAGE'
p2989
asbag49
(g70
g51
NtRp2990
(dp2991
g54
(dp2992
g81
g82
ssg63
g2981
sg56
(lp2993
S':'
asbag49
(g70
g51
NtRp2994
(dp2995
g54
(dp2996
sg63
g2981
sg56
(lp2997
g49
(g50
g51
NtRp2998
(dp2999
g54
(dp3000
g62
I3
ssg63
g2994
sg56
(lp3001
g1534
asbasbasbag49
(g65
g51
NtRp3002
(dp3003
g54
(dp3004
sg63
g2914
sg56
(lp3005
g49
(g70
g51
NtRp3006
(dp3007
g54
(dp3008
g74
g75
ssg63
g3002
sg56
(lp3009
S'HTTP_CONNECTION'
p3010
asbag49
(g70
g51
NtRp3011
(dp3012
g54
(dp3013
g81
g82
ssg63
g3002
sg56
(lp3014
S':'
asbag49
(g70
g51
NtRp3015
(dp3016
g54
(dp3017
sg63
g3002
sg56
(lp3018
g49
(g50
g51
NtRp3019
(dp3020
g54
(dp3021
g62
I3
ssg63
g3015
sg56
(lp3022
g1556
asbasbasbag49
(g65
g51
NtRp3023
(dp3024
g54
(dp3025
sg63
g2914
sg56
(lp3026
g49
(g70
g51
NtRp3027
(dp3028
g54
(dp3029
g74
g75
ssg63
g3023
sg56
(lp3030
S'HTTP_COOKIE'
p3031
asbag49
(g70
g51
NtRp3032
(dp3033
g54
(dp3034
g81
g82
ssg63
g3023
sg56
(lp3035
S':'
asbag49
(g70
g51
NtRp3036
(dp3037
g54
(dp3038
sg63
g3023
sg56
(lp3039
g49
(g50
g51
NtRp3040
(dp3041
g54
(dp3042
g62
I3
ssg63
g3036
sg56
(lp3043
g1578
asbasbasbag49
(g65
g51
NtRp3044
(dp3045
g54
(dp3046
sg63
g2914
sg56
(lp3047
g49
(g70
g51
NtRp3048
(dp3049
g54
(dp3050
g74
g75
ssg63
g3044
sg56
(lp3051
S'HTTP_HOST'
p3052
asbag49
(g70
g51
NtRp3053
(dp3054
g54
(dp3055
g81
g82
ssg63
g3044
sg56
(lp3056
S':'
asbag49
(g70
g51
NtRp3057
(dp3058
g54
(dp3059
sg63
g3044
sg56
(lp3060
g49
(g50
g51
NtRp3061
(dp3062
g54
(dp3063
g62
I3
ssg63
g3057
sg56
(lp3064
g1600
asbasbasbag49
(g65
g51
NtRp3065
(dp3066
g54
(dp3067
sg63
g2914
sg56
(lp3068
g49
(g70
g51
NtRp3069
(dp3070
g54
(dp3071
g74
g75
ssg63
g3065
sg56
(lp3072
S'HTTP_REFERER'
p3073
asbag49
(g70
g51
NtRp3074
(dp3075
g54
(dp3076
g81
g82
ssg63
g3065
sg56
(lp3077
S':'
asbag49
(g70
g51
NtRp3078
(dp3079
g54
(dp3080
sg63
g3065
sg56
(lp3081
g49
(g50
g51
NtRp3082
(dp3083
g54
(dp3084
g62
I3
ssg63
g3078
sg56
(lp3085
g1622
asbasbasbag49
(g65
g51
NtRp3086
(dp3087
g54
(dp3088
sg63
g2914
sg56
(lp3089
g49
(g70
g51
NtRp3090
(dp3091
g54
(dp3092
g74
g75
ssg63
g3086
sg56
(lp3093
S'HTTP_USER_AGENT'
p3094
asbag49
(g70
g51
NtRp3095
(dp3096
g54
(dp3097
g81
g82
ssg63
g3086
sg56
(lp3098
S':'
asbag49
(g70
g51
NtRp3099
(dp3100
g54
(dp3101
sg63
g3086
sg56
(lp3102
g49
(g50
g51
NtRp3103
(dp3104
g54
(dp3105
g62
I3
ssg63
g3099
sg56
(lp3106
g1644
asbasbasbag49
(g65
g51
NtRp3107
(dp3108
g54
(dp3109
sg63
g2914
sg56
(lp3110
g49
(g70
g51
NtRp3111
(dp3112
g54
(dp3113
g74
g75
ssg63
g3107
sg56
(lp3114
S'PATH_INFO'
p3115
asbag49
(g70
g51
NtRp3116
(dp3117
g54
(dp3118
g81
g82
ssg63
g3107
sg56
(lp3119
S':'
asbag49
(g70
g51
NtRp3120
(dp3121
g54
(dp3122
sg63
g3107
sg56
(lp3123
g49
(g50
g51
NtRp3124
(dp3125
g54
(dp3126
g62
I3
ssg63
g3120
sg56
(lp3127
g1708
asbasbasbag49
(g65
g51
NtRp3128
(dp3129
g54
(dp3130
sg63
g2914
sg56
(lp3131
g49
(g70
g51
NtRp3132
(dp3133
g54
(dp3134
g74
g75
ssg63
g3128
sg56
(lp3135
S'QUERY_STRING'
p3136
asbag49
(g70
g51
NtRp3137
(dp3138
g54
(dp3139
g81
g82
ssg63
g3128
sg56
(lp3140
S':'
asbag49
(g70
g51
NtRp3141
(dp3142
g54
(dp3143
sg63
g3128
sg56
(lp3144
g49
(g50
g51
NtRp3145
(dp3146
g54
(dp3147
g62
I3
ssg63
g3141
sg56
(lp3148
S''
asbasbasbag49
(g65
g51
NtRp3149
(dp3150
g54
(dp3151
sg63
g2914
sg56
(lp3152
g49
(g70
g51
NtRp3153
(dp3154
g54
(dp3155
g74
g75
ssg63
g3149
sg56
(lp3156
S'REMOTE_ADDR'
p3157
asbag49
(g70
g51
NtRp3158
(dp3159
g54
(dp3160
g81
g82
ssg63
g3149
sg56
(lp3161
S':'
asbag49
(g70
g51
NtRp3162
(dp3163
g54
(dp3164
sg63
g3149
sg56
(lp3165
g49
(g50
g51
NtRp3166
(dp3167
g54
(dp3168
g62
I3
ssg63
g3162
sg56
(lp3169
g221
asbasbasbag49
(g65
g51
NtRp3170
(dp3171
g54
(dp3172
sg63
g2914
sg56
(lp3173
g49
(g70
g51
NtRp3174
(dp3175
g54
(dp3176
g74
g75
ssg63
g3170
sg56
(lp3177
S'REMOTE_PORT'
p3178
asbag49
(g70
g51
NtRp3179
(dp3180
g54
(dp3181
g81
g82
ssg63
g3170
sg56
(lp3182
S':'
asbag49
(g70
g51
NtRp3183
(dp3184
g54
(dp3185
sg63
g3170
sg56
(lp3186
g49
(g50
g51
NtRp3187
(dp3188
g54
(dp3189
g62
I3
ssg63
g3183
sg56
(lp3190
g1772
asbasbasbag49
(g65
g51
NtRp3191
(dp3192
g54
(dp3193
sg63
g2914
sg56
(lp3194
g49
(g70
g51
NtRp3195
(dp3196
g54
(dp3197
g74
g75
ssg63
g3191
sg56
(lp3198
S'REQUEST_METHOD'
p3199
asbag49
(g70
g51
NtRp3200
(dp3201
g54
(dp3202
g81
g82
ssg63
g3191
sg56
(lp3203
S':'
asbag49
(g70
g51
NtRp3204
(dp3205
g54
(dp3206
sg63
g3191
sg56
(lp3207
g49
(g50
g51
NtRp3208
(dp3209
g54
(dp3210
g62
I3
ssg63
g3204
sg56
(lp3211
g1794
asbasbasbag49
(g65
g51
NtRp3212
(dp3213
g54
(dp3214
sg63
g2914
sg56
(lp3215
g49
(g70
g51
NtRp3216
(dp3217
g54
(dp3218
g74
g75
ssg63
g3212
sg56
(lp3219
S'SCRIPT_NAME'
p3220
asbag49
(g70
g51
NtRp3221
(dp3222
g54
(dp3223
g81
g82
ssg63
g3212
sg56
(lp3224
S':'
asbag49
(g70
g51
NtRp3225
(dp3226
g54
(dp3227
sg63
g3212
sg56
(lp3228
g49
(g50
g51
NtRp3229
(dp3230
g54
(dp3231
g62
I3
ssg63
g3225
sg56
(lp3232
S''
asbasbasbag49
(g65
g51
NtRp3233
(dp3234
g54
(dp3235
sg63
g2914
sg56
(lp3236
g49
(g70
g51
NtRp3237
(dp3238
g54
(dp3239
g74
g75
ssg63
g3233
sg56
(lp3240
S'SERVER_NAME'
p3241
asbag49
(g70
g51
NtRp3242
(dp3243
g54
(dp3244
g81
g82
ssg63
g3233
sg56
(lp3245
S':'
asbag49
(g70
g51
NtRp3246
(dp3247
g54
(dp3248
sg63
g3233
sg56
(lp3249
g49
(g50
g51
NtRp3250
(dp3251
g54
(dp3252
g62
I3
ssg63
g3246
sg56
(lp3253
g1837
asbasbasbag49
(g65
g51
NtRp3254
(dp3255
g54
(dp3256
sg63
g2914
sg56
(lp3257
g49
(g70
g51
NtRp3258
(dp3259
g54
(dp3260
g74
g75
ssg63
g3254
sg56
(lp3261
S'SERVER_PORT'
p3262
asbag49
(g70
g51
NtRp3263
(dp3264
g54
(dp3265
g81
g82
ssg63
g3254
sg56
(lp3266
S':'
asbag49
(g70
g51
NtRp3267
(dp3268
g54
(dp3269
sg63
g3254
sg56
(lp3270
g49
(g50
g51
NtRp3271
(dp3272
g54
(dp3273
g62
I3
ssg63
g3267
sg56
(lp3274
g1859
asbasbasbag49
(g65
g51
NtRp3275
(dp3276
g54
(dp3277
sg63
g2914
sg56
(lp3278
g49
(g70
g51
NtRp3279
(dp3280
g54
(dp3281
g74
g75
ssg63
g3275
sg56
(lp3282
S'SERVER_PROTOCOL'
p3283
asbag49
(g70
g51
NtRp3284
(dp3285
g54
(dp3286
g81
g82
ssg63
g3275
sg56
(lp3287
S':'
asbag49
(g70
g51
NtRp3288
(dp3289
g54
(dp3290
sg63
g3275
sg56
(lp3291
g49
(g50
g51
NtRp3292
(dp3293
g54
(dp3294
g62
I3
ssg63
g3288
sg56
(lp3295
g1881
asbasbasbag49
(g65
g51
NtRp3296
(dp3297
g54
(dp3298
sg63
g2914
sg56
(lp3299
g49
(g70
g51
NtRp3300
(dp3301
g54
(dp3302
g74
g75
ssg63
g3296
sg56
(lp3303
S'SERVER_SOFTWARE'
p3304
asbag49
(g70
g51
NtRp3305
(dp3306
g54
(dp3307
g81
g82
ssg63
g3296
sg56
(lp3308
S':'
asbag49
(g70
g51
NtRp3309
(dp3310
g54
(dp3311
sg63
g3296
sg56
(lp3312
g49
(g50
g51
NtRp3313
(dp3314
g54
(dp3315
g62
I3
ssg63
g3309
sg56
(lp3316
g1903
asbasbasbag49
(g65
g51
NtRp3317
(dp3318
g54
(dp3319
sg63
g2914
sg56
(lp3320
g49
(g70
g51
NtRp3321
(dp3322
g54
(dp3323
g74
g75
ssg63
g3317
sg56
(lp3324
S'wsgi.errors'
p3325
asbag49
(g70
g51
NtRp3326
(dp3327
g54
(dp3328
g81
g82
ssg63
g3317
sg56
(lp3329
S':'
asbag49
(g70
g51
NtRp3330
(dp3331
g54
(dp3332
sg63
g3317
sg56
(lp3333
g49
(g50
g51
NtRp3334
(dp3335
g54
(dp3336
g62
I3
ssg63
g3330
sg56
(lp3337
S"<open file '<stderr>', mode 'w' at 0x016000B0>"
p3338
asbasbasbag49
(g65
g51
NtRp3339
(dp3340
g54
(dp3341
sg63
g2914
sg56
(lp3342
g49
(g70
g51
NtRp3343
(dp3344
g54
(dp3345
g74
g75
ssg63
g3339
sg56
(lp3346
S'wsgi.file_wrapper'
p3347
asbag49
(g70
g51
NtRp3348
(dp3349
g54
(dp3350
g81
g82
ssg63
g3339
sg56
(lp3351
S':'
asbag49
(g70
g51
NtRp3352
(dp3353
g54
(dp3354
sg63
g3339
sg56
(lp3355
g49
(g50
g51
NtRp3356
(dp3357
g54
(dp3358
g62
I3
ssg63
g3352
sg56
(lp3359
S'<class wsgiref.util.FileWrapper at 0x025361B0>'
p3360
asbasbasbag49
(g65
g51
NtRp3361
(dp3362
g54
(dp3363
sg63
g2914
sg56
(lp3364
g49
(g70
g51
NtRp3365
(dp3366
g54
(dp3367
g74
g75
ssg63
g3361
sg56
(lp3368
S'wsgi.input'
p3369
asbag49
(g70
g51
NtRp3370
(dp3371
g54
(dp3372
g81
g82
ssg63
g3361
sg56
(lp3373
S':'
asbag49
(g70
g51
NtRp3374
(dp3375
g54
(dp3376
sg63
g3361
sg56
(lp3377
g49
(g50
g51
NtRp3378
(dp3379
g54
(dp3380
g62
I3
ssg63
g3374
sg56
(lp3381
S'<cStringIO.StringO object at 0x0681F2C0>'
p3382
asbasbasbag49
(g65
g51
NtRp3383
(dp3384
g54
(dp3385
sg63
g2914
sg56
(lp3386
g49
(g70
g51
NtRp3387
(dp3388
g54
(dp3389
g74
g75
ssg63
g3383
sg56
(lp3390
S'wsgi.multiprocess'
p3391
asbag49
(g70
g51
NtRp3392
(dp3393
g54
(dp3394
g81
g82
ssg63
g3383
sg56
(lp3395
S':'
asbag49
(g70
g51
NtRp3396
(dp3397
g54
(dp3398
sg63
g3383
sg56
(lp3399
g49
(g50
g51
NtRp3400
(dp3401
g54
(dp3402
g62
I3
ssg63
g3396
sg56
(lp3403
g92
asbasbasbag49
(g65
g51
NtRp3404
(dp3405
g54
(dp3406
sg63
g2914
sg56
(lp3407
g49
(g70
g51
NtRp3408
(dp3409
g54
(dp3410
g74
g75
ssg63
g3404
sg56
(lp3411
S'wsgi.multithread'
p3412
asbag49
(g70
g51
NtRp3413
(dp3414
g54
(dp3415
g81
g82
ssg63
g3404
sg56
(lp3416
S':'
asbag49
(g70
g51
NtRp3417
(dp3418
g54
(dp3419
sg63
g3404
sg56
(lp3420
g49
(g50
g51
NtRp3421
(dp3422
g54
(dp3423
g62
I3
ssg63
g3417
sg56
(lp3424
g2143
asbasbasbag49
(g65
g51
NtRp3425
(dp3426
g54
(dp3427
sg63
g2914
sg56
(lp3428
g49
(g70
g51
NtRp3429
(dp3430
g54
(dp3431
g74
g75
ssg63
g3425
sg56
(lp3432
S'wsgi.run_once'
p3433
asbag49
(g70
g51
NtRp3434
(dp3435
g54
(dp3436
g81
g82
ssg63
g3425
sg56
(lp3437
S':'
asbag49
(g70
g51
NtRp3438
(dp3439
g54
(dp3440
sg63
g3425
sg56
(lp3441
g49
(g50
g51
NtRp3442
(dp3443
g54
(dp3444
g62
I3
ssg63
g3438
sg56
(lp3445
g92
asbasbasbag49
(g65
g51
NtRp3446
(dp3447
g54
(dp3448
sg63
g2914
sg56
(lp3449
g49
(g70
g51
NtRp3450
(dp3451
g54
(dp3452
g74
g75
ssg63
g3446
sg56
(lp3453
S'wsgi.url_scheme'
p3454
asbag49
(g70
g51
NtRp3455
(dp3456
g54
(dp3457
g81
g82
ssg63
g3446
sg56
(lp3458
S':'
asbag49
(g70
g51
NtRp3459
(dp3460
g54
(dp3461
sg63
g3446
sg56
(lp3462
g49
(g50
g51
NtRp3463
(dp3464
g54
(dp3465
g62
I3
ssg63
g3459
sg56
(lp3466
g2186
asbasbasbag49
(g65
g51
NtRp3467
(dp3468
g54
(dp3469
sg63
g2914
sg56
(lp3470
g49
(g70
g51
NtRp3471
(dp3472
g54
(dp3473
g74
g75
ssg63
g3467
sg56
(lp3474
S'wsgi.version'
p3475
asbag49
(g70
g51
NtRp3476
(dp3477
g54
(dp3478
g81
g82
ssg63
g3467
sg56
(lp3479
S':'
asbag49
(g70
g51
NtRp3480
(dp3481
g54
(dp3482
sg63
g3467
sg56
(lp3483
g49
(g50
g51
NtRp3484
(dp3485
g54
(dp3486
g62
I3
ssg63
g3480
sg56
(lp3487
S'1'
asbasbasbasbasbasbasbasbasbasbasbasbasbsS'frames'
p3488
(lp3489
(dp3490
S'file'
p3491
S'C:\\Users\\omkara\\Desktop\\web2py\\gluon\\restricted.py'
p3492
sS'dump'
p3493
(dp3494
sS'lnum'
p3495
I205
sS'lines'
p3496
(dp3497
sS'call'
p3498
S"(code='# -*- coding: utf-8 -*-\\n\\n# #####################...lse)\\n\\n\\n\\n\\nresponse._vars=response._caller(update)\\n', environment={'A': <class 'gluon.html.A'>, 'Auth': <class 'gluon.tools.Auth'>, 'B': <class 'gluon.html.B'>, 'BEAUTIFY': <class 'gluon.html.BEAUTIFY'>, 'BODY': <class 'gluon.html.BODY'>, 'BR': <class 'gluon.html.BR'>, 'BUTTON': <class 'gluon.html.BUTTON'>, 'CAT': <class 'gluon.html.CAT'>, 'CENTER': <class 'gluon.html.CENTER'>, 'CLEANUP': <class 'gluon.validators.CLEANUP'>, ...}, layer=r'C:\\Users\\omkara\\Desktop\\web2py\\applications\\SlugBarter\\controllers/appadmin.py')"
p3499
sS'func'
p3500
S'restricted'
p3501
sa(dp3502
g3491
S'C:\\Users\\omkara\\Desktop\\web2py\\applications\\SlugBarter\\controllers\\appadmin.py'
p3503
sg3493
(dp3504
sg3495
I433
sg3496
(dp3505
I422
S''
sI423
S"    ram['keys'] = key_table(ram['keys'])"
p3506
sI424
S"    disk['keys'] = key_table(disk['keys'])"
p3507
sI425
S"    total['keys'] = key_table(total['keys'])"
p3508
sI426
S''
sI427
S'    return dict(form=form, total=total,'
p3509
sI428
S'                ram=ram, disk=disk, object_stats=hp != False)'
p3510
sI429
S''
sI430
S''
sI431
S''
ssg3498
S'()'
p3511
sg3500
S'<module>'
p3512
sa(dp3513
g3491
S'C:\\Users\\omkara\\Desktop\\web2py\\gluon\\globals.py'
p3514
sg3493
(dp3515
sg3495
I173
sg3496
(dp3516
sg3498
S'(f=<function update at 0x061F95B0>)'
p3517
sg3500
S'<lambda>'
p3518
sa(dp3519
g3491
S'C:\\Users\\omkara\\Desktop\\web2py\\applications\\SlugBarter\\controllers\\appadmin.py'
p3520
sg3493
(dp3521
sg3495
I259
sg3496
(dp3522
I256
S'        if key:'
p3523
sI257
S'            record = db(db[table][key[0]] == request.vars[key[0]], ignore_common_filters=True).select().first()'
p3524
sI258
S'    else:'
p3525
sI259
S'        record = db(db[table].id == request.args(2),ignore_common_filters=True).select().first()'
p3526
sI260
S''
sI261
S'    if not record:'
p3527
sI262
S'        qry = query_by_table_type(table, db)'
p3528
sI263
S"        session.flash = T('record does not exist')"
p3529
sI254
S'    if keyed:'
p3530
sI255
S'        key = [f for f in request.vars if f in db[table]._primarykey]'
p3531
ssg3498
S'()'
p3532
sg3500
S'update'
p3533
sa(dp3534
g3491
S'C:\\Users\\omkara\\Desktop\\web2py\\gluon\\dal.py'
p3535
sg3493
(dp3536
sg3495
I7578
sg3496
(dp3537
sg3498
S'(self=<gluon.dal.Set object at 0x062017B0>, *fields=[<gluon.dal.Field object at 0x06D076B0>, <gluon.dal.Field object at 0x06D07F90>, <gluon.dal.Field object at 0x06D079D0>, <gluon.dal.Field object at 0x06D07670>, <gluon.dal.Field object at 0x06D07790>, <gluon.dal.Field object at 0x06D07110>, <gluon.dal.Field object at 0x06D078F0>, <gluon.dal.Field object at 0x06D07CB0>, <gluon.dal.Field object at 0x06D07030>, <gluon.dal.Field object at 0x06D077F0>], **attributes={})'
p3538
sg3500
S'select'
p3539
sa(dp3540
g3491
S'C:\\Users\\omkara\\Desktop\\web2py\\gluon\\dal.py'
p3541
sg3493
(dp3542
sg3495
I1307
sg3496
(dp3543
sg3498
S'(self=<gluon.dal.SQLiteAdapter object at 0x061D3AF0>, query=<gluon.dal.Query object at 0x06201B90>, fields=[<gluon.dal.Field object at 0x06D076B0>, <gluon.dal.Field object at 0x06D07F90>, <gluon.dal.Field object at 0x06D079D0>, <gluon.dal.Field object at 0x06D07670>, <gluon.dal.Field object at 0x06D07790>, <gluon.dal.Field object at 0x06D07110>, <gluon.dal.Field object at 0x06D078F0>, <gluon.dal.Field object at 0x06D07CB0>, <gluon.dal.Field object at 0x06D07030>, <gluon.dal.Field object at 0x06D077F0>], attributes={})'
p3544
sg3500
g3539
sa(dp3545
g3491
S'C:\\Users\\omkara\\Desktop\\web2py\\gluon\\dal.py'
p3546
sg3493
(dp3547
sg3495
I1756
sg3496
(dp3548
sg3498
S'(self=<gluon.dal.SQLiteAdapter object at 0x061D3AF0>, query=<gluon.dal.Query object at 0x06201B90>, fields=[<gluon.dal.Field object at 0x06D076B0>, <gluon.dal.Field object at 0x06D07F90>, <gluon.dal.Field object at 0x06D079D0>, <gluon.dal.Field object at 0x06D07670>, <gluon.dal.Field object at 0x06D07790>, <gluon.dal.Field object at 0x06D07110>, <gluon.dal.Field object at 0x06D078F0>, <gluon.dal.Field object at 0x06D07CB0>, <gluon.dal.Field object at 0x06D07030>, <gluon.dal.Field object at 0x06D077F0>], attributes={})'
p3549
sg3500
S'_select'
p3550
sa(dp3551
g3491
S'C:\\Users\\omkara\\Desktop\\web2py\\gluon\\dal.py'
p3552
sg3493
(dp3553
sg3495
I1200
sg3496
(dp3554
sg3498
S'(self=<gluon.dal.SQLiteAdapter object at 0x061D3AF0>, query=<gluon.dal.Query object at 0x06201B90>, fields=[<gluon.dal.Field object at 0x06D076B0>, <gluon.dal.Field object at 0x06D07F90>, <gluon.dal.Field object at 0x06D079D0>, <gluon.dal.Field object at 0x06D07670>, <gluon.dal.Field object at 0x06D07790>, <gluon.dal.Field object at 0x06D07110>, <gluon.dal.Field object at 0x06D078F0>, <gluon.dal.Field object at 0x06D07CB0>, <gluon.dal.Field object at 0x06D07030>, <gluon.dal.Field object at 0x06D077F0>], attributes={})'
p3555
sg3500
g3550
sa(dp3556
g3491
S'C:\\Users\\omkara\\Desktop\\web2py\\gluon\\dal.py'
p3557
sg3493
(dp3558
sg3495
I1046
sg3496
(dp3559
sg3498
S'(self=<gluon.dal.SQLiteAdapter object at 0x061D3AF0>, expression=<gluon.dal.Query object at 0x06201B90>, field_type=None)'
p3560
sg3500
S'expand'
p3561
sa(dp3562
g3491
S'C:\\Users\\omkara\\Desktop\\web2py\\gluon\\dal.py'
p3563
sg3493
(dp3564
sg3495
I987
sg3496
(dp3565
sg3498
S"(self=<gluon.dal.SQLiteAdapter object at 0x061D3AF0>, first=<gluon.dal.Field object at 0x06D076B0>, second='None')"
p3566
sg3500
S'EQ'
p3567
sa(dp3568
g3491
S'C:\\Users\\omkara\\Desktop\\web2py\\gluon\\dal.py'
p3569
sg3493
(dp3570
sg3495
I1054
sg3496
(dp3571
sg3498
S"(self=<gluon.dal.SQLiteAdapter object at 0x061D3AF0>, expression='None', field_type='id')"
p3572
sg3500
g3561
sa(dp3573
g3491
S'C:\\Users\\omkara\\Desktop\\web2py\\gluon\\dal.py'
p3574
sg3493
(dp3575
sg3495
I1425
sg3496
(dp3576
sg3498
S"(self=<gluon.dal.SQLiteAdapter object at 0x061D3AF0>, obj='None', fieldtype='id')"
p3577
sg3500
S'represent'
p3578
sasS'pyver'
p3579
S'Python 2.5.4: C:\\Users\\omkara\\Desktop\\web2py\\web2py.exe'
p3580
sS'session'
p3581
g49
(g50
g51
NtRp3582
(dp3583
g54
(dp3584
sg56
(lp3585
g49
(g58
g51
NtRp3586
(dp3587
g54
(dp3588
g62
I5
ssg63
Nsg56
(lp3589
g49
(g65
g51
NtRp3590
(dp3591
g54
(dp3592
sg63
g3586
sg56
(lp3593
g49
(g70
g51
NtRp3594
(dp3595
g54
(dp3596
g74
g75
ssg63
g3590
sg56
(lp3597
S'last_query'
p3598
asbag49
(g70
g51
NtRp3599
(dp3600
g54
(dp3601
g81
g82
ssg63
g3590
sg56
(lp3602
S':'
asbag49
(g70
g51
NtRp3603
(dp3604
g54
(dp3605
sg63
g3590
sg56
(lp3606
g49
(g50
g51
NtRp3607
(dp3608
g54
(dp3609
g62
I5
ssg63
g3603
sg56
(lp3610
S'db.listing.id>0'
p3611
asbasbasbasbasbsS'etype'
p3612
S"<type 'exceptions.ValueError'>"
p3613
sS'date'
p3614
S'Sun Nov 11 18:37:02 2012'
p3615
sS'response'
p3616
g49
(g50
g51
NtRp3617
(dp3618
g54
(dp3619
sg56
(lp3620
g49
(g58
g51
NtRp3621
(dp3622
g54
(dp3623
g62
I5
ssg63
Nsg56
(lp3624
g49
(g65
g51
NtRp3625
(dp3626
g54
(dp3627
sg63
g3621
sg56
(lp3628
g49
(g70
g51
NtRp3629
(dp3630
g54
(dp3631
g74
g75
ssg63
g3625
sg56
(lp3632
g186
asbag49
(g70
g51
NtRp3633
(dp3634
g54
(dp3635
g81
g82
ssg63
g3625
sg56
(lp3636
S':'
asbag49
(g70
g51
NtRp3637
(dp3638
g54
(dp3639
sg63
g3625
sg56
(lp3640
g49
(g50
g51
NtRp3641
(dp3642
g54
(dp3643
g62
I5
ssg63
g3637
sg56
(lp3644
S'<cStringIO.StringO object at 0x066F1C80>'
p3645
asbasbasbag49
(g65
g51
NtRp3646
(dp3647
g54
(dp3648
sg63
g3621
sg56
(lp3649
g49
(g70
g51
NtRp3650
(dp3651
g54
(dp3652
g74
g75
ssg63
g3646
sg56
(lp3653
g252
asbag49
(g70
g51
NtRp3654
(dp3655
g54
(dp3656
g81
g82
ssg63
g3646
sg56
(lp3657
S':'
asbag49
(g70
g51
NtRp3658
(dp3659
g54
(dp3660
sg63
g3646
sg56
(lp3661
g49
(g50
g51
NtRp3662
(dp3663
g54
(dp3664
g62
I5
ssg63
g3658
sg56
(lp3665
g49
(g58
g51
NtRp3666
(dp3667
g54
(dp3668
g62
I4
ssg63
Nsg56
(lp3669
g49
(g65
g51
NtRp3670
(dp3671
g54
(dp3672
sg63
g3666
sg56
(lp3673
g49
(g70
g51
NtRp3674
(dp3675
g54
(dp3676
g74
g75
ssg63
g3670
sg56
(lp3677
S'session_id_slugbarter'
p3678
asbag49
(g70
g51
NtRp3679
(dp3680
g54
(dp3681
g81
g82
ssg63
g3670
sg56
(lp3682
S':'
asbag49
(g70
g51
NtRp3683
(dp3684
g54
(dp3685
sg63
g3670
sg56
(lp3686
g49
(g50
g51
NtRp3687
(dp3688
g54
(dp3689
g62
I4
ssg63
g3683
sg56
(lp3690
g49
(g58
g51
NtRp3691
(dp3692
g54
(dp3693
g62
I3
ssg63
Nsg56
(lp3694
g49
(g65
g51
NtRp3695
(dp3696
g54
(dp3697
sg63
g3691
sg56
(lp3698
g49
(g70
g51
NtRp3699
(dp3700
g54
(dp3701
g74
g75
ssg63
g3695
sg56
(lp3702
g302
asbag49
(g70
g51
NtRp3703
(dp3704
g54
(dp3705
g81
g82
ssg63
g3695
sg56
(lp3706
S':'
asbag49
(g70
g51
NtRp3707
(dp3708
g54
(dp3709
sg63
g3695
sg56
(lp3710
g49
(g50
g51
NtRp3711
(dp3712
g54
(dp3713
g62
I3
ssg63
g3707
sg56
(lp3714
S''
asbasbasbag49
(g65
g51
NtRp3715
(dp3716
g54
(dp3717
sg63
g3691
sg56
(lp3718
g49
(g70
g51
NtRp3719
(dp3720
g54
(dp3721
g74
g75
ssg63
g3715
sg56
(lp3722
g323
asbag49
(g70
g51
NtRp3723
(dp3724
g54
(dp3725
g81
g82
ssg63
g3715
sg56
(lp3726
S':'
asbag49
(g70
g51
NtRp3727
(dp3728
g54
(dp3729
sg63
g3715
sg56
(lp3730
g49
(g50
g51
NtRp3731
(dp3732
g54
(dp3733
g62
I3
ssg63
g3727
sg56
(lp3734
S''
asbasbasbag49
(g65
g51
NtRp3735
(dp3736
g54
(dp3737
sg63
g3691
sg56
(lp3738
g49
(g70
g51
NtRp3739
(dp3740
g54
(dp3741
g74
g75
ssg63
g3735
sg56
(lp3742
g344
asbag49
(g70
g51
NtRp3743
(dp3744
g54
(dp3745
g81
g82
ssg63
g3735
sg56
(lp3746
S':'
asbag49
(g70
g51
NtRp3747
(dp3748
g54
(dp3749
sg63
g3735
sg56
(lp3750
g49
(g50
g51
NtRp3751
(dp3752
g54
(dp3753
g62
I3
ssg63
g3747
sg56
(lp3754
S''
asbasbasbag49
(g65
g51
NtRp3755
(dp3756
g54
(dp3757
sg63
g3691
sg56
(lp3758
g49
(g70
g51
NtRp3759
(dp3760
g54
(dp3761
g74
g75
ssg63
g3755
sg56
(lp3762
g365
asbag49
(g70
g51
NtRp3763
(dp3764
g54
(dp3765
g81
g82
ssg63
g3755
sg56
(lp3766
S':'
asbag49
(g70
g51
NtRp3767
(dp3768
g54
(dp3769
sg63
g3755
sg56
(lp3770
g49
(g50
g51
NtRp3771
(dp3772
g54
(dp3773
g62
I3
ssg63
g3767
sg56
(lp3774
S''
asbasbasbag49
(g65
g51
NtRp3775
(dp3776
g54
(dp3777
sg63
g3691
sg56
(lp3778
g49
(g70
g51
NtRp3779
(dp3780
g54
(dp3781
g74
g75
ssg63
g3775
sg56
(lp3782
g386
asbag49
(g70
g51
NtRp3783
(dp3784
g54
(dp3785
g81
g82
ssg63
g3775
sg56
(lp3786
S':'
asbag49
(g70
g51
NtRp3787
(dp3788
g54
(dp3789
sg63
g3775
sg56
(lp3790
g49
(g50
g51
NtRp3791
(dp3792
g54
(dp3793
g62
I3
ssg63
g3787
sg56
(lp3794
S'/'
asbasbasbag49
(g65
g51
NtRp3795
(dp3796
g54
(dp3797
sg63
g3691
sg56
(lp3798
g49
(g70
g51
NtRp3799
(dp3800
g54
(dp3801
g74
g75
ssg63
g3795
sg56
(lp3802
g407
asbag49
(g70
g51
NtRp3803
(dp3804
g54
(dp3805
g81
g82
ssg63
g3795
sg56
(lp3806
S':'
asbag49
(g70
g51
NtRp3807
(dp3808
g54
(dp3809
sg63
g3795
sg56
(lp3810
g49
(g50
g51
NtRp3811
(dp3812
g54
(dp3813
g62
I3
ssg63
g3807
sg56
(lp3814
S''
asbasbasbag49
(g65
g51
NtRp3815
(dp3816
g54
(dp3817
sg63
g3691
sg56
(lp3818
g49
(g70
g51
NtRp3819
(dp3820
g54
(dp3821
g74
g75
ssg63
g3815
sg56
(lp3822
g428
asbag49
(g70
g51
NtRp3823
(dp3824
g54
(dp3825
g81
g82
ssg63
g3815
sg56
(lp3826
S':'
asbag49
(g70
g51
NtRp3827
(dp3828
g54
(dp3829
sg63
g3815
sg56
(lp3830
g49
(g50
g51
NtRp3831
(dp3832
g54
(dp3833
g62
I3
ssg63
g3827
sg56
(lp3834
S''
asbasbasbasbasbasbasbasbasbasbasbag49
(g65
g51
NtRp3835
(dp3836
g54
(dp3837
sg63
g3621
sg56
(lp3838
g49
(g70
g51
NtRp3839
(dp3840
g54
(dp3841
g74
g75
ssg63
g3835
sg56
(lp3842
S'delimiters'
p3843
asbag49
(g70
g51
NtRp3844
(dp3845
g54
(dp3846
g81
g82
ssg63
g3835
sg56
(lp3847
S':'
asbag49
(g70
g51
NtRp3848
(dp3849
g54
(dp3850
sg63
g3835
sg56
(lp3851
g49
(g50
g51
NtRp3852
(dp3853
g54
(dp3854
g62
I5
ssg63
g3848
sg56
(lp3855
g49
(g58
g51
NtRp3856
(dp3857
g54
(dp3858
g62
I4
ssg63
Nsg56
(lp3859
g49
(g65
g51
NtRp3860
(dp3861
g54
(dp3862
sg63
g3856
sg56
(lp3863
g49
(g70
g51
NtRp3864
(dp3865
g54
(dp3866
sg63
g3860
sg56
(lp3867
g49
(g50
g51
NtRp3868
(dp3869
g54
(dp3870
g62
I4
ssg63
g3864
sg56
(lp3871
S'{{'
p3872
asbasbasbag49
(g65
g51
NtRp3873
(dp3874
g54
(dp3875
sg63
g3856
sg56
(lp3876
g49
(g70
g51
NtRp3877
(dp3878
g54
(dp3879
sg63
g3873
sg56
(lp3880
g49
(g50
g51
NtRp3881
(dp3882
g54
(dp3883
g62
I4
ssg63
g3877
sg56
(lp3884
S'}}'
p3885
asbasbasbasbasbasbasbag49
(g65
g51
NtRp3886
(dp3887
g54
(dp3888
sg63
g3621
sg56
(lp3889
g49
(g70
g51
NtRp3890
(dp3891
g54
(dp3892
g74
g75
ssg63
g3886
sg56
(lp3893
S'files'
p3894
asbag49
(g70
g51
NtRp3895
(dp3896
g54
(dp3897
g81
g82
ssg63
g3886
sg56
(lp3898
S':'
asbag49
(g70
g51
NtRp3899
(dp3900
g54
(dp3901
sg63
g3886
sg56
(lp3902
g49
(g50
g51
NtRp3903
(dp3904
g54
(dp3905
g62
I5
ssg63
g3899
sg56
(lp3906
g49
(g58
g51
NtRp3907
(dp3908
g54
(dp3909
g62
I4
ssg63
Nsg56
(lp3910
sbasbasbasbag49
(g65
g51
NtRp3911
(dp3912
g54
(dp3913
sg63
g3621
sg56
(lp3914
g49
(g70
g51
NtRp3915
(dp3916
g54
(dp3917
g74
g75
ssg63
g3911
sg56
(lp3918
S'flash'
p3919
asbag49
(g70
g51
NtRp3920
(dp3921
g54
(dp3922
g81
g82
ssg63
g3911
sg56
(lp3923
S':'
asbag49
(g70
g51
NtRp3924
(dp3925
g54
(dp3926
sg63
g3911
sg56
(lp3927
g49
(g50
g51
NtRp3928
(dp3929
g54
(dp3930
g62
I5
ssg63
g3924
sg56
(lp3931
S''
asbasbasbag49
(g65
g51
NtRp3932
(dp3933
g54
(dp3934
sg63
g3621
sg56
(lp3935
g49
(g70
g51
NtRp3936
(dp3937
g54
(dp3938
g74
g75
ssg63
g3932
sg56
(lp3939
S'generic_patterns'
p3940
asbag49
(g70
g51
NtRp3941
(dp3942
g54
(dp3943
g81
g82
ssg63
g3932
sg56
(lp3944
S':'
asbag49
(g70
g51
NtRp3945
(dp3946
g54
(dp3947
sg63
g3932
sg56
(lp3948
g49
(g50
g51
NtRp3949
(dp3950
g54
(dp3951
g62
I5
ssg63
g3945
sg56
(lp3952
g49
(g58
g51
NtRp3953
(dp3954
g54
(dp3955
g62
I4
ssg63
Nsg56
(lp3956
g49
(g65
g51
NtRp3957
(dp3958
g54
(dp3959
sg63
g3953
sg56
(lp3960
g49
(g70
g51
NtRp3961
(dp3962
g54
(dp3963
sg63
g3957
sg56
(lp3964
g49
(g50
g51
NtRp3965
(dp3966
g54
(dp3967
g62
I4
ssg63
g3961
sg56
(lp3968
S'*'
asbasbasbasbasbasbasbag49
(g65
g51
NtRp3969
(dp3970
g54
(dp3971
sg63
g3621
sg56
(lp3972
g49
(g70
g51
NtRp3973
(dp3974
g54
(dp3975
g74
g75
ssg63
g3969
sg56
(lp3976
S'headers'
p3977
asbag49
(g70
g51
NtRp3978
(dp3979
g54
(dp3980
g81
g82
ssg63
g3969
sg56
(lp3981
S':'
asbag49
(g70
g51
NtRp3982
(dp3983
g54
(dp3984
sg63
g3969
sg56
(lp3985
g49
(g50
g51
NtRp3986
(dp3987
g54
(dp3988
g62
I5
ssg63
g3982
sg56
(lp3989
g49
(g58
g51
NtRp3990
(dp3991
g54
(dp3992
g62
I4
ssg63
Nsg56
(lp3993
g49
(g65
g51
NtRp3994
(dp3995
g54
(dp3996
sg63
g3990
sg56
(lp3997
g49
(g70
g51
NtRp3998
(dp3999
g54
(dp4000
g74
g75
ssg63
g3994
sg56
(lp4001
S'Cache-Control'
p4002
asbag49
(g70
g51
NtRp4003
(dp4004
g54
(dp4005
g81
g82
ssg63
g3994
sg56
(lp4006
S':'
asbag49
(g70
g51
NtRp4007
(dp4008
g54
(dp4009
sg63
g3994
sg56
(lp4010
g49
(g50
g51
NtRp4011
(dp4012
g54
(dp4013
g62
I4
ssg63
g4007
sg56
(lp4014
S'no-store, no-cache, must-revalidate, post-check=0, pre-check=0'
p4015
asbasbasbag49
(g65
g51
NtRp4016
(dp4017
g54
(dp4018
sg63
g3990
sg56
(lp4019
g49
(g70
g51
NtRp4020
(dp4021
g54
(dp4022
g74
g75
ssg63
g4016
sg56
(lp4023
S'Content-Type'
p4024
asbag49
(g70
g51
NtRp4025
(dp4026
g54
(dp4027
g81
g82
ssg63
g4016
sg56
(lp4028
S':'
asbag49
(g70
g51
NtRp4029
(dp4030
g54
(dp4031
sg63
g4016
sg56
(lp4032
g49
(g50
g51
NtRp4033
(dp4034
g54
(dp4035
g62
I4
ssg63
g4029
sg56
(lp4036
S'text/html; charset=utf-8'
p4037
asbasbasbag49
(g65
g51
NtRp4038
(dp4039
g54
(dp4040
sg63
g3990
sg56
(lp4041
g49
(g70
g51
NtRp4042
(dp4043
g54
(dp4044
g74
g75
ssg63
g4038
sg56
(lp4045
S'Expires'
p4046
asbag49
(g70
g51
NtRp4047
(dp4048
g54
(dp4049
g81
g82
ssg63
g4038
sg56
(lp4050
S':'
asbag49
(g70
g51
NtRp4051
(dp4052
g54
(dp4053
sg63
g4038
sg56
(lp4054
g49
(g50
g51
NtRp4055
(dp4056
g54
(dp4057
g62
I4
ssg63
g4051
sg56
(lp4058
S'Mon, 12 Nov 2012 02:37:02 GMT'
p4059
asbasbasbag49
(g65
g51
NtRp4060
(dp4061
g54
(dp4062
sg63
g3990
sg56
(lp4063
g49
(g70
g51
NtRp4064
(dp4065
g54
(dp4066
g74
g75
ssg63
g4060
sg56
(lp4067
S'Pragma'
p4068
asbag49
(g70
g51
NtRp4069
(dp4070
g54
(dp4071
g81
g82
ssg63
g4060
sg56
(lp4072
S':'
asbag49
(g70
g51
NtRp4073
(dp4074
g54
(dp4075
sg63
g4060
sg56
(lp4076
g49
(g50
g51
NtRp4077
(dp4078
g54
(dp4079
g62
I4
ssg63
g4073
sg56
(lp4080
S'no-cache'
p4081
asbasbasbag49
(g65
g51
NtRp4082
(dp4083
g54
(dp4084
sg63
g3990
sg56
(lp4085
g49
(g70
g51
NtRp4086
(dp4087
g54
(dp4088
g74
g75
ssg63
g4082
sg56
(lp4089
S'X-Powered-By'
p4090
asbag49
(g70
g51
NtRp4091
(dp4092
g54
(dp4093
g81
g82
ssg63
g4082
sg56
(lp4094
S':'
asbag49
(g70
g51
NtRp4095
(dp4096
g54
(dp4097
sg63
g4082
sg56
(lp4098
g49
(g50
g51
NtRp4099
(dp4100
g54
(dp4101
g62
I4
ssg63
g4095
sg56
(lp4102
S'web2py'
p4103
asbasbasbasbasbasbasbag49
(g65
g51
NtRp4104
(dp4105
g54
(dp4106
sg63
g3621
sg56
(lp4107
g49
(g70
g51
NtRp4108
(dp4109
g54
(dp4110
g74
g75
ssg63
g4104
sg56
(lp4111
S'menu'
p4112
asbag49
(g70
g51
NtRp4113
(dp4114
g54
(dp4115
g81
g82
ssg63
g4104
sg56
(lp4116
S':'
asbag49
(g70
g51
NtRp4117
(dp4118
g54
(dp4119
sg63
g4104
sg56
(lp4120
g49
(g50
g51
NtRp4121
(dp4122
g54
(dp4123
g62
I5
ssg63
g4117
sg56
(lp4124
g49
(g58
g51
NtRp4125
(dp4126
g54
(dp4127
g62
I4
ssg63
Nsg56
(lp4128
g49
(g65
g51
NtRp4129
(dp4130
g54
(dp4131
sg63
g4125
sg56
(lp4132
g49
(g70
g51
NtRp4133
(dp4134
g54
(dp4135
sg63
g4129
sg56
(lp4136
g49
(g50
g51
NtRp4137
(dp4138
g54
(dp4139
g62
I4
ssg63
g4133
sg56
(lp4140
g49
(g58
g51
NtRp4141
(dp4142
g54
(dp4143
g62
I3
ssg63
Nsg56
(lp4144
g49
(g65
g51
NtRp4145
(dp4146
g54
(dp4147
sg63
g4141
sg56
(lp4148
g49
(g70
g51
NtRp4149
(dp4150
g54
(dp4151
sg63
g4145
sg56
(lp4152
g49
(g50
g51
NtRp4153
(dp4154
g54
(dp4155
g62
I3
ssg63
g4149
sg56
(lp4156
cgluon.languages
lazyT_unpickle
p4157
(S's\x06\x00\x00\x00design'
tRp4158
asbasbasbag49
(g65
g51
NtRp4159
(dp4160
g54
(dp4161
sg63
g4141
sg56
(lp4162
g49
(g70
g51
NtRp4163
(dp4164
g54
(dp4165
sg63
g4159
sg56
(lp4166
g49
(g50
g51
NtRp4167
(dp4168
g54
(dp4169
g62
I3
ssg63
g4163
sg56
(lp4170
g92
asbasbasbag49
(g65
g51
NtRp4171
(dp4172
g54
(dp4173
sg63
g4141
sg56
(lp4174
g49
(g70
g51
NtRp4175
(dp4176
g54
(dp4177
sg63
g4171
sg56
(lp4178
g49
(g50
g51
NtRp4179
(dp4180
g54
(dp4181
g62
I3
ssg63
g4175
sg56
(lp4182
S'/admin/default/design/SlugBarter'
p4183
asbasbasbasbasbasbasbag49
(g65
g51
NtRp4184
(dp4185
g54
(dp4186
sg63
g4125
sg56
(lp4187
g49
(g70
g51
NtRp4188
(dp4189
g54
(dp4190
sg63
g4184
sg56
(lp4191
g49
(g50
g51
NtRp4192
(dp4193
g54
(dp4194
g62
I4
ssg63
g4188
sg56
(lp4195
g49
(g58
g51
NtRp4196
(dp4197
g54
(dp4198
g62
I3
ssg63
Nsg56
(lp4199
g49
(g65
g51
NtRp4200
(dp4201
g54
(dp4202
sg63
g4196
sg56
(lp4203
g49
(g70
g51
NtRp4204
(dp4205
g54
(dp4206
sg63
g4200
sg56
(lp4207
g49
(g50
g51
NtRp4208
(dp4209
g54
(dp4210
g62
I3
ssg63
g4204
sg56
(lp4211
g4157
(S's\x02\x00\x00\x00db'
tRp4212
asbasbasbag49
(g65
g51
NtRp4213
(dp4214
g54
(dp4215
sg63
g4196
sg56
(lp4216
g49
(g70
g51
NtRp4217
(dp4218
g54
(dp4219
sg63
g4213
sg56
(lp4220
g49
(g50
g51
NtRp4221
(dp4222
g54
(dp4223
g62
I3
ssg63
g4217
sg56
(lp4224
g92
asbasbasbag49
(g65
g51
NtRp4225
(dp4226
g54
(dp4227
sg63
g4196
sg56
(lp4228
g49
(g70
g51
NtRp4229
(dp4230
g54
(dp4231
sg63
g4225
sg56
(lp4232
g49
(g50
g51
NtRp4233
(dp4234
g54
(dp4235
g62
I3
ssg63
g4229
sg56
(lp4236
S'/SlugBarter/appadmin/index'
p4237
asbasbasbasbasbasbasbag49
(g65
g51
NtRp4238
(dp4239
g54
(dp4240
sg63
g4125
sg56
(lp4241
g49
(g70
g51
NtRp4242
(dp4243
g54
(dp4244
sg63
g4238
sg56
(lp4245
g49
(g50
g51
NtRp4246
(dp4247
g54
(dp4248
g62
I4
ssg63
g4242
sg56
(lp4249
g49
(g58
g51
NtRp4250
(dp4251
g54
(dp4252
g62
I3
ssg63
Nsg56
(lp4253
g49
(g65
g51
NtRp4254
(dp4255
g54
(dp4256
sg63
g4250
sg56
(lp4257
g49
(g70
g51
NtRp4258
(dp4259
g54
(dp4260
sg63
g4254
sg56
(lp4261
g49
(g50
g51
NtRp4262
(dp4263
g54
(dp4264
g62
I3
ssg63
g4258
sg56
(lp4265
g4157
(S's\x05\x00\x00\x00state'
tRp4266
asbasbasbag49
(g65
g51
NtRp4267
(dp4268
g54
(dp4269
sg63
g4250
sg56
(lp4270
g49
(g70
g51
NtRp4271
(dp4272
g54
(dp4273
sg63
g4267
sg56
(lp4274
g49
(g50
g51
NtRp4275
(dp4276
g54
(dp4277
g62
I3
ssg63
g4271
sg56
(lp4278
g92
asbasbasbag49
(g65
g51
NtRp4279
(dp4280
g54
(dp4281
sg63
g4250
sg56
(lp4282
g49
(g70
g51
NtRp4283
(dp4284
g54
(dp4285
sg63
g4279
sg56
(lp4286
g49
(g50
g51
NtRp4287
(dp4288
g54
(dp4289
g62
I3
ssg63
g4283
sg56
(lp4290
S'/SlugBarter/appadmin/state'
p4291
asbasbasbasbasbasbasbag49
(g65
g51
NtRp4292
(dp4293
g54
(dp4294
sg63
g4125
sg56
(lp4295
g49
(g70
g51
NtRp4296
(dp4297
g54
(dp4298
sg63
g4292
sg56
(lp4299
g49
(g50
g51
NtRp4300
(dp4301
g54
(dp4302
g62
I4
ssg63
g4296
sg56
(lp4303
g49
(g58
g51
NtRp4304
(dp4305
g54
(dp4306
g62
I3
ssg63
Nsg56
(lp4307
g49
(g65
g51
NtRp4308
(dp4309
g54
(dp4310
sg63
g4304
sg56
(lp4311
g49
(g70
g51
NtRp4312
(dp4313
g54
(dp4314
sg63
g4308
sg56
(lp4315
g49
(g50
g51
NtRp4316
(dp4317
g54
(dp4318
g62
I3
ssg63
g4312
sg56
(lp4319
g4157
(S's\x05\x00\x00\x00cache'
tRp4320
asbasbasbag49
(g65
g51
NtRp4321
(dp4322
g54
(dp4323
sg63
g4304
sg56
(lp4324
g49
(g70
g51
NtRp4325
(dp4326
g54
(dp4327
sg63
g4321
sg56
(lp4328
g49
(g50
g51
NtRp4329
(dp4330
g54
(dp4331
g62
I3
ssg63
g4325
sg56
(lp4332
g92
asbasbasbag49
(g65
g51
NtRp4333
(dp4334
g54
(dp4335
sg63
g4304
sg56
(lp4336
g49
(g70
g51
NtRp4337
(dp4338
g54
(dp4339
sg63
g4333
sg56
(lp4340
g49
(g50
g51
NtRp4341
(dp4342
g54
(dp4343
g62
I3
ssg63
g4337
sg56
(lp4344
S'/SlugBarter/appadmin/ccache'
p4345
asbasbasbasbasbasbasbasbasbasbasbag49
(g65
g51
NtRp4346
(dp4347
g54
(dp4348
sg63
g3621
sg56
(lp4349
g49
(g70
g51
NtRp4350
(dp4351
g54
(dp4352
g74
g75
ssg63
g4346
sg56
(lp4353
S'meta'
p4354
asbag49
(g70
g51
NtRp4355
(dp4356
g54
(dp4357
g81
g82
ssg63
g4346
sg56
(lp4358
S':'
asbag49
(g70
g51
NtRp4359
(dp4360
g54
(dp4361
sg63
g4346
sg56
(lp4362
g49
(g50
g51
NtRp4363
(dp4364
g54
(dp4365
g62
I5
ssg63
g4359
sg56
(lp4366
g49
(g58
g51
NtRp4367
(dp4368
g54
(dp4369
g62
I4
ssg63
Nsg56
(lp4370
g49
(g65
g51
NtRp4371
(dp4372
g54
(dp4373
sg63
g4367
sg56
(lp4374
g49
(g70
g51
NtRp4375
(dp4376
g54
(dp4377
g74
g75
ssg63
g4371
sg56
(lp4378
S'author'
p4379
asbag49
(g70
g51
NtRp4380
(dp4381
g54
(dp4382
g81
g82
ssg63
g4371
sg56
(lp4383
S':'
asbag49
(g70
g51
NtRp4384
(dp4385
g54
(dp4386
sg63
g4371
sg56
(lp4387
g49
(g50
g51
NtRp4388
(dp4389
g54
(dp4390
g62
I4
ssg63
g4384
sg56
(lp4391
S'Your Name <you@example.com>'
p4392
asbasbasbag49
(g65
g51
NtRp4393
(dp4394
g54
(dp4395
sg63
g4367
sg56
(lp4396
g49
(g70
g51
NtRp4397
(dp4398
g54
(dp4399
g74
g75
ssg63
g4393
sg56
(lp4400
S'copyright'
p4401
asbag49
(g70
g51
NtRp4402
(dp4403
g54
(dp4404
g81
g82
ssg63
g4393
sg56
(lp4405
S':'
asbag49
(g70
g51
NtRp4406
(dp4407
g54
(dp4408
sg63
g4393
sg56
(lp4409
g49
(g50
g51
NtRp4410
(dp4411
g54
(dp4412
g62
I4
ssg63
g4406
sg56
(lp4413
S'Copyright 2011'
p4414
asbasbasbag49
(g65
g51
NtRp4415
(dp4416
g54
(dp4417
sg63
g4367
sg56
(lp4418
g49
(g70
g51
NtRp4419
(dp4420
g54
(dp4421
g74
g75
ssg63
g4415
sg56
(lp4422
S'description'
p4423
asbag49
(g70
g51
NtRp4424
(dp4425
g54
(dp4426
g81
g82
ssg63
g4415
sg56
(lp4427
S':'
asbag49
(g70
g51
NtRp4428
(dp4429
g54
(dp4430
sg63
g4415
sg56
(lp4431
g49
(g50
g51
NtRp4432
(dp4433
g54
(dp4434
g62
I4
ssg63
g4428
sg56
(lp4435
S'a cool new app'
p4436
asbasbasbag49
(g65
g51
NtRp4437
(dp4438
g54
(dp4439
sg63
g4367
sg56
(lp4440
g49
(g70
g51
NtRp4441
(dp4442
g54
(dp4443
g74
g75
ssg63
g4437
sg56
(lp4444
S'generator'
p4445
asbag49
(g70
g51
NtRp4446
(dp4447
g54
(dp4448
g81
g82
ssg63
g4437
sg56
(lp4449
S':'
asbag49
(g70
g51
NtRp4450
(dp4451
g54
(dp4452
sg63
g4437
sg56
(lp4453
g49
(g50
g51
NtRp4454
(dp4455
g54
(dp4456
g62
I4
ssg63
g4450
sg56
(lp4457
S'Web2py Web Framework'
p4458
asbasbasbag49
(g65
g51
NtRp4459
(dp4460
g54
(dp4461
sg63
g4367
sg56
(lp4462
g49
(g70
g51
NtRp4463
(dp4464
g54
(dp4465
g74
g75
ssg63
g4459
sg56
(lp4466
S'keywords'
p4467
asbag49
(g70
g51
NtRp4468
(dp4469
g54
(dp4470
g81
g82
ssg63
g4459
sg56
(lp4471
S':'
asbag49
(g70
g51
NtRp4472
(dp4473
g54
(dp4474
sg63
g4459
sg56
(lp4475
g49
(g50
g51
NtRp4476
(dp4477
g54
(dp4478
g62
I4
ssg63
g4472
sg56
(lp4479
S'web2py, python, framework'
p4480
asbasbasbasbasbasbasbag49
(g65
g51
NtRp4481
(dp4482
g54
(dp4483
sg63
g3621
sg56
(lp4484
g49
(g70
g51
NtRp4485
(dp4486
g54
(dp4487
g74
g75
ssg63
g4481
sg56
(lp4488
S'postprocessing'
p4489
asbag49
(g70
g51
NtRp4490
(dp4491
g54
(dp4492
g81
g82
ssg63
g4481
sg56
(lp4493
S':'
asbag49
(g70
g51
NtRp4494
(dp4495
g54
(dp4496
sg63
g4481
sg56
(lp4497
g49
(g50
g51
NtRp4498
(dp4499
g54
(dp4500
g62
I5
ssg63
g4494
sg56
(lp4501
g49
(g58
g51
NtRp4502
(dp4503
g54
(dp4504
g62
I4
ssg63
Nsg56
(lp4505
sbasbasbasbag49
(g65
g51
NtRp4506
(dp4507
g54
(dp4508
sg63
g3621
sg56
(lp4509
g49
(g70
g51
NtRp4510
(dp4511
g54
(dp4512
g74
g75
ssg63
g4506
sg56
(lp4513
S'session_file'
p4514
asbag49
(g70
g51
NtRp4515
(dp4516
g54
(dp4517
g81
g82
ssg63
g4506
sg56
(lp4518
S':'
asbag49
(g70
g51
NtRp4519
(dp4520
g54
(dp4521
sg63
g4506
sg56
(lp4522
g49
(g50
g51
NtRp4523
(dp4524
g54
(dp4525
g62
I5
ssg63
g4519
sg56
(lp4526
S"<open file 'C:\\Users\\omkara\\Desktop\\web2py\\applications\\SlugBarter\\sessions\\127.0.0.1-e6ebae72-1bbc-48a5-9458-95dbb65a4e54', mode 'rb+' at 0x0652B2A8>"
p4527
asbasbasbag49
(g65
g51
NtRp4528
(dp4529
g54
(dp4530
sg63
g3621
sg56
(lp4531
g49
(g70
g51
NtRp4532
(dp4533
g54
(dp4534
g74
g75
ssg63
g4528
sg56
(lp4535
S'session_filename'
p4536
asbag49
(g70
g51
NtRp4537
(dp4538
g54
(dp4539
g81
g82
ssg63
g4528
sg56
(lp4540
S':'
asbag49
(g70
g51
NtRp4541
(dp4542
g54
(dp4543
sg63
g4528
sg56
(lp4544
g49
(g50
g51
NtRp4545
(dp4546
g54
(dp4547
g62
I5
ssg63
g4541
sg56
(lp4548
S'C:\\Users\\omkara\\Desktop\\web2py\\applications\\SlugBarter\\sessions\\127.0.0.1-e6ebae72-1bbc-48a5-9458-95dbb65a4e54'
p4549
asbasbasbag49
(g65
g51
NtRp4550
(dp4551
g54
(dp4552
sg63
g3621
sg56
(lp4553
g49
(g70
g51
NtRp4554
(dp4555
g54
(dp4556
g74
g75
ssg63
g4550
sg56
(lp4557
S'session_id'
p4558
asbag49
(g70
g51
NtRp4559
(dp4560
g54
(dp4561
g81
g82
ssg63
g4550
sg56
(lp4562
S':'
asbag49
(g70
g51
NtRp4563
(dp4564
g54
(dp4565
sg63
g4550
sg56
(lp4566
g49
(g50
g51
NtRp4567
(dp4568
g54
(dp4569
g62
I5
ssg63
g4563
sg56
(lp4570
S'127.0.0.1-e6ebae72-1bbc-48a5-9458-95dbb65a4e54'
p4571
asbasbasbag49
(g65
g51
NtRp4572
(dp4573
g54
(dp4574
sg63
g3621
sg56
(lp4575
g49
(g70
g51
NtRp4576
(dp4577
g54
(dp4578
g74
g75
ssg63
g4572
sg56
(lp4579
S'session_id_name'
p4580
asbag49
(g70
g51
NtRp4581
(dp4582
g54
(dp4583
g81
g82
ssg63
g4572
sg56
(lp4584
S':'
asbag49
(g70
g51
NtRp4585
(dp4586
g54
(dp4587
sg63
g4572
sg56
(lp4588
g49
(g50
g51
NtRp4589
(dp4590
g54
(dp4591
g62
I5
ssg63
g4585
sg56
(lp4592
g3678
asbasbasbag49
(g65
g51
NtRp4593
(dp4594
g54
(dp4595
sg63
g3621
sg56
(lp4596
g49
(g70
g51
NtRp4597
(dp4598
g54
(dp4599
g74
g75
ssg63
g4593
sg56
(lp4600
S'session_locked'
p4601
asbag49
(g70
g51
NtRp4602
(dp4603
g54
(dp4604
g81
g82
ssg63
g4593
sg56
(lp4605
S':'
asbag49
(g70
g51
NtRp4606
(dp4607
g54
(dp4608
sg63
g4593
sg56
(lp4609
g49
(g50
g51
NtRp4610
(dp4611
g54
(dp4612
g62
I5
ssg63
g4606
sg56
(lp4613
g2143
asbasbasbag49
(g65
g51
NtRp4614
(dp4615
g54
(dp4616
sg63
g3621
sg56
(lp4617
g49
(g70
g51
NtRp4618
(dp4619
g54
(dp4620
g74
g75
ssg63
g4614
sg56
(lp4621
S'session_new'
p4622
asbag49
(g70
g51
NtRp4623
(dp4624
g54
(dp4625
g81
g82
ssg63
g4614
sg56
(lp4626
S':'
asbag49
(g70
g51
NtRp4627
(dp4628
g54
(dp4629
sg63
g4614
sg56
(lp4630
g49
(g50
g51
NtRp4631
(dp4632
g54
(dp4633
g62
I5
ssg63
g4627
sg56
(lp4634
g92
asbasbasbag49
(g65
g51
NtRp4635
(dp4636
g54
(dp4637
sg63
g3621
sg56
(lp4638
g49
(g70
g51
NtRp4639
(dp4640
g54
(dp4641
g74
g75
ssg63
g4635
sg56
(lp4642
S'status'
p4643
asbag49
(g70
g51
NtRp4644
(dp4645
g54
(dp4646
g81
g82
ssg63
g4635
sg56
(lp4647
S':'
asbag49
(g70
g51
NtRp4648
(dp4649
g54
(dp4650
sg63
g4635
sg56
(lp4651
g49
(g50
g51
NtRp4652
(dp4653
g54
(dp4654
g62
I5
ssg63
g4648
sg56
(lp4655
S'200'
p4656
asbasbasbag49
(g65
g51
NtRp4657
(dp4658
g54
(dp4659
sg63
g3621
sg56
(lp4660
g49
(g70
g51
NtRp4661
(dp4662
g54
(dp4663
g74
g75
ssg63
g4657
sg56
(lp4664
S'subtitle'
p4665
asbag49
(g70
g51
NtRp4666
(dp4667
g54
(dp4668
g81
g82
ssg63
g4657
sg56
(lp4669
S':'
asbag49
(g70
g51
NtRp4670
(dp4671
g54
(dp4672
sg63
g4657
sg56
(lp4673
g49
(g50
g51
NtRp4674
(dp4675
g54
(dp4676
g62
I5
ssg63
g4670
sg56
(lp4677
g4157
(S's\r\x00\x00\x00customize me!'
tRp4678
asbasbasbag49
(g65
g51
NtRp4679
(dp4680
g54
(dp4681
sg63
g3621
sg56
(lp4682
g49
(g70
g51
NtRp4683
(dp4684
g54
(dp4685
g74
g75
ssg63
g4679
sg56
(lp4686
S'title'
p4687
asbag49
(g70
g51
NtRp4688
(dp4689
g54
(dp4690
g81
g82
ssg63
g4679
sg56
(lp4691
S':'
asbag49
(g70
g51
NtRp4692
(dp4693
g54
(dp4694
sg63
g4679
sg56
(lp4695
g49
(g50
g51
NtRp4696
(dp4697
g54
(dp4698
g62
I5
ssg63
g4692
sg56
(lp4699
S'Slugbarter'
p4700
asbasbasbag49
(g65
g51
NtRp4701
(dp4702
g54
(dp4703
sg63
g3621
sg56
(lp4704
g49
(g70
g51
NtRp4705
(dp4706
g54
(dp4707
g74
g75
ssg63
g4701
sg56
(lp4708
g2829
asbag49
(g70
g51
NtRp4709
(dp4710
g54
(dp4711
g81
g82
ssg63
g4701
sg56
(lp4712
S':'
asbag49
(g70
g51
NtRp4713
(dp4714
g54
(dp4715
sg63
g4701
sg56
(lp4716
g49
(g50
g51
NtRp4717
(dp4718
g54
(dp4719
g62
I5
ssg63
g4713
sg56
(lp4720
g2842
asbasbasbag49
(g65
g51
NtRp4721
(dp4722
g54
(dp4723
sg63
g3621
sg56
(lp4724
g49
(g70
g51
NtRp4725
(dp4726
g54
(dp4727
g74
g75
ssg63
g4721
sg56
(lp4728
S'view'
p4729
asbag49
(g70
g51
NtRp4730
(dp4731
g54
(dp4732
g81
g82
ssg63
g4721
sg56
(lp4733
S':'
asbag49
(g70
g51
NtRp4734
(dp4735
g54
(dp4736
sg63
g4721
sg56
(lp4737
g49
(g50
g51
NtRp4738
(dp4739
g54
(dp4740
g62
I5
ssg63
g4734
sg56
(lp4741
S'appadmin.html'
p4742
asbasbasbasbasbsS'locals'
p4743
(dp4744
S'self'
p4745
S'<gluon.dal.SQLiteAdapter object at 0x061D3AF0>'
p4746
sS'r'
S'None'
p4747
sS'obj'
p4748
S"'None'"
p4749
sS'fieldtype'
p4750
S"'id'"
p4751
sssS'traceback'
p4752
S'Traceback (most recent call last):\n  File "gluon/restricted.py", line 205, in restricted\n  File "C:\\Users\\omkara\\Desktop\\web2py\\applications\\SlugBarter\\controllers/appadmin.py", line 433, in <module>\n  File "gluon/globals.py", line 173, in <lambda>\n  File "C:\\Users\\omkara\\Desktop\\web2py\\applications\\SlugBarter\\controllers/appadmin.py", line 259, in update\n  File "gluon/dal.py", line 7578, in select\n  File "gluon/dal.py", line 1307, in select\n  File "gluon/dal.py", line 1756, in _select\n  File "gluon/dal.py", line 1200, in _select\n  File "gluon/dal.py", line 1046, in expand\n  File "gluon/dal.py", line 987, in EQ\n  File "gluon/dal.py", line 1054, in expand\n  File "gluon/dal.py", line 1425, in represent\nValueError: invalid literal for int() with base 10: \'None\'\n'
p4753
s.