(dp1
S'output'
p2
S"<type 'exceptions.NameError'> name 'anonymous' is not defined"
p3
sS'layer'
p4
S'C:\\Users\\omkara\\Desktop\\web2py\\applications\\SlugBarter\\views\\default/mypage.html'
p5
sS'code'
p6
S'response.write(\'<!DOCTYPE html>\\n<!-- paulirish.com/2008/conditional-stylesheets-vs-css-hacks-answer-neither/ -->\\n<!--[if lt IE 7]><html class="ie ie6 ie-lte9 ie-lte8 ie-lte7 no-js" lang="\', escape=False)\nresponse.write(T.accepted_language or \'en\')\nresponse.write(\'"> <![endif]-->\\n<!--[if IE 7]><html class="ie ie7 ie-lte9 ie-lte8 ie-lte7 no-js" lang="\', escape=False)\nresponse.write(T.accepted_language or \'en\')\nresponse.write(\'"> <![endif]-->\\n<!--[if IE 8]><html class="ie ie8 ie-lte9 ie-lte8 no-js" lang="\', escape=False)\nresponse.write(T.accepted_language or \'en\')\nresponse.write(\'"> <![endif]-->\\n<!--[if IE 9]><html class="ie9 ie-lte9 no-js" lang="\', escape=False)\nresponse.write(T.accepted_language or \'en\')\nresponse.write(\'"> <![endif]-->\\n<!--[if (gt IE 9)|!(IE)]><!--> <html class="no-js" lang="\', escape=False)\nresponse.write(T.accepted_language or \'en\')\nresponse.write(\'"> <!--<![endif]-->\\n<head>\\n  <meta charset="utf-8" />\\n  <!-- www.phpied.com/conditional-comments-block-downloads/ -->\\n  <!-- Always force latest IE rendering engine\\n\\t   (even in intranet) & Chrome Frame\\n\\t   Remove this if you use the .htaccess -->\\n  <!--[if IE]>\\n    <meta http-equiv="X-UA-Compatible" content="IE=edge\', escape=False)\nresponse.write(not request.is_local and \',chrome=1\' or \'\')\nresponse.write(\'">\\n  <![endif]-->\\n  \\n  <title>\', escape=False)\nresponse.write(response.title or request.application)\nresponse.write(\'</title>\\n  \\n  <!-- http://dev.w3.org/html5/markup/meta.name.html -->\\n  <meta name="application-name" content="\', escape=False)\nresponse.write(request.application)\nresponse.write(\'" />\\n  \\n  <!-- Speaking of Google, don\\\'t forget to set your site up:\\n\\t   http://google.com/webmasters -->\\n  <meta name="google-site-verification" content="" />\\n\\n  <!--  Mobile Viewport Fix\\n\\t  j.mp/mobileviewport & davidbcalhoun.com/2010/viewport-metatag\\n\\t  device-width: Occupy full width of the screen in its current orientation\\n\\t  initial-scale = 1.0 retains dimensions instead of zooming out if page height > device height\\n\\t  user-scalable = yes allows the user to zoom in -->\\n  <meta name="viewport" content="width=device-width, initial-scale=1.0, user-scalable=yes">\\n  \\n  <!-- Place favicon.ico and apple-touch-icon.png in the root of your domain and delete these references -->\\n  <link rel="shortcut icon" href="\', escape=False)\nresponse.write(URL(\'static\',\'favicon.ico\'))\nresponse.write(\'" type="image/x-icon">\\n  <link rel="apple-touch-icon" href="\', escape=False)\nresponse.write(URL(\'static\',\'favicon.png\'))\nresponse.write(\'">\\n\\n  <!-- All JavaScript at the bottom, except for Modernizr which enables \\n\\t   HTML5 elements & feature detects -->\\n  <script src="\', escape=False)\nresponse.write(URL(\'static\',\'js/modernizr.custom.js\'))\nresponse.write(\'"></script>  \\n\\n  <!-- include stylesheets -->\\n  \', escape=False)\nresponse.files.append(URL(\'static\',\'css/skeleton.css\'))\nresponse.files.append(URL(\'static\',\'css/web2py.css\'))\nif response.menu:\n    response.files.append(URL(\'static\',\'css/superfish.css\'))\n    response.files.append(URL(\'static\',\'js/superfish.js\'))\n    pass\nresponse.write(\'\\n\\n  \', escape=False)\nresponse.write(\'<script type="text/javascript"><!--\\n    // These variables are used by the web2py_ajax_init function in web2py_ajax.js (which is loaded below).\\n    var w2p_ajax_confirm_message = "\', escape=False)\nresponse.write(T(\'Are you sure you want to delete this object?\'))\nresponse.write(\'";\\n    var w2p_ajax_date_format = "\', escape=False)\nresponse.write(T(\'%Y-%m-%d\'))\nresponse.write(\'";\\n    var w2p_ajax_datetime_format = "\', escape=False)\nresponse.write(T(\'%Y-%m-%d %H:%M:%S\'))\nresponse.write(\'";\\n    //--></script>\\n\', escape=False)\nresponse.files.insert(0,URL(\'static\',\'js/jquery.js\'))\nresponse.files.insert(1,URL(\'static\',\'css/calendar.css\'))\nresponse.files.insert(2,URL(\'static\',\'js/calendar.js\'))\nresponse.files.insert(3,URL(\'static\',\'js/web2py.js\'))\nresponse.include_meta()\nresponse.include_files()\nresponse.write(\'\\n\', escape=False)\nresponse.write(\'\\n\\n  \', escape=False)\nif response.menu:\n    response.write(\'\\n  <script type="text/javascript">\\n    jQuery(function(){ jQuery(\\\'ul.sf-menu\\\').supersubs({minWidth:12,maxWidth:30,extraWidth:3}).superfish(); });\\n  </script>\\n  \', escape=False)\n    pass\nresponse.write(\'\\n\\n  \', escape=False)\n# using sidebars need to know what sidebar you want to use\nleft_sidebar_enabled = globals().get(\'left_sidebar_enabled\',False)\nright_sidebar_enabled = globals().get(\'right_sidebar_enabled\',False)\nmiddle_columns = {0:\'sixteen\',1:\'twelve\',2:\'eight\'}[\n(left_sidebar_enabled and 1 or 0)+(right_sidebar_enabled and 1 or 0)]\nresponse.write(\'\\n\\n  <!-- uncomment here to load jquery-ui\\n  <link rel="stylesheet" href="http://ajax.googleapis.com/ajax/libs/jqueryui/1.8.16/themes/base/jquery-ui.css" type="text/css" media="all" />\\n  <script src="http://ajax.googleapis.com/ajax/libs/jqueryui/1.8.16/jquery-ui.min.js" type="text/javascript"></script>\\n  uncomment to load jquery-ui //-->\\n</head>\\n<body>\\n  <div class="wrapper"><!-- for sticky footer -->\\n  \\n    <div class="topbar">\\n      <div class="container">    \\n        <div class="sixteen columns">\\n          <div id="navbar">\', escape=False)\nresponse.write(\'auth\' in globals() and auth.navbar(separators=(\' \',\' | \',\'\')))\nresponse.write(\'</div>\\n          \', escape=False)\nis_mobile=request.user_agent().is_mobile\nresponse.write(\'\\n\\t  \', escape=False)\nif response.menu:\n    response.write(\'\\n          <div id="menu">\\n             \', escape=False)\n    response.write(MENU(response.menu, _class=\'mobile-menu\' if is_mobile else \'sf-menu\',mobile=is_mobile))\n    response.write(\'\\n          </div>\\n          \', escape=False)\n    pass\nresponse.write(\'\\n        </div>\\n      </div>\\n    </div><!-- topbar -->\\n    \\n    <div class="flash">\', escape=False)\nresponse.write(response.flash or \'\')\nresponse.write(\'</div>\\n    \\n    <div class="header">\\n      <div class="container">         \\n        <div class="sixteen columns">\\n          <h1 class="remove-bottom" style="margin-top: .5em;">\\n          \', escape=False)\nresponse.write(response.title or request.application)\nresponse.write(\'\\n          </h1>\\n          <h5>\', escape=False)\nresponse.write(response.subtitle or \'\')\nresponse.write(\'</h5>\\n        </div>\\n        <div class="sixteen columns">\\n          <div class="statusbar clearfix">\\n            \', escape=False)\nresponse.write(\'\\n            <div class="breadcrumbs">\', escape=False)\nresponse.write(request.function.replace(\'_\', \' \').title())\nresponse.write(\'</div>\\n            \', escape=False)\nresponse.write(\'\\n            <!-- AddToAny BEGIN -->\\n            <div style="float:right; padding-top: .25em;" class="a2a_kit a2a_default_style">\\n            <a class="a2a_dd" href="http://www.addtoany.com/share_save">Share</a></div>\\n            <script type="text/javascript" src="http://static.addtoany.com/menu/page.js"></script>\\n            <!-- AddToAny END -->\\n          </div>\\n        </div>\\n      </div>\\n    </div>\\n\\n    <div class="main">\\n      <div class="container">                 \\n        \', escape=False)\nif left_sidebar_enabled:\n    response.write(\'\\n        <div class="four columns left-sidebar">\\n          \', escape=False)\n    response.write(\'\\n          <h3>Left Sidebar</h3>\\n          <p></p>\\n          \', escape=False)\n    response.write(\'\\n        </div>\\n        \', escape=False)\n    pass\nresponse.write(\'\\n        \\n        <div class="\', escape=False)\nresponse.write(middle_columns)\nresponse.write(\' columns center">\\n          \', escape=False)\nresponse.write(\'\\n          \', escape=False)\nresponse.write(\'\\r\\n<h3>Welcome to your page \', escape=False)\nresponse.write(username or anonymous)\nresponse.write(\'</h3>\\r\\n\\r\\n<br>Post a listing<br>\\r\\n<br>View my listings<br>\\r\\n<br>My Interests<br>\\r\\n<br>My Matches<br>\\r\\n<br>Search for listings by categories<br>\\r\\n\', escape=False)\nresponse.write(\'\\n          \', escape=False)\nresponse.write(\'\\n        </div>\\n        \\n        \', escape=False)\nif right_sidebar_enabled:\n    response.write(\'\\n        <div class="four columns">\\n          \', escape=False)\n    response.write(\'\\n          <h3>Right Sidebar</h3>\\n          <p></p>\\n          \', escape=False)\n    response.write(\'\\n        </div>    \\n        \', escape=False)\n    pass\nresponse.write(\'\\n        \\n      </div><!-- container -->\\n    </div><!-- main -->\\n    \\n    <div class="push"></div>\\n  </div><!-- wrapper -->\\n\\n  <div class="footer">\\n    <div class="container">    \\n      <div class="sixteen columns">\\n        \', escape=False)\nresponse.write(\' <!-- this is default footer -->\\n        <div class="footer-content clearfix">\\n          <div class="copyright">\', escape=False)\nresponse.write(T(\'Copyright\'))\nresponse.write(\' &#169; 2011</div>\\n          <div style="float: right;">\\n            <a href="http://www.web2py.com/">\\n            <img style="padding-bottom: 0;" src="\', escape=False)\nresponse.write(URL(\'static\',\'images/poweredby.png\'))\nresponse.write(\'"/>\\n            </a>\\n          </div>\\n        </div>\\n        \', escape=False)\nresponse.write(\'\\t\\n      </div>\\n    </div><!-- container -->\\n  </div><!-- footer -->\\n  \\n  <!--[if lt IE 7 ]>\\n\\t<script src="\', escape=False)\nresponse.write(URL(\'static\',\'js/dd_belatedpng.js\'))\nresponse.write(\'"></script>\\n\\t<script> DD_belatedPNG.fix(\\\'img, .png_bg\\\'); //fix any <img> or .png_bg background-images </script>\\n\\t<![endif]-->\\n  \', escape=False)\nif response.google_analytics_id:\n    response.write(\'<script type="text/javascript"> var _gaq = _gaq || []; _gaq.push([\\\'_setAccount\\\', \\\'\', escape=False)\n    response.write(response.google_analytics_id)\n    response.write("\']); _gaq.push([\'_trackPageview\']); (function() { var ga = document.createElement(\'script\'); ga.type = \'text/javascript\'; ga.async = true; ga.src = (\'https:\' == document.location.protocol ? \'https://ssl\' : \'http://www\') + \'.google-analytics.com/ga.js\'; var s = document.getElementsByTagName(\'script\')[0]; s.parentNode.insertBefore(ga, s); })(); </script> ", escape=False)\n    pass\nresponse.write(\'\\n</body>\\n</html>\\n\', escape=False)'
p7
sS'snapshot'
p8
(dp9
S'exception'
p10
(dp11
S'__hash__'
p12
S"<method-wrapper '__hash__' of exceptions.NameError object at 0x062527B0>"
p13
sS'__setattr__'
p14
S"<method-wrapper '__setattr__' of exceptions.NameError object at 0x062527B0>"
p15
sS'__reduce_ex__'
p16
S'<built-in method __reduce_ex__ of exceptions.NameError object at 0x062527B0>'
p17
sS'__getslice__'
p18
S"<method-wrapper '__getslice__' of exceptions.NameError object at 0x062527B0>"
p19
sS'__getitem__'
p20
S"<method-wrapper '__getitem__' of exceptions.NameError object at 0x062527B0>"
p21
sS'__setstate__'
p22
S'<built-in method __setstate__ of exceptions.NameError object at 0x062527B0>'
p23
sS'__reduce__'
p24
S'<built-in method __reduce__ of exceptions.NameError object at 0x062527B0>'
p25
sS'__str__'
p26
S"<method-wrapper '__str__' of exceptions.NameError object at 0x062527B0>"
p27
sS'args'
p28
S'("name \'anonymous\' is not defined",)'
p29
sS'__getattribute__'
p30
S"<method-wrapper '__getattribute__' of exceptions.NameError object at 0x062527B0>"
p31
sS'__class__'
p32
S"<type 'exceptions.NameError'>"
p33
sS'__delattr__'
p34
S"<method-wrapper '__delattr__' of exceptions.NameError object at 0x062527B0>"
p35
sS'__repr__'
p36
S"<method-wrapper '__repr__' of exceptions.NameError object at 0x062527B0>"
p37
sS'__dict__'
p38
S'{}'
p39
sS'__doc__'
p40
S"'Name not found globally.'"
p41
sS'__init__'
p42
S"<method-wrapper '__init__' of exceptions.NameError object at 0x062527B0>"
p43
sS'__new__'
p44
S'<built-in method __new__ of type object at 0x1E1CD8D8>'
p45
ssS'evalue'
p46
S"name 'anonymous' is not defined"
p47
sS'request'
p48
ccopy_reg
_reconstructor
p49
(cgluon.html
BEAUTIFY
p50
c__builtin__
object
p51
NtRp52
(dp53
S'attributes'
p54
(dp55
sS'components'
p56
(lp57
g49
(cgluon.html
TABLE
p58
g51
NtRp59
(dp60
g54
(dp61
S'level'
p62
I5
ssS'parent'
p63
Nsg56
(lp64
g49
(cgluon.html
TR
p65
g51
NtRp66
(dp67
g54
(dp68
sg63
g59
sg56
(lp69
g49
(cgluon.html
TD
p70
g51
NtRp71
(dp72
g54
(dp73
S'_style'
p74
S'font-weight:bold;vertical-align:top'
p75
ssg63
g66
sg56
(lp76
S'ajax'
p77
asbag49
(g70
g51
NtRp78
(dp79
g54
(dp80
S'_valign'
p81
S'top'
p82
ssg63
g66
sg56
(lp83
S':'
asbag49
(g70
g51
NtRp84
(dp85
g54
(dp86
sg63
g66
sg56
(lp87
g49
(g50
g51
NtRp88
(dp89
g54
(dp90
g62
I5
ssg63
g84
sg56
(lp91
S'False'
p92
asbasbasbag49
(g65
g51
NtRp93
(dp94
g54
(dp95
sg63
g59
sg56
(lp96
g49
(g70
g51
NtRp97
(dp98
g54
(dp99
g74
g75
ssg63
g93
sg56
(lp100
S'application'
p101
asbag49
(g70
g51
NtRp102
(dp103
g54
(dp104
g81
g82
ssg63
g93
sg56
(lp105
S':'
asbag49
(g70
g51
NtRp106
(dp107
g54
(dp108
sg63
g93
sg56
(lp109
g49
(g50
g51
NtRp110
(dp111
g54
(dp112
g62
I5
ssg63
g106
sg56
(lp113
S'SlugBarter'
p114
asbasbasbag49
(g65
g51
NtRp115
(dp116
g54
(dp117
sg63
g59
sg56
(lp118
g49
(g70
g51
NtRp119
(dp120
g54
(dp121
g74
g75
ssg63
g115
sg56
(lp122
g28
asbag49
(g70
g51
NtRp123
(dp124
g54
(dp125
g81
g82
ssg63
g115
sg56
(lp126
S':'
asbag49
(g70
g51
NtRp127
(dp128
g54
(dp129
sg63
g115
sg56
(lp130
g49
(g50
g51
NtRp131
(dp132
g54
(dp133
g62
I5
ssg63
g127
sg56
(lp134
g49
(g58
g51
NtRp135
(dp136
g54
(dp137
g62
I4
ssg63
Nsg56
(lp138
sbasbasbasbag49
(g65
g51
NtRp139
(dp140
g54
(dp141
sg63
g59
sg56
(lp142
g49
(g70
g51
NtRp143
(dp144
g54
(dp145
g74
g75
ssg63
g139
sg56
(lp146
S'body'
p147
asbag49
(g70
g51
NtRp148
(dp149
g54
(dp150
g81
g82
ssg63
g139
sg56
(lp151
S':'
asbag49
(g70
g51
NtRp152
(dp153
g54
(dp154
sg63
g139
sg56
(lp155
g49
(g50
g51
NtRp156
(dp157
g54
(dp158
g62
I5
ssg63
g152
sg56
(lp159
S'<cStringIO.StringO object at 0x060A4D00>'
p160
asbasbasbag49
(g65
g51
NtRp161
(dp162
g54
(dp163
sg63
g59
sg56
(lp164
g49
(g70
g51
NtRp165
(dp166
g54
(dp167
g74
g75
ssg63
g161
sg56
(lp168
S'client'
p169
asbag49
(g70
g51
NtRp170
(dp171
g54
(dp172
g81
g82
ssg63
g161
sg56
(lp173
S':'
asbag49
(g70
g51
NtRp174
(dp175
g54
(dp176
sg63
g161
sg56
(lp177
g49
(g50
g51
NtRp178
(dp179
g54
(dp180
g62
I5
ssg63
g174
sg56
(lp181
S'127.0.0.1'
p182
asbasbasbag49
(g65
g51
NtRp183
(dp184
g54
(dp185
sg63
g59
sg56
(lp186
g49
(g70
g51
NtRp187
(dp188
g54
(dp189
g74
g75
ssg63
g183
sg56
(lp190
S'controller'
p191
asbag49
(g70
g51
NtRp192
(dp193
g54
(dp194
g81
g82
ssg63
g183
sg56
(lp195
S':'
asbag49
(g70
g51
NtRp196
(dp197
g54
(dp198
sg63
g183
sg56
(lp199
g49
(g50
g51
NtRp200
(dp201
g54
(dp202
g62
I5
ssg63
g196
sg56
(lp203
S'default'
p204
asbasbasbag49
(g65
g51
NtRp205
(dp206
g54
(dp207
sg63
g59
sg56
(lp208
g49
(g70
g51
NtRp209
(dp210
g54
(dp211
g74
g75
ssg63
g205
sg56
(lp212
S'cookies'
p213
asbag49
(g70
g51
NtRp214
(dp215
g54
(dp216
g81
g82
ssg63
g205
sg56
(lp217
S':'
asbag49
(g70
g51
NtRp218
(dp219
g54
(dp220
sg63
g205
sg56
(lp221
g49
(g50
g51
NtRp222
(dp223
g54
(dp224
g62
I5
ssg63
g218
sg56
(lp225
g49
(g58
g51
NtRp226
(dp227
g54
(dp228
g62
I4
ssg63
Nsg56
(lp229
g49
(g65
g51
NtRp230
(dp231
g54
(dp232
sg63
g226
sg56
(lp233
g49
(g70
g51
NtRp234
(dp235
g54
(dp236
g74
g75
ssg63
g230
sg56
(lp237
S'session_id_admin'
p238
asbag49
(g70
g51
NtRp239
(dp240
g54
(dp241
g81
g82
ssg63
g230
sg56
(lp242
S':'
asbag49
(g70
g51
NtRp243
(dp244
g54
(dp245
sg63
g230
sg56
(lp246
g49
(g50
g51
NtRp247
(dp248
g54
(dp249
g62
I4
ssg63
g243
sg56
(lp250
g49
(g58
g51
NtRp251
(dp252
g54
(dp253
g62
I3
ssg63
Nsg56
(lp254
g49
(g65
g51
NtRp255
(dp256
g54
(dp257
sg63
g251
sg56
(lp258
g49
(g70
g51
NtRp259
(dp260
g54
(dp261
g74
g75
ssg63
g255
sg56
(lp262
S'comment'
p263
asbag49
(g70
g51
NtRp264
(dp265
g54
(dp266
g81
g82
ssg63
g255
sg56
(lp267
S':'
asbag49
(g70
g51
NtRp268
(dp269
g54
(dp270
sg63
g255
sg56
(lp271
g49
(g50
g51
NtRp272
(dp273
g54
(dp274
g62
I3
ssg63
g268
sg56
(lp275
S''
asbasbasbag49
(g65
g51
NtRp276
(dp277
g54
(dp278
sg63
g251
sg56
(lp279
g49
(g70
g51
NtRp280
(dp281
g54
(dp282
g74
g75
ssg63
g276
sg56
(lp283
S'domain'
p284
asbag49
(g70
g51
NtRp285
(dp286
g54
(dp287
g81
g82
ssg63
g276
sg56
(lp288
S':'
asbag49
(g70
g51
NtRp289
(dp290
g54
(dp291
sg63
g276
sg56
(lp292
g49
(g50
g51
NtRp293
(dp294
g54
(dp295
g62
I3
ssg63
g289
sg56
(lp296
S''
asbasbasbag49
(g65
g51
NtRp297
(dp298
g54
(dp299
sg63
g251
sg56
(lp300
g49
(g70
g51
NtRp301
(dp302
g54
(dp303
g74
g75
ssg63
g297
sg56
(lp304
S'expires'
p305
asbag49
(g70
g51
NtRp306
(dp307
g54
(dp308
g81
g82
ssg63
g297
sg56
(lp309
S':'
asbag49
(g70
g51
NtRp310
(dp311
g54
(dp312
sg63
g297
sg56
(lp313
g49
(g50
g51
NtRp314
(dp315
g54
(dp316
g62
I3
ssg63
g310
sg56
(lp317
S''
asbasbasbag49
(g65
g51
NtRp318
(dp319
g54
(dp320
sg63
g251
sg56
(lp321
g49
(g70
g51
NtRp322
(dp323
g54
(dp324
g74
g75
ssg63
g318
sg56
(lp325
S'max-age'
p326
asbag49
(g70
g51
NtRp327
(dp328
g54
(dp329
g81
g82
ssg63
g318
sg56
(lp330
S':'
asbag49
(g70
g51
NtRp331
(dp332
g54
(dp333
sg63
g318
sg56
(lp334
g49
(g50
g51
NtRp335
(dp336
g54
(dp337
g62
I3
ssg63
g331
sg56
(lp338
S''
asbasbasbag49
(g65
g51
NtRp339
(dp340
g54
(dp341
sg63
g251
sg56
(lp342
g49
(g70
g51
NtRp343
(dp344
g54
(dp345
g74
g75
ssg63
g339
sg56
(lp346
S'path'
p347
asbag49
(g70
g51
NtRp348
(dp349
g54
(dp350
g81
g82
ssg63
g339
sg56
(lp351
S':'
asbag49
(g70
g51
NtRp352
(dp353
g54
(dp354
sg63
g339
sg56
(lp355
g49
(g50
g51
NtRp356
(dp357
g54
(dp358
g62
I3
ssg63
g352
sg56
(lp359
S''
asbasbasbag49
(g65
g51
NtRp360
(dp361
g54
(dp362
sg63
g251
sg56
(lp363
g49
(g70
g51
NtRp364
(dp365
g54
(dp366
g74
g75
ssg63
g360
sg56
(lp367
S'secure'
p368
asbag49
(g70
g51
NtRp369
(dp370
g54
(dp371
g81
g82
ssg63
g360
sg56
(lp372
S':'
asbag49
(g70
g51
NtRp373
(dp374
g54
(dp375
sg63
g360
sg56
(lp376
g49
(g50
g51
NtRp377
(dp378
g54
(dp379
g62
I3
ssg63
g373
sg56
(lp380
S''
asbasbasbag49
(g65
g51
NtRp381
(dp382
g54
(dp383
sg63
g251
sg56
(lp384
g49
(g70
g51
NtRp385
(dp386
g54
(dp387
g74
g75
ssg63
g381
sg56
(lp388
S'version'
p389
asbag49
(g70
g51
NtRp390
(dp391
g54
(dp392
g81
g82
ssg63
g381
sg56
(lp393
S':'
asbag49
(g70
g51
NtRp394
(dp395
g54
(dp396
sg63
g381
sg56
(lp397
g49
(g50
g51
NtRp398
(dp399
g54
(dp400
g62
I3
ssg63
g394
sg56
(lp401
S''
asbasbasbasbasbasbasbag49
(g65
g51
NtRp402
(dp403
g54
(dp404
sg63
g226
sg56
(lp405
g49
(g70
g51
NtRp406
(dp407
g54
(dp408
g74
g75
ssg63
g402
sg56
(lp409
S'session_id_onlinenotes_p1_'
p410
asbag49
(g70
g51
NtRp411
(dp412
g54
(dp413
g81
g82
ssg63
g402
sg56
(lp414
S':'
asbag49
(g70
g51
NtRp415
(dp416
g54
(dp417
sg63
g402
sg56
(lp418
g49
(g50
g51
NtRp419
(dp420
g54
(dp421
g62
I4
ssg63
g415
sg56
(lp422
g49
(g58
g51
NtRp423
(dp424
g54
(dp425
g62
I3
ssg63
Nsg56
(lp426
g49
(g65
g51
NtRp427
(dp428
g54
(dp429
sg63
g423
sg56
(lp430
g49
(g70
g51
NtRp431
(dp432
g54
(dp433
g74
g75
ssg63
g427
sg56
(lp434
g263
asbag49
(g70
g51
NtRp435
(dp436
g54
(dp437
g81
g82
ssg63
g427
sg56
(lp438
S':'
asbag49
(g70
g51
NtRp439
(dp440
g54
(dp441
sg63
g427
sg56
(lp442
g49
(g50
g51
NtRp443
(dp444
g54
(dp445
g62
I3
ssg63
g439
sg56
(lp446
S''
asbasbasbag49
(g65
g51
NtRp447
(dp448
g54
(dp449
sg63
g423
sg56
(lp450
g49
(g70
g51
NtRp451
(dp452
g54
(dp453
g74
g75
ssg63
g447
sg56
(lp454
g284
asbag49
(g70
g51
NtRp455
(dp456
g54
(dp457
g81
g82
ssg63
g447
sg56
(lp458
S':'
asbag49
(g70
g51
NtRp459
(dp460
g54
(dp461
sg63
g447
sg56
(lp462
g49
(g50
g51
NtRp463
(dp464
g54
(dp465
g62
I3
ssg63
g459
sg56
(lp466
S''
asbasbasbag49
(g65
g51
NtRp467
(dp468
g54
(dp469
sg63
g423
sg56
(lp470
g49
(g70
g51
NtRp471
(dp472
g54
(dp473
g74
g75
ssg63
g467
sg56
(lp474
g305
asbag49
(g70
g51
NtRp475
(dp476
g54
(dp477
g81
g82
ssg63
g467
sg56
(lp478
S':'
asbag49
(g70
g51
NtRp479
(dp480
g54
(dp481
sg63
g467
sg56
(lp482
g49
(g50
g51
NtRp483
(dp484
g54
(dp485
g62
I3
ssg63
g479
sg56
(lp486
S''
asbasbasbag49
(g65
g51
NtRp487
(dp488
g54
(dp489
sg63
g423
sg56
(lp490
g49
(g70
g51
NtRp491
(dp492
g54
(dp493
g74
g75
ssg63
g487
sg56
(lp494
g326
asbag49
(g70
g51
NtRp495
(dp496
g54
(dp497
g81
g82
ssg63
g487
sg56
(lp498
S':'
asbag49
(g70
g51
NtRp499
(dp500
g54
(dp501
sg63
g487
sg56
(lp502
g49
(g50
g51
NtRp503
(dp504
g54
(dp505
g62
I3
ssg63
g499
sg56
(lp506
S''
asbasbasbag49
(g65
g51
NtRp507
(dp508
g54
(dp509
sg63
g423
sg56
(lp510
g49
(g70
g51
NtRp511
(dp512
g54
(dp513
g74
g75
ssg63
g507
sg56
(lp514
g347
asbag49
(g70
g51
NtRp515
(dp516
g54
(dp517
g81
g82
ssg63
g507
sg56
(lp518
S':'
asbag49
(g70
g51
NtRp519
(dp520
g54
(dp521
sg63
g507
sg56
(lp522
g49
(g50
g51
NtRp523
(dp524
g54
(dp525
g62
I3
ssg63
g519
sg56
(lp526
S''
asbasbasbag49
(g65
g51
NtRp527
(dp528
g54
(dp529
sg63
g423
sg56
(lp530
g49
(g70
g51
NtRp531
(dp532
g54
(dp533
g74
g75
ssg63
g527
sg56
(lp534
g368
asbag49
(g70
g51
NtRp535
(dp536
g54
(dp537
g81
g82
ssg63
g527
sg56
(lp538
S':'
asbag49
(g70
g51
NtRp539
(dp540
g54
(dp541
sg63
g527
sg56
(lp542
g49
(g50
g51
NtRp543
(dp544
g54
(dp545
g62
I3
ssg63
g539
sg56
(lp546
S''
asbasbasbag49
(g65
g51
NtRp547
(dp548
g54
(dp549
sg63
g423
sg56
(lp550
g49
(g70
g51
NtRp551
(dp552
g54
(dp553
g74
g75
ssg63
g547
sg56
(lp554
g389
asbag49
(g70
g51
NtRp555
(dp556
g54
(dp557
g81
g82
ssg63
g547
sg56
(lp558
S':'
asbag49
(g70
g51
NtRp559
(dp560
g54
(dp561
sg63
g547
sg56
(lp562
g49
(g50
g51
NtRp563
(dp564
g54
(dp565
g62
I3
ssg63
g559
sg56
(lp566
S''
asbasbasbasbasbasbasbag49
(g65
g51
NtRp567
(dp568
g54
(dp569
sg63
g226
sg56
(lp570
g49
(g70
g51
NtRp571
(dp572
g54
(dp573
g74
g75
ssg63
g567
sg56
(lp574
S'session_id_slug_register_page'
p575
asbag49
(g70
g51
NtRp576
(dp577
g54
(dp578
g81
g82
ssg63
g567
sg56
(lp579
S':'
asbag49
(g70
g51
NtRp580
(dp581
g54
(dp582
sg63
g567
sg56
(lp583
g49
(g50
g51
NtRp584
(dp585
g54
(dp586
g62
I4
ssg63
g580
sg56
(lp587
g49
(g58
g51
NtRp588
(dp589
g54
(dp590
g62
I3
ssg63
Nsg56
(lp591
g49
(g65
g51
NtRp592
(dp593
g54
(dp594
sg63
g588
sg56
(lp595
g49
(g70
g51
NtRp596
(dp597
g54
(dp598
g74
g75
ssg63
g592
sg56
(lp599
g263
asbag49
(g70
g51
NtRp600
(dp601
g54
(dp602
g81
g82
ssg63
g592
sg56
(lp603
S':'
asbag49
(g70
g51
NtRp604
(dp605
g54
(dp606
sg63
g592
sg56
(lp607
g49
(g50
g51
NtRp608
(dp609
g54
(dp610
g62
I3
ssg63
g604
sg56
(lp611
S''
asbasbasbag49
(g65
g51
NtRp612
(dp613
g54
(dp614
sg63
g588
sg56
(lp615
g49
(g70
g51
NtRp616
(dp617
g54
(dp618
g74
g75
ssg63
g612
sg56
(lp619
g284
asbag49
(g70
g51
NtRp620
(dp621
g54
(dp622
g81
g82
ssg63
g612
sg56
(lp623
S':'
asbag49
(g70
g51
NtRp624
(dp625
g54
(dp626
sg63
g612
sg56
(lp627
g49
(g50
g51
NtRp628
(dp629
g54
(dp630
g62
I3
ssg63
g624
sg56
(lp631
S''
asbasbasbag49
(g65
g51
NtRp632
(dp633
g54
(dp634
sg63
g588
sg56
(lp635
g49
(g70
g51
NtRp636
(dp637
g54
(dp638
g74
g75
ssg63
g632
sg56
(lp639
g305
asbag49
(g70
g51
NtRp640
(dp641
g54
(dp642
g81
g82
ssg63
g632
sg56
(lp643
S':'
asbag49
(g70
g51
NtRp644
(dp645
g54
(dp646
sg63
g632
sg56
(lp647
g49
(g50
g51
NtRp648
(dp649
g54
(dp650
g62
I3
ssg63
g644
sg56
(lp651
S''
asbasbasbag49
(g65
g51
NtRp652
(dp653
g54
(dp654
sg63
g588
sg56
(lp655
g49
(g70
g51
NtRp656
(dp657
g54
(dp658
g74
g75
ssg63
g652
sg56
(lp659
g326
asbag49
(g70
g51
NtRp660
(dp661
g54
(dp662
g81
g82
ssg63
g652
sg56
(lp663
S':'
asbag49
(g70
g51
NtRp664
(dp665
g54
(dp666
sg63
g652
sg56
(lp667
g49
(g50
g51
NtRp668
(dp669
g54
(dp670
g62
I3
ssg63
g664
sg56
(lp671
S''
asbasbasbag49
(g65
g51
NtRp672
(dp673
g54
(dp674
sg63
g588
sg56
(lp675
g49
(g70
g51
NtRp676
(dp677
g54
(dp678
g74
g75
ssg63
g672
sg56
(lp679
g347
asbag49
(g70
g51
NtRp680
(dp681
g54
(dp682
g81
g82
ssg63
g672
sg56
(lp683
S':'
asbag49
(g70
g51
NtRp684
(dp685
g54
(dp686
sg63
g672
sg56
(lp687
g49
(g50
g51
NtRp688
(dp689
g54
(dp690
g62
I3
ssg63
g684
sg56
(lp691
S''
asbasbasbag49
(g65
g51
NtRp692
(dp693
g54
(dp694
sg63
g588
sg56
(lp695
g49
(g70
g51
NtRp696
(dp697
g54
(dp698
g74
g75
ssg63
g692
sg56
(lp699
g368
asbag49
(g70
g51
NtRp700
(dp701
g54
(dp702
g81
g82
ssg63
g692
sg56
(lp703
S':'
asbag49
(g70
g51
NtRp704
(dp705
g54
(dp706
sg63
g692
sg56
(lp707
g49
(g50
g51
NtRp708
(dp709
g54
(dp710
g62
I3
ssg63
g704
sg56
(lp711
S''
asbasbasbag49
(g65
g51
NtRp712
(dp713
g54
(dp714
sg63
g588
sg56
(lp715
g49
(g70
g51
NtRp716
(dp717
g54
(dp718
g74
g75
ssg63
g712
sg56
(lp719
g389
asbag49
(g70
g51
NtRp720
(dp721
g54
(dp722
g81
g82
ssg63
g712
sg56
(lp723
S':'
asbag49
(g70
g51
NtRp724
(dp725
g54
(dp726
sg63
g712
sg56
(lp727
g49
(g50
g51
NtRp728
(dp729
g54
(dp730
g62
I3
ssg63
g724
sg56
(lp731
S''
asbasbasbasbasbasbasbag49
(g65
g51
NtRp732
(dp733
g54
(dp734
sg63
g226
sg56
(lp735
g49
(g70
g51
NtRp736
(dp737
g54
(dp738
g74
g75
ssg63
g732
sg56
(lp739
S'session_id_slugbarter'
p740
asbag49
(g70
g51
NtRp741
(dp742
g54
(dp743
g81
g82
ssg63
g732
sg56
(lp744
S':'
asbag49
(g70
g51
NtRp745
(dp746
g54
(dp747
sg63
g732
sg56
(lp748
g49
(g50
g51
NtRp749
(dp750
g54
(dp751
g62
I4
ssg63
g745
sg56
(lp752
g49
(g58
g51
NtRp753
(dp754
g54
(dp755
g62
I3
ssg63
Nsg56
(lp756
g49
(g65
g51
NtRp757
(dp758
g54
(dp759
sg63
g753
sg56
(lp760
g49
(g70
g51
NtRp761
(dp762
g54
(dp763
g74
g75
ssg63
g757
sg56
(lp764
g263
asbag49
(g70
g51
NtRp765
(dp766
g54
(dp767
g81
g82
ssg63
g757
sg56
(lp768
S':'
asbag49
(g70
g51
NtRp769
(dp770
g54
(dp771
sg63
g757
sg56
(lp772
g49
(g50
g51
NtRp773
(dp774
g54
(dp775
g62
I3
ssg63
g769
sg56
(lp776
S''
asbasbasbag49
(g65
g51
NtRp777
(dp778
g54
(dp779
sg63
g753
sg56
(lp780
g49
(g70
g51
NtRp781
(dp782
g54
(dp783
g74
g75
ssg63
g777
sg56
(lp784
g284
asbag49
(g70
g51
NtRp785
(dp786
g54
(dp787
g81
g82
ssg63
g777
sg56
(lp788
S':'
asbag49
(g70
g51
NtRp789
(dp790
g54
(dp791
sg63
g777
sg56
(lp792
g49
(g50
g51
NtRp793
(dp794
g54
(dp795
g62
I3
ssg63
g789
sg56
(lp796
S''
asbasbasbag49
(g65
g51
NtRp797
(dp798
g54
(dp799
sg63
g753
sg56
(lp800
g49
(g70
g51
NtRp801
(dp802
g54
(dp803
g74
g75
ssg63
g797
sg56
(lp804
g305
asbag49
(g70
g51
NtRp805
(dp806
g54
(dp807
g81
g82
ssg63
g797
sg56
(lp808
S':'
asbag49
(g70
g51
NtRp809
(dp810
g54
(dp811
sg63
g797
sg56
(lp812
g49
(g50
g51
NtRp813
(dp814
g54
(dp815
g62
I3
ssg63
g809
sg56
(lp816
S''
asbasbasbag49
(g65
g51
NtRp817
(dp818
g54
(dp819
sg63
g753
sg56
(lp820
g49
(g70
g51
NtRp821
(dp822
g54
(dp823
g74
g75
ssg63
g817
sg56
(lp824
g326
asbag49
(g70
g51
NtRp825
(dp826
g54
(dp827
g81
g82
ssg63
g817
sg56
(lp828
S':'
asbag49
(g70
g51
NtRp829
(dp830
g54
(dp831
sg63
g817
sg56
(lp832
g49
(g50
g51
NtRp833
(dp834
g54
(dp835
g62
I3
ssg63
g829
sg56
(lp836
S''
asbasbasbag49
(g65
g51
NtRp837
(dp838
g54
(dp839
sg63
g753
sg56
(lp840
g49
(g70
g51
NtRp841
(dp842
g54
(dp843
g74
g75
ssg63
g837
sg56
(lp844
g347
asbag49
(g70
g51
NtRp845
(dp846
g54
(dp847
g81
g82
ssg63
g837
sg56
(lp848
S':'
asbag49
(g70
g51
NtRp849
(dp850
g54
(dp851
sg63
g837
sg56
(lp852
g49
(g50
g51
NtRp853
(dp854
g54
(dp855
g62
I3
ssg63
g849
sg56
(lp856
S''
asbasbasbag49
(g65
g51
NtRp857
(dp858
g54
(dp859
sg63
g753
sg56
(lp860
g49
(g70
g51
NtRp861
(dp862
g54
(dp863
g74
g75
ssg63
g857
sg56
(lp864
g368
asbag49
(g70
g51
NtRp865
(dp866
g54
(dp867
g81
g82
ssg63
g857
sg56
(lp868
S':'
asbag49
(g70
g51
NtRp869
(dp870
g54
(dp871
sg63
g857
sg56
(lp872
g49
(g50
g51
NtRp873
(dp874
g54
(dp875
g62
I3
ssg63
g869
sg56
(lp876
S''
asbasbasbag49
(g65
g51
NtRp877
(dp878
g54
(dp879
sg63
g753
sg56
(lp880
g49
(g70
g51
NtRp881
(dp882
g54
(dp883
g74
g75
ssg63
g877
sg56
(lp884
g389
asbag49
(g70
g51
NtRp885
(dp886
g54
(dp887
g81
g82
ssg63
g877
sg56
(lp888
S':'
asbag49
(g70
g51
NtRp889
(dp890
g54
(dp891
sg63
g877
sg56
(lp892
g49
(g50
g51
NtRp893
(dp894
g54
(dp895
g62
I3
ssg63
g889
sg56
(lp896
S''
asbasbasbasbasbasbasbag49
(g65
g51
NtRp897
(dp898
g54
(dp899
sg63
g226
sg56
(lp900
g49
(g70
g51
NtRp901
(dp902
g54
(dp903
g74
g75
ssg63
g897
sg56
(lp904
S'session_id_testapp'
p905
asbag49
(g70
g51
NtRp906
(dp907
g54
(dp908
g81
g82
ssg63
g897
sg56
(lp909
S':'
asbag49
(g70
g51
NtRp910
(dp911
g54
(dp912
sg63
g897
sg56
(lp913
g49
(g50
g51
NtRp914
(dp915
g54
(dp916
g62
I4
ssg63
g910
sg56
(lp917
g49
(g58
g51
NtRp918
(dp919
g54
(dp920
g62
I3
ssg63
Nsg56
(lp921
g49
(g65
g51
NtRp922
(dp923
g54
(dp924
sg63
g918
sg56
(lp925
g49
(g70
g51
NtRp926
(dp927
g54
(dp928
g74
g75
ssg63
g922
sg56
(lp929
g263
asbag49
(g70
g51
NtRp930
(dp931
g54
(dp932
g81
g82
ssg63
g922
sg56
(lp933
S':'
asbag49
(g70
g51
NtRp934
(dp935
g54
(dp936
sg63
g922
sg56
(lp937
g49
(g50
g51
NtRp938
(dp939
g54
(dp940
g62
I3
ssg63
g934
sg56
(lp941
S''
asbasbasbag49
(g65
g51
NtRp942
(dp943
g54
(dp944
sg63
g918
sg56
(lp945
g49
(g70
g51
NtRp946
(dp947
g54
(dp948
g74
g75
ssg63
g942
sg56
(lp949
g284
asbag49
(g70
g51
NtRp950
(dp951
g54
(dp952
g81
g82
ssg63
g942
sg56
(lp953
S':'
asbag49
(g70
g51
NtRp954
(dp955
g54
(dp956
sg63
g942
sg56
(lp957
g49
(g50
g51
NtRp958
(dp959
g54
(dp960
g62
I3
ssg63
g954
sg56
(lp961
S''
asbasbasbag49
(g65
g51
NtRp962
(dp963
g54
(dp964
sg63
g918
sg56
(lp965
g49
(g70
g51
NtRp966
(dp967
g54
(dp968
g74
g75
ssg63
g962
sg56
(lp969
g305
asbag49
(g70
g51
NtRp970
(dp971
g54
(dp972
g81
g82
ssg63
g962
sg56
(lp973
S':'
asbag49
(g70
g51
NtRp974
(dp975
g54
(dp976
sg63
g962
sg56
(lp977
g49
(g50
g51
NtRp978
(dp979
g54
(dp980
g62
I3
ssg63
g974
sg56
(lp981
S''
asbasbasbag49
(g65
g51
NtRp982
(dp983
g54
(dp984
sg63
g918
sg56
(lp985
g49
(g70
g51
NtRp986
(dp987
g54
(dp988
g74
g75
ssg63
g982
sg56
(lp989
g326
asbag49
(g70
g51
NtRp990
(dp991
g54
(dp992
g81
g82
ssg63
g982
sg56
(lp993
S':'
asbag49
(g70
g51
NtRp994
(dp995
g54
(dp996
sg63
g982
sg56
(lp997
g49
(g50
g51
NtRp998
(dp999
g54
(dp1000
g62
I3
ssg63
g994
sg56
(lp1001
S''
asbasbasbag49
(g65
g51
NtRp1002
(dp1003
g54
(dp1004
sg63
g918
sg56
(lp1005
g49
(g70
g51
NtRp1006
(dp1007
g54
(dp1008
g74
g75
ssg63
g1002
sg56
(lp1009
g347
asbag49
(g70
g51
NtRp1010
(dp1011
g54
(dp1012
g81
g82
ssg63
g1002
sg56
(lp1013
S':'
asbag49
(g70
g51
NtRp1014
(dp1015
g54
(dp1016
sg63
g1002
sg56
(lp1017
g49
(g50
g51
NtRp1018
(dp1019
g54
(dp1020
g62
I3
ssg63
g1014
sg56
(lp1021
S''
asbasbasbag49
(g65
g51
NtRp1022
(dp1023
g54
(dp1024
sg63
g918
sg56
(lp1025
g49
(g70
g51
NtRp1026
(dp1027
g54
(dp1028
g74
g75
ssg63
g1022
sg56
(lp1029
g368
asbag49
(g70
g51
NtRp1030
(dp1031
g54
(dp1032
g81
g82
ssg63
g1022
sg56
(lp1033
S':'
asbag49
(g70
g51
NtRp1034
(dp1035
g54
(dp1036
sg63
g1022
sg56
(lp1037
g49
(g50
g51
NtRp1038
(dp1039
g54
(dp1040
g62
I3
ssg63
g1034
sg56
(lp1041
S''
asbasbasbag49
(g65
g51
NtRp1042
(dp1043
g54
(dp1044
sg63
g918
sg56
(lp1045
g49
(g70
g51
NtRp1046
(dp1047
g54
(dp1048
g74
g75
ssg63
g1042
sg56
(lp1049
g389
asbag49
(g70
g51
NtRp1050
(dp1051
g54
(dp1052
g81
g82
ssg63
g1042
sg56
(lp1053
S':'
asbag49
(g70
g51
NtRp1054
(dp1055
g54
(dp1056
sg63
g1042
sg56
(lp1057
g49
(g50
g51
NtRp1058
(dp1059
g54
(dp1060
g62
I3
ssg63
g1054
sg56
(lp1061
S''
asbasbasbasbasbasbasbag49
(g65
g51
NtRp1062
(dp1063
g54
(dp1064
sg63
g226
sg56
(lp1065
g49
(g70
g51
NtRp1066
(dp1067
g54
(dp1068
g74
g75
ssg63
g1062
sg56
(lp1069
S'session_id_welcome'
p1070
asbag49
(g70
g51
NtRp1071
(dp1072
g54
(dp1073
g81
g82
ssg63
g1062
sg56
(lp1074
S':'
asbag49
(g70
g51
NtRp1075
(dp1076
g54
(dp1077
sg63
g1062
sg56
(lp1078
g49
(g50
g51
NtRp1079
(dp1080
g54
(dp1081
g62
I4
ssg63
g1075
sg56
(lp1082
g49
(g58
g51
NtRp1083
(dp1084
g54
(dp1085
g62
I3
ssg63
Nsg56
(lp1086
g49
(g65
g51
NtRp1087
(dp1088
g54
(dp1089
sg63
g1083
sg56
(lp1090
g49
(g70
g51
NtRp1091
(dp1092
g54
(dp1093
g74
g75
ssg63
g1087
sg56
(lp1094
g263
asbag49
(g70
g51
NtRp1095
(dp1096
g54
(dp1097
g81
g82
ssg63
g1087
sg56
(lp1098
S':'
asbag49
(g70
g51
NtRp1099
(dp1100
g54
(dp1101
sg63
g1087
sg56
(lp1102
g49
(g50
g51
NtRp1103
(dp1104
g54
(dp1105
g62
I3
ssg63
g1099
sg56
(lp1106
S''
asbasbasbag49
(g65
g51
NtRp1107
(dp1108
g54
(dp1109
sg63
g1083
sg56
(lp1110
g49
(g70
g51
NtRp1111
(dp1112
g54
(dp1113
g74
g75
ssg63
g1107
sg56
(lp1114
g284
asbag49
(g70
g51
NtRp1115
(dp1116
g54
(dp1117
g81
g82
ssg63
g1107
sg56
(lp1118
S':'
asbag49
(g70
g51
NtRp1119
(dp1120
g54
(dp1121
sg63
g1107
sg56
(lp1122
g49
(g50
g51
NtRp1123
(dp1124
g54
(dp1125
g62
I3
ssg63
g1119
sg56
(lp1126
S''
asbasbasbag49
(g65
g51
NtRp1127
(dp1128
g54
(dp1129
sg63
g1083
sg56
(lp1130
g49
(g70
g51
NtRp1131
(dp1132
g54
(dp1133
g74
g75
ssg63
g1127
sg56
(lp1134
g305
asbag49
(g70
g51
NtRp1135
(dp1136
g54
(dp1137
g81
g82
ssg63
g1127
sg56
(lp1138
S':'
asbag49
(g70
g51
NtRp1139
(dp1140
g54
(dp1141
sg63
g1127
sg56
(lp1142
g49
(g50
g51
NtRp1143
(dp1144
g54
(dp1145
g62
I3
ssg63
g1139
sg56
(lp1146
S''
asbasbasbag49
(g65
g51
NtRp1147
(dp1148
g54
(dp1149
sg63
g1083
sg56
(lp1150
g49
(g70
g51
NtRp1151
(dp1152
g54
(dp1153
g74
g75
ssg63
g1147
sg56
(lp1154
g326
asbag49
(g70
g51
NtRp1155
(dp1156
g54
(dp1157
g81
g82
ssg63
g1147
sg56
(lp1158
S':'
asbag49
(g70
g51
NtRp1159
(dp1160
g54
(dp1161
sg63
g1147
sg56
(lp1162
g49
(g50
g51
NtRp1163
(dp1164
g54
(dp1165
g62
I3
ssg63
g1159
sg56
(lp1166
S''
asbasbasbag49
(g65
g51
NtRp1167
(dp1168
g54
(dp1169
sg63
g1083
sg56
(lp1170
g49
(g70
g51
NtRp1171
(dp1172
g54
(dp1173
g74
g75
ssg63
g1167
sg56
(lp1174
g347
asbag49
(g70
g51
NtRp1175
(dp1176
g54
(dp1177
g81
g82
ssg63
g1167
sg56
(lp1178
S':'
asbag49
(g70
g51
NtRp1179
(dp1180
g54
(dp1181
sg63
g1167
sg56
(lp1182
g49
(g50
g51
NtRp1183
(dp1184
g54
(dp1185
g62
I3
ssg63
g1179
sg56
(lp1186
S''
asbasbasbag49
(g65
g51
NtRp1187
(dp1188
g54
(dp1189
sg63
g1083
sg56
(lp1190
g49
(g70
g51
NtRp1191
(dp1192
g54
(dp1193
g74
g75
ssg63
g1187
sg56
(lp1194
g368
asbag49
(g70
g51
NtRp1195
(dp1196
g54
(dp1197
g81
g82
ssg63
g1187
sg56
(lp1198
S':'
asbag49
(g70
g51
NtRp1199
(dp1200
g54
(dp1201
sg63
g1187
sg56
(lp1202
g49
(g50
g51
NtRp1203
(dp1204
g54
(dp1205
g62
I3
ssg63
g1199
sg56
(lp1206
S''
asbasbasbag49
(g65
g51
NtRp1207
(dp1208
g54
(dp1209
sg63
g1083
sg56
(lp1210
g49
(g70
g51
NtRp1211
(dp1212
g54
(dp1213
g74
g75
ssg63
g1207
sg56
(lp1214
g389
asbag49
(g70
g51
NtRp1215
(dp1216
g54
(dp1217
g81
g82
ssg63
g1207
sg56
(lp1218
S':'
asbag49
(g70
g51
NtRp1219
(dp1220
g54
(dp1221
sg63
g1207
sg56
(lp1222
g49
(g50
g51
NtRp1223
(dp1224
g54
(dp1225
g62
I3
ssg63
g1219
sg56
(lp1226
S''
asbasbasbasbasbasbasbasbasbasbasbag49
(g65
g51
NtRp1227
(dp1228
g54
(dp1229
sg63
g59
sg56
(lp1230
g49
(g70
g51
NtRp1231
(dp1232
g54
(dp1233
g74
g75
ssg63
g1227
sg56
(lp1234
S'env'
p1235
asbag49
(g70
g51
NtRp1236
(dp1237
g54
(dp1238
g81
g82
ssg63
g1227
sg56
(lp1239
S':'
asbag49
(g70
g51
NtRp1240
(dp1241
g54
(dp1242
sg63
g1227
sg56
(lp1243
g49
(g50
g51
NtRp1244
(dp1245
g54
(dp1246
g62
I5
ssg63
g1240
sg56
(lp1247
g49
(g58
g51
NtRp1248
(dp1249
g54
(dp1250
g62
I4
ssg63
Nsg56
(lp1251
g49
(g65
g51
NtRp1252
(dp1253
g54
(dp1254
sg63
g1248
sg56
(lp1255
g49
(g70
g51
NtRp1256
(dp1257
g54
(dp1258
g74
g75
ssg63
g1252
sg56
(lp1259
S'app_folders'
p1260
asbag49
(g70
g51
NtRp1261
(dp1262
g54
(dp1263
g81
g82
ssg63
g1252
sg56
(lp1264
S':'
asbag49
(g70
g51
NtRp1265
(dp1266
g54
(dp1267
sg63
g1252
sg56
(lp1268
g49
(g50
g51
NtRp1269
(dp1270
g54
(dp1271
g62
I4
ssg63
g1265
sg56
(lp1272
S"set(['C:\\\\Users\\\\omkara\\\\Desktop\\\\web2py\\\\applications\\\\newA\\\\', 'C:\\\\Users\\\\omkara\\\\Desktop\\\\web2py\\\\applications\\\\slug_register_page\\\\', 'C:\\\\Users\\\\omkara\\\\Desktop\\\\web2py\\\\applications\\\\admin\\\\', 'C:\\\\Users\\\\omkara\\\\Desktop\\\\web2py\\\\applications\\\\welcome\\\\', 'C:\\\\Users\\\\omkara\\\\Desktop\\\\web2py\\\\applications\\\\slug_register\\\\', 'C:\\\\Users\\\\omkara\\\\Desktop\\\\web2py\\\\applications\\\\SlugBarter\\\\', 'C:\\\\Users\\\\omkara\\\\Desktop\\\\web2py\\\\applications\\\\testApp\\\\'])"
p1273
asbasbasbag49
(g65
g51
NtRp1274
(dp1275
g54
(dp1276
sg63
g1248
sg56
(lp1277
g49
(g70
g51
NtRp1278
(dp1279
g54
(dp1280
g74
g75
ssg63
g1274
sg56
(lp1281
S'applications_parent'
p1282
asbag49
(g70
g51
NtRp1283
(dp1284
g54
(dp1285
g81
g82
ssg63
g1274
sg56
(lp1286
S':'
asbag49
(g70
g51
NtRp1287
(dp1288
g54
(dp1289
sg63
g1274
sg56
(lp1290
g49
(g50
g51
NtRp1291
(dp1292
g54
(dp1293
g62
I4
ssg63
g1287
sg56
(lp1294
S'C:\\Users\\omkara\\Desktop\\web2py'
p1295
asbasbasbag49
(g65
g51
NtRp1296
(dp1297
g54
(dp1298
sg63
g1248
sg56
(lp1299
g49
(g70
g51
NtRp1300
(dp1301
g54
(dp1302
g74
g75
ssg63
g1296
sg56
(lp1303
S'cmd_args'
p1304
asbag49
(g70
g51
NtRp1305
(dp1306
g54
(dp1307
g81
g82
ssg63
g1296
sg56
(lp1308
S':'
asbag49
(g70
g51
NtRp1309
(dp1310
g54
(dp1311
sg63
g1296
sg56
(lp1312
g49
(g50
g51
NtRp1313
(dp1314
g54
(dp1315
g62
I4
ssg63
g1309
sg56
(lp1316
g49
(g58
g51
NtRp1317
(dp1318
g54
(dp1319
g62
I3
ssg63
Nsg56
(lp1320
sbasbasbasbag49
(g65
g51
NtRp1321
(dp1322
g54
(dp1323
sg63
g1248
sg56
(lp1324
g49
(g70
g51
NtRp1325
(dp1326
g54
(dp1327
g74
g75
ssg63
g1321
sg56
(lp1328
S'cmd_options'
p1329
asbag49
(g70
g51
NtRp1330
(dp1331
g54
(dp1332
g81
g82
ssg63
g1321
sg56
(lp1333
S':'
asbag49
(g70
g51
NtRp1334
(dp1335
g54
(dp1336
sg63
g1321
sg56
(lp1337
g49
(g50
g51
NtRp1338
(dp1339
g54
(dp1340
g62
I4
ssg63
g1334
sg56
(lp1341
S"<Values at 0x27b1f80: {'verbose': False, 'ip': '127.0.0.1', 'shutdown_timeout': 5, 'taskbar': False, 'nocron': False, 'pid_filename': 'httpserver.pid', 'maxthreads': None, 'softcron': False, 'server_name': 'omkara-PC', 'bpython': False, 'nogui': False, 'port': 8000, 'extcron': False, 'debuglevel': 30, 'test': None, 'folder': 'C:\\\\Users\\\\omkara\\\\Desktop\\\\web2py', 'config': '', 'import_models': False, 'winservice': '', 'shell': None, 'run': '', 'log_filename': 'httpserver.log', 'args': [''], 'socket_timeout': 5, 'ssl_ca_certificate': None, 'scheduler': None, 'profiler_filename': None, 'ssl_private_key': '', 'password': '<ask>', 'request_queue_size': 5, 'ssl_certificate': '', 'cronjob': False, 'numthreads': None, 'quiet': False, 'interfaces': None, 'minthreads': None, 'timeout': 10, 'plain': False, 'nobanner': False}>"
p1342
asbasbasbag49
(g65
g51
NtRp1343
(dp1344
g54
(dp1345
sg63
g1248
sg56
(lp1346
g49
(g70
g51
NtRp1347
(dp1348
g54
(dp1349
g74
g75
ssg63
g1343
sg56
(lp1350
S'db_sessions'
p1351
asbag49
(g70
g51
NtRp1352
(dp1353
g54
(dp1354
g81
g82
ssg63
g1343
sg56
(lp1355
S':'
asbag49
(g70
g51
NtRp1356
(dp1357
g54
(dp1358
sg63
g1343
sg56
(lp1359
g49
(g50
g51
NtRp1360
(dp1361
g54
(dp1362
g62
I4
ssg63
g1356
sg56
(lp1363
S'set([])'
p1364
asbasbasbag49
(g65
g51
NtRp1365
(dp1366
g54
(dp1367
sg63
g1248
sg56
(lp1368
g49
(g70
g51
NtRp1369
(dp1370
g54
(dp1371
g74
g75
ssg63
g1365
sg56
(lp1372
S'debugging'
p1373
asbag49
(g70
g51
NtRp1374
(dp1375
g54
(dp1376
g81
g82
ssg63
g1365
sg56
(lp1377
S':'
asbag49
(g70
g51
NtRp1378
(dp1379
g54
(dp1380
sg63
g1365
sg56
(lp1381
g49
(g50
g51
NtRp1382
(dp1383
g54
(dp1384
g62
I4
ssg63
g1378
sg56
(lp1385
g92
asbasbasbag49
(g65
g51
NtRp1386
(dp1387
g54
(dp1388
sg63
g1248
sg56
(lp1389
g49
(g70
g51
NtRp1390
(dp1391
g54
(dp1392
g74
g75
ssg63
g1386
sg56
(lp1393
S'gluon_parent'
p1394
asbag49
(g70
g51
NtRp1395
(dp1396
g54
(dp1397
g81
g82
ssg63
g1386
sg56
(lp1398
S':'
asbag49
(g70
g51
NtRp1399
(dp1400
g54
(dp1401
sg63
g1386
sg56
(lp1402
g49
(g50
g51
NtRp1403
(dp1404
g54
(dp1405
g62
I4
ssg63
g1399
sg56
(lp1406
S'C:\\Users\\omkara\\Desktop\\web2py'
p1407
asbasbasbag49
(g65
g51
NtRp1408
(dp1409
g54
(dp1410
sg63
g1248
sg56
(lp1411
g49
(g70
g51
NtRp1412
(dp1413
g54
(dp1414
g74
g75
ssg63
g1408
sg56
(lp1415
S'http_accept'
p1416
asbag49
(g70
g51
NtRp1417
(dp1418
g54
(dp1419
g81
g82
ssg63
g1408
sg56
(lp1420
S':'
asbag49
(g70
g51
NtRp1421
(dp1422
g54
(dp1423
sg63
g1408
sg56
(lp1424
g49
(g50
g51
NtRp1425
(dp1426
g54
(dp1427
g62
I4
ssg63
g1421
sg56
(lp1428
S'text/html,application/xhtml+xml,application/xml;q=0.9,*/*;q=0.8'
p1429
asbasbasbag49
(g65
g51
NtRp1430
(dp1431
g54
(dp1432
sg63
g1248
sg56
(lp1433
g49
(g70
g51
NtRp1434
(dp1435
g54
(dp1436
g74
g75
ssg63
g1430
sg56
(lp1437
S'http_accept_charset'
p1438
asbag49
(g70
g51
NtRp1439
(dp1440
g54
(dp1441
g81
g82
ssg63
g1430
sg56
(lp1442
S':'
asbag49
(g70
g51
NtRp1443
(dp1444
g54
(dp1445
sg63
g1430
sg56
(lp1446
g49
(g50
g51
NtRp1447
(dp1448
g54
(dp1449
g62
I4
ssg63
g1443
sg56
(lp1450
S'ISO-8859-1,utf-8;q=0.7,*;q=0.3'
p1451
asbasbasbag49
(g65
g51
NtRp1452
(dp1453
g54
(dp1454
sg63
g1248
sg56
(lp1455
g49
(g70
g51
NtRp1456
(dp1457
g54
(dp1458
g74
g75
ssg63
g1452
sg56
(lp1459
S'http_accept_encoding'
p1460
asbag49
(g70
g51
NtRp1461
(dp1462
g54
(dp1463
g81
g82
ssg63
g1452
sg56
(lp1464
S':'
asbag49
(g70
g51
NtRp1465
(dp1466
g54
(dp1467
sg63
g1452
sg56
(lp1468
g49
(g50
g51
NtRp1469
(dp1470
g54
(dp1471
g62
I4
ssg63
g1465
sg56
(lp1472
S'gzip,deflate,sdch'
p1473
asbasbasbag49
(g65
g51
NtRp1474
(dp1475
g54
(dp1476
sg63
g1248
sg56
(lp1477
g49
(g70
g51
NtRp1478
(dp1479
g54
(dp1480
g74
g75
ssg63
g1474
sg56
(lp1481
S'http_accept_language'
p1482
asbag49
(g70
g51
NtRp1483
(dp1484
g54
(dp1485
g81
g82
ssg63
g1474
sg56
(lp1486
S':'
asbag49
(g70
g51
NtRp1487
(dp1488
g54
(dp1489
sg63
g1474
sg56
(lp1490
g49
(g50
g51
NtRp1491
(dp1492
g54
(dp1493
g62
I4
ssg63
g1487
sg56
(lp1494
S'en-US,en;q=0.8'
p1495
asbasbasbag49
(g65
g51
NtRp1496
(dp1497
g54
(dp1498
sg63
g1248
sg56
(lp1499
g49
(g70
g51
NtRp1500
(dp1501
g54
(dp1502
g74
g75
ssg63
g1496
sg56
(lp1503
S'http_cache_control'
p1504
asbag49
(g70
g51
NtRp1505
(dp1506
g54
(dp1507
g81
g82
ssg63
g1496
sg56
(lp1508
S':'
asbag49
(g70
g51
NtRp1509
(dp1510
g54
(dp1511
sg63
g1496
sg56
(lp1512
g49
(g50
g51
NtRp1513
(dp1514
g54
(dp1515
g62
I4
ssg63
g1509
sg56
(lp1516
S'max-age=0'
p1517
asbasbasbag49
(g65
g51
NtRp1518
(dp1519
g54
(dp1520
sg63
g1248
sg56
(lp1521
g49
(g70
g51
NtRp1522
(dp1523
g54
(dp1524
g74
g75
ssg63
g1518
sg56
(lp1525
S'http_connection'
p1526
asbag49
(g70
g51
NtRp1527
(dp1528
g54
(dp1529
g81
g82
ssg63
g1518
sg56
(lp1530
S':'
asbag49
(g70
g51
NtRp1531
(dp1532
g54
(dp1533
sg63
g1518
sg56
(lp1534
g49
(g50
g51
NtRp1535
(dp1536
g54
(dp1537
g62
I4
ssg63
g1531
sg56
(lp1538
S'keep-alive'
p1539
asbasbasbag49
(g65
g51
NtRp1540
(dp1541
g54
(dp1542
sg63
g1248
sg56
(lp1543
g49
(g70
g51
NtRp1544
(dp1545
g54
(dp1546
g74
g75
ssg63
g1540
sg56
(lp1547
S'http_cookie'
p1548
asbag49
(g70
g51
NtRp1549
(dp1550
g54
(dp1551
g81
g82
ssg63
g1540
sg56
(lp1552
S':'
asbag49
(g70
g51
NtRp1553
(dp1554
g54
(dp1555
sg63
g1540
sg56
(lp1556
g49
(g50
g51
NtRp1557
(dp1558
g54
(dp1559
g62
I4
ssg63
g1553
sg56
(lp1560
S'session_id_onlinenotes_p1_=127.0.0.1-2b1a349f-aa95-4718-93d5-e7df1c85d951; session_id_slug_register_page=127.0.0.1-c2775933-22a4-419d-80e2-4c993aff45c7; session_id_welcome=127.0.0.1-a1b3016b-66b8-408b-ae8e-37231f35f16e; session_id_testapp=127.0.0.1-07eafbbd-d252-4b2b-84dc-0b0d16c3c06d; session_id_slugbarter=127.0.0.1-e6ebae72-1bbc-48a5-9458-95dbb65a4e54; session_id_admin=127.0.0.1-dcf0163e-0560-4f31-a592-e577714771db'
p1561
asbasbasbag49
(g65
g51
NtRp1562
(dp1563
g54
(dp1564
sg63
g1248
sg56
(lp1565
g49
(g70
g51
NtRp1566
(dp1567
g54
(dp1568
g74
g75
ssg63
g1562
sg56
(lp1569
S'http_host'
p1570
asbag49
(g70
g51
NtRp1571
(dp1572
g54
(dp1573
g81
g82
ssg63
g1562
sg56
(lp1574
S':'
asbag49
(g70
g51
NtRp1575
(dp1576
g54
(dp1577
sg63
g1562
sg56
(lp1578
g49
(g50
g51
NtRp1579
(dp1580
g54
(dp1581
g62
I4
ssg63
g1575
sg56
(lp1582
S'127.0.0.1:8000'
p1583
asbasbasbag49
(g65
g51
NtRp1584
(dp1585
g54
(dp1586
sg63
g1248
sg56
(lp1587
g49
(g70
g51
NtRp1588
(dp1589
g54
(dp1590
g74
g75
ssg63
g1584
sg56
(lp1591
S'http_referer'
p1592
asbag49
(g70
g51
NtRp1593
(dp1594
g54
(dp1595
g81
g82
ssg63
g1584
sg56
(lp1596
S':'
asbag49
(g70
g51
NtRp1597
(dp1598
g54
(dp1599
sg63
g1584
sg56
(lp1600
g49
(g50
g51
NtRp1601
(dp1602
g54
(dp1603
g62
I4
ssg63
g1597
sg56
(lp1604
S'http://127.0.0.1:8000/SlugBarter/default/login'
p1605
asbasbasbag49
(g65
g51
NtRp1606
(dp1607
g54
(dp1608
sg63
g1248
sg56
(lp1609
g49
(g70
g51
NtRp1610
(dp1611
g54
(dp1612
g74
g75
ssg63
g1606
sg56
(lp1613
S'http_user_agent'
p1614
asbag49
(g70
g51
NtRp1615
(dp1616
g54
(dp1617
g81
g82
ssg63
g1606
sg56
(lp1618
S':'
asbag49
(g70
g51
NtRp1619
(dp1620
g54
(dp1621
sg63
g1606
sg56
(lp1622
g49
(g50
g51
NtRp1623
(dp1624
g54
(dp1625
g62
I4
ssg63
g1619
sg56
(lp1626
S'Mozilla/5.0 (Windows NT 6.1) AppleWebKit/537.11 (KHTML, like Gecko) Chrome/23.0.1271.64 Safari/537.11'
p1627
asbasbasbag49
(g65
g51
NtRp1628
(dp1629
g54
(dp1630
sg63
g1248
sg56
(lp1631
g49
(g70
g51
NtRp1632
(dp1633
g54
(dp1634
g74
g75
ssg63
g1628
sg56
(lp1635
S'is_jython'
p1636
asbag49
(g70
g51
NtRp1637
(dp1638
g54
(dp1639
g81
g82
ssg63
g1628
sg56
(lp1640
S':'
asbag49
(g70
g51
NtRp1641
(dp1642
g54
(dp1643
sg63
g1628
sg56
(lp1644
g49
(g50
g51
NtRp1645
(dp1646
g54
(dp1647
g62
I4
ssg63
g1641
sg56
(lp1648
g92
asbasbasbag49
(g65
g51
NtRp1649
(dp1650
g54
(dp1651
sg63
g1248
sg56
(lp1652
g49
(g70
g51
NtRp1653
(dp1654
g54
(dp1655
g74
g75
ssg63
g1649
sg56
(lp1656
S'is_pypy'
p1657
asbag49
(g70
g51
NtRp1658
(dp1659
g54
(dp1660
g81
g82
ssg63
g1649
sg56
(lp1661
S':'
asbag49
(g70
g51
NtRp1662
(dp1663
g54
(dp1664
sg63
g1649
sg56
(lp1665
g49
(g50
g51
NtRp1666
(dp1667
g54
(dp1668
g62
I4
ssg63
g1662
sg56
(lp1669
g92
asbasbasbag49
(g65
g51
NtRp1670
(dp1671
g54
(dp1672
sg63
g1248
sg56
(lp1673
g49
(g70
g51
NtRp1674
(dp1675
g54
(dp1676
g74
g75
ssg63
g1670
sg56
(lp1677
S'path_info'
p1678
asbag49
(g70
g51
NtRp1679
(dp1680
g54
(dp1681
g81
g82
ssg63
g1670
sg56
(lp1682
S':'
asbag49
(g70
g51
NtRp1683
(dp1684
g54
(dp1685
sg63
g1670
sg56
(lp1686
g49
(g50
g51
NtRp1687
(dp1688
g54
(dp1689
g62
I4
ssg63
g1683
sg56
(lp1690
S'/SlugBarter/default/mypage'
p1691
asbasbasbag49
(g65
g51
NtRp1692
(dp1693
g54
(dp1694
sg63
g1248
sg56
(lp1695
g49
(g70
g51
NtRp1696
(dp1697
g54
(dp1698
g74
g75
ssg63
g1692
sg56
(lp1699
S'query_string'
p1700
asbag49
(g70
g51
NtRp1701
(dp1702
g54
(dp1703
g81
g82
ssg63
g1692
sg56
(lp1704
S':'
asbag49
(g70
g51
NtRp1705
(dp1706
g54
(dp1707
sg63
g1692
sg56
(lp1708
g49
(g50
g51
NtRp1709
(dp1710
g54
(dp1711
g62
I4
ssg63
g1705
sg56
(lp1712
S''
asbasbasbag49
(g65
g51
NtRp1713
(dp1714
g54
(dp1715
sg63
g1248
sg56
(lp1716
g49
(g70
g51
NtRp1717
(dp1718
g54
(dp1719
g74
g75
ssg63
g1713
sg56
(lp1720
S'remote_addr'
p1721
asbag49
(g70
g51
NtRp1722
(dp1723
g54
(dp1724
g81
g82
ssg63
g1713
sg56
(lp1725
S':'
asbag49
(g70
g51
NtRp1726
(dp1727
g54
(dp1728
sg63
g1713
sg56
(lp1729
g49
(g50
g51
NtRp1730
(dp1731
g54
(dp1732
g62
I4
ssg63
g1726
sg56
(lp1733
g182
asbasbasbag49
(g65
g51
NtRp1734
(dp1735
g54
(dp1736
sg63
g1248
sg56
(lp1737
g49
(g70
g51
NtRp1738
(dp1739
g54
(dp1740
g74
g75
ssg63
g1734
sg56
(lp1741
S'remote_port'
p1742
asbag49
(g70
g51
NtRp1743
(dp1744
g54
(dp1745
g81
g82
ssg63
g1734
sg56
(lp1746
S':'
asbag49
(g70
g51
NtRp1747
(dp1748
g54
(dp1749
sg63
g1734
sg56
(lp1750
g49
(g50
g51
NtRp1751
(dp1752
g54
(dp1753
g62
I4
ssg63
g1747
sg56
(lp1754
S'62321'
p1755
asbasbasbag49
(g65
g51
NtRp1756
(dp1757
g54
(dp1758
sg63
g1248
sg56
(lp1759
g49
(g70
g51
NtRp1760
(dp1761
g54
(dp1762
g74
g75
ssg63
g1756
sg56
(lp1763
S'request_method'
p1764
asbag49
(g70
g51
NtRp1765
(dp1766
g54
(dp1767
g81
g82
ssg63
g1756
sg56
(lp1768
S':'
asbag49
(g70
g51
NtRp1769
(dp1770
g54
(dp1771
sg63
g1756
sg56
(lp1772
g49
(g50
g51
NtRp1773
(dp1774
g54
(dp1775
g62
I4
ssg63
g1769
sg56
(lp1776
S'GET'
p1777
asbasbasbag49
(g65
g51
NtRp1778
(dp1779
g54
(dp1780
sg63
g1248
sg56
(lp1781
g49
(g70
g51
NtRp1782
(dp1783
g54
(dp1784
g74
g75
ssg63
g1778
sg56
(lp1785
S'script_name'
p1786
asbag49
(g70
g51
NtRp1787
(dp1788
g54
(dp1789
g81
g82
ssg63
g1778
sg56
(lp1790
S':'
asbag49
(g70
g51
NtRp1791
(dp1792
g54
(dp1793
sg63
g1778
sg56
(lp1794
g49
(g50
g51
NtRp1795
(dp1796
g54
(dp1797
g62
I4
ssg63
g1791
sg56
(lp1798
S''
asbasbasbag49
(g65
g51
NtRp1799
(dp1800
g54
(dp1801
sg63
g1248
sg56
(lp1802
g49
(g70
g51
NtRp1803
(dp1804
g54
(dp1805
g74
g75
ssg63
g1799
sg56
(lp1806
S'server_name'
p1807
asbag49
(g70
g51
NtRp1808
(dp1809
g54
(dp1810
g81
g82
ssg63
g1799
sg56
(lp1811
S':'
asbag49
(g70
g51
NtRp1812
(dp1813
g54
(dp1814
sg63
g1799
sg56
(lp1815
g49
(g50
g51
NtRp1816
(dp1817
g54
(dp1818
g62
I4
ssg63
g1812
sg56
(lp1819
S'omkara-PC'
p1820
asbasbasbag49
(g65
g51
NtRp1821
(dp1822
g54
(dp1823
sg63
g1248
sg56
(lp1824
g49
(g70
g51
NtRp1825
(dp1826
g54
(dp1827
g74
g75
ssg63
g1821
sg56
(lp1828
S'server_port'
p1829
asbag49
(g70
g51
NtRp1830
(dp1831
g54
(dp1832
g81
g82
ssg63
g1821
sg56
(lp1833
S':'
asbag49
(g70
g51
NtRp1834
(dp1835
g54
(dp1836
sg63
g1821
sg56
(lp1837
g49
(g50
g51
NtRp1838
(dp1839
g54
(dp1840
g62
I4
ssg63
g1834
sg56
(lp1841
S'8000'
p1842
asbasbasbag49
(g65
g51
NtRp1843
(dp1844
g54
(dp1845
sg63
g1248
sg56
(lp1846
g49
(g70
g51
NtRp1847
(dp1848
g54
(dp1849
g74
g75
ssg63
g1843
sg56
(lp1850
S'server_protocol'
p1851
asbag49
(g70
g51
NtRp1852
(dp1853
g54
(dp1854
g81
g82
ssg63
g1843
sg56
(lp1855
S':'
asbag49
(g70
g51
NtRp1856
(dp1857
g54
(dp1858
sg63
g1843
sg56
(lp1859
g49
(g50
g51
NtRp1860
(dp1861
g54
(dp1862
g62
I4
ssg63
g1856
sg56
(lp1863
S'HTTP/1.1'
p1864
asbasbasbag49
(g65
g51
NtRp1865
(dp1866
g54
(dp1867
sg63
g1248
sg56
(lp1868
g49
(g70
g51
NtRp1869
(dp1870
g54
(dp1871
g74
g75
ssg63
g1865
sg56
(lp1872
S'server_software'
p1873
asbag49
(g70
g51
NtRp1874
(dp1875
g54
(dp1876
g81
g82
ssg63
g1865
sg56
(lp1877
S':'
asbag49
(g70
g51
NtRp1878
(dp1879
g54
(dp1880
sg63
g1865
sg56
(lp1881
g49
(g50
g51
NtRp1882
(dp1883
g54
(dp1884
g62
I4
ssg63
g1878
sg56
(lp1885
S'Rocket 1.2.4'
p1886
asbasbasbag49
(g65
g51
NtRp1887
(dp1888
g54
(dp1889
sg63
g1248
sg56
(lp1890
g49
(g70
g51
NtRp1891
(dp1892
g54
(dp1893
g74
g75
ssg63
g1887
sg56
(lp1894
S'web2py_crontype'
p1895
asbag49
(g70
g51
NtRp1896
(dp1897
g54
(dp1898
g81
g82
ssg63
g1887
sg56
(lp1899
S':'
asbag49
(g70
g51
NtRp1900
(dp1901
g54
(dp1902
sg63
g1887
sg56
(lp1903
g49
(g50
g51
NtRp1904
(dp1905
g54
(dp1906
g62
I4
ssg63
g1900
sg56
(lp1907
S'hard'
p1908
asbasbasbag49
(g65
g51
NtRp1909
(dp1910
g54
(dp1911
sg63
g1248
sg56
(lp1912
g49
(g70
g51
NtRp1913
(dp1914
g54
(dp1915
g74
g75
ssg63
g1909
sg56
(lp1916
S'web2py_path'
p1917
asbag49
(g70
g51
NtRp1918
(dp1919
g54
(dp1920
g81
g82
ssg63
g1909
sg56
(lp1921
S':'
asbag49
(g70
g51
NtRp1922
(dp1923
g54
(dp1924
sg63
g1909
sg56
(lp1925
g49
(g50
g51
NtRp1926
(dp1927
g54
(dp1928
g62
I4
ssg63
g1922
sg56
(lp1929
g1295
asbasbasbag49
(g65
g51
NtRp1930
(dp1931
g54
(dp1932
sg63
g1248
sg56
(lp1933
g49
(g70
g51
NtRp1934
(dp1935
g54
(dp1936
g74
g75
ssg63
g1930
sg56
(lp1937
S'web2py_version'
p1938
asbag49
(g70
g51
NtRp1939
(dp1940
g54
(dp1941
g81
g82
ssg63
g1930
sg56
(lp1942
S':'
asbag49
(g70
g51
NtRp1943
(dp1944
g54
(dp1945
sg63
g1930
sg56
(lp1946
g49
(g50
g51
NtRp1947
(dp1948
g54
(dp1949
g62
I4
ssg63
g1943
sg56
(lp1950
g49
(g58
g51
NtRp1951
(dp1952
g54
(dp1953
g62
I3
ssg63
Nsg56
(lp1954
g49
(g65
g51
NtRp1955
(dp1956
g54
(dp1957
sg63
g1951
sg56
(lp1958
g49
(g70
g51
NtRp1959
(dp1960
g54
(dp1961
sg63
g1955
sg56
(lp1962
g49
(g50
g51
NtRp1963
(dp1964
g54
(dp1965
g62
I3
ssg63
g1959
sg56
(lp1966
S'1'
asbasbasbag49
(g65
g51
NtRp1967
(dp1968
g54
(dp1969
sg63
g1951
sg56
(lp1970
g49
(g70
g51
NtRp1971
(dp1972
g54
(dp1973
sg63
g1967
sg56
(lp1974
g49
(g50
g51
NtRp1975
(dp1976
g54
(dp1977
g62
I3
ssg63
g1971
sg56
(lp1978
S'99'
p1979
asbasbasbag49
(g65
g51
NtRp1980
(dp1981
g54
(dp1982
sg63
g1951
sg56
(lp1983
g49
(g70
g51
NtRp1984
(dp1985
g54
(dp1986
sg63
g1980
sg56
(lp1987
g49
(g50
g51
NtRp1988
(dp1989
g54
(dp1990
g62
I3
ssg63
g1984
sg56
(lp1991
S'7'
asbasbasbag49
(g65
g51
NtRp1992
(dp1993
g54
(dp1994
sg63
g1951
sg56
(lp1995
g49
(g70
g51
NtRp1996
(dp1997
g54
(dp1998
sg63
g1992
sg56
(lp1999
g49
(g50
g51
NtRp2000
(dp2001
g54
(dp2002
g62
I3
ssg63
g1996
sg56
(lp2003
S'datetime.datetime(2012, 3, 4, 22, 12, 8)'
p2004
asbasbasbag49
(g65
g51
NtRp2005
(dp2006
g54
(dp2007
sg63
g1951
sg56
(lp2008
g49
(g70
g51
NtRp2009
(dp2010
g54
(dp2011
sg63
g2005
sg56
(lp2012
g49
(g50
g51
NtRp2013
(dp2014
g54
(dp2015
g62
I3
ssg63
g2009
sg56
(lp2016
S'stable'
p2017
asbasbasbasbasbasbasbag49
(g65
g51
NtRp2018
(dp2019
g54
(dp2020
sg63
g1248
sg56
(lp2021
g49
(g70
g51
NtRp2022
(dp2023
g54
(dp2024
g74
g75
ssg63
g2018
sg56
(lp2025
S'wsgi_errors'
p2026
asbag49
(g70
g51
NtRp2027
(dp2028
g54
(dp2029
g81
g82
ssg63
g2018
sg56
(lp2030
S':'
asbag49
(g70
g51
NtRp2031
(dp2032
g54
(dp2033
sg63
g2018
sg56
(lp2034
g49
(g50
g51
NtRp2035
(dp2036
g54
(dp2037
g62
I4
ssg63
g2031
sg56
(lp2038
S"<open file '<stderr>', mode 'w' at 0x016000B0>"
p2039
asbasbasbag49
(g65
g51
NtRp2040
(dp2041
g54
(dp2042
sg63
g1248
sg56
(lp2043
g49
(g70
g51
NtRp2044
(dp2045
g54
(dp2046
g74
g75
ssg63
g2040
sg56
(lp2047
S'wsgi_file_wrapper'
p2048
asbag49
(g70
g51
NtRp2049
(dp2050
g54
(dp2051
g81
g82
ssg63
g2040
sg56
(lp2052
S':'
asbag49
(g70
g51
NtRp2053
(dp2054
g54
(dp2055
sg63
g2040
sg56
(lp2056
g49
(g50
g51
NtRp2057
(dp2058
g54
(dp2059
g62
I4
ssg63
g2053
sg56
(lp2060
S'<class wsgiref.util.FileWrapper at 0x025361B0>'
p2061
asbasbasbag49
(g65
g51
NtRp2062
(dp2063
g54
(dp2064
sg63
g1248
sg56
(lp2065
g49
(g70
g51
NtRp2066
(dp2067
g54
(dp2068
g74
g75
ssg63
g2062
sg56
(lp2069
S'wsgi_input'
p2070
asbag49
(g70
g51
NtRp2071
(dp2072
g54
(dp2073
g81
g82
ssg63
g2062
sg56
(lp2074
S':'
asbag49
(g70
g51
NtRp2075
(dp2076
g54
(dp2077
sg63
g2062
sg56
(lp2078
g49
(g50
g51
NtRp2079
(dp2080
g54
(dp2081
g62
I4
ssg63
g2075
sg56
(lp2082
S'<socket._fileobject object at 0x062037F0>'
p2083
asbasbasbag49
(g65
g51
NtRp2084
(dp2085
g54
(dp2086
sg63
g1248
sg56
(lp2087
g49
(g70
g51
NtRp2088
(dp2089
g54
(dp2090
g74
g75
ssg63
g2084
sg56
(lp2091
S'wsgi_multiprocess'
p2092
asbag49
(g70
g51
NtRp2093
(dp2094
g54
(dp2095
g81
g82
ssg63
g2084
sg56
(lp2096
S':'
asbag49
(g70
g51
NtRp2097
(dp2098
g54
(dp2099
sg63
g2084
sg56
(lp2100
g49
(g50
g51
NtRp2101
(dp2102
g54
(dp2103
g62
I4
ssg63
g2097
sg56
(lp2104
g92
asbasbasbag49
(g65
g51
NtRp2105
(dp2106
g54
(dp2107
sg63
g1248
sg56
(lp2108
g49
(g70
g51
NtRp2109
(dp2110
g54
(dp2111
g74
g75
ssg63
g2105
sg56
(lp2112
S'wsgi_multithread'
p2113
asbag49
(g70
g51
NtRp2114
(dp2115
g54
(dp2116
g81
g82
ssg63
g2105
sg56
(lp2117
S':'
asbag49
(g70
g51
NtRp2118
(dp2119
g54
(dp2120
sg63
g2105
sg56
(lp2121
g49
(g50
g51
NtRp2122
(dp2123
g54
(dp2124
g62
I4
ssg63
g2118
sg56
(lp2125
S'True'
p2126
asbasbasbag49
(g65
g51
NtRp2127
(dp2128
g54
(dp2129
sg63
g1248
sg56
(lp2130
g49
(g70
g51
NtRp2131
(dp2132
g54
(dp2133
g74
g75
ssg63
g2127
sg56
(lp2134
S'wsgi_run_once'
p2135
asbag49
(g70
g51
NtRp2136
(dp2137
g54
(dp2138
g81
g82
ssg63
g2127
sg56
(lp2139
S':'
asbag49
(g70
g51
NtRp2140
(dp2141
g54
(dp2142
sg63
g2127
sg56
(lp2143
g49
(g50
g51
NtRp2144
(dp2145
g54
(dp2146
g62
I4
ssg63
g2140
sg56
(lp2147
g92
asbasbasbag49
(g65
g51
NtRp2148
(dp2149
g54
(dp2150
sg63
g1248
sg56
(lp2151
g49
(g70
g51
NtRp2152
(dp2153
g54
(dp2154
g74
g75
ssg63
g2148
sg56
(lp2155
S'wsgi_url_scheme'
p2156
asbag49
(g70
g51
NtRp2157
(dp2158
g54
(dp2159
g81
g82
ssg63
g2148
sg56
(lp2160
S':'
asbag49
(g70
g51
NtRp2161
(dp2162
g54
(dp2163
sg63
g2148
sg56
(lp2164
g49
(g50
g51
NtRp2165
(dp2166
g54
(dp2167
g62
I4
ssg63
g2161
sg56
(lp2168
S'http'
p2169
asbasbasbag49
(g65
g51
NtRp2170
(dp2171
g54
(dp2172
sg63
g1248
sg56
(lp2173
g49
(g70
g51
NtRp2174
(dp2175
g54
(dp2176
g74
g75
ssg63
g2170
sg56
(lp2177
S'wsgi_version'
p2178
asbag49
(g70
g51
NtRp2179
(dp2180
g54
(dp2181
g81
g82
ssg63
g2170
sg56
(lp2182
S':'
asbag49
(g70
g51
NtRp2183
(dp2184
g54
(dp2185
sg63
g2170
sg56
(lp2186
g49
(g50
g51
NtRp2187
(dp2188
g54
(dp2189
g62
I4
ssg63
g2183
sg56
(lp2190
g49
(g58
g51
NtRp2191
(dp2192
g54
(dp2193
g62
I3
ssg63
Nsg56
(lp2194
g49
(g65
g51
NtRp2195
(dp2196
g54
(dp2197
sg63
g2191
sg56
(lp2198
g49
(g70
g51
NtRp2199
(dp2200
g54
(dp2201
sg63
g2195
sg56
(lp2202
g49
(g50
g51
NtRp2203
(dp2204
g54
(dp2205
g62
I3
ssg63
g2199
sg56
(lp2206
S'1'
asbasbasbag49
(g65
g51
NtRp2207
(dp2208
g54
(dp2209
sg63
g2191
sg56
(lp2210
g49
(g70
g51
NtRp2211
(dp2212
g54
(dp2213
sg63
g2207
sg56
(lp2214
g49
(g50
g51
NtRp2215
(dp2216
g54
(dp2217
g62
I3
ssg63
g2211
sg56
(lp2218
S'0'
asbasbasbasbasbasbasbasbasbasbasbag49
(g65
g51
NtRp2219
(dp2220
g54
(dp2221
sg63
g59
sg56
(lp2222
g49
(g70
g51
NtRp2223
(dp2224
g54
(dp2225
g74
g75
ssg63
g2219
sg56
(lp2226
S'extension'
p2227
asbag49
(g70
g51
NtRp2228
(dp2229
g54
(dp2230
g81
g82
ssg63
g2219
sg56
(lp2231
S':'
asbag49
(g70
g51
NtRp2232
(dp2233
g54
(dp2234
sg63
g2219
sg56
(lp2235
g49
(g50
g51
NtRp2236
(dp2237
g54
(dp2238
g62
I5
ssg63
g2232
sg56
(lp2239
S'html'
p2240
asbasbasbag49
(g65
g51
NtRp2241
(dp2242
g54
(dp2243
sg63
g59
sg56
(lp2244
g49
(g70
g51
NtRp2245
(dp2246
g54
(dp2247
g74
g75
ssg63
g2241
sg56
(lp2248
S'folder'
p2249
asbag49
(g70
g51
NtRp2250
(dp2251
g54
(dp2252
g81
g82
ssg63
g2241
sg56
(lp2253
S':'
asbag49
(g70
g51
NtRp2254
(dp2255
g54
(dp2256
sg63
g2241
sg56
(lp2257
g49
(g50
g51
NtRp2258
(dp2259
g54
(dp2260
g62
I5
ssg63
g2254
sg56
(lp2261
S'C:\\Users\\omkara\\Desktop\\web2py\\applications\\SlugBarter\\'
p2262
asbasbasbag49
(g65
g51
NtRp2263
(dp2264
g54
(dp2265
sg63
g59
sg56
(lp2266
g49
(g70
g51
NtRp2267
(dp2268
g54
(dp2269
g74
g75
ssg63
g2263
sg56
(lp2270
S'function'
p2271
asbag49
(g70
g51
NtRp2272
(dp2273
g54
(dp2274
g81
g82
ssg63
g2263
sg56
(lp2275
S':'
asbag49
(g70
g51
NtRp2276
(dp2277
g54
(dp2278
sg63
g2263
sg56
(lp2279
g49
(g50
g51
NtRp2280
(dp2281
g54
(dp2282
g62
I5
ssg63
g2276
sg56
(lp2283
S'mypage'
p2284
asbasbasbag49
(g65
g51
NtRp2285
(dp2286
g54
(dp2287
sg63
g59
sg56
(lp2288
g49
(g70
g51
NtRp2289
(dp2290
g54
(dp2291
g74
g75
ssg63
g2285
sg56
(lp2292
S'get_vars'
p2293
asbag49
(g70
g51
NtRp2294
(dp2295
g54
(dp2296
g81
g82
ssg63
g2285
sg56
(lp2297
S':'
asbag49
(g70
g51
NtRp2298
(dp2299
g54
(dp2300
sg63
g2285
sg56
(lp2301
g49
(g50
g51
NtRp2302
(dp2303
g54
(dp2304
g62
I5
ssg63
g2298
sg56
(lp2305
g49
(g58
g51
NtRp2306
(dp2307
g54
(dp2308
g62
I4
ssg63
Nsg56
(lp2309
sbasbasbasbag49
(g65
g51
NtRp2310
(dp2311
g54
(dp2312
sg63
g59
sg56
(lp2313
g49
(g70
g51
NtRp2314
(dp2315
g54
(dp2316
g74
g75
ssg63
g2310
sg56
(lp2317
S'global_settings'
p2318
asbag49
(g70
g51
NtRp2319
(dp2320
g54
(dp2321
g81
g82
ssg63
g2310
sg56
(lp2322
S':'
asbag49
(g70
g51
NtRp2323
(dp2324
g54
(dp2325
sg63
g2310
sg56
(lp2326
g49
(g50
g51
NtRp2327
(dp2328
g54
(dp2329
g62
I5
ssg63
g2323
sg56
(lp2330
g49
(g58
g51
NtRp2331
(dp2332
g54
(dp2333
g62
I4
ssg63
Nsg56
(lp2334
g49
(g65
g51
NtRp2335
(dp2336
g54
(dp2337
sg63
g2331
sg56
(lp2338
g49
(g70
g51
NtRp2339
(dp2340
g54
(dp2341
g74
g75
ssg63
g2335
sg56
(lp2342
g1260
asbag49
(g70
g51
NtRp2343
(dp2344
g54
(dp2345
g81
g82
ssg63
g2335
sg56
(lp2346
S':'
asbag49
(g70
g51
NtRp2347
(dp2348
g54
(dp2349
sg63
g2335
sg56
(lp2350
g49
(g50
g51
NtRp2351
(dp2352
g54
(dp2353
g62
I4
ssg63
g2347
sg56
(lp2354
S"set(['C:\\\\Users\\\\omkara\\\\Desktop\\\\web2py\\\\applications\\\\newA\\\\', 'C:\\\\Users\\\\omkara\\\\Desktop\\\\web2py\\\\applications\\\\slug_register_page\\\\', 'C:\\\\Users\\\\omkara\\\\Desktop\\\\web2py\\\\applications\\\\admin\\\\', 'C:\\\\Users\\\\omkara\\\\Desktop\\\\web2py\\\\applications\\\\welcome\\\\', 'C:\\\\Users\\\\omkara\\\\Desktop\\\\web2py\\\\applications\\\\slug_register\\\\', 'C:\\\\Users\\\\omkara\\\\Desktop\\\\web2py\\\\applications\\\\SlugBarter\\\\', 'C:\\\\Users\\\\omkara\\\\Desktop\\\\web2py\\\\applications\\\\testApp\\\\'])"
p2355
asbasbasbag49
(g65
g51
NtRp2356
(dp2357
g54
(dp2358
sg63
g2331
sg56
(lp2359
g49
(g70
g51
NtRp2360
(dp2361
g54
(dp2362
g74
g75
ssg63
g2356
sg56
(lp2363
g1282
asbag49
(g70
g51
NtRp2364
(dp2365
g54
(dp2366
g81
g82
ssg63
g2356
sg56
(lp2367
S':'
asbag49
(g70
g51
NtRp2368
(dp2369
g54
(dp2370
sg63
g2356
sg56
(lp2371
g49
(g50
g51
NtRp2372
(dp2373
g54
(dp2374
g62
I4
ssg63
g2368
sg56
(lp2375
g1295
asbasbasbag49
(g65
g51
NtRp2376
(dp2377
g54
(dp2378
sg63
g2331
sg56
(lp2379
g49
(g70
g51
NtRp2380
(dp2381
g54
(dp2382
g74
g75
ssg63
g2376
sg56
(lp2383
g1304
asbag49
(g70
g51
NtRp2384
(dp2385
g54
(dp2386
g81
g82
ssg63
g2376
sg56
(lp2387
S':'
asbag49
(g70
g51
NtRp2388
(dp2389
g54
(dp2390
sg63
g2376
sg56
(lp2391
g49
(g50
g51
NtRp2392
(dp2393
g54
(dp2394
g62
I4
ssg63
g2388
sg56
(lp2395
g49
(g58
g51
NtRp2396
(dp2397
g54
(dp2398
g62
I3
ssg63
Nsg56
(lp2399
sbasbasbasbag49
(g65
g51
NtRp2400
(dp2401
g54
(dp2402
sg63
g2331
sg56
(lp2403
g49
(g70
g51
NtRp2404
(dp2405
g54
(dp2406
g74
g75
ssg63
g2400
sg56
(lp2407
g1329
asbag49
(g70
g51
NtRp2408
(dp2409
g54
(dp2410
g81
g82
ssg63
g2400
sg56
(lp2411
S':'
asbag49
(g70
g51
NtRp2412
(dp2413
g54
(dp2414
sg63
g2400
sg56
(lp2415
g49
(g50
g51
NtRp2416
(dp2417
g54
(dp2418
g62
I4
ssg63
g2412
sg56
(lp2419
S"<Values at 0x27b1f80: {'verbose': False, 'ip': '127.0.0.1', 'shutdown_timeout': 5, 'taskbar': False, 'nocron': False, 'pid_filename': 'httpserver.pid', 'maxthreads': None, 'softcron': False, 'server_name': 'omkara-PC', 'bpython': False, 'nogui': False, 'port': 8000, 'extcron': False, 'debuglevel': 30, 'test': None, 'folder': 'C:\\\\Users\\\\omkara\\\\Desktop\\\\web2py', 'config': '', 'import_models': False, 'winservice': '', 'shell': None, 'run': '', 'log_filename': 'httpserver.log', 'args': [''], 'socket_timeout': 5, 'ssl_ca_certificate': None, 'scheduler': None, 'profiler_filename': None, 'ssl_private_key': '', 'password': '<ask>', 'request_queue_size': 5, 'ssl_certificate': '', 'cronjob': False, 'numthreads': None, 'quiet': False, 'interfaces': None, 'minthreads': None, 'timeout': 10, 'plain': False, 'nobanner': False}>"
p2420
asbasbasbag49
(g65
g51
NtRp2421
(dp2422
g54
(dp2423
sg63
g2331
sg56
(lp2424
g49
(g70
g51
NtRp2425
(dp2426
g54
(dp2427
g74
g75
ssg63
g2421
sg56
(lp2428
g1351
asbag49
(g70
g51
NtRp2429
(dp2430
g54
(dp2431
g81
g82
ssg63
g2421
sg56
(lp2432
S':'
asbag49
(g70
g51
NtRp2433
(dp2434
g54
(dp2435
sg63
g2421
sg56
(lp2436
g49
(g50
g51
NtRp2437
(dp2438
g54
(dp2439
g62
I4
ssg63
g2433
sg56
(lp2440
S'set([])'
p2441
asbasbasbag49
(g65
g51
NtRp2442
(dp2443
g54
(dp2444
sg63
g2331
sg56
(lp2445
g49
(g70
g51
NtRp2446
(dp2447
g54
(dp2448
g74
g75
ssg63
g2442
sg56
(lp2449
g1373
asbag49
(g70
g51
NtRp2450
(dp2451
g54
(dp2452
g81
g82
ssg63
g2442
sg56
(lp2453
S':'
asbag49
(g70
g51
NtRp2454
(dp2455
g54
(dp2456
sg63
g2442
sg56
(lp2457
g49
(g50
g51
NtRp2458
(dp2459
g54
(dp2460
g62
I4
ssg63
g2454
sg56
(lp2461
g92
asbasbasbag49
(g65
g51
NtRp2462
(dp2463
g54
(dp2464
sg63
g2331
sg56
(lp2465
g49
(g70
g51
NtRp2466
(dp2467
g54
(dp2468
g74
g75
ssg63
g2462
sg56
(lp2469
g1394
asbag49
(g70
g51
NtRp2470
(dp2471
g54
(dp2472
g81
g82
ssg63
g2462
sg56
(lp2473
S':'
asbag49
(g70
g51
NtRp2474
(dp2475
g54
(dp2476
sg63
g2462
sg56
(lp2477
g49
(g50
g51
NtRp2478
(dp2479
g54
(dp2480
g62
I4
ssg63
g2474
sg56
(lp2481
g1407
asbasbasbag49
(g65
g51
NtRp2482
(dp2483
g54
(dp2484
sg63
g2331
sg56
(lp2485
g49
(g70
g51
NtRp2486
(dp2487
g54
(dp2488
g74
g75
ssg63
g2482
sg56
(lp2489
g1636
asbag49
(g70
g51
NtRp2490
(dp2491
g54
(dp2492
g81
g82
ssg63
g2482
sg56
(lp2493
S':'
asbag49
(g70
g51
NtRp2494
(dp2495
g54
(dp2496
sg63
g2482
sg56
(lp2497
g49
(g50
g51
NtRp2498
(dp2499
g54
(dp2500
g62
I4
ssg63
g2494
sg56
(lp2501
g92
asbasbasbag49
(g65
g51
NtRp2502
(dp2503
g54
(dp2504
sg63
g2331
sg56
(lp2505
g49
(g70
g51
NtRp2506
(dp2507
g54
(dp2508
g74
g75
ssg63
g2502
sg56
(lp2509
g1657
asbag49
(g70
g51
NtRp2510
(dp2511
g54
(dp2512
g81
g82
ssg63
g2502
sg56
(lp2513
S':'
asbag49
(g70
g51
NtRp2514
(dp2515
g54
(dp2516
sg63
g2502
sg56
(lp2517
g49
(g50
g51
NtRp2518
(dp2519
g54
(dp2520
g62
I4
ssg63
g2514
sg56
(lp2521
g92
asbasbasbag49
(g65
g51
NtRp2522
(dp2523
g54
(dp2524
sg63
g2331
sg56
(lp2525
g49
(g70
g51
NtRp2526
(dp2527
g54
(dp2528
g74
g75
ssg63
g2522
sg56
(lp2529
g1895
asbag49
(g70
g51
NtRp2530
(dp2531
g54
(dp2532
g81
g82
ssg63
g2522
sg56
(lp2533
S':'
asbag49
(g70
g51
NtRp2534
(dp2535
g54
(dp2536
sg63
g2522
sg56
(lp2537
g49
(g50
g51
NtRp2538
(dp2539
g54
(dp2540
g62
I4
ssg63
g2534
sg56
(lp2541
g1908
asbasbasbag49
(g65
g51
NtRp2542
(dp2543
g54
(dp2544
sg63
g2331
sg56
(lp2545
g49
(g70
g51
NtRp2546
(dp2547
g54
(dp2548
g74
g75
ssg63
g2542
sg56
(lp2549
g1938
asbag49
(g70
g51
NtRp2550
(dp2551
g54
(dp2552
g81
g82
ssg63
g2542
sg56
(lp2553
S':'
asbag49
(g70
g51
NtRp2554
(dp2555
g54
(dp2556
sg63
g2542
sg56
(lp2557
g49
(g50
g51
NtRp2558
(dp2559
g54
(dp2560
g62
I4
ssg63
g2554
sg56
(lp2561
g49
(g58
g51
NtRp2562
(dp2563
g54
(dp2564
g62
I3
ssg63
Nsg56
(lp2565
g49
(g65
g51
NtRp2566
(dp2567
g54
(dp2568
sg63
g2562
sg56
(lp2569
g49
(g70
g51
NtRp2570
(dp2571
g54
(dp2572
sg63
g2566
sg56
(lp2573
g49
(g50
g51
NtRp2574
(dp2575
g54
(dp2576
g62
I3
ssg63
g2570
sg56
(lp2577
S'1'
asbasbasbag49
(g65
g51
NtRp2578
(dp2579
g54
(dp2580
sg63
g2562
sg56
(lp2581
g49
(g70
g51
NtRp2582
(dp2583
g54
(dp2584
sg63
g2578
sg56
(lp2585
g49
(g50
g51
NtRp2586
(dp2587
g54
(dp2588
g62
I3
ssg63
g2582
sg56
(lp2589
S'99'
p2590
asbasbasbag49
(g65
g51
NtRp2591
(dp2592
g54
(dp2593
sg63
g2562
sg56
(lp2594
g49
(g70
g51
NtRp2595
(dp2596
g54
(dp2597
sg63
g2591
sg56
(lp2598
g49
(g50
g51
NtRp2599
(dp2600
g54
(dp2601
g62
I3
ssg63
g2595
sg56
(lp2602
S'7'
asbasbasbag49
(g65
g51
NtRp2603
(dp2604
g54
(dp2605
sg63
g2562
sg56
(lp2606
g49
(g70
g51
NtRp2607
(dp2608
g54
(dp2609
sg63
g2603
sg56
(lp2610
g49
(g50
g51
NtRp2611
(dp2612
g54
(dp2613
g62
I3
ssg63
g2607
sg56
(lp2614
S'datetime.datetime(2012, 3, 4, 22, 12, 8)'
p2615
asbasbasbag49
(g65
g51
NtRp2616
(dp2617
g54
(dp2618
sg63
g2562
sg56
(lp2619
g49
(g70
g51
NtRp2620
(dp2621
g54
(dp2622
sg63
g2616
sg56
(lp2623
g49
(g50
g51
NtRp2624
(dp2625
g54
(dp2626
g62
I3
ssg63
g2620
sg56
(lp2627
g2017
asbasbasbasbasbasbasbasbasbasbasbag49
(g65
g51
NtRp2628
(dp2629
g54
(dp2630
sg63
g59
sg56
(lp2631
g49
(g70
g51
NtRp2632
(dp2633
g54
(dp2634
g74
g75
ssg63
g2628
sg56
(lp2635
S'is_https'
p2636
asbag49
(g70
g51
NtRp2637
(dp2638
g54
(dp2639
g81
g82
ssg63
g2628
sg56
(lp2640
S':'
asbag49
(g70
g51
NtRp2641
(dp2642
g54
(dp2643
sg63
g2628
sg56
(lp2644
g49
(g50
g51
NtRp2645
(dp2646
g54
(dp2647
g62
I5
ssg63
g2641
sg56
(lp2648
g92
asbasbasbag49
(g65
g51
NtRp2649
(dp2650
g54
(dp2651
sg63
g59
sg56
(lp2652
g49
(g70
g51
NtRp2653
(dp2654
g54
(dp2655
g74
g75
ssg63
g2649
sg56
(lp2656
S'is_local'
p2657
asbag49
(g70
g51
NtRp2658
(dp2659
g54
(dp2660
g81
g82
ssg63
g2649
sg56
(lp2661
S':'
asbag49
(g70
g51
NtRp2662
(dp2663
g54
(dp2664
sg63
g2649
sg56
(lp2665
g49
(g50
g51
NtRp2666
(dp2667
g54
(dp2668
g62
I5
ssg63
g2662
sg56
(lp2669
g2126
asbasbasbag49
(g65
g51
NtRp2670
(dp2671
g54
(dp2672
sg63
g59
sg56
(lp2673
g49
(g70
g51
NtRp2674
(dp2675
g54
(dp2676
g74
g75
ssg63
g2670
sg56
(lp2677
S'is_restful'
p2678
asbag49
(g70
g51
NtRp2679
(dp2680
g54
(dp2681
g81
g82
ssg63
g2670
sg56
(lp2682
S':'
asbag49
(g70
g51
NtRp2683
(dp2684
g54
(dp2685
sg63
g2670
sg56
(lp2686
g49
(g50
g51
NtRp2687
(dp2688
g54
(dp2689
g62
I5
ssg63
g2683
sg56
(lp2690
g92
asbasbasbag49
(g65
g51
NtRp2691
(dp2692
g54
(dp2693
sg63
g59
sg56
(lp2694
g49
(g70
g51
NtRp2695
(dp2696
g54
(dp2697
g74
g75
ssg63
g2691
sg56
(lp2698
S'now'
p2699
asbag49
(g70
g51
NtRp2700
(dp2701
g54
(dp2702
g81
g82
ssg63
g2691
sg56
(lp2703
S':'
asbag49
(g70
g51
NtRp2704
(dp2705
g54
(dp2706
sg63
g2691
sg56
(lp2707
g49
(g50
g51
NtRp2708
(dp2709
g54
(dp2710
g62
I5
ssg63
g2704
sg56
(lp2711
S'datetime.datetime(2012, 11, 11, 15, 0, 33, 788000)'
p2712
asbasbasbag49
(g65
g51
NtRp2713
(dp2714
g54
(dp2715
sg63
g59
sg56
(lp2716
g49
(g70
g51
NtRp2717
(dp2718
g54
(dp2719
g74
g75
ssg63
g2713
sg56
(lp2720
S'post_vars'
p2721
asbag49
(g70
g51
NtRp2722
(dp2723
g54
(dp2724
g81
g82
ssg63
g2713
sg56
(lp2725
S':'
asbag49
(g70
g51
NtRp2726
(dp2727
g54
(dp2728
sg63
g2713
sg56
(lp2729
g49
(g50
g51
NtRp2730
(dp2731
g54
(dp2732
g62
I5
ssg63
g2726
sg56
(lp2733
g49
(g58
g51
NtRp2734
(dp2735
g54
(dp2736
g62
I4
ssg63
Nsg56
(lp2737
sbasbasbasbag49
(g65
g51
NtRp2738
(dp2739
g54
(dp2740
sg63
g59
sg56
(lp2741
g49
(g70
g51
NtRp2742
(dp2743
g54
(dp2744
g74
g75
ssg63
g2738
sg56
(lp2745
S'url'
p2746
asbag49
(g70
g51
NtRp2747
(dp2748
g54
(dp2749
g81
g82
ssg63
g2738
sg56
(lp2750
S':'
asbag49
(g70
g51
NtRp2751
(dp2752
g54
(dp2753
sg63
g2738
sg56
(lp2754
g49
(g50
g51
NtRp2755
(dp2756
g54
(dp2757
g62
I5
ssg63
g2751
sg56
(lp2758
S'/SlugBarter/default/mypage'
p2759
asbasbasbag49
(g65
g51
NtRp2760
(dp2761
g54
(dp2762
sg63
g59
sg56
(lp2763
g49
(g70
g51
NtRp2764
(dp2765
g54
(dp2766
g74
g75
ssg63
g2760
sg56
(lp2767
S'utcnow'
p2768
asbag49
(g70
g51
NtRp2769
(dp2770
g54
(dp2771
g81
g82
ssg63
g2760
sg56
(lp2772
S':'
asbag49
(g70
g51
NtRp2773
(dp2774
g54
(dp2775
sg63
g2760
sg56
(lp2776
g49
(g50
g51
NtRp2777
(dp2778
g54
(dp2779
g62
I5
ssg63
g2773
sg56
(lp2780
S'datetime.datetime(2012, 11, 11, 23, 0, 33, 788000)'
p2781
asbasbasbag49
(g65
g51
NtRp2782
(dp2783
g54
(dp2784
sg63
g59
sg56
(lp2785
g49
(g70
g51
NtRp2786
(dp2787
g54
(dp2788
g74
g75
ssg63
g2782
sg56
(lp2789
S'uuid'
p2790
asbag49
(g70
g51
NtRp2791
(dp2792
g54
(dp2793
g81
g82
ssg63
g2782
sg56
(lp2794
S':'
asbag49
(g70
g51
NtRp2795
(dp2796
g54
(dp2797
sg63
g2782
sg56
(lp2798
g49
(g50
g51
NtRp2799
(dp2800
g54
(dp2801
g62
I5
ssg63
g2795
sg56
(lp2802
S'SlugBarter/127.0.0.1.2012-11-11.15-00-33.dce7685f-8a11-45d1-9c17-c0cda49bd795'
p2803
asbasbasbag49
(g65
g51
NtRp2804
(dp2805
g54
(dp2806
sg63
g59
sg56
(lp2807
g49
(g70
g51
NtRp2808
(dp2809
g54
(dp2810
g74
g75
ssg63
g2804
sg56
(lp2811
S'vars'
p2812
asbag49
(g70
g51
NtRp2813
(dp2814
g54
(dp2815
g81
g82
ssg63
g2804
sg56
(lp2816
S':'
asbag49
(g70
g51
NtRp2817
(dp2818
g54
(dp2819
sg63
g2804
sg56
(lp2820
g49
(g50
g51
NtRp2821
(dp2822
g54
(dp2823
g62
I5
ssg63
g2817
sg56
(lp2824
g49
(g58
g51
NtRp2825
(dp2826
g54
(dp2827
g62
I4
ssg63
Nsg56
(lp2828
sbasbasbasbag49
(g65
g51
NtRp2829
(dp2830
g54
(dp2831
sg63
g59
sg56
(lp2832
g49
(g70
g51
NtRp2833
(dp2834
g54
(dp2835
g74
g75
ssg63
g2829
sg56
(lp2836
S'wsgi'
p2837
asbag49
(g70
g51
NtRp2838
(dp2839
g54
(dp2840
g81
g82
ssg63
g2829
sg56
(lp2841
S':'
asbag49
(g70
g51
NtRp2842
(dp2843
g54
(dp2844
sg63
g2829
sg56
(lp2845
g49
(g50
g51
NtRp2846
(dp2847
g54
(dp2848
g62
I5
ssg63
g2842
sg56
(lp2849
g49
(g58
g51
NtRp2850
(dp2851
g54
(dp2852
g62
I4
ssg63
Nsg56
(lp2853
g49
(g65
g51
NtRp2854
(dp2855
g54
(dp2856
sg63
g2850
sg56
(lp2857
g49
(g70
g51
NtRp2858
(dp2859
g54
(dp2860
g74
g75
ssg63
g2854
sg56
(lp2861
S'environ'
p2862
asbag49
(g70
g51
NtRp2863
(dp2864
g54
(dp2865
g81
g82
ssg63
g2854
sg56
(lp2866
S':'
asbag49
(g70
g51
NtRp2867
(dp2868
g54
(dp2869
sg63
g2854
sg56
(lp2870
g49
(g50
g51
NtRp2871
(dp2872
g54
(dp2873
g62
I4
ssg63
g2867
sg56
(lp2874
g49
(g58
g51
NtRp2875
(dp2876
g54
(dp2877
g62
I3
ssg63
Nsg56
(lp2878
g49
(g65
g51
NtRp2879
(dp2880
g54
(dp2881
sg63
g2875
sg56
(lp2882
g49
(g70
g51
NtRp2883
(dp2884
g54
(dp2885
g74
g75
ssg63
g2879
sg56
(lp2886
S'HTTP_ACCEPT'
p2887
asbag49
(g70
g51
NtRp2888
(dp2889
g54
(dp2890
g81
g82
ssg63
g2879
sg56
(lp2891
S':'
asbag49
(g70
g51
NtRp2892
(dp2893
g54
(dp2894
sg63
g2879
sg56
(lp2895
g49
(g50
g51
NtRp2896
(dp2897
g54
(dp2898
g62
I3
ssg63
g2892
sg56
(lp2899
g1429
asbasbasbag49
(g65
g51
NtRp2900
(dp2901
g54
(dp2902
sg63
g2875
sg56
(lp2903
g49
(g70
g51
NtRp2904
(dp2905
g54
(dp2906
g74
g75
ssg63
g2900
sg56
(lp2907
S'HTTP_ACCEPT_CHARSET'
p2908
asbag49
(g70
g51
NtRp2909
(dp2910
g54
(dp2911
g81
g82
ssg63
g2900
sg56
(lp2912
S':'
asbag49
(g70
g51
NtRp2913
(dp2914
g54
(dp2915
sg63
g2900
sg56
(lp2916
g49
(g50
g51
NtRp2917
(dp2918
g54
(dp2919
g62
I3
ssg63
g2913
sg56
(lp2920
g1451
asbasbasbag49
(g65
g51
NtRp2921
(dp2922
g54
(dp2923
sg63
g2875
sg56
(lp2924
g49
(g70
g51
NtRp2925
(dp2926
g54
(dp2927
g74
g75
ssg63
g2921
sg56
(lp2928
S'HTTP_ACCEPT_ENCODING'
p2929
asbag49
(g70
g51
NtRp2930
(dp2931
g54
(dp2932
g81
g82
ssg63
g2921
sg56
(lp2933
S':'
asbag49
(g70
g51
NtRp2934
(dp2935
g54
(dp2936
sg63
g2921
sg56
(lp2937
g49
(g50
g51
NtRp2938
(dp2939
g54
(dp2940
g62
I3
ssg63
g2934
sg56
(lp2941
g1473
asbasbasbag49
(g65
g51
NtRp2942
(dp2943
g54
(dp2944
sg63
g2875
sg56
(lp2945
g49
(g70
g51
NtRp2946
(dp2947
g54
(dp2948
g74
g75
ssg63
g2942
sg56
(lp2949
S'HTTP_ACCEPT_LANGUAGE'
p2950
asbag49
(g70
g51
NtRp2951
(dp2952
g54
(dp2953
g81
g82
ssg63
g2942
sg56
(lp2954
S':'
asbag49
(g70
g51
NtRp2955
(dp2956
g54
(dp2957
sg63
g2942
sg56
(lp2958
g49
(g50
g51
NtRp2959
(dp2960
g54
(dp2961
g62
I3
ssg63
g2955
sg56
(lp2962
g1495
asbasbasbag49
(g65
g51
NtRp2963
(dp2964
g54
(dp2965
sg63
g2875
sg56
(lp2966
g49
(g70
g51
NtRp2967
(dp2968
g54
(dp2969
g74
g75
ssg63
g2963
sg56
(lp2970
S'HTTP_CACHE_CONTROL'
p2971
asbag49
(g70
g51
NtRp2972
(dp2973
g54
(dp2974
g81
g82
ssg63
g2963
sg56
(lp2975
S':'
asbag49
(g70
g51
NtRp2976
(dp2977
g54
(dp2978
sg63
g2963
sg56
(lp2979
g49
(g50
g51
NtRp2980
(dp2981
g54
(dp2982
g62
I3
ssg63
g2976
sg56
(lp2983
g1517
asbasbasbag49
(g65
g51
NtRp2984
(dp2985
g54
(dp2986
sg63
g2875
sg56
(lp2987
g49
(g70
g51
NtRp2988
(dp2989
g54
(dp2990
g74
g75
ssg63
g2984
sg56
(lp2991
S'HTTP_CONNECTION'
p2992
asbag49
(g70
g51
NtRp2993
(dp2994
g54
(dp2995
g81
g82
ssg63
g2984
sg56
(lp2996
S':'
asbag49
(g70
g51
NtRp2997
(dp2998
g54
(dp2999
sg63
g2984
sg56
(lp3000
g49
(g50
g51
NtRp3001
(dp3002
g54
(dp3003
g62
I3
ssg63
g2997
sg56
(lp3004
g1539
asbasbasbag49
(g65
g51
NtRp3005
(dp3006
g54
(dp3007
sg63
g2875
sg56
(lp3008
g49
(g70
g51
NtRp3009
(dp3010
g54
(dp3011
g74
g75
ssg63
g3005
sg56
(lp3012
S'HTTP_COOKIE'
p3013
asbag49
(g70
g51
NtRp3014
(dp3015
g54
(dp3016
g81
g82
ssg63
g3005
sg56
(lp3017
S':'
asbag49
(g70
g51
NtRp3018
(dp3019
g54
(dp3020
sg63
g3005
sg56
(lp3021
g49
(g50
g51
NtRp3022
(dp3023
g54
(dp3024
g62
I3
ssg63
g3018
sg56
(lp3025
g1561
asbasbasbag49
(g65
g51
NtRp3026
(dp3027
g54
(dp3028
sg63
g2875
sg56
(lp3029
g49
(g70
g51
NtRp3030
(dp3031
g54
(dp3032
g74
g75
ssg63
g3026
sg56
(lp3033
S'HTTP_HOST'
p3034
asbag49
(g70
g51
NtRp3035
(dp3036
g54
(dp3037
g81
g82
ssg63
g3026
sg56
(lp3038
S':'
asbag49
(g70
g51
NtRp3039
(dp3040
g54
(dp3041
sg63
g3026
sg56
(lp3042
g49
(g50
g51
NtRp3043
(dp3044
g54
(dp3045
g62
I3
ssg63
g3039
sg56
(lp3046
g1583
asbasbasbag49
(g65
g51
NtRp3047
(dp3048
g54
(dp3049
sg63
g2875
sg56
(lp3050
g49
(g70
g51
NtRp3051
(dp3052
g54
(dp3053
g74
g75
ssg63
g3047
sg56
(lp3054
S'HTTP_REFERER'
p3055
asbag49
(g70
g51
NtRp3056
(dp3057
g54
(dp3058
g81
g82
ssg63
g3047
sg56
(lp3059
S':'
asbag49
(g70
g51
NtRp3060
(dp3061
g54
(dp3062
sg63
g3047
sg56
(lp3063
g49
(g50
g51
NtRp3064
(dp3065
g54
(dp3066
g62
I3
ssg63
g3060
sg56
(lp3067
g1605
asbasbasbag49
(g65
g51
NtRp3068
(dp3069
g54
(dp3070
sg63
g2875
sg56
(lp3071
g49
(g70
g51
NtRp3072
(dp3073
g54
(dp3074
g74
g75
ssg63
g3068
sg56
(lp3075
S'HTTP_USER_AGENT'
p3076
asbag49
(g70
g51
NtRp3077
(dp3078
g54
(dp3079
g81
g82
ssg63
g3068
sg56
(lp3080
S':'
asbag49
(g70
g51
NtRp3081
(dp3082
g54
(dp3083
sg63
g3068
sg56
(lp3084
g49
(g50
g51
NtRp3085
(dp3086
g54
(dp3087
g62
I3
ssg63
g3081
sg56
(lp3088
g1627
asbasbasbag49
(g65
g51
NtRp3089
(dp3090
g54
(dp3091
sg63
g2875
sg56
(lp3092
g49
(g70
g51
NtRp3093
(dp3094
g54
(dp3095
g74
g75
ssg63
g3089
sg56
(lp3096
S'PATH_INFO'
p3097
asbag49
(g70
g51
NtRp3098
(dp3099
g54
(dp3100
g81
g82
ssg63
g3089
sg56
(lp3101
S':'
asbag49
(g70
g51
NtRp3102
(dp3103
g54
(dp3104
sg63
g3089
sg56
(lp3105
g49
(g50
g51
NtRp3106
(dp3107
g54
(dp3108
g62
I3
ssg63
g3102
sg56
(lp3109
g1691
asbasbasbag49
(g65
g51
NtRp3110
(dp3111
g54
(dp3112
sg63
g2875
sg56
(lp3113
g49
(g70
g51
NtRp3114
(dp3115
g54
(dp3116
g74
g75
ssg63
g3110
sg56
(lp3117
S'QUERY_STRING'
p3118
asbag49
(g70
g51
NtRp3119
(dp3120
g54
(dp3121
g81
g82
ssg63
g3110
sg56
(lp3122
S':'
asbag49
(g70
g51
NtRp3123
(dp3124
g54
(dp3125
sg63
g3110
sg56
(lp3126
g49
(g50
g51
NtRp3127
(dp3128
g54
(dp3129
g62
I3
ssg63
g3123
sg56
(lp3130
S''
asbasbasbag49
(g65
g51
NtRp3131
(dp3132
g54
(dp3133
sg63
g2875
sg56
(lp3134
g49
(g70
g51
NtRp3135
(dp3136
g54
(dp3137
g74
g75
ssg63
g3131
sg56
(lp3138
S'REMOTE_ADDR'
p3139
asbag49
(g70
g51
NtRp3140
(dp3141
g54
(dp3142
g81
g82
ssg63
g3131
sg56
(lp3143
S':'
asbag49
(g70
g51
NtRp3144
(dp3145
g54
(dp3146
sg63
g3131
sg56
(lp3147
g49
(g50
g51
NtRp3148
(dp3149
g54
(dp3150
g62
I3
ssg63
g3144
sg56
(lp3151
g182
asbasbasbag49
(g65
g51
NtRp3152
(dp3153
g54
(dp3154
sg63
g2875
sg56
(lp3155
g49
(g70
g51
NtRp3156
(dp3157
g54
(dp3158
g74
g75
ssg63
g3152
sg56
(lp3159
S'REMOTE_PORT'
p3160
asbag49
(g70
g51
NtRp3161
(dp3162
g54
(dp3163
g81
g82
ssg63
g3152
sg56
(lp3164
S':'
asbag49
(g70
g51
NtRp3165
(dp3166
g54
(dp3167
sg63
g3152
sg56
(lp3168
g49
(g50
g51
NtRp3169
(dp3170
g54
(dp3171
g62
I3
ssg63
g3165
sg56
(lp3172
g1755
asbasbasbag49
(g65
g51
NtRp3173
(dp3174
g54
(dp3175
sg63
g2875
sg56
(lp3176
g49
(g70
g51
NtRp3177
(dp3178
g54
(dp3179
g74
g75
ssg63
g3173
sg56
(lp3180
S'REQUEST_METHOD'
p3181
asbag49
(g70
g51
NtRp3182
(dp3183
g54
(dp3184
g81
g82
ssg63
g3173
sg56
(lp3185
S':'
asbag49
(g70
g51
NtRp3186
(dp3187
g54
(dp3188
sg63
g3173
sg56
(lp3189
g49
(g50
g51
NtRp3190
(dp3191
g54
(dp3192
g62
I3
ssg63
g3186
sg56
(lp3193
g1777
asbasbasbag49
(g65
g51
NtRp3194
(dp3195
g54
(dp3196
sg63
g2875
sg56
(lp3197
g49
(g70
g51
NtRp3198
(dp3199
g54
(dp3200
g74
g75
ssg63
g3194
sg56
(lp3201
S'SCRIPT_NAME'
p3202
asbag49
(g70
g51
NtRp3203
(dp3204
g54
(dp3205
g81
g82
ssg63
g3194
sg56
(lp3206
S':'
asbag49
(g70
g51
NtRp3207
(dp3208
g54
(dp3209
sg63
g3194
sg56
(lp3210
g49
(g50
g51
NtRp3211
(dp3212
g54
(dp3213
g62
I3
ssg63
g3207
sg56
(lp3214
S''
asbasbasbag49
(g65
g51
NtRp3215
(dp3216
g54
(dp3217
sg63
g2875
sg56
(lp3218
g49
(g70
g51
NtRp3219
(dp3220
g54
(dp3221
g74
g75
ssg63
g3215
sg56
(lp3222
S'SERVER_NAME'
p3223
asbag49
(g70
g51
NtRp3224
(dp3225
g54
(dp3226
g81
g82
ssg63
g3215
sg56
(lp3227
S':'
asbag49
(g70
g51
NtRp3228
(dp3229
g54
(dp3230
sg63
g3215
sg56
(lp3231
g49
(g50
g51
NtRp3232
(dp3233
g54
(dp3234
g62
I3
ssg63
g3228
sg56
(lp3235
g1820
asbasbasbag49
(g65
g51
NtRp3236
(dp3237
g54
(dp3238
sg63
g2875
sg56
(lp3239
g49
(g70
g51
NtRp3240
(dp3241
g54
(dp3242
g74
g75
ssg63
g3236
sg56
(lp3243
S'SERVER_PORT'
p3244
asbag49
(g70
g51
NtRp3245
(dp3246
g54
(dp3247
g81
g82
ssg63
g3236
sg56
(lp3248
S':'
asbag49
(g70
g51
NtRp3249
(dp3250
g54
(dp3251
sg63
g3236
sg56
(lp3252
g49
(g50
g51
NtRp3253
(dp3254
g54
(dp3255
g62
I3
ssg63
g3249
sg56
(lp3256
g1842
asbasbasbag49
(g65
g51
NtRp3257
(dp3258
g54
(dp3259
sg63
g2875
sg56
(lp3260
g49
(g70
g51
NtRp3261
(dp3262
g54
(dp3263
g74
g75
ssg63
g3257
sg56
(lp3264
S'SERVER_PROTOCOL'
p3265
asbag49
(g70
g51
NtRp3266
(dp3267
g54
(dp3268
g81
g82
ssg63
g3257
sg56
(lp3269
S':'
asbag49
(g70
g51
NtRp3270
(dp3271
g54
(dp3272
sg63
g3257
sg56
(lp3273
g49
(g50
g51
NtRp3274
(dp3275
g54
(dp3276
g62
I3
ssg63
g3270
sg56
(lp3277
g1864
asbasbasbag49
(g65
g51
NtRp3278
(dp3279
g54
(dp3280
sg63
g2875
sg56
(lp3281
g49
(g70
g51
NtRp3282
(dp3283
g54
(dp3284
g74
g75
ssg63
g3278
sg56
(lp3285
S'SERVER_SOFTWARE'
p3286
asbag49
(g70
g51
NtRp3287
(dp3288
g54
(dp3289
g81
g82
ssg63
g3278
sg56
(lp3290
S':'
asbag49
(g70
g51
NtRp3291
(dp3292
g54
(dp3293
sg63
g3278
sg56
(lp3294
g49
(g50
g51
NtRp3295
(dp3296
g54
(dp3297
g62
I3
ssg63
g3291
sg56
(lp3298
g1886
asbasbasbag49
(g65
g51
NtRp3299
(dp3300
g54
(dp3301
sg63
g2875
sg56
(lp3302
g49
(g70
g51
NtRp3303
(dp3304
g54
(dp3305
g74
g75
ssg63
g3299
sg56
(lp3306
S'wsgi.errors'
p3307
asbag49
(g70
g51
NtRp3308
(dp3309
g54
(dp3310
g81
g82
ssg63
g3299
sg56
(lp3311
S':'
asbag49
(g70
g51
NtRp3312
(dp3313
g54
(dp3314
sg63
g3299
sg56
(lp3315
g49
(g50
g51
NtRp3316
(dp3317
g54
(dp3318
g62
I3
ssg63
g3312
sg56
(lp3319
S"<open file '<stderr>', mode 'w' at 0x016000B0>"
p3320
asbasbasbag49
(g65
g51
NtRp3321
(dp3322
g54
(dp3323
sg63
g2875
sg56
(lp3324
g49
(g70
g51
NtRp3325
(dp3326
g54
(dp3327
g74
g75
ssg63
g3321
sg56
(lp3328
S'wsgi.file_wrapper'
p3329
asbag49
(g70
g51
NtRp3330
(dp3331
g54
(dp3332
g81
g82
ssg63
g3321
sg56
(lp3333
S':'
asbag49
(g70
g51
NtRp3334
(dp3335
g54
(dp3336
sg63
g3321
sg56
(lp3337
g49
(g50
g51
NtRp3338
(dp3339
g54
(dp3340
g62
I3
ssg63
g3334
sg56
(lp3341
S'<class wsgiref.util.FileWrapper at 0x025361B0>'
p3342
asbasbasbag49
(g65
g51
NtRp3343
(dp3344
g54
(dp3345
sg63
g2875
sg56
(lp3346
g49
(g70
g51
NtRp3347
(dp3348
g54
(dp3349
g74
g75
ssg63
g3343
sg56
(lp3350
S'wsgi.input'
p3351
asbag49
(g70
g51
NtRp3352
(dp3353
g54
(dp3354
g81
g82
ssg63
g3343
sg56
(lp3355
S':'
asbag49
(g70
g51
NtRp3356
(dp3357
g54
(dp3358
sg63
g3343
sg56
(lp3359
g49
(g50
g51
NtRp3360
(dp3361
g54
(dp3362
g62
I3
ssg63
g3356
sg56
(lp3363
S'<cStringIO.StringO object at 0x060A4D00>'
p3364
asbasbasbag49
(g65
g51
NtRp3365
(dp3366
g54
(dp3367
sg63
g2875
sg56
(lp3368
g49
(g70
g51
NtRp3369
(dp3370
g54
(dp3371
g74
g75
ssg63
g3365
sg56
(lp3372
S'wsgi.multiprocess'
p3373
asbag49
(g70
g51
NtRp3374
(dp3375
g54
(dp3376
g81
g82
ssg63
g3365
sg56
(lp3377
S':'
asbag49
(g70
g51
NtRp3378
(dp3379
g54
(dp3380
sg63
g3365
sg56
(lp3381
g49
(g50
g51
NtRp3382
(dp3383
g54
(dp3384
g62
I3
ssg63
g3378
sg56
(lp3385
g92
asbasbasbag49
(g65
g51
NtRp3386
(dp3387
g54
(dp3388
sg63
g2875
sg56
(lp3389
g49
(g70
g51
NtRp3390
(dp3391
g54
(dp3392
g74
g75
ssg63
g3386
sg56
(lp3393
S'wsgi.multithread'
p3394
asbag49
(g70
g51
NtRp3395
(dp3396
g54
(dp3397
g81
g82
ssg63
g3386
sg56
(lp3398
S':'
asbag49
(g70
g51
NtRp3399
(dp3400
g54
(dp3401
sg63
g3386
sg56
(lp3402
g49
(g50
g51
NtRp3403
(dp3404
g54
(dp3405
g62
I3
ssg63
g3399
sg56
(lp3406
g2126
asbasbasbag49
(g65
g51
NtRp3407
(dp3408
g54
(dp3409
sg63
g2875
sg56
(lp3410
g49
(g70
g51
NtRp3411
(dp3412
g54
(dp3413
g74
g75
ssg63
g3407
sg56
(lp3414
S'wsgi.run_once'
p3415
asbag49
(g70
g51
NtRp3416
(dp3417
g54
(dp3418
g81
g82
ssg63
g3407
sg56
(lp3419
S':'
asbag49
(g70
g51
NtRp3420
(dp3421
g54
(dp3422
sg63
g3407
sg56
(lp3423
g49
(g50
g51
NtRp3424
(dp3425
g54
(dp3426
g62
I3
ssg63
g3420
sg56
(lp3427
g92
asbasbasbag49
(g65
g51
NtRp3428
(dp3429
g54
(dp3430
sg63
g2875
sg56
(lp3431
g49
(g70
g51
NtRp3432
(dp3433
g54
(dp3434
g74
g75
ssg63
g3428
sg56
(lp3435
S'wsgi.url_scheme'
p3436
asbag49
(g70
g51
NtRp3437
(dp3438
g54
(dp3439
g81
g82
ssg63
g3428
sg56
(lp3440
S':'
asbag49
(g70
g51
NtRp3441
(dp3442
g54
(dp3443
sg63
g3428
sg56
(lp3444
g49
(g50
g51
NtRp3445
(dp3446
g54
(dp3447
g62
I3
ssg63
g3441
sg56
(lp3448
g2169
asbasbasbag49
(g65
g51
NtRp3449
(dp3450
g54
(dp3451
sg63
g2875
sg56
(lp3452
g49
(g70
g51
NtRp3453
(dp3454
g54
(dp3455
g74
g75
ssg63
g3449
sg56
(lp3456
S'wsgi.version'
p3457
asbag49
(g70
g51
NtRp3458
(dp3459
g54
(dp3460
g81
g82
ssg63
g3449
sg56
(lp3461
S':'
asbag49
(g70
g51
NtRp3462
(dp3463
g54
(dp3464
sg63
g3449
sg56
(lp3465
g49
(g50
g51
NtRp3466
(dp3467
g54
(dp3468
g62
I3
ssg63
g3462
sg56
(lp3469
S'1'
asbasbasbasbasbasbasbasbasbasbasbasbasbsS'frames'
p3470
(lp3471
(dp3472
S'file'
p3473
S'C:\\Users\\omkara\\Desktop\\web2py\\gluon\\restricted.py'
p3474
sS'dump'
p3475
(dp3476
sS'lnum'
p3477
I205
sS'lines'
p3478
(dp3479
sS'call'
p3480
S'(code=r"response.write(\'<!DOCTYPE html>\\n<!-- paulirish....ponse.write(\'\\n</body>\\n</html>\\n\', escape=False)", environment={\'A\': <class \'gluon.html.A\'>, \'Auth\': <class \'gluon.tools.Auth\'>, \'B\': <class \'gluon.html.B\'>, \'BEAUTIFY\': <class \'gluon.html.BEAUTIFY\'>, \'BODY\': <class \'gluon.html.BODY\'>, \'BR\': <class \'gluon.html.BR\'>, \'BUTTON\': <class \'gluon.html.BUTTON\'>, \'CAT\': <class \'gluon.html.CAT\'>, \'CENTER\': <class \'gluon.html.CENTER\'>, \'CLEANUP\': <class \'gluon.validators.CLEANUP\'>, ...}, layer=r\'C:\\Users\\omkara\\Desktop\\web2py\\applications\\SlugBarter\\views\\default/mypage.html\')'
p3481
sS'func'
p3482
S'restricted'
p3483
sa(dp3484
g3473
S'C:\\Users\\omkara\\Desktop\\web2py\\applications\\SlugBarter\\views\\default\\mypage.html'
p3485
sg3475
(dp3486
sg3477
I86
sg3478
(dp3487
I96
S'response.write(\' <!-- this is default footer -->\\n        <div class="footer-content clearfix">\\n          <div class="copyright">\', escape=False)'
p3488
sI77
S'    response.write(\'\\n        <div class="four columns left-sidebar">\\n          \', escape=False)'
p3489
sI78
S"    response.write('\\n          <h3>Left Sidebar</h3>\\n          <p></p>\\n          ', escape=False)"
p3490
sI79
S"    response.write('\\n        </div>\\n        ', escape=False)"
p3491
sI80
S'    pass'
p3492
sI81
S'response.write(\'\\n        \\n        <div class="\', escape=False)'
p3493
sI82
S'response.write(middle_columns)'
p3494
sI83
S'response.write(\' columns center">\\n          \', escape=False)'
p3495
sI84
S"response.write('\\n          ', escape=False)"
p3496
sI85
S"response.write('\\r\\n<h3>Welcome to your page ', escape=False)"
p3497
sI86
S'response.write(username or anonymous)'
p3498
sI87
S"response.write('</h3>\\r\\n\\r\\n<br>Post a listing<br>\\r\\n<br>View my listings<br>\\r\\n<br>My Interests<br>\\r\\n<br>My Matches<br>\\r\\n<br>Search for listings by categories<br>\\r\\n', escape=False)"
p3499
sI88
S"response.write('\\n          ', escape=False)"
p3500
sI89
S"response.write('\\n        </div>\\n        \\n        ', escape=False)"
p3501
sI90
S'if right_sidebar_enabled:'
p3502
sI91
S'    response.write(\'\\n        <div class="four columns">\\n          \', escape=False)'
p3503
sI92
S"    response.write('\\n          <h3>Right Sidebar</h3>\\n          <p></p>\\n          ', escape=False)"
p3504
sI93
S"    response.write('\\n        </div>    \\n        ', escape=False)"
p3505
sI94
S'    pass'
p3506
sI95
S'response.write(\'\\n        \\n      </div><!-- container -->\\n    </div><!-- main -->\\n    \\n    <div class="push"></div>\\n  </div><!-- wrapper -->\\n\\n  <div class="footer">\\n    <div class="container">    \\n      <div class="sixteen columns">\\n        \', escape=False)'
p3507
ssg3480
S'()'
p3508
sg3482
S'<module>'
p3509
sasS'pyver'
p3510
S'Python 2.5.4: C:\\Users\\omkara\\Desktop\\web2py\\web2py.exe'
p3511
sS'session'
p3512
g49
(g50
g51
NtRp3513
(dp3514
g54
(dp3515
sg56
(lp3516
g49
(g58
g51
NtRp3517
(dp3518
g54
(dp3519
g62
I5
ssg63
Nsg56
(lp3520
g49
(g65
g51
NtRp3521
(dp3522
g54
(dp3523
sg63
g3517
sg56
(lp3524
g49
(g70
g51
NtRp3525
(dp3526
g54
(dp3527
g74
g75
ssg63
g3521
sg56
(lp3528
S'auth'
p3529
asbag49
(g70
g51
NtRp3530
(dp3531
g54
(dp3532
g81
g82
ssg63
g3521
sg56
(lp3533
S':'
asbag49
(g70
g51
NtRp3534
(dp3535
g54
(dp3536
sg63
g3521
sg56
(lp3537
g49
(g50
g51
NtRp3538
(dp3539
g54
(dp3540
g62
I5
ssg63
g3534
sg56
(lp3541
g49
(g58
g51
NtRp3542
(dp3543
g54
(dp3544
g62
I4
ssg63
Nsg56
(lp3545
g49
(g65
g51
NtRp3546
(dp3547
g54
(dp3548
sg63
g3542
sg56
(lp3549
g49
(g70
g51
NtRp3550
(dp3551
g54
(dp3552
g74
g75
ssg63
g3546
sg56
(lp3553
S'expiration'
p3554
asbag49
(g70
g51
NtRp3555
(dp3556
g54
(dp3557
g81
g82
ssg63
g3546
sg56
(lp3558
S':'
asbag49
(g70
g51
NtRp3559
(dp3560
g54
(dp3561
sg63
g3546
sg56
(lp3562
g49
(g50
g51
NtRp3563
(dp3564
g54
(dp3565
g62
I4
ssg63
g3559
sg56
(lp3566
S'3600'
p3567
asbasbasbag49
(g65
g51
NtRp3568
(dp3569
g54
(dp3570
sg63
g3542
sg56
(lp3571
g49
(g70
g51
NtRp3572
(dp3573
g54
(dp3574
g74
g75
ssg63
g3568
sg56
(lp3575
S'hmac_key'
p3576
asbag49
(g70
g51
NtRp3577
(dp3578
g54
(dp3579
g81
g82
ssg63
g3568
sg56
(lp3580
S':'
asbag49
(g70
g51
NtRp3581
(dp3582
g54
(dp3583
sg63
g3568
sg56
(lp3584
g49
(g50
g51
NtRp3585
(dp3586
g54
(dp3587
g62
I4
ssg63
g3581
sg56
(lp3588
S'ec740e7e-337b-40a9-841d-416abf873e7f'
p3589
asbasbasbag49
(g65
g51
NtRp3590
(dp3591
g54
(dp3592
sg63
g3542
sg56
(lp3593
g49
(g70
g51
NtRp3594
(dp3595
g54
(dp3596
g74
g75
ssg63
g3590
sg56
(lp3597
S'last_visit'
p3598
asbag49
(g70
g51
NtRp3599
(dp3600
g54
(dp3601
g81
g82
ssg63
g3590
sg56
(lp3602
S':'
asbag49
(g70
g51
NtRp3603
(dp3604
g54
(dp3605
sg63
g3590
sg56
(lp3606
g49
(g50
g51
NtRp3607
(dp3608
g54
(dp3609
g62
I4
ssg63
g3603
sg56
(lp3610
S'datetime.datetime(2012, 11, 11, 14, 59, 14, 278000)'
p3611
asbasbasbag49
(g65
g51
NtRp3612
(dp3613
g54
(dp3614
sg63
g3542
sg56
(lp3615
g49
(g70
g51
NtRp3616
(dp3617
g54
(dp3618
g74
g75
ssg63
g3612
sg56
(lp3619
S'remember'
p3620
asbag49
(g70
g51
NtRp3621
(dp3622
g54
(dp3623
g81
g82
ssg63
g3612
sg56
(lp3624
S':'
asbag49
(g70
g51
NtRp3625
(dp3626
g54
(dp3627
sg63
g3612
sg56
(lp3628
g49
(g50
g51
NtRp3629
(dp3630
g54
(dp3631
g62
I4
ssg63
g3625
sg56
(lp3632
g92
asbasbasbag49
(g65
g51
NtRp3633
(dp3634
g54
(dp3635
sg63
g3542
sg56
(lp3636
g49
(g70
g51
NtRp3637
(dp3638
g54
(dp3639
g74
g75
ssg63
g3633
sg56
(lp3640
S'user'
p3641
asbag49
(g70
g51
NtRp3642
(dp3643
g54
(dp3644
g81
g82
ssg63
g3633
sg56
(lp3645
S':'
asbag49
(g70
g51
NtRp3646
(dp3647
g54
(dp3648
sg63
g3633
sg56
(lp3649
g49
(g50
g51
NtRp3650
(dp3651
g54
(dp3652
g62
I4
ssg63
g3646
sg56
(lp3653
g49
(g58
g51
NtRp3654
(dp3655
g54
(dp3656
g62
I3
ssg63
Nsg56
(lp3657
g49
(g65
g51
NtRp3658
(dp3659
g54
(dp3660
sg63
g3654
sg56
(lp3661
g49
(g70
g51
NtRp3662
(dp3663
g54
(dp3664
g74
g75
ssg63
g3658
sg56
(lp3665
S'dateCreated'
p3666
asbag49
(g70
g51
NtRp3667
(dp3668
g54
(dp3669
g81
g82
ssg63
g3658
sg56
(lp3670
S':'
asbag49
(g70
g51
NtRp3671
(dp3672
g54
(dp3673
sg63
g3658
sg56
(lp3674
g49
(g50
g51
NtRp3675
(dp3676
g54
(dp3677
g62
I3
ssg63
g3671
sg56
(lp3678
S'datetime.datetime(2012, 11, 11, 19, 41, 48)'
p3679
asbasbasbag49
(g65
g51
NtRp3680
(dp3681
g54
(dp3682
sg63
g3654
sg56
(lp3683
g49
(g70
g51
NtRp3684
(dp3685
g54
(dp3686
g74
g75
ssg63
g3680
sg56
(lp3687
S'email'
p3688
asbag49
(g70
g51
NtRp3689
(dp3690
g54
(dp3691
g81
g82
ssg63
g3680
sg56
(lp3692
S':'
asbag49
(g70
g51
NtRp3693
(dp3694
g54
(dp3695
sg63
g3680
sg56
(lp3696
g49
(g50
g51
NtRp3697
(dp3698
g54
(dp3699
g62
I3
ssg63
g3693
sg56
(lp3700
S'sukha620@yahoo.com'
p3701
asbasbasbag49
(g65
g51
NtRp3702
(dp3703
g54
(dp3704
sg63
g3654
sg56
(lp3705
g49
(g70
g51
NtRp3706
(dp3707
g54
(dp3708
g74
g75
ssg63
g3702
sg56
(lp3709
S'first_name'
p3710
asbag49
(g70
g51
NtRp3711
(dp3712
g54
(dp3713
g81
g82
ssg63
g3702
sg56
(lp3714
S':'
asbag49
(g70
g51
NtRp3715
(dp3716
g54
(dp3717
sg63
g3702
sg56
(lp3718
g49
(g50
g51
NtRp3719
(dp3720
g54
(dp3721
g62
I3
ssg63
g3715
sg56
(lp3722
S'Sukhraj'
p3723
asbasbasbag49
(g65
g51
NtRp3724
(dp3725
g54
(dp3726
sg63
g3654
sg56
(lp3727
g49
(g70
g51
NtRp3728
(dp3729
g54
(dp3730
g74
g75
ssg63
g3724
sg56
(lp3731
S'id'
p3732
asbag49
(g70
g51
NtRp3733
(dp3734
g54
(dp3735
g81
g82
ssg63
g3724
sg56
(lp3736
S':'
asbag49
(g70
g51
NtRp3737
(dp3738
g54
(dp3739
sg63
g3724
sg56
(lp3740
g49
(g50
g51
NtRp3741
(dp3742
g54
(dp3743
g62
I3
ssg63
g3737
sg56
(lp3744
S'2'
asbasbasbag49
(g65
g51
NtRp3745
(dp3746
g54
(dp3747
sg63
g3654
sg56
(lp3748
g49
(g70
g51
NtRp3749
(dp3750
g54
(dp3751
g74
g75
ssg63
g3745
sg56
(lp3752
S'last_name'
p3753
asbag49
(g70
g51
NtRp3754
(dp3755
g54
(dp3756
g81
g82
ssg63
g3745
sg56
(lp3757
S':'
asbag49
(g70
g51
NtRp3758
(dp3759
g54
(dp3760
sg63
g3745
sg56
(lp3761
g49
(g50
g51
NtRp3762
(dp3763
g54
(dp3764
g62
I3
ssg63
g3758
sg56
(lp3765
S'Singh'
p3766
asbasbasbag49
(g65
g51
NtRp3767
(dp3768
g54
(dp3769
sg63
g3654
sg56
(lp3770
g49
(g70
g51
NtRp3771
(dp3772
g54
(dp3773
g74
g75
ssg63
g3767
sg56
(lp3774
S'password'
p3775
asbag49
(g70
g51
NtRp3776
(dp3777
g54
(dp3778
g81
g82
ssg63
g3767
sg56
(lp3779
S':'
asbag49
(g70
g51
NtRp3780
(dp3781
g54
(dp3782
sg63
g3767
sg56
(lp3783
g49
(g50
g51
NtRp3784
(dp3785
g54
(dp3786
g62
I3
ssg63
g3780
sg56
(lp3787
S'd82bdd86eff736d398dfae05281ad449'
p3788
asbasbasbag49
(g65
g51
NtRp3789
(dp3790
g54
(dp3791
sg63
g3654
sg56
(lp3792
g49
(g70
g51
NtRp3793
(dp3794
g54
(dp3795
g74
g75
ssg63
g3789
sg56
(lp3796
S'registration_id'
p3797
asbag49
(g70
g51
NtRp3798
(dp3799
g54
(dp3800
g81
g82
ssg63
g3789
sg56
(lp3801
S':'
asbag49
(g70
g51
NtRp3802
(dp3803
g54
(dp3804
sg63
g3789
sg56
(lp3805
g49
(g50
g51
NtRp3806
(dp3807
g54
(dp3808
g62
I3
ssg63
g3802
sg56
(lp3809
S''
asbasbasbag49
(g65
g51
NtRp3810
(dp3811
g54
(dp3812
sg63
g3654
sg56
(lp3813
g49
(g70
g51
NtRp3814
(dp3815
g54
(dp3816
g74
g75
ssg63
g3810
sg56
(lp3817
S'registration_key'
p3818
asbag49
(g70
g51
NtRp3819
(dp3820
g54
(dp3821
g81
g82
ssg63
g3810
sg56
(lp3822
S':'
asbag49
(g70
g51
NtRp3823
(dp3824
g54
(dp3825
sg63
g3810
sg56
(lp3826
g49
(g50
g51
NtRp3827
(dp3828
g54
(dp3829
g62
I3
ssg63
g3823
sg56
(lp3830
S''
asbasbasbag49
(g65
g51
NtRp3831
(dp3832
g54
(dp3833
sg63
g3654
sg56
(lp3834
g49
(g70
g51
NtRp3835
(dp3836
g54
(dp3837
g74
g75
ssg63
g3831
sg56
(lp3838
S'reset_password_key'
p3839
asbag49
(g70
g51
NtRp3840
(dp3841
g54
(dp3842
g81
g82
ssg63
g3831
sg56
(lp3843
S':'
asbag49
(g70
g51
NtRp3844
(dp3845
g54
(dp3846
sg63
g3831
sg56
(lp3847
g49
(g50
g51
NtRp3848
(dp3849
g54
(dp3850
g62
I3
ssg63
g3844
sg56
(lp3851
S''
asbasbasbag49
(g65
g51
NtRp3852
(dp3853
g54
(dp3854
sg63
g3654
sg56
(lp3855
g49
(g70
g51
NtRp3856
(dp3857
g54
(dp3858
g74
g75
ssg63
g3852
sg56
(lp3859
S'username'
p3860
asbag49
(g70
g51
NtRp3861
(dp3862
g54
(dp3863
g81
g82
ssg63
g3852
sg56
(lp3864
S':'
asbag49
(g70
g51
NtRp3865
(dp3866
g54
(dp3867
sg63
g3852
sg56
(lp3868
g49
(g50
g51
NtRp3869
(dp3870
g54
(dp3871
g62
I3
ssg63
g3865
sg56
(lp3872
S'5abi209'
p3873
asbasbasbasbasbasbasbag49
(g65
g51
NtRp3874
(dp3875
g54
(dp3876
sg63
g3542
sg56
(lp3877
g49
(g70
g51
NtRp3878
(dp3879
g54
(dp3880
g74
g75
ssg63
g3874
sg56
(lp3881
S'user_groups'
p3882
asbag49
(g70
g51
NtRp3883
(dp3884
g54
(dp3885
g81
g82
ssg63
g3874
sg56
(lp3886
S':'
asbag49
(g70
g51
NtRp3887
(dp3888
g54
(dp3889
sg63
g3874
sg56
(lp3890
g49
(g50
g51
NtRp3891
(dp3892
g54
(dp3893
g62
I4
ssg63
g3887
sg56
(lp3894
g49
(g58
g51
NtRp3895
(dp3896
g54
(dp3897
g62
I3
ssg63
Nsg56
(lp3898
g49
(g65
g51
NtRp3899
(dp3900
g54
(dp3901
sg63
g3895
sg56
(lp3902
g49
(g70
g51
NtRp3903
(dp3904
g54
(dp3905
g74
g75
ssg63
g3899
sg56
(lp3906
S'1'
asbag49
(g70
g51
NtRp3907
(dp3908
g54
(dp3909
g81
g82
ssg63
g3899
sg56
(lp3910
S':'
asbag49
(g70
g51
NtRp3911
(dp3912
g54
(dp3913
sg63
g3899
sg56
(lp3914
g49
(g50
g51
NtRp3915
(dp3916
g54
(dp3917
g62
I3
ssg63
g3911
sg56
(lp3918
S'user_2'
p3919
asbasbasbasbasbasbasbasbasbasbasbag49
(g65
g51
NtRp3920
(dp3921
g54
(dp3922
sg63
g3517
sg56
(lp3923
g49
(g70
g51
NtRp3924
(dp3925
g54
(dp3926
g74
g75
ssg63
g3920
sg56
(lp3927
S'last_query'
p3928
asbag49
(g70
g51
NtRp3929
(dp3930
g54
(dp3931
g81
g82
ssg63
g3920
sg56
(lp3932
S':'
asbag49
(g70
g51
NtRp3933
(dp3934
g54
(dp3935
sg63
g3920
sg56
(lp3936
g49
(g50
g51
NtRp3937
(dp3938
g54
(dp3939
g62
I5
ssg63
g3933
sg56
(lp3940
S'db.auth_user.id>0'
p3941
asbasbasbasbasbsS'etype'
p3942
S"<type 'exceptions.NameError'>"
p3943
sS'date'
p3944
S'Sun Nov 11 15:00:33 2012'
p3945
sS'response'
p3946
g49
(g50
g51
NtRp3947
(dp3948
g54
(dp3949
sg56
(lp3950
g49
(g58
g51
NtRp3951
(dp3952
g54
(dp3953
g62
I5
ssg63
Nsg56
(lp3954
g49
(g65
g51
NtRp3955
(dp3956
g54
(dp3957
sg63
g3951
sg56
(lp3958
g49
(g70
g51
NtRp3959
(dp3960
g54
(dp3961
g74
g75
ssg63
g3955
sg56
(lp3962
g147
asbag49
(g70
g51
NtRp3963
(dp3964
g54
(dp3965
g81
g82
ssg63
g3955
sg56
(lp3966
S':'
asbag49
(g70
g51
NtRp3967
(dp3968
g54
(dp3969
sg63
g3955
sg56
(lp3970
g49
(g50
g51
NtRp3971
(dp3972
g54
(dp3973
g62
I5
ssg63
g3967
sg56
(lp3974
S'<cStringIO.StringO object at 0x062BDD80>'
p3975
asbasbasbag49
(g65
g51
NtRp3976
(dp3977
g54
(dp3978
sg63
g3951
sg56
(lp3979
g49
(g70
g51
NtRp3980
(dp3981
g54
(dp3982
g74
g75
ssg63
g3976
sg56
(lp3983
g213
asbag49
(g70
g51
NtRp3984
(dp3985
g54
(dp3986
g81
g82
ssg63
g3976
sg56
(lp3987
S':'
asbag49
(g70
g51
NtRp3988
(dp3989
g54
(dp3990
sg63
g3976
sg56
(lp3991
g49
(g50
g51
NtRp3992
(dp3993
g54
(dp3994
g62
I5
ssg63
g3988
sg56
(lp3995
g49
(g58
g51
NtRp3996
(dp3997
g54
(dp3998
g62
I4
ssg63
Nsg56
(lp3999
g49
(g65
g51
NtRp4000
(dp4001
g54
(dp4002
sg63
g3996
sg56
(lp4003
g49
(g70
g51
NtRp4004
(dp4005
g54
(dp4006
g74
g75
ssg63
g4000
sg56
(lp4007
S'session_id_slugbarter'
p4008
asbag49
(g70
g51
NtRp4009
(dp4010
g54
(dp4011
g81
g82
ssg63
g4000
sg56
(lp4012
S':'
asbag49
(g70
g51
NtRp4013
(dp4014
g54
(dp4015
sg63
g4000
sg56
(lp4016
g49
(g50
g51
NtRp4017
(dp4018
g54
(dp4019
g62
I4
ssg63
g4013
sg56
(lp4020
g49
(g58
g51
NtRp4021
(dp4022
g54
(dp4023
g62
I3
ssg63
Nsg56
(lp4024
g49
(g65
g51
NtRp4025
(dp4026
g54
(dp4027
sg63
g4021
sg56
(lp4028
g49
(g70
g51
NtRp4029
(dp4030
g54
(dp4031
g74
g75
ssg63
g4025
sg56
(lp4032
g263
asbag49
(g70
g51
NtRp4033
(dp4034
g54
(dp4035
g81
g82
ssg63
g4025
sg56
(lp4036
S':'
asbag49
(g70
g51
NtRp4037
(dp4038
g54
(dp4039
sg63
g4025
sg56
(lp4040
g49
(g50
g51
NtRp4041
(dp4042
g54
(dp4043
g62
I3
ssg63
g4037
sg56
(lp4044
S''
asbasbasbag49
(g65
g51
NtRp4045
(dp4046
g54
(dp4047
sg63
g4021
sg56
(lp4048
g49
(g70
g51
NtRp4049
(dp4050
g54
(dp4051
g74
g75
ssg63
g4045
sg56
(lp4052
g284
asbag49
(g70
g51
NtRp4053
(dp4054
g54
(dp4055
g81
g82
ssg63
g4045
sg56
(lp4056
S':'
asbag49
(g70
g51
NtRp4057
(dp4058
g54
(dp4059
sg63
g4045
sg56
(lp4060
g49
(g50
g51
NtRp4061
(dp4062
g54
(dp4063
g62
I3
ssg63
g4057
sg56
(lp4064
S''
asbasbasbag49
(g65
g51
NtRp4065
(dp4066
g54
(dp4067
sg63
g4021
sg56
(lp4068
g49
(g70
g51
NtRp4069
(dp4070
g54
(dp4071
g74
g75
ssg63
g4065
sg56
(lp4072
g305
asbag49
(g70
g51
NtRp4073
(dp4074
g54
(dp4075
g81
g82
ssg63
g4065
sg56
(lp4076
S':'
asbag49
(g70
g51
NtRp4077
(dp4078
g54
(dp4079
sg63
g4065
sg56
(lp4080
g49
(g50
g51
NtRp4081
(dp4082
g54
(dp4083
g62
I3
ssg63
g4077
sg56
(lp4084
S''
asbasbasbag49
(g65
g51
NtRp4085
(dp4086
g54
(dp4087
sg63
g4021
sg56
(lp4088
g49
(g70
g51
NtRp4089
(dp4090
g54
(dp4091
g74
g75
ssg63
g4085
sg56
(lp4092
g326
asbag49
(g70
g51
NtRp4093
(dp4094
g54
(dp4095
g81
g82
ssg63
g4085
sg56
(lp4096
S':'
asbag49
(g70
g51
NtRp4097
(dp4098
g54
(dp4099
sg63
g4085
sg56
(lp4100
g49
(g50
g51
NtRp4101
(dp4102
g54
(dp4103
g62
I3
ssg63
g4097
sg56
(lp4104
S''
asbasbasbag49
(g65
g51
NtRp4105
(dp4106
g54
(dp4107
sg63
g4021
sg56
(lp4108
g49
(g70
g51
NtRp4109
(dp4110
g54
(dp4111
g74
g75
ssg63
g4105
sg56
(lp4112
g347
asbag49
(g70
g51
NtRp4113
(dp4114
g54
(dp4115
g81
g82
ssg63
g4105
sg56
(lp4116
S':'
asbag49
(g70
g51
NtRp4117
(dp4118
g54
(dp4119
sg63
g4105
sg56
(lp4120
g49
(g50
g51
NtRp4121
(dp4122
g54
(dp4123
g62
I3
ssg63
g4117
sg56
(lp4124
S'/'
asbasbasbag49
(g65
g51
NtRp4125
(dp4126
g54
(dp4127
sg63
g4021
sg56
(lp4128
g49
(g70
g51
NtRp4129
(dp4130
g54
(dp4131
g74
g75
ssg63
g4125
sg56
(lp4132
g368
asbag49
(g70
g51
NtRp4133
(dp4134
g54
(dp4135
g81
g82
ssg63
g4125
sg56
(lp4136
S':'
asbag49
(g70
g51
NtRp4137
(dp4138
g54
(dp4139
sg63
g4125
sg56
(lp4140
g49
(g50
g51
NtRp4141
(dp4142
g54
(dp4143
g62
I3
ssg63
g4137
sg56
(lp4144
S''
asbasbasbag49
(g65
g51
NtRp4145
(dp4146
g54
(dp4147
sg63
g4021
sg56
(lp4148
g49
(g70
g51
NtRp4149
(dp4150
g54
(dp4151
g74
g75
ssg63
g4145
sg56
(lp4152
g389
asbag49
(g70
g51
NtRp4153
(dp4154
g54
(dp4155
g81
g82
ssg63
g4145
sg56
(lp4156
S':'
asbag49
(g70
g51
NtRp4157
(dp4158
g54
(dp4159
sg63
g4145
sg56
(lp4160
g49
(g50
g51
NtRp4161
(dp4162
g54
(dp4163
g62
I3
ssg63
g4157
sg56
(lp4164
S''
asbasbasbasbasbasbasbasbasbasbasbag49
(g65
g51
NtRp4165
(dp4166
g54
(dp4167
sg63
g3951
sg56
(lp4168
g49
(g70
g51
NtRp4169
(dp4170
g54
(dp4171
g74
g75
ssg63
g4165
sg56
(lp4172
S'delimiters'
p4173
asbag49
(g70
g51
NtRp4174
(dp4175
g54
(dp4176
g81
g82
ssg63
g4165
sg56
(lp4177
S':'
asbag49
(g70
g51
NtRp4178
(dp4179
g54
(dp4180
sg63
g4165
sg56
(lp4181
g49
(g50
g51
NtRp4182
(dp4183
g54
(dp4184
g62
I5
ssg63
g4178
sg56
(lp4185
g49
(g58
g51
NtRp4186
(dp4187
g54
(dp4188
g62
I4
ssg63
Nsg56
(lp4189
g49
(g65
g51
NtRp4190
(dp4191
g54
(dp4192
sg63
g4186
sg56
(lp4193
g49
(g70
g51
NtRp4194
(dp4195
g54
(dp4196
sg63
g4190
sg56
(lp4197
g49
(g50
g51
NtRp4198
(dp4199
g54
(dp4200
g62
I4
ssg63
g4194
sg56
(lp4201
S'{{'
p4202
asbasbasbag49
(g65
g51
NtRp4203
(dp4204
g54
(dp4205
sg63
g4186
sg56
(lp4206
g49
(g70
g51
NtRp4207
(dp4208
g54
(dp4209
sg63
g4203
sg56
(lp4210
g49
(g50
g51
NtRp4211
(dp4212
g54
(dp4213
g62
I4
ssg63
g4207
sg56
(lp4214
S'}}'
p4215
asbasbasbasbasbasbasbag49
(g65
g51
NtRp4216
(dp4217
g54
(dp4218
sg63
g3951
sg56
(lp4219
g49
(g70
g51
NtRp4220
(dp4221
g54
(dp4222
g74
g75
ssg63
g4216
sg56
(lp4223
S'files'
p4224
asbag49
(g70
g51
NtRp4225
(dp4226
g54
(dp4227
g81
g82
ssg63
g4216
sg56
(lp4228
S':'
asbag49
(g70
g51
NtRp4229
(dp4230
g54
(dp4231
sg63
g4216
sg56
(lp4232
g49
(g50
g51
NtRp4233
(dp4234
g54
(dp4235
g62
I5
ssg63
g4229
sg56
(lp4236
g49
(g58
g51
NtRp4237
(dp4238
g54
(dp4239
g62
I4
ssg63
Nsg56
(lp4240
g49
(g65
g51
NtRp4241
(dp4242
g54
(dp4243
sg63
g4237
sg56
(lp4244
g49
(g70
g51
NtRp4245
(dp4246
g54
(dp4247
sg63
g4241
sg56
(lp4248
g49
(g50
g51
NtRp4249
(dp4250
g54
(dp4251
g62
I4
ssg63
g4245
sg56
(lp4252
S'/SlugBarter/static/js/jquery.js'
p4253
asbasbasbag49
(g65
g51
NtRp4254
(dp4255
g54
(dp4256
sg63
g4237
sg56
(lp4257
g49
(g70
g51
NtRp4258
(dp4259
g54
(dp4260
sg63
g4254
sg56
(lp4261
g49
(g50
g51
NtRp4262
(dp4263
g54
(dp4264
g62
I4
ssg63
g4258
sg56
(lp4265
S'/SlugBarter/static/css/calendar.css'
p4266
asbasbasbag49
(g65
g51
NtRp4267
(dp4268
g54
(dp4269
sg63
g4237
sg56
(lp4270
g49
(g70
g51
NtRp4271
(dp4272
g54
(dp4273
sg63
g4267
sg56
(lp4274
g49
(g50
g51
NtRp4275
(dp4276
g54
(dp4277
g62
I4
ssg63
g4271
sg56
(lp4278
S'/SlugBarter/static/js/calendar.js'
p4279
asbasbasbag49
(g65
g51
NtRp4280
(dp4281
g54
(dp4282
sg63
g4237
sg56
(lp4283
g49
(g70
g51
NtRp4284
(dp4285
g54
(dp4286
sg63
g4280
sg56
(lp4287
g49
(g50
g51
NtRp4288
(dp4289
g54
(dp4290
g62
I4
ssg63
g4284
sg56
(lp4291
S'/SlugBarter/static/js/web2py.js'
p4292
asbasbasbag49
(g65
g51
NtRp4293
(dp4294
g54
(dp4295
sg63
g4237
sg56
(lp4296
g49
(g70
g51
NtRp4297
(dp4298
g54
(dp4299
sg63
g4293
sg56
(lp4300
g49
(g50
g51
NtRp4301
(dp4302
g54
(dp4303
g62
I4
ssg63
g4297
sg56
(lp4304
S'/SlugBarter/static/css/skeleton.css'
p4305
asbasbasbag49
(g65
g51
NtRp4306
(dp4307
g54
(dp4308
sg63
g4237
sg56
(lp4309
g49
(g70
g51
NtRp4310
(dp4311
g54
(dp4312
sg63
g4306
sg56
(lp4313
g49
(g50
g51
NtRp4314
(dp4315
g54
(dp4316
g62
I4
ssg63
g4310
sg56
(lp4317
S'/SlugBarter/static/css/web2py.css'
p4318
asbasbasbag49
(g65
g51
NtRp4319
(dp4320
g54
(dp4321
sg63
g4237
sg56
(lp4322
g49
(g70
g51
NtRp4323
(dp4324
g54
(dp4325
sg63
g4319
sg56
(lp4326
g49
(g50
g51
NtRp4327
(dp4328
g54
(dp4329
g62
I4
ssg63
g4323
sg56
(lp4330
S'/SlugBarter/static/css/superfish.css'
p4331
asbasbasbag49
(g65
g51
NtRp4332
(dp4333
g54
(dp4334
sg63
g4237
sg56
(lp4335
g49
(g70
g51
NtRp4336
(dp4337
g54
(dp4338
sg63
g4332
sg56
(lp4339
g49
(g50
g51
NtRp4340
(dp4341
g54
(dp4342
g62
I4
ssg63
g4336
sg56
(lp4343
S'/SlugBarter/static/js/superfish.js'
p4344
asbasbasbasbasbasbasbag49
(g65
g51
NtRp4345
(dp4346
g54
(dp4347
sg63
g3951
sg56
(lp4348
g49
(g70
g51
NtRp4349
(dp4350
g54
(dp4351
g74
g75
ssg63
g4345
sg56
(lp4352
S'flash'
p4353
asbag49
(g70
g51
NtRp4354
(dp4355
g54
(dp4356
g81
g82
ssg63
g4345
sg56
(lp4357
S':'
asbag49
(g70
g51
NtRp4358
(dp4359
g54
(dp4360
sg63
g4345
sg56
(lp4361
g49
(g50
g51
NtRp4362
(dp4363
g54
(dp4364
g62
I5
ssg63
g4358
sg56
(lp4365
S''
asbasbasbag49
(g65
g51
NtRp4366
(dp4367
g54
(dp4368
sg63
g3951
sg56
(lp4369
g49
(g70
g51
NtRp4370
(dp4371
g54
(dp4372
g74
g75
ssg63
g4366
sg56
(lp4373
S'generic_patterns'
p4374
asbag49
(g70
g51
NtRp4375
(dp4376
g54
(dp4377
g81
g82
ssg63
g4366
sg56
(lp4378
S':'
asbag49
(g70
g51
NtRp4379
(dp4380
g54
(dp4381
sg63
g4366
sg56
(lp4382
g49
(g50
g51
NtRp4383
(dp4384
g54
(dp4385
g62
I5
ssg63
g4379
sg56
(lp4386
g49
(g58
g51
NtRp4387
(dp4388
g54
(dp4389
g62
I4
ssg63
Nsg56
(lp4390
g49
(g65
g51
NtRp4391
(dp4392
g54
(dp4393
sg63
g4387
sg56
(lp4394
g49
(g70
g51
NtRp4395
(dp4396
g54
(dp4397
sg63
g4391
sg56
(lp4398
g49
(g50
g51
NtRp4399
(dp4400
g54
(dp4401
g62
I4
ssg63
g4395
sg56
(lp4402
S'*'
asbasbasbasbasbasbasbag49
(g65
g51
NtRp4403
(dp4404
g54
(dp4405
sg63
g3951
sg56
(lp4406
g49
(g70
g51
NtRp4407
(dp4408
g54
(dp4409
g74
g75
ssg63
g4403
sg56
(lp4410
S'headers'
p4411
asbag49
(g70
g51
NtRp4412
(dp4413
g54
(dp4414
g81
g82
ssg63
g4403
sg56
(lp4415
S':'
asbag49
(g70
g51
NtRp4416
(dp4417
g54
(dp4418
sg63
g4403
sg56
(lp4419
g49
(g50
g51
NtRp4420
(dp4421
g54
(dp4422
g62
I5
ssg63
g4416
sg56
(lp4423
g49
(g58
g51
NtRp4424
(dp4425
g54
(dp4426
g62
I4
ssg63
Nsg56
(lp4427
g49
(g65
g51
NtRp4428
(dp4429
g54
(dp4430
sg63
g4424
sg56
(lp4431
g49
(g70
g51
NtRp4432
(dp4433
g54
(dp4434
g74
g75
ssg63
g4428
sg56
(lp4435
S'Cache-Control'
p4436
asbag49
(g70
g51
NtRp4437
(dp4438
g54
(dp4439
g81
g82
ssg63
g4428
sg56
(lp4440
S':'
asbag49
(g70
g51
NtRp4441
(dp4442
g54
(dp4443
sg63
g4428
sg56
(lp4444
g49
(g50
g51
NtRp4445
(dp4446
g54
(dp4447
g62
I4
ssg63
g4441
sg56
(lp4448
S'no-store, no-cache, must-revalidate, post-check=0, pre-check=0'
p4449
asbasbasbag49
(g65
g51
NtRp4450
(dp4451
g54
(dp4452
sg63
g4424
sg56
(lp4453
g49
(g70
g51
NtRp4454
(dp4455
g54
(dp4456
g74
g75
ssg63
g4450
sg56
(lp4457
S'Content-Type'
p4458
asbag49
(g70
g51
NtRp4459
(dp4460
g54
(dp4461
g81
g82
ssg63
g4450
sg56
(lp4462
S':'
asbag49
(g70
g51
NtRp4463
(dp4464
g54
(dp4465
sg63
g4450
sg56
(lp4466
g49
(g50
g51
NtRp4467
(dp4468
g54
(dp4469
g62
I4
ssg63
g4463
sg56
(lp4470
S'text/html; charset=utf-8'
p4471
asbasbasbag49
(g65
g51
NtRp4472
(dp4473
g54
(dp4474
sg63
g4424
sg56
(lp4475
g49
(g70
g51
NtRp4476
(dp4477
g54
(dp4478
g74
g75
ssg63
g4472
sg56
(lp4479
S'Expires'
p4480
asbag49
(g70
g51
NtRp4481
(dp4482
g54
(dp4483
g81
g82
ssg63
g4472
sg56
(lp4484
S':'
asbag49
(g70
g51
NtRp4485
(dp4486
g54
(dp4487
sg63
g4472
sg56
(lp4488
g49
(g50
g51
NtRp4489
(dp4490
g54
(dp4491
g62
I4
ssg63
g4485
sg56
(lp4492
S'Sun, 11 Nov 2012 23:00:33 GMT'
p4493
asbasbasbag49
(g65
g51
NtRp4494
(dp4495
g54
(dp4496
sg63
g4424
sg56
(lp4497
g49
(g70
g51
NtRp4498
(dp4499
g54
(dp4500
g74
g75
ssg63
g4494
sg56
(lp4501
S'Pragma'
p4502
asbag49
(g70
g51
NtRp4503
(dp4504
g54
(dp4505
g81
g82
ssg63
g4494
sg56
(lp4506
S':'
asbag49
(g70
g51
NtRp4507
(dp4508
g54
(dp4509
sg63
g4494
sg56
(lp4510
g49
(g50
g51
NtRp4511
(dp4512
g54
(dp4513
g62
I4
ssg63
g4507
sg56
(lp4514
S'no-cache'
p4515
asbasbasbag49
(g65
g51
NtRp4516
(dp4517
g54
(dp4518
sg63
g4424
sg56
(lp4519
g49
(g70
g51
NtRp4520
(dp4521
g54
(dp4522
g74
g75
ssg63
g4516
sg56
(lp4523
S'X-Powered-By'
p4524
asbag49
(g70
g51
NtRp4525
(dp4526
g54
(dp4527
g81
g82
ssg63
g4516
sg56
(lp4528
S':'
asbag49
(g70
g51
NtRp4529
(dp4530
g54
(dp4531
sg63
g4516
sg56
(lp4532
g49
(g50
g51
NtRp4533
(dp4534
g54
(dp4535
g62
I4
ssg63
g4529
sg56
(lp4536
S'web2py'
p4537
asbasbasbasbasbasbasbag49
(g65
g51
NtRp4538
(dp4539
g54
(dp4540
sg63
g3951
sg56
(lp4541
g49
(g70
g51
NtRp4542
(dp4543
g54
(dp4544
g74
g75
ssg63
g4538
sg56
(lp4545
S'menu'
p4546
asbag49
(g70
g51
NtRp4547
(dp4548
g54
(dp4549
g81
g82
ssg63
g4538
sg56
(lp4550
S':'
asbag49
(g70
g51
NtRp4551
(dp4552
g54
(dp4553
sg63
g4538
sg56
(lp4554
g49
(g50
g51
NtRp4555
(dp4556
g54
(dp4557
g62
I5
ssg63
g4551
sg56
(lp4558
g49
(g58
g51
NtRp4559
(dp4560
g54
(dp4561
g62
I4
ssg63
Nsg56
(lp4562
g49
(g65
g51
NtRp4563
(dp4564
g54
(dp4565
sg63
g4559
sg56
(lp4566
g49
(g70
g51
NtRp4567
(dp4568
g54
(dp4569
sg63
g4563
sg56
(lp4570
g49
(g50
g51
NtRp4571
(dp4572
g54
(dp4573
g62
I4
ssg63
g4567
sg56
(lp4574
g49
(g58
g51
NtRp4575
(dp4576
g54
(dp4577
g62
I3
ssg63
Nsg56
(lp4578
g49
(g65
g51
NtRp4579
(dp4580
g54
(dp4581
sg63
g4575
sg56
(lp4582
g49
(g70
g51
NtRp4583
(dp4584
g54
(dp4585
sg63
g4579
sg56
(lp4586
g49
(g50
g51
NtRp4587
(dp4588
g54
(dp4589
g62
I3
ssg63
g4583
sg56
(lp4590
cgluon.languages
lazyT_unpickle
p4591
(S's\x04\x00\x00\x00Home'
tRp4592
asbasbasbag49
(g65
g51
NtRp4593
(dp4594
g54
(dp4595
sg63
g4575
sg56
(lp4596
g49
(g70
g51
NtRp4597
(dp4598
g54
(dp4599
sg63
g4593
sg56
(lp4600
g49
(g50
g51
NtRp4601
(dp4602
g54
(dp4603
g62
I3
ssg63
g4597
sg56
(lp4604
g92
asbasbasbag49
(g65
g51
NtRp4605
(dp4606
g54
(dp4607
sg63
g4575
sg56
(lp4608
g49
(g70
g51
NtRp4609
(dp4610
g54
(dp4611
sg63
g4605
sg56
(lp4612
g49
(g50
g51
NtRp4613
(dp4614
g54
(dp4615
g62
I3
ssg63
g4609
sg56
(lp4616
S'/SlugBarter/default/index'
p4617
asbasbasbag49
(g65
g51
NtRp4618
(dp4619
g54
(dp4620
sg63
g4575
sg56
(lp4621
g49
(g70
g51
NtRp4622
(dp4623
g54
(dp4624
sg63
g4618
sg56
(lp4625
g49
(g50
g51
NtRp4626
(dp4627
g54
(dp4628
g62
I3
ssg63
g4622
sg56
(lp4629
g49
(g58
g51
NtRp4630
(dp4631
g54
(dp4632
g62
I2
ssg63
Nsg56
(lp4633
sbasbasbasbasbasbasbasbag49
(g65
g51
NtRp4634
(dp4635
g54
(dp4636
sg63
g4559
sg56
(lp4637
g49
(g70
g51
NtRp4638
(dp4639
g54
(dp4640
sg63
g4634
sg56
(lp4641
g49
(g50
g51
NtRp4642
(dp4643
g54
(dp4644
g62
I4
ssg63
g4638
sg56
(lp4645
g49
(g58
g51
NtRp4646
(dp4647
g54
(dp4648
g62
I3
ssg63
Nsg56
(lp4649
g49
(g65
g51
NtRp4650
(dp4651
g54
(dp4652
sg63
g4646
sg56
(lp4653
g49
(g70
g51
NtRp4654
(dp4655
g54
(dp4656
sg63
g4650
sg56
(lp4657
g49
(g50
g51
NtRp4658
(dp4659
g54
(dp4660
g62
I3
ssg63
g4654
sg56
(lp4661
g49
(cgluon.html
SPAN
p4662
g51
NtRp4663
(dp4664
g54
(dp4665
g74
S'color:yellow'
p4666
ssg63
g49
(cgluon.html
A
p4667
g51
NtRp4668
(dp4669
g54
(dp4670
S'_onclick'
p4671
S'javascript:void(0);return false;'
p4672
sS'_href'
p4673
S'#'
ssg63
g49
(cgluon.html
LI
p4674
g51
NtRp4675
(dp4676
g54
(dp4677
S'_class'
p4678
S'web2py-menu-expand'
p4679
ssg63
g49
(cgluon.html
UL
p4680
g51
NtRp4681
(dp4682
g54
(dp4683
S'mobile'
p4684
I00
sS'li_class'
p4685
g4679
sg4678
S'sf-menu'
p4686
sS'ul_class'
p4687
S'web2py-menu-vertical'
p4688
sS'li_active'
p4689
S'web2py-menu-active'
p4690
ssg63
Nsg56
(lp4691
g49
(g4674
g51
NtRp4692
(dp4693
g54
(dp4694
sg63
g4681
sg56
(lp4695
g49
(g4667
g51
NtRp4696
(dp4697
g54
(dp4698
g4673
g4617
ssg63
g4692
sg56
(lp4699
g4592
asbasbag4675
asbsg56
(lp4700
g4668
ag49
(g4680
g51
NtRp4701
(dp4702
g54
(dp4703
g4678
g4688
ssg63
g4675
sg56
(lp4704
g49
(g4674
g51
NtRp4705
(dp4706
g54
(dp4707
sg63
g4701
sg56
(lp4708
g49
(g4667
g51
NtRp4709
(dp4710
g54
(dp4711
g4673
S'/admin/default/site'
p4712
ssg63
g4705
sg56
(lp4713
g4591
(S's\x08\x00\x00\x00My Sites'
tRp4714
asbasbag49
(g4674
g51
NtRp4715
(dp4716
g54
(dp4717
g4678
g4679
ssg63
g4701
sg56
(lp4718
g49
(g4667
g51
NtRp4719
(dp4720
g54
(dp4721
g4673
S'/admin/default/design/SlugBarter'
p4722
ssg63
g4715
sg56
(lp4723
g4591
(S's\x08\x00\x00\x00This App'
tRp4724
asbag49
(g4680
g51
NtRp4725
(dp4726
g54
(dp4727
g4678
g4688
ssg63
g4715
sg56
(lp4728
g49
(g4674
g51
NtRp4729
(dp4730
g54
(dp4731
sg63
g4725
sg56
(lp4732
g49
(g4667
g51
NtRp4733
(dp4734
g54
(dp4735
g4673
S'/admin/default/edit/SlugBarter/controllers/default.py'
p4736
ssg63
g4729
sg56
(lp4737
g4591
(S's\n\x00\x00\x00Controller'
tRp4738
asbasbag49
(g4674
g51
NtRp4739
(dp4740
g54
(dp4741
sg63
g4725
sg56
(lp4742
g49
(g4667
g51
NtRp4743
(dp4744
g54
(dp4745
g4673
S'/admin/default/edit/SlugBarter/views/default/mypage.html'
p4746
ssg63
g4739
sg56
(lp4747
g4591
(S's\x04\x00\x00\x00View'
tRp4748
asbasbag49
(g4674
g51
NtRp4749
(dp4750
g54
(dp4751
sg63
g4725
sg56
(lp4752
g49
(g4667
g51
NtRp4753
(dp4754
g54
(dp4755
g4673
S'/admin/default/edit/SlugBarter/views/layout.html'
p4756
ssg63
g4749
sg56
(lp4757
g4591
(S's\x06\x00\x00\x00Layout'
tRp4758
asbasbag49
(g4674
g51
NtRp4759
(dp4760
g54
(dp4761
sg63
g4725
sg56
(lp4762
g49
(g4667
g51
NtRp4763
(dp4764
g54
(dp4765
g4673
S'/admin/default/edit/SlugBarter/static/css/web2py.css'
p4766
ssg63
g4759
sg56
(lp4767
g4591
(S's\n\x00\x00\x00Stylesheet'
tRp4768
asbasbag49
(g4674
g51
NtRp4769
(dp4770
g54
(dp4771
sg63
g4725
sg56
(lp4772
g49
(g4667
g51
NtRp4773
(dp4774
g54
(dp4775
g4673
S'/admin/default/edit/SlugBarter/models/db.py'
p4776
ssg63
g4769
sg56
(lp4777
g4591
(S's\x08\x00\x00\x00DB Model'
tRp4778
asbasbag49
(g4674
g51
NtRp4779
(dp4780
g54
(dp4781
sg63
g4725
sg56
(lp4782
g49
(g4667
g51
NtRp4783
(dp4784
g54
(dp4785
g4673
S'/admin/default/edit/SlugBarter/models/menu.py'
p4786
ssg63
g4779
sg56
(lp4787
g4591
(S's\n\x00\x00\x00Menu Model'
tRp4788
asbasbag49
(g4674
g51
NtRp4789
(dp4790
g54
(dp4791
sg63
g4725
sg56
(lp4792
g49
(g4667
g51
NtRp4793
(dp4794
g54
(dp4795
g4673
S'/SlugBarter/appadmin/index'
p4796
ssg63
g4789
sg56
(lp4797
g4591
(S's\x08\x00\x00\x00Database'
tRp4798
asbasbag49
(g4674
g51
NtRp4799
(dp4800
g54
(dp4801
sg63
g4725
sg56
(lp4802
g49
(g4667
g51
NtRp4803
(dp4804
g54
(dp4805
g4673
S'/admin/default/errors/SlugBarter'
p4806
ssg63
g4799
sg56
(lp4807
g4591
(S's\x06\x00\x00\x00Errors'
tRp4808
asbasbag49
(g4674
g51
NtRp4809
(dp4810
g54
(dp4811
sg63
g4725
sg56
(lp4812
g49
(g4667
g51
NtRp4813
(dp4814
g54
(dp4815
g4673
S'/admin/default/about/SlugBarter'
p4816
ssg63
g4809
sg56
(lp4817
g4591
(S's\x05\x00\x00\x00About'
tRp4818
asbasbasbasbag49
(g4674
g51
NtRp4819
(dp4820
g54
(dp4821
g4678
g4679
ssg63
g4701
sg56
(lp4822
g49
(g4667
g51
NtRp4823
(dp4824
g54
(dp4825
g4673
S'http://www.web2py.com'
p4826
ssg63
g4819
sg56
(lp4827
S'web2py.com'
p4828
asbag49
(g4680
g51
NtRp4829
(dp4830
g54
(dp4831
g4678
g4688
ssg63
g4819
sg56
(lp4832
g49
(g4674
g51
NtRp4833
(dp4834
g54
(dp4835
sg63
g4829
sg56
(lp4836
g49
(g4667
g51
NtRp4837
(dp4838
g54
(dp4839
g4673
S'http://www.web2py.com/examples/default/download'
p4840
ssg63
g4833
sg56
(lp4841
g4591
(S's\x08\x00\x00\x00Download'
tRp4842
asbasbag49
(g4674
g51
NtRp4843
(dp4844
g54
(dp4845
sg63
g4829
sg56
(lp4846
g49
(g4667
g51
NtRp4847
(dp4848
g54
(dp4849
g4673
S'http://www.web2py.com/examples/default/support'
p4850
ssg63
g4843
sg56
(lp4851
g4591
(S's\x07\x00\x00\x00Support'
tRp4852
asbasbag49
(g4674
g51
NtRp4853
(dp4854
g54
(dp4855
sg63
g4829
sg56
(lp4856
g49
(g4667
g51
NtRp4857
(dp4858
g54
(dp4859
g4673
S'http://web2py.com/demo_admin'
p4860
ssg63
g4853
sg56
(lp4861
g4591
(S's\x04\x00\x00\x00Demo'
tRp4862
asbasbag49
(g4674
g51
NtRp4863
(dp4864
g54
(dp4865
sg63
g4829
sg56
(lp4866
g49
(g4667
g51
NtRp4867
(dp4868
g54
(dp4869
g4673
S'http://web2py.com/examples/default/examples'
p4870
ssg63
g4863
sg56
(lp4871
g4591
(S's\x0e\x00\x00\x00Quick Examples'
tRp4872
asbasbag49
(g4674
g51
NtRp4873
(dp4874
g54
(dp4875
sg63
g4829
sg56
(lp4876
g49
(g4667
g51
NtRp4877
(dp4878
g54
(dp4879
g4673
S'http://web2py.com/AlterEgo'
p4880
ssg63
g4873
sg56
(lp4881
g4591
(S's\x03\x00\x00\x00FAQ'
tRp4882
asbasbag49
(g4674
g51
NtRp4883
(dp4884
g54
(dp4885
sg63
g4829
sg56
(lp4886
g49
(g4667
g51
NtRp4887
(dp4888
g54
(dp4889
g4673
S'http://www.web2py.com/examples/default/videos/'
p4890
ssg63
g4883
sg56
(lp4891
g4591
(S's\x06\x00\x00\x00Videos'
tRp4892
asbasbag49
(g4674
g51
NtRp4893
(dp4894
g54
(dp4895
sg63
g4829
sg56
(lp4896
g49
(g4667
g51
NtRp4897
(dp4898
g54
(dp4899
g4673
S'http://web2py.com/appliances'
p4900
ssg63
g4893
sg56
(lp4901
g4591
(S's\x11\x00\x00\x00Free Applications'
tRp4902
asbasbag49
(g4674
g51
NtRp4903
(dp4904
g54
(dp4905
sg63
g4829
sg56
(lp4906
g49
(g4667
g51
NtRp4907
(dp4908
g54
(dp4909
g4673
S'http://web2py.com/plugins'
p4910
ssg63
g4903
sg56
(lp4911
g4591
(S's\x07\x00\x00\x00Plugins'
tRp4912
asbasbag49
(g4674
g51
NtRp4913
(dp4914
g54
(dp4915
sg63
g4829
sg56
(lp4916
g49
(g4667
g51
NtRp4917
(dp4918
g54
(dp4919
g4673
S'http://web2py.com/layouts'
p4920
ssg63
g4913
sg56
(lp4921
g4591
(S's\x07\x00\x00\x00Layouts'
tRp4922
asbasbag49
(g4674
g51
NtRp4923
(dp4924
g54
(dp4925
sg63
g4829
sg56
(lp4926
g49
(g4667
g51
NtRp4927
(dp4928
g54
(dp4929
g4673
S'http://web2pyslices.com/'
p4930
ssg63
g4923
sg56
(lp4931
g4591
(S's\x07\x00\x00\x00Recipes'
tRp4932
asbasbag49
(g4674
g51
NtRp4933
(dp4934
g54
(dp4935
sg63
g4829
sg56
(lp4936
g49
(g4667
g51
NtRp4937
(dp4938
g54
(dp4939
g4673
S'http://web2py.com/semantic'
p4940
ssg63
g4933
sg56
(lp4941
g4591
(S's\x08\x00\x00\x00Semantic'
tRp4942
asbasbasbasbag49
(g4674
g51
NtRp4943
(dp4944
g54
(dp4945
g4678
g4679
ssg63
g4701
sg56
(lp4946
g49
(g4667
g51
NtRp4947
(dp4948
g54
(dp4949
g4673
S'http://www.web2py.com/book'
p4950
ssg63
g4943
sg56
(lp4951
g4591
(S's\r\x00\x00\x00Documentation'
tRp4952
asbag49
(g4680
g51
NtRp4953
(dp4954
g54
(dp4955
g4678
g4688
ssg63
g4943
sg56
(lp4956
g49
(g4674
g51
NtRp4957
(dp4958
g54
(dp4959
sg63
g4953
sg56
(lp4960
g49
(g4667
g51
NtRp4961
(dp4962
g54
(dp4963
g4673
S'http://www.web2py.com/book/default/chapter/00'
p4964
ssg63
g4957
sg56
(lp4965
g4591
(S's\x07\x00\x00\x00Preface'
tRp4966
asbasbag49
(g4674
g51
NtRp4967
(dp4968
g54
(dp4969
sg63
g4953
sg56
(lp4970
g49
(g4667
g51
NtRp4971
(dp4972
g54
(dp4973
g4673
S'http://www.web2py.com/book/default/chapter/01'
p4974
ssg63
g4967
sg56
(lp4975
g4591
(S's\x0c\x00\x00\x00Introduction'
tRp4976
asbasbag49
(g4674
g51
NtRp4977
(dp4978
g54
(dp4979
sg63
g4953
sg56
(lp4980
g49
(g4667
g51
NtRp4981
(dp4982
g54
(dp4983
g4673
S'http://www.web2py.com/book/default/chapter/02'
p4984
ssg63
g4977
sg56
(lp4985
g4591
(S's\x06\x00\x00\x00Python'
tRp4986
asbasbag49
(g4674
g51
NtRp4987
(dp4988
g54
(dp4989
sg63
g4953
sg56
(lp4990
g49
(g4667
g51
NtRp4991
(dp4992
g54
(dp4993
g4673
S'http://www.web2py.com/book/default/chapter/03'
p4994
ssg63
g4987
sg56
(lp4995
g4591
(S's\x08\x00\x00\x00Overview'
tRp4996
asbasbag49
(g4674
g51
NtRp4997
(dp4998
g54
(dp4999
sg63
g4953
sg56
(lp5000
g49
(g4667
g51
NtRp5001
(dp5002
g54
(dp5003
g4673
S'http://www.web2py.com/book/default/chapter/04'
p5004
ssg63
g4997
sg56
(lp5005
g4591
(S's\x08\x00\x00\x00The Core'
tRp5006
asbasbag49
(g4674
g51
NtRp5007
(dp5008
g54
(dp5009
sg63
g4953
sg56
(lp5010
g49
(g4667
g51
NtRp5011
(dp5012
g54
(dp5013
g4673
S'http://www.web2py.com/book/default/chapter/05'
p5014
ssg63
g5007
sg56
(lp5015
g4591
(S's\t\x00\x00\x00The Views'
tRp5016
asbasbag49
(g4674
g51
NtRp5017
(dp5018
g54
(dp5019
sg63
g4953
sg56
(lp5020
g49
(g4667
g51
NtRp5021
(dp5022
g54
(dp5023
g4673
S'http://www.web2py.com/book/default/chapter/06'
p5024
ssg63
g5017
sg56
(lp5025
g4591
(S's\x08\x00\x00\x00Database'
tRp5026
asbasbag49
(g4674
g51
NtRp5027
(dp5028
g54
(dp5029
sg63
g4953
sg56
(lp5030
g49
(g4667
g51
NtRp5031
(dp5032
g54
(dp5033
g4673
S'http://www.web2py.com/book/default/chapter/07'
p5034
ssg63
g5027
sg56
(lp5035
g4591
(S's\x14\x00\x00\x00Forms and Validators'
tRp5036
asbasbag49
(g4674
g51
NtRp5037
(dp5038
g54
(dp5039
sg63
g4953
sg56
(lp5040
g49
(g4667
g51
NtRp5041
(dp5042
g54
(dp5043
g4673
S'http://www.web2py.com/book/default/chapter/08'
p5044
ssg63
g5037
sg56
(lp5045
g4591
(S's\r\x00\x00\x00Email and SMS'
tRp5046
asbasbag49
(g4674
g51
NtRp5047
(dp5048
g54
(dp5049
sg63
g4953
sg56
(lp5050
g49
(g4667
g51
NtRp5051
(dp5052
g54
(dp5053
g4673
S'http://www.web2py.com/book/default/chapter/09'
p5054
ssg63
g5047
sg56
(lp5055
g4591
(S's\x0e\x00\x00\x00Access Control'
tRp5056
asbasbag49
(g4674
g51
NtRp5057
(dp5058
g54
(dp5059
sg63
g4953
sg56
(lp5060
g49
(g4667
g51
NtRp5061
(dp5062
g54
(dp5063
g4673
S'http://www.web2py.com/book/default/chapter/10'
p5064
ssg63
g5057
sg56
(lp5065
g4591
(S's\x08\x00\x00\x00Services'
tRp5066
asbasbag49
(g4674
g51
NtRp5067
(dp5068
g54
(dp5069
sg63
g4953
sg56
(lp5070
g49
(g4667
g51
NtRp5071
(dp5072
g54
(dp5073
g4673
S'http://www.web2py.com/book/default/chapter/11'
p5074
ssg63
g5067
sg56
(lp5075
g4591
(S's\x0c\x00\x00\x00Ajax Recipes'
tRp5076
asbasbag49
(g4674
g51
NtRp5077
(dp5078
g54
(dp5079
sg63
g4953
sg56
(lp5080
g49
(g4667
g51
NtRp5081
(dp5082
g54
(dp5083
g4673
S'http://www.web2py.com/book/default/chapter/12'
p5084
ssg63
g5077
sg56
(lp5085
g4591
(S's\x16\x00\x00\x00Components and Plugins'
tRp5086
asbasbag49
(g4674
g51
NtRp5087
(dp5088
g54
(dp5089
sg63
g4953
sg56
(lp5090
g49
(g4667
g51
NtRp5091
(dp5092
g54
(dp5093
g4673
S'http://www.web2py.com/book/default/chapter/13'
p5094
ssg63
g5087
sg56
(lp5095
g4591
(S's\x12\x00\x00\x00Deployment Recipes'
tRp5096
asbasbag49
(g4674
g51
NtRp5097
(dp5098
g54
(dp5099
sg63
g4953
sg56
(lp5100
g49
(g4667
g51
NtRp5101
(dp5102
g54
(dp5103
g4673
S'http://www.web2py.com/book/default/chapter/14'
p5104
ssg63
g5097
sg56
(lp5105
g4591
(S's\r\x00\x00\x00Other Recipes'
tRp5106
asbasbag49
(g4674
g51
NtRp5107
(dp5108
g54
(dp5109
sg63
g4953
sg56
(lp5110
g49
(g4667
g51
NtRp5111
(dp5112
g54
(dp5113
g4673
S'http://stores.lulu.com/web2py'
p5114
ssg63
g5107
sg56
(lp5115
g4591
(S's\r\x00\x00\x00Buy this book'
tRp5116
asbasbasbasbag49
(g4674
g51
NtRp5117
(dp5118
g54
(dp5119
g4678
g4679
ssg63
g4701
sg56
(lp5120
g49
(g4667
g51
NtRp5121
(dp5122
g54
(dp5123
g4671
g4672
sg4673
S'#'
ssg63
g5117
sg56
(lp5124
g4591
(S's\t\x00\x00\x00Community'
tRp5125
asbag49
(g4680
g51
NtRp5126
(dp5127
g54
(dp5128
g4678
g4688
ssg63
g5117
sg56
(lp5129
g49
(g4674
g51
NtRp5130
(dp5131
g54
(dp5132
sg63
g5126
sg56
(lp5133
g49
(g4667
g51
NtRp5134
(dp5135
g54
(dp5136
g4673
S'http://www.web2py.com/examples/default/usergroups'
p5137
ssg63
g5130
sg56
(lp5138
g4591
(S's\x06\x00\x00\x00Groups'
tRp5139
asbasbag49
(g4674
g51
NtRp5140
(dp5141
g54
(dp5142
sg63
g5126
sg56
(lp5143
g49
(g4667
g51
NtRp5144
(dp5145
g54
(dp5146
g4673
S'http://twitter.com/web2py'
p5147
ssg63
g5140
sg56
(lp5148
g4591
(S's\x07\x00\x00\x00Twitter'
tRp5149
asbasbag49
(g4674
g51
NtRp5150
(dp5151
g54
(dp5152
sg63
g5126
sg56
(lp5153
g49
(g4667
g51
NtRp5154
(dp5155
g54
(dp5156
g4673
S'http://webchat.freenode.net/?channels=web2py'
p5157
ssg63
g5150
sg56
(lp5158
g4591
(S's\t\x00\x00\x00Live Chat'
tRp5159
asbasbasbasbag49
(g4674
g51
NtRp5160
(dp5161
g54
(dp5162
g4678
g4679
ssg63
g4701
sg56
(lp5163
g49
(g4667
g51
NtRp5164
(dp5165
g54
(dp5166
g4671
g4672
sg4673
S'#'
ssg63
g5160
sg56
(lp5167
g4591
(S's\x07\x00\x00\x00Plugins'
tRp5168
asbag49
(g4680
g51
NtRp5169
(dp5170
g54
(dp5171
g4678
g4688
ssg63
g5160
sg56
(lp5172
g49
(g4674
g51
NtRp5173
(dp5174
g54
(dp5175
sg63
g5169
sg56
(lp5176
g49
(g4667
g51
NtRp5177
(dp5178
g54
(dp5179
g4673
S'http://web2py.com/examples/default/download'
p5180
ssg63
g5173
sg56
(lp5181
S'plugin_wiki'
p5182
asbasbag49
(g4674
g51
NtRp5183
(dp5184
g54
(dp5185
sg63
g5169
sg56
(lp5186
g49
(g4667
g51
NtRp5187
(dp5188
g54
(dp5189
g4673
g4910
ssg63
g5183
sg56
(lp5190
g4591
(S's\r\x00\x00\x00Other Plugins'
tRp5191
asbasbag49
(g4674
g51
NtRp5192
(dp5193
g54
(dp5194
sg63
g5169
sg56
(lp5195
g49
(g4667
g51
NtRp5196
(dp5197
g54
(dp5198
g4673
g4920
ssg63
g5192
sg56
(lp5199
g4591
(S's\x0e\x00\x00\x00Layout Plugins'
tRp5200
asbasbasbasbasbasbsg56
(lp5201
g4663
asbsg56
(lp5202
g4537
asbasbasbasbag49
(g65
g51
NtRp5203
(dp5204
g54
(dp5205
sg63
g4646
sg56
(lp5206
g49
(g70
g51
NtRp5207
(dp5208
g54
(dp5209
sg63
g5203
sg56
(lp5210
g49
(g50
g51
NtRp5211
(dp5212
g54
(dp5213
g62
I3
ssg63
g5207
sg56
(lp5214
g92
asbasbasbag49
(g65
g51
NtRp5215
(dp5216
g54
(dp5217
sg63
g4646
sg56
(lp5218
g49
(g70
g51
NtRp5219
(dp5220
g54
(dp5221
sg63
g5215
sg56
(lp5222
g49
(g50
g51
NtRp5223
(dp5224
g54
(dp5225
g62
I3
ssg63
g5219
sg56
(lp5226
S'None'
p5227
asbasbasbag49
(g65
g51
NtRp5228
(dp5229
g54
(dp5230
sg63
g4646
sg56
(lp5231
g49
(g70
g51
NtRp5232
(dp5233
g54
(dp5234
sg63
g5228
sg56
(lp5235
g49
(g50
g51
NtRp5236
(dp5237
g54
(dp5238
g62
I3
ssg63
g5232
sg56
(lp5239
g49
(g58
g51
NtRp5240
(dp5241
g54
(dp5242
g62
I2
ssg63
Nsg56
(lp5243
g49
(g65
g51
NtRp5244
(dp5245
g54
(dp5246
sg63
g5240
sg56
(lp5247
g49
(g70
g51
NtRp5248
(dp5249
g54
(dp5250
sg63
g5244
sg56
(lp5251
g49
(g50
g51
NtRp5252
(dp5253
g54
(dp5254
g62
I2
ssg63
g5248
sg56
(lp5255
g49
(g58
g51
NtRp5256
(dp5257
g54
(dp5258
g62
I1
ssg63
Nsg56
(lp5259
g49
(g65
g51
NtRp5260
(dp5261
g54
(dp5262
sg63
g5256
sg56
(lp5263
g49
(g70
g51
NtRp5264
(dp5265
g54
(dp5266
sg63
g5260
sg56
(lp5267
g49
(g50
g51
NtRp5268
(dp5269
g54
(dp5270
g62
I1
ssg63
g5264
sg56
(lp5271
g4714
asbasbasbag49
(g65
g51
NtRp5272
(dp5273
g54
(dp5274
sg63
g5256
sg56
(lp5275
g49
(g70
g51
NtRp5276
(dp5277
g54
(dp5278
sg63
g5272
sg56
(lp5279
g49
(g50
g51
NtRp5280
(dp5281
g54
(dp5282
g62
I1
ssg63
g5276
sg56
(lp5283
I00
asbasbasbag49
(g65
g51
NtRp5284
(dp5285
g54
(dp5286
sg63
g5256
sg56
(lp5287
g49
(g70
g51
NtRp5288
(dp5289
g54
(dp5290
sg63
g5284
sg56
(lp5291
g49
(g50
g51
NtRp5292
(dp5293
g54
(dp5294
g62
I1
ssg63
g5288
sg56
(lp5295
g4712
asbasbasbasbasbasbasbag49
(g65
g51
NtRp5296
(dp5297
g54
(dp5298
sg63
g5240
sg56
(lp5299
g49
(g70
g51
NtRp5300
(dp5301
g54
(dp5302
sg63
g5296
sg56
(lp5303
g49
(g50
g51
NtRp5304
(dp5305
g54
(dp5306
g62
I2
ssg63
g5300
sg56
(lp5307
g49
(g58
g51
NtRp5308
(dp5309
g54
(dp5310
g62
I1
ssg63
Nsg56
(lp5311
g49
(g65
g51
NtRp5312
(dp5313
g54
(dp5314
sg63
g5308
sg56
(lp5315
g49
(g70
g51
NtRp5316
(dp5317
g54
(dp5318
sg63
g5312
sg56
(lp5319
g49
(g50
g51
NtRp5320
(dp5321
g54
(dp5322
g62
I1
ssg63
g5316
sg56
(lp5323
g4724
asbasbasbag49
(g65
g51
NtRp5324
(dp5325
g54
(dp5326
sg63
g5308
sg56
(lp5327
g49
(g70
g51
NtRp5328
(dp5329
g54
(dp5330
sg63
g5324
sg56
(lp5331
g49
(g50
g51
NtRp5332
(dp5333
g54
(dp5334
g62
I1
ssg63
g5328
sg56
(lp5335
I00
asbasbasbag49
(g65
g51
NtRp5336
(dp5337
g54
(dp5338
sg63
g5308
sg56
(lp5339
g49
(g70
g51
NtRp5340
(dp5341
g54
(dp5342
sg63
g5336
sg56
(lp5343
g49
(g50
g51
NtRp5344
(dp5345
g54
(dp5346
g62
I1
ssg63
g5340
sg56
(lp5347
g4722
asbasbasbag49
(g65
g51
NtRp5348
(dp5349
g54
(dp5350
sg63
g5308
sg56
(lp5351
g49
(g70
g51
NtRp5352
(dp5353
g54
(dp5354
sg63
g5348
sg56
(lp5355
g49
(g50
g51
NtRp5356
(dp5357
g54
(dp5358
g62
I1
ssg63
g5352
sg56
(lp5359
(lp5360
(g4738
I00
g4736
tp5361
a(g4748
I00
g4746
tp5362
a(g4758
I00
g4756
tp5363
a(g4768
I00
g4766
tp5364
a(g4778
I00
g4776
tp5365
a(g4788
I00
g4786
tp5366
a(g4798
I00
g4796
tp5367
a(g4808
I00
g4806
tp5368
a(g4818
I00
g4816
tp5369
aasbasbasbasbasbasbasbag49
(g65
g51
NtRp5370
(dp5371
g54
(dp5372
sg63
g5240
sg56
(lp5373
g49
(g70
g51
NtRp5374
(dp5375
g54
(dp5376
sg63
g5370
sg56
(lp5377
g49
(g50
g51
NtRp5378
(dp5379
g54
(dp5380
g62
I2
ssg63
g5374
sg56
(lp5381
g49
(g58
g51
NtRp5382
(dp5383
g54
(dp5384
g62
I1
ssg63
Nsg56
(lp5385
g49
(g65
g51
NtRp5386
(dp5387
g54
(dp5388
sg63
g5382
sg56
(lp5389
g49
(g70
g51
NtRp5390
(dp5391
g54
(dp5392
sg63
g5386
sg56
(lp5393
g49
(g50
g51
NtRp5394
(dp5395
g54
(dp5396
g62
I1
ssg63
g5390
sg56
(lp5397
g4828
asbasbasbag49
(g65
g51
NtRp5398
(dp5399
g54
(dp5400
sg63
g5382
sg56
(lp5401
g49
(g70
g51
NtRp5402
(dp5403
g54
(dp5404
sg63
g5398
sg56
(lp5405
g49
(g50
g51
NtRp5406
(dp5407
g54
(dp5408
g62
I1
ssg63
g5402
sg56
(lp5409
I00
asbasbasbag49
(g65
g51
NtRp5410
(dp5411
g54
(dp5412
sg63
g5382
sg56
(lp5413
g49
(g70
g51
NtRp5414
(dp5415
g54
(dp5416
sg63
g5410
sg56
(lp5417
g49
(g50
g51
NtRp5418
(dp5419
g54
(dp5420
g62
I1
ssg63
g5414
sg56
(lp5421
g4826
asbasbasbag49
(g65
g51
NtRp5422
(dp5423
g54
(dp5424
sg63
g5382
sg56
(lp5425
g49
(g70
g51
NtRp5426
(dp5427
g54
(dp5428
sg63
g5422
sg56
(lp5429
g49
(g50
g51
NtRp5430
(dp5431
g54
(dp5432
g62
I1
ssg63
g5426
sg56
(lp5433
(lp5434
(g4842
I00
g4840
tp5435
a(g4852
I00
g4850
tp5436
a(g4862
I00
g4860
tp5437
a(g4872
I00
g4870
tp5438
a(g4882
I00
g4880
tp5439
a(g4892
I00
g4890
tp5440
a(g4902
I00
g4900
tp5441
a(g4912
I00
g4910
tp5442
a(g4922
I00
g4920
tp5443
a(g4932
I00
g4930
tp5444
a(g4942
I00
g4940
tp5445
aasbasbasbasbasbasbasbag49
(g65
g51
NtRp5446
(dp5447
g54
(dp5448
sg63
g5240
sg56
(lp5449
g49
(g70
g51
NtRp5450
(dp5451
g54
(dp5452
sg63
g5446
sg56
(lp5453
g49
(g50
g51
NtRp5454
(dp5455
g54
(dp5456
g62
I2
ssg63
g5450
sg56
(lp5457
g49
(g58
g51
NtRp5458
(dp5459
g54
(dp5460
g62
I1
ssg63
Nsg56
(lp5461
g49
(g65
g51
NtRp5462
(dp5463
g54
(dp5464
sg63
g5458
sg56
(lp5465
g49
(g70
g51
NtRp5466
(dp5467
g54
(dp5468
sg63
g5462
sg56
(lp5469
g49
(g50
g51
NtRp5470
(dp5471
g54
(dp5472
g62
I1
ssg63
g5466
sg56
(lp5473
g4952
asbasbasbag49
(g65
g51
NtRp5474
(dp5475
g54
(dp5476
sg63
g5458
sg56
(lp5477
g49
(g70
g51
NtRp5478
(dp5479
g54
(dp5480
sg63
g5474
sg56
(lp5481
g49
(g50
g51
NtRp5482
(dp5483
g54
(dp5484
g62
I1
ssg63
g5478
sg56
(lp5485
I00
asbasbasbag49
(g65
g51
NtRp5486
(dp5487
g54
(dp5488
sg63
g5458
sg56
(lp5489
g49
(g70
g51
NtRp5490
(dp5491
g54
(dp5492
sg63
g5486
sg56
(lp5493
g49
(g50
g51
NtRp5494
(dp5495
g54
(dp5496
g62
I1
ssg63
g5490
sg56
(lp5497
g4950
asbasbasbag49
(g65
g51
NtRp5498
(dp5499
g54
(dp5500
sg63
g5458
sg56
(lp5501
g49
(g70
g51
NtRp5502
(dp5503
g54
(dp5504
sg63
g5498
sg56
(lp5505
g49
(g50
g51
NtRp5506
(dp5507
g54
(dp5508
g62
I1
ssg63
g5502
sg56
(lp5509
(lp5510
(g4966
I00
g4964
tp5511
a(g4976
I00
g4974
tp5512
a(g4986
I00
g4984
tp5513
a(g4996
I00
g4994
tp5514
a(g5006
I00
g5004
tp5515
a(g5016
I00
g5014
tp5516
a(g5026
I00
g5024
tp5517
a(g5036
I00
g5034
tp5518
a(g5046
I00
g5044
tp5519
a(g5056
I00
g5054
tp5520
a(g5066
I00
g5064
tp5521
a(g5076
I00
g5074
tp5522
a(g5086
I00
g5084
tp5523
a(g5096
I00
g5094
tp5524
a(g5106
I00
g5104
tp5525
a(g5116
I00
g5114
tp5526
aasbasbasbasbasbasbasbag49
(g65
g51
NtRp5527
(dp5528
g54
(dp5529
sg63
g5240
sg56
(lp5530
g49
(g70
g51
NtRp5531
(dp5532
g54
(dp5533
sg63
g5527
sg56
(lp5534
g49
(g50
g51
NtRp5535
(dp5536
g54
(dp5537
g62
I2
ssg63
g5531
sg56
(lp5538
g49
(g58
g51
NtRp5539
(dp5540
g54
(dp5541
g62
I1
ssg63
Nsg56
(lp5542
g49
(g65
g51
NtRp5543
(dp5544
g54
(dp5545
sg63
g5539
sg56
(lp5546
g49
(g70
g51
NtRp5547
(dp5548
g54
(dp5549
sg63
g5543
sg56
(lp5550
g49
(g50
g51
NtRp5551
(dp5552
g54
(dp5553
g62
I1
ssg63
g5547
sg56
(lp5554
g5125
asbasbasbag49
(g65
g51
NtRp5555
(dp5556
g54
(dp5557
sg63
g5539
sg56
(lp5558
g49
(g70
g51
NtRp5559
(dp5560
g54
(dp5561
sg63
g5555
sg56
(lp5562
g49
(g50
g51
NtRp5563
(dp5564
g54
(dp5565
g62
I1
ssg63
g5559
sg56
(lp5566
I00
asbasbasbag49
(g65
g51
NtRp5567
(dp5568
g54
(dp5569
sg63
g5539
sg56
(lp5570
g49
(g70
g51
NtRp5571
(dp5572
g54
(dp5573
sg63
g5567
sg56
(lp5574
g49
(g50
g51
NtRp5575
(dp5576
g54
(dp5577
g62
I1
ssg63
g5571
sg56
(lp5578
Nasbasbasbag49
(g65
g51
NtRp5579
(dp5580
g54
(dp5581
sg63
g5539
sg56
(lp5582
g49
(g70
g51
NtRp5583
(dp5584
g54
(dp5585
sg63
g5579
sg56
(lp5586
g49
(g50
g51
NtRp5587
(dp5588
g54
(dp5589
g62
I1
ssg63
g5583
sg56
(lp5590
(lp5591
(g5139
I00
g5137
tp5592
a(g5149
I00
g5147
tp5593
a(g5159
I00
g5157
tp5594
aasbasbasbasbasbasbasbag49
(g65
g51
NtRp5595
(dp5596
g54
(dp5597
sg63
g5240
sg56
(lp5598
g49
(g70
g51
NtRp5599
(dp5600
g54
(dp5601
sg63
g5595
sg56
(lp5602
g49
(g50
g51
NtRp5603
(dp5604
g54
(dp5605
g62
I2
ssg63
g5599
sg56
(lp5606
g49
(g58
g51
NtRp5607
(dp5608
g54
(dp5609
g62
I1
ssg63
Nsg56
(lp5610
g49
(g65
g51
NtRp5611
(dp5612
g54
(dp5613
sg63
g5607
sg56
(lp5614
g49
(g70
g51
NtRp5615
(dp5616
g54
(dp5617
sg63
g5611
sg56
(lp5618
g49
(g50
g51
NtRp5619
(dp5620
g54
(dp5621
g62
I1
ssg63
g5615
sg56
(lp5622
g5168
asbasbasbag49
(g65
g51
NtRp5623
(dp5624
g54
(dp5625
sg63
g5607
sg56
(lp5626
g49
(g70
g51
NtRp5627
(dp5628
g54
(dp5629
sg63
g5623
sg56
(lp5630
g49
(g50
g51
NtRp5631
(dp5632
g54
(dp5633
g62
I1
ssg63
g5627
sg56
(lp5634
I00
asbasbasbag49
(g65
g51
NtRp5635
(dp5636
g54
(dp5637
sg63
g5607
sg56
(lp5638
g49
(g70
g51
NtRp5639
(dp5640
g54
(dp5641
sg63
g5635
sg56
(lp5642
g49
(g50
g51
NtRp5643
(dp5644
g54
(dp5645
g62
I1
ssg63
g5639
sg56
(lp5646
Nasbasbasbag49
(g65
g51
NtRp5647
(dp5648
g54
(dp5649
sg63
g5607
sg56
(lp5650
g49
(g70
g51
NtRp5651
(dp5652
g54
(dp5653
sg63
g5647
sg56
(lp5654
g49
(g50
g51
NtRp5655
(dp5656
g54
(dp5657
g62
I1
ssg63
g5651
sg56
(lp5658
(lp5659
(g5182
I00
g5180
tp5660
a(g5191
I00
g4910
tp5661
a(g5200
I00
g4920
tp5662
aasbasbasbasbasbasbasbasbasbasbasbasbasbasbasbasbasbasbasbag49
(g65
g51
NtRp5663
(dp5664
g54
(dp5665
sg63
g3951
sg56
(lp5666
g49
(g70
g51
NtRp5667
(dp5668
g54
(dp5669
g74
g75
ssg63
g5663
sg56
(lp5670
S'meta'
p5671
asbag49
(g70
g51
NtRp5672
(dp5673
g54
(dp5674
g81
g82
ssg63
g5663
sg56
(lp5675
S':'
asbag49
(g70
g51
NtRp5676
(dp5677
g54
(dp5678
sg63
g5663
sg56
(lp5679
g49
(g50
g51
NtRp5680
(dp5681
g54
(dp5682
g62
I5
ssg63
g5676
sg56
(lp5683
g49
(g58
g51
NtRp5684
(dp5685
g54
(dp5686
g62
I4
ssg63
Nsg56
(lp5687
g49
(g65
g51
NtRp5688
(dp5689
g54
(dp5690
sg63
g5684
sg56
(lp5691
g49
(g70
g51
NtRp5692
(dp5693
g54
(dp5694
g74
g75
ssg63
g5688
sg56
(lp5695
S'author'
p5696
asbag49
(g70
g51
NtRp5697
(dp5698
g54
(dp5699
g81
g82
ssg63
g5688
sg56
(lp5700
S':'
asbag49
(g70
g51
NtRp5701
(dp5702
g54
(dp5703
sg63
g5688
sg56
(lp5704
g49
(g50
g51
NtRp5705
(dp5706
g54
(dp5707
g62
I4
ssg63
g5701
sg56
(lp5708
S'Your Name <you@example.com>'
p5709
asbasbasbag49
(g65
g51
NtRp5710
(dp5711
g54
(dp5712
sg63
g5684
sg56
(lp5713
g49
(g70
g51
NtRp5714
(dp5715
g54
(dp5716
g74
g75
ssg63
g5710
sg56
(lp5717
S'copyright'
p5718
asbag49
(g70
g51
NtRp5719
(dp5720
g54
(dp5721
g81
g82
ssg63
g5710
sg56
(lp5722
S':'
asbag49
(g70
g51
NtRp5723
(dp5724
g54
(dp5725
sg63
g5710
sg56
(lp5726
g49
(g50
g51
NtRp5727
(dp5728
g54
(dp5729
g62
I4
ssg63
g5723
sg56
(lp5730
S'Copyright 2011'
p5731
asbasbasbag49
(g65
g51
NtRp5732
(dp5733
g54
(dp5734
sg63
g5684
sg56
(lp5735
g49
(g70
g51
NtRp5736
(dp5737
g54
(dp5738
g74
g75
ssg63
g5732
sg56
(lp5739
S'description'
p5740
asbag49
(g70
g51
NtRp5741
(dp5742
g54
(dp5743
g81
g82
ssg63
g5732
sg56
(lp5744
S':'
asbag49
(g70
g51
NtRp5745
(dp5746
g54
(dp5747
sg63
g5732
sg56
(lp5748
g49
(g50
g51
NtRp5749
(dp5750
g54
(dp5751
g62
I4
ssg63
g5745
sg56
(lp5752
S'a cool new app'
p5753
asbasbasbag49
(g65
g51
NtRp5754
(dp5755
g54
(dp5756
sg63
g5684
sg56
(lp5757
g49
(g70
g51
NtRp5758
(dp5759
g54
(dp5760
g74
g75
ssg63
g5754
sg56
(lp5761
S'generator'
p5762
asbag49
(g70
g51
NtRp5763
(dp5764
g54
(dp5765
g81
g82
ssg63
g5754
sg56
(lp5766
S':'
asbag49
(g70
g51
NtRp5767
(dp5768
g54
(dp5769
sg63
g5754
sg56
(lp5770
g49
(g50
g51
NtRp5771
(dp5772
g54
(dp5773
g62
I4
ssg63
g5767
sg56
(lp5774
S'Web2py Web Framework'
p5775
asbasbasbag49
(g65
g51
NtRp5776
(dp5777
g54
(dp5778
sg63
g5684
sg56
(lp5779
g49
(g70
g51
NtRp5780
(dp5781
g54
(dp5782
g74
g75
ssg63
g5776
sg56
(lp5783
S'keywords'
p5784
asbag49
(g70
g51
NtRp5785
(dp5786
g54
(dp5787
g81
g82
ssg63
g5776
sg56
(lp5788
S':'
asbag49
(g70
g51
NtRp5789
(dp5790
g54
(dp5791
sg63
g5776
sg56
(lp5792
g49
(g50
g51
NtRp5793
(dp5794
g54
(dp5795
g62
I4
ssg63
g5789
sg56
(lp5796
S'web2py, python, framework'
p5797
asbasbasbasbasbasbasbag49
(g65
g51
NtRp5798
(dp5799
g54
(dp5800
sg63
g3951
sg56
(lp5801
g49
(g70
g51
NtRp5802
(dp5803
g54
(dp5804
g74
g75
ssg63
g5798
sg56
(lp5805
S'postprocessing'
p5806
asbag49
(g70
g51
NtRp5807
(dp5808
g54
(dp5809
g81
g82
ssg63
g5798
sg56
(lp5810
S':'
asbag49
(g70
g51
NtRp5811
(dp5812
g54
(dp5813
sg63
g5798
sg56
(lp5814
g49
(g50
g51
NtRp5815
(dp5816
g54
(dp5817
g62
I5
ssg63
g5811
sg56
(lp5818
g49
(g58
g51
NtRp5819
(dp5820
g54
(dp5821
g62
I4
ssg63
Nsg56
(lp5822
sbasbasbasbag49
(g65
g51
NtRp5823
(dp5824
g54
(dp5825
sg63
g3951
sg56
(lp5826
g49
(g70
g51
NtRp5827
(dp5828
g54
(dp5829
g74
g75
ssg63
g5823
sg56
(lp5830
S'session_file'
p5831
asbag49
(g70
g51
NtRp5832
(dp5833
g54
(dp5834
g81
g82
ssg63
g5823
sg56
(lp5835
S':'
asbag49
(g70
g51
NtRp5836
(dp5837
g54
(dp5838
sg63
g5823
sg56
(lp5839
g49
(g50
g51
NtRp5840
(dp5841
g54
(dp5842
g62
I5
ssg63
g5836
sg56
(lp5843
S"<open file 'C:\\Users\\omkara\\Desktop\\web2py\\applications\\SlugBarter\\sessions\\127.0.0.1-e6ebae72-1bbc-48a5-9458-95dbb65a4e54', mode 'rb+' at 0x066DDC38>"
p5844
asbasbasbag49
(g65
g51
NtRp5845
(dp5846
g54
(dp5847
sg63
g3951
sg56
(lp5848
g49
(g70
g51
NtRp5849
(dp5850
g54
(dp5851
g74
g75
ssg63
g5845
sg56
(lp5852
S'session_filename'
p5853
asbag49
(g70
g51
NtRp5854
(dp5855
g54
(dp5856
g81
g82
ssg63
g5845
sg56
(lp5857
S':'
asbag49
(g70
g51
NtRp5858
(dp5859
g54
(dp5860
sg63
g5845
sg56
(lp5861
g49
(g50
g51
NtRp5862
(dp5863
g54
(dp5864
g62
I5
ssg63
g5858
sg56
(lp5865
S'C:\\Users\\omkara\\Desktop\\web2py\\applications\\SlugBarter\\sessions\\127.0.0.1-e6ebae72-1bbc-48a5-9458-95dbb65a4e54'
p5866
asbasbasbag49
(g65
g51
NtRp5867
(dp5868
g54
(dp5869
sg63
g3951
sg56
(lp5870
g49
(g70
g51
NtRp5871
(dp5872
g54
(dp5873
g74
g75
ssg63
g5867
sg56
(lp5874
S'session_id'
p5875
asbag49
(g70
g51
NtRp5876
(dp5877
g54
(dp5878
g81
g82
ssg63
g5867
sg56
(lp5879
S':'
asbag49
(g70
g51
NtRp5880
(dp5881
g54
(dp5882
sg63
g5867
sg56
(lp5883
g49
(g50
g51
NtRp5884
(dp5885
g54
(dp5886
g62
I5
ssg63
g5880
sg56
(lp5887
S'127.0.0.1-e6ebae72-1bbc-48a5-9458-95dbb65a4e54'
p5888
asbasbasbag49
(g65
g51
NtRp5889
(dp5890
g54
(dp5891
sg63
g3951
sg56
(lp5892
g49
(g70
g51
NtRp5893
(dp5894
g54
(dp5895
g74
g75
ssg63
g5889
sg56
(lp5896
S'session_id_name'
p5897
asbag49
(g70
g51
NtRp5898
(dp5899
g54
(dp5900
g81
g82
ssg63
g5889
sg56
(lp5901
S':'
asbag49
(g70
g51
NtRp5902
(dp5903
g54
(dp5904
sg63
g5889
sg56
(lp5905
g49
(g50
g51
NtRp5906
(dp5907
g54
(dp5908
g62
I5
ssg63
g5902
sg56
(lp5909
g4008
asbasbasbag49
(g65
g51
NtRp5910
(dp5911
g54
(dp5912
sg63
g3951
sg56
(lp5913
g49
(g70
g51
NtRp5914
(dp5915
g54
(dp5916
g74
g75
ssg63
g5910
sg56
(lp5917
S'session_locked'
p5918
asbag49
(g70
g51
NtRp5919
(dp5920
g54
(dp5921
g81
g82
ssg63
g5910
sg56
(lp5922
S':'
asbag49
(g70
g51
NtRp5923
(dp5924
g54
(dp5925
sg63
g5910
sg56
(lp5926
g49
(g50
g51
NtRp5927
(dp5928
g54
(dp5929
g62
I5
ssg63
g5923
sg56
(lp5930
g2126
asbasbasbag49
(g65
g51
NtRp5931
(dp5932
g54
(dp5933
sg63
g3951
sg56
(lp5934
g49
(g70
g51
NtRp5935
(dp5936
g54
(dp5937
g74
g75
ssg63
g5931
sg56
(lp5938
S'session_new'
p5939
asbag49
(g70
g51
NtRp5940
(dp5941
g54
(dp5942
g81
g82
ssg63
g5931
sg56
(lp5943
S':'
asbag49
(g70
g51
NtRp5944
(dp5945
g54
(dp5946
sg63
g5931
sg56
(lp5947
g49
(g50
g51
NtRp5948
(dp5949
g54
(dp5950
g62
I5
ssg63
g5944
sg56
(lp5951
g92
asbasbasbag49
(g65
g51
NtRp5952
(dp5953
g54
(dp5954
sg63
g3951
sg56
(lp5955
g49
(g70
g51
NtRp5956
(dp5957
g54
(dp5958
g74
g75
ssg63
g5952
sg56
(lp5959
S'status'
p5960
asbag49
(g70
g51
NtRp5961
(dp5962
g54
(dp5963
g81
g82
ssg63
g5952
sg56
(lp5964
S':'
asbag49
(g70
g51
NtRp5965
(dp5966
g54
(dp5967
sg63
g5952
sg56
(lp5968
g49
(g50
g51
NtRp5969
(dp5970
g54
(dp5971
g62
I5
ssg63
g5965
sg56
(lp5972
S'200'
p5973
asbasbasbag49
(g65
g51
NtRp5974
(dp5975
g54
(dp5976
sg63
g3951
sg56
(lp5977
g49
(g70
g51
NtRp5978
(dp5979
g54
(dp5980
g74
g75
ssg63
g5974
sg56
(lp5981
S'subtitle'
p5982
asbag49
(g70
g51
NtRp5983
(dp5984
g54
(dp5985
g81
g82
ssg63
g5974
sg56
(lp5986
S':'
asbag49
(g70
g51
NtRp5987
(dp5988
g54
(dp5989
sg63
g5974
sg56
(lp5990
g49
(g50
g51
NtRp5991
(dp5992
g54
(dp5993
g62
I5
ssg63
g5987
sg56
(lp5994
g4591
(S's\r\x00\x00\x00customize me!'
tRp5995
asbasbasbag49
(g65
g51
NtRp5996
(dp5997
g54
(dp5998
sg63
g3951
sg56
(lp5999
g49
(g70
g51
NtRp6000
(dp6001
g54
(dp6002
g74
g75
ssg63
g5996
sg56
(lp6003
S'title'
p6004
asbag49
(g70
g51
NtRp6005
(dp6006
g54
(dp6007
g81
g82
ssg63
g5996
sg56
(lp6008
S':'
asbag49
(g70
g51
NtRp6009
(dp6010
g54
(dp6011
sg63
g5996
sg56
(lp6012
g49
(g50
g51
NtRp6013
(dp6014
g54
(dp6015
g62
I5
ssg63
g6009
sg56
(lp6016
S'Slugbarter'
p6017
asbasbasbag49
(g65
g51
NtRp6018
(dp6019
g54
(dp6020
sg63
g3951
sg56
(lp6021
g49
(g70
g51
NtRp6022
(dp6023
g54
(dp6024
g74
g75
ssg63
g6018
sg56
(lp6025
g2790
asbag49
(g70
g51
NtRp6026
(dp6027
g54
(dp6028
g81
g82
ssg63
g6018
sg56
(lp6029
S':'
asbag49
(g70
g51
NtRp6030
(dp6031
g54
(dp6032
sg63
g6018
sg56
(lp6033
g49
(g50
g51
NtRp6034
(dp6035
g54
(dp6036
g62
I5
ssg63
g6030
sg56
(lp6037
g2803
asbasbasbag49
(g65
g51
NtRp6038
(dp6039
g54
(dp6040
sg63
g3951
sg56
(lp6041
g49
(g70
g51
NtRp6042
(dp6043
g54
(dp6044
g74
g75
ssg63
g6038
sg56
(lp6045
S'view'
p6046
asbag49
(g70
g51
NtRp6047
(dp6048
g54
(dp6049
g81
g82
ssg63
g6038
sg56
(lp6050
S':'
asbag49
(g70
g51
NtRp6051
(dp6052
g54
(dp6053
sg63
g6038
sg56
(lp6054
g49
(g50
g51
NtRp6055
(dp6056
g54
(dp6057
g62
I5
ssg63
g6051
sg56
(lp6058
S'default/mypage.html'
p6059
asbasbasbasbasbsS'locals'
p6060
(dp6061
S'Service'
p6062
S"<class 'gluon.tools.Service'>"
p6063
sS'OBJECT'
p6064
S"<class 'gluon.html.OBJECT'>"
p6065
sS'SQLDB'
p6066
S"<class 'gluon.dal.DAL'>"
p6067
sg3512
S"<Storage {'last_query': 'db.auth_user.id>0', '_f...reate]': 'b03e2190-eaa9-4917-83d6-eb825ad9ff09'}>"
p6068
sS'LINK'
p6069
S"<class 'gluon.html.LINK'>"
p6070
sS'BR'
p6071
S"<class 'gluon.html.BR'>"
p6072
sS'local_import'
p6073
S'<function <lambda> at 0x062030B0>'
p6074
sS'OPTGROUP'
p6075
S"<class 'gluon.html.OPTGROUP'>"
p6076
sS'PRE'
p6077
S"<class 'gluon.html.PRE'>"
p6078
sS'IS_INT_IN_RANGE'
p6079
S"<class 'gluon.validators.IS_INT_IN_RANGE'>"
p6080
sS'left_sidebar_enabled'
p6081
g92
sS'IS_LOWER'
p6082
S"<class 'gluon.validators.IS_LOWER'>"
p6083
sS'IS_STRONG'
p6084
S"<class 'gluon.validators.IS_STRONG'>"
p6085
sS'cache'
p6086
S'<gluon.cache.Cache object at 0x06A72A50>'
p6087
sS'IS_IN_DB'
p6088
S"<class 'gluon.validators.IS_IN_DB'>"
p6089
sS'TAG'
p6090
S'<gluon.html.__TAG__ object at 0x01E7FD50>'
p6091
sS'SQLField'
p6092
S"<class 'gluon.dal.Field'>"
p6093
sS'mail'
p6094
S'<gluon.tools.Mail object at 0x06444C70>'
p6095
sS'BODY'
p6096
S"<class 'gluon.html.BODY'>"
p6097
sS'IS_DATE_IN_RANGE'
p6098
S"<class 'gluon.validators.IS_DATE_IN_RANGE'>"
p6099
sS'TH'
p6100
S"<class 'gluon.html.TH'>"
p6101
sS'URL'
p6102
S'<function URL at 0x01EE7DF0>'
p6103
sS'__file__'
p6104
S"r'C:\\Users\\omkara\\Desktop\\web2py\\applications\\SlugBarter\\views\\default/mypage.html'"
p6105
sS'db'
p6106
S"<DAL {'auth_event': <Table {'origin': <gluon.dal..._key': <gluon.dal.Field object at 0x061F04F0>}>}>"
p6107
sS'auth'
p6108
S'<gluon.tools.Auth object at 0x06B04BB0>'
p6109
sS'P'
S"<class 'gluon.html.P'>"
p6110
sS'TFOOT'
p6111
S"<class 'gluon.html.TFOOT'>"
p6112
sS'XHTML'
p6113
S"<class 'gluon.html.XHTML'>"
p6114
sS'datetime'
p6115
S"<type 'datetime.datetime'>"
p6116
sS'ON'
p6117
g2126
sS'OL'
p6118
S"<class 'gluon.html.OL'>"
p6119
sS'TEXTAREA'
p6120
S"<class 'gluon.html.TEXTAREA'>"
p6121
sS'MENU'
p6122
S"<class 'gluon.html.MENU'>"
p6123
sS'LOAD'
p6124
S'<function LOAD at 0x0212A6F0>'
p6125
sS'CODE'
p6126
S"<class 'gluon.html.CODE'>"
p6127
sS'HTTP'
p6128
S"<class 'gluon.http.HTTP'>"
p6129
sS'HR'
p6130
S"<class 'gluon.html.HR'>"
p6131
sS'IS_DATETIME'
p6132
S"<class 'gluon.validators.IS_DATETIME'>"
p6133
sS'HEAD'
p6134
S"<class 'gluon.html.HEAD'>"
p6135
sS'LABEL'
p6136
S"<class 'gluon.html.LABEL'>"
p6137
sS'CLEANUP'
p6138
S"<class 'gluon.validators.CLEANUP'>"
p6139
sS'plugins'
p6140
S'<gluon.tools.PluginManager object at 0x06009330>'
p6141
sS'SELECT'
p6142
S"<class 'gluon.html.SELECT'>"
p6143
sS'use_janrain'
p6144
S'<function use_janrain at 0x02974570>'
p6145
sS'CENTER'
p6146
S"<class 'gluon.html.CENTER'>"
p6147
sS'prettydate'
p6148
S'<function prettydate at 0x0296BB70>'
p6149
sS'Crud'
p6150
S"<class 'gluon.tools.Crud'>"
p6151
sS'Auth'
p6152
S"<class 'gluon.tools.Auth'>"
p6153
sS'__builtins__'
p6154
S"{'ArithmeticError': <type 'exceptions.ArithmeticError'>, 'AssertionError': <type 'exceptions.AssertionError'>, 'AttributeError': <type 'exceptions.AttributeError'>, 'BaseException': <type 'exceptions.BaseException'>, 'DeprecationWarning': <type 'exceptions.DeprecationWarning'>, 'EOFError': <type 'exceptions.EOFError'>, 'Ellipsis': Ellipsis, 'EnvironmentError': <type 'exceptions.EnvironmentError'>, 'Exception': <type 'exceptions.Exception'>, 'False': False, ...}"
p6155
sS'HTML'
p6156
S"<class 'gluon.html.HTML'>"
p6157
sS'SQLFORM'
p6158
S"<class 'gluon.sqlhtml.SQLFORM'>"
p6159
sS'EM'
p6160
S"<class 'gluon.html.EM'>"
p6161
sS'redirect'
p6162
S'<function redirect at 0x01B42AB0>'
p6163
sS'FIELDSET'
p6164
S"<class 'gluon.html.FIELDSET'>"
p6165
sS'IS_EQUAL_TO'
p6166
S"<class 'gluon.validators.IS_EQUAL_TO'>"
p6167
sS'embed64'
p6168
S'<function embed64 at 0x01EF5930>'
p6169
sS'IS_LIST_OF'
p6170
S"<class 'gluon.validators.IS_LIST_OF'>"
p6171
sS'__name__'
p6172
S"'__restricted__'"
p6173
sS'EMBED'
p6174
S"<class 'gluon.html.EMBED'>"
p6175
sS'_'
S'<function _ at 0x06203B70>'
p6176
sS'FORM'
p6177
S"<class 'gluon.html.FORM'>"
p6178
sS'H2'
p6179
S"<class 'gluon.html.H2'>"
p6180
sS'H3'
p6181
S"<class 'gluon.html.H3'>"
p6182
sS'BUTTON'
p6183
S"<class 'gluon.html.BUTTON'>"
p6184
sS'H1'
p6185
S"<class 'gluon.html.H1'>"
p6186
sS'H6'
p6187
S"<class 'gluon.html.H6'>"
p6188
sS'H4'
p6189
S"<class 'gluon.html.H4'>"
p6190
sS'H5'
p6191
S"<class 'gluon.html.H5'>"
p6192
sS'UL'
p6193
S"<class 'gluon.html.UL'>"
p6194
sS'IS_UPPER'
p6195
S"<class 'gluon.validators.IS_UPPER'>"
p6196
sS'xmlescape'
p6197
S'<function xmlescape at 0x01EE7D70>'
p6198
sS'IS_TIME'
p6199
S"<class 'gluon.validators.IS_TIME'>"
p6200
sS'OPTION'
p6201
S"<class 'gluon.html.OPTION'>"
p6202
sS'TITLE'
p6203
S"<class 'gluon.html.TITLE'>"
p6204
sS'CRYPT'
p6205
S"<class 'gluon.validators.CRYPT'>"
p6206
sS'IS_EMPTY_OR'
p6207
S"<class 'gluon.validators.IS_EMPTY_OR'>"
p6208
sS'MARKMIN'
p6209
S"<class 'gluon.html.MARKMIN'>"
p6210
sS'INPUT'
p6211
S"<class 'gluon.html.INPUT'>"
p6212
sS'COL'
p6213
S"<class 'gluon.html.COL'>"
p6214
sS'service'
p6215
S'<gluon.tools.Service object at 0x06C44E70>'
p6216
sS'SCRIPT'
p6217
S"<class 'gluon.html.SCRIPT'>"
p6218
sS'is_mobile'
p6219
g92
sS'TABLE'
p6220
S"<class 'gluon.html.TABLE'>"
p6221
sS'IS_IPV4'
p6222
S"<class 'gluon.validators.IS_IPV4'>"
p6223
sS'IS_LENGTH'
p6224
S"<class 'gluon.validators.IS_LENGTH'>"
p6225
sS'XML'
p6226
S"<class 'gluon.html.XML'>"
p6227
sS'B'
S"<class 'gluon.html.B'>"
p6228
sS'IMG'
p6229
S"<class 'gluon.html.IMG'>"
p6230
sS'SQLTABLE'
p6231
S"<class 'gluon.sqlhtml.SQLTABLE'>"
p6232
sS'IS_MATCH'
p6233
S"<class 'gluon.validators.IS_MATCH'>"
p6234
sS'IS_ALPHANUMERIC'
p6235
S"<class 'gluon.validators.IS_ALPHANUMERIC'>"
p6236
sS'SPAN'
p6237
S"<class 'gluon.html.SPAN'>"
p6238
sS'IS_SLUG'
p6239
S"<class 'gluon.validators.IS_SLUG'>"
p6240
sS'BEAUTIFY'
p6241
S"<class 'gluon.html.BEAUTIFY'>"
p6242
sS'META'
p6243
S"<class 'gluon.html.META'>"
p6244
sS'username'
p6245
S'None'
p6246
sS'IS_DATE'
p6247
S"<class 'gluon.validators.IS_DATE'>"
p6248
sS'IS_EMAIL'
p6249
S"<class 'gluon.validators.IS_EMAIL'>"
p6250
sS'IS_NOT_EMPTY'
p6251
S"<class 'gluon.validators.IS_NOT_EMPTY'>"
p6252
sS'IS_FLOAT_IN_RANGE'
p6253
S"<class 'gluon.validators.IS_FLOAT_IN_RANGE'>"
p6254
sS'TBODY'
p6255
S"<class 'gluon.html.TBODY'>"
p6256
sS'CAT'
p6257
S"<class 'gluon.html.CAT'>"
p6258
sS'Field'
p6259
S"<class 'gluon.dal.Field'>"
p6260
sS'middle_columns'
p6261
S"'sixteen'"
p6262
sS'DIV'
p6263
S"<class 'gluon.html.DIV'>"
p6264
sS'LEGEND'
p6265
S"<class 'gluon.html.LEGEND'>"
p6266
sS'COLGROUP'
p6267
S"<class 'gluon.html.COLGROUP'>"
p6268
sS'DAL'
p6269
S"<class 'gluon.dal.DAL'>"
p6270
sS'TT'
p6271
S"<class 'gluon.html.TT'>"
p6272
sS'TR'
p6273
S"<class 'gluon.html.TR'>"
p6274
sS'LI'
p6275
S"<class 'gluon.html.LI'>"
p6276
sS'right_sidebar_enabled'
p6277
g92
sS'IFRAME'
p6278
S"<class 'gluon.html.IFRAME'>"
p6279
sS'TD'
p6280
S"<class 'gluon.html.TD'>"
p6281
sS'PluginManager'
p6282
S"<class 'gluon.tools.PluginManager'>"
p6283
sS'IS_URL'
p6284
S"<class 'gluon.validators.IS_URL'>"
p6285
sS'A'
S"<class 'gluon.html.A'>"
p6286
sS'STYLE'
p6287
S"<class 'gluon.html.STYLE'>"
p6288
sS'IS_DATETIME_IN_RANGE'
p6289
S"<class 'gluon.validators.IS_DATETIME_IN_RANGE'>"
p6290
sS'IS_IMAGE'
p6291
S"<class 'gluon.validators.IS_IMAGE'>"
p6292
sS'I'
S"<class 'gluon.html.I'>"
p6293
sS'crud'
p6294
S'<gluon.tools.Crud object at 0x06C449D0>'
p6295
sS'IS_NOT_IN_DB'
p6296
S"<class 'gluon.validators.IS_NOT_IN_DB'>"
p6297
sg3946
S"<Storage {'body': <cStringIO.StringO object at 0...> at 0x06203D70>, 'view': 'default/mypage.html'}>"
p6298
sS'THEAD'
p6299
S"<class 'gluon.html.THEAD'>"
p6300
sS'IS_NULL_OR'
p6301
S"<class 'gluon.validators.IS_EMPTY_OR'>"
p6302
sg48
S"<Storage {'body': <cStringIO.StringO object at 0..._vars': <Storage {}>, 'post_vars': <Storage {}>}>"
p6303
sS'IS_EXPR'
p6304
S"<class 'gluon.validators.IS_EXPR'>"
p6305
sS'T'
S'<gluon.languages.translator object at 0x062BD970>'
p6306
sS'IS_IN_SET'
p6307
S"<class 'gluon.validators.IS_IN_SET'>"
p6308
sS'IS_UPLOAD_FILENAME'
p6309
S"<class 'gluon.validators.IS_UPLOAD_FILENAME'>"
p6310
sS'IS_DECIMAL_IN_RANGE'
p6311
S"<class 'gluon.validators.IS_DECIMAL_IN_RANGE'>"
p6312
sssS'traceback'
p6313
S'Traceback (most recent call last):\n  File "gluon/restricted.py", line 205, in restricted\n  File "C:\\Users\\omkara\\Desktop\\web2py\\applications\\SlugBarter\\views\\default/mypage.html", line 86, in <module>\nNameError: name \'anonymous\' is not defined\n'
p6314
s.