(dp1
S'output'
p2
S"<type 'exceptions.SyntaxError'> invalid table name: auth_user"
p3
sS'layer'
p4
S'C:\\Users\\omkara\\Desktop\\web2py\\applications\\SlugBarter\\models\\registerForm.py'
p5
sS'code'
p6
S"#Needed for authenticating users\nfrom gluon.tools import Auth\n#auth = Auth(db)\n\ndb.define_table(\n    auth.settings.table_user_name,\n    Field('firstName','string', length =64,default=''),\n    Field('lastName', 'string', length= 64,default=''),\n    Field('username', 'string', length=64,default='', unique = True),\n    Field('password', 'password', length=64,default='', readable = False,\n            label = 'Password'),\n    Field('email', 'string',default='', length=64),\n    Field('registration_key', length=512,                # required\n          writable=False, readable=False, default=''),\n    Field('reset_password_key', length=512,              # required\n          writable=False, readable=False, default=''),\n    Field('registration_id', length=512,                 # required\n          writable=False, readable=False, default='')\n    )\n\ncustom_auth_table = db[auth.settings.table_user_name]\ncustom_auth_table.firstName.requires = [IS_NOT_EMPTY()]\ncustom_auth_table.lastName.requires = [IS_NOT_EMPTY()]\ncustom_auth_table.username.requires = [IS_NOT_EMPTY(),IS_NOT_IN_DB(db, custom_auth_table.username,error_message ='username already exists')]\ncustom_auth_table.email.requires = [IS_NOT_EMPTY(),IS_EMAIL(error_message = 'Invalid email'),IS_NOT_IN_DB(db, custom_auth_table.email, error_message ='Email already exists')]\ncustom_auth_table.password.requires = IS_NOT_EMPTY()\n\nauth.settings.table_user = custom_auth_table \nauth.define_tables()\n"
p7
sS'snapshot'
p8
(dp9
S'exception'
p10
(dp11
S'__getslice__'
p12
S"<method-wrapper '__getslice__' of exceptions.SyntaxError object at 0x05C7DAF0>"
p13
sS'text'
p14
S'None'
p15
sS'__str__'
p16
S"<method-wrapper '__str__' of exceptions.SyntaxError object at 0x05C7DAF0>"
p17
sS'__reduce__'
p18
S'<built-in method __reduce__ of exceptions.SyntaxError object at 0x05C7DAF0>'
p19
sS'__dict__'
p20
S'{}'
p21
sS'__init__'
p22
S"<method-wrapper '__init__' of exceptions.SyntaxError object at 0x05C7DAF0>"
p23
sS'__setattr__'
p24
S"<method-wrapper '__setattr__' of exceptions.SyntaxError object at 0x05C7DAF0>"
p25
sS'__reduce_ex__'
p26
S'<built-in method __reduce_ex__ of exceptions.SyntaxError object at 0x05C7DAF0>'
p27
sS'__new__'
p28
S'<built-in method __new__ of type object at 0x1E1CDBD0>'
p29
sS'__class__'
p30
S"<type 'exceptions.SyntaxError'>"
p31
sS'filename'
p32
S'None'
p33
sS'lineno'
p34
S'None'
p35
sS'msg'
p36
S"'invalid table name: auth_user'"
p37
sS'__doc__'
p38
S"'Invalid syntax.'"
p39
sS'__getitem__'
p40
S"<method-wrapper '__getitem__' of exceptions.SyntaxError object at 0x05C7DAF0>"
p41
sS'__setstate__'
p42
S'<built-in method __setstate__ of exceptions.SyntaxError object at 0x05C7DAF0>'
p43
sS'__getattribute__'
p44
S"<method-wrapper '__getattribute__' of exceptions.SyntaxError object at 0x05C7DAF0>"
p45
sS'print_file_and_line'
p46
S'None'
p47
sS'args'
p48
S"('invalid table name: auth_user',)"
p49
sS'offset'
p50
S'None'
p51
sS'__delattr__'
p52
S"<method-wrapper '__delattr__' of exceptions.SyntaxError object at 0x05C7DAF0>"
p53
sS'__repr__'
p54
S"<method-wrapper '__repr__' of exceptions.SyntaxError object at 0x05C7DAF0>"
p55
sS'__hash__'
p56
S"<method-wrapper '__hash__' of exceptions.SyntaxError object at 0x05C7DAF0>"
p57
ssS'evalue'
p58
S'invalid table name: auth_user'
p59
sS'request'
p60
ccopy_reg
_reconstructor
p61
(cgluon.html
BEAUTIFY
p62
c__builtin__
object
p63
NtRp64
(dp65
S'attributes'
p66
(dp67
sS'components'
p68
(lp69
g61
(cgluon.html
TABLE
p70
g63
NtRp71
(dp72
g66
(dp73
S'level'
p74
I5
ssS'parent'
p75
Nsg68
(lp76
g61
(cgluon.html
TR
p77
g63
NtRp78
(dp79
g66
(dp80
sg75
g71
sg68
(lp81
g61
(cgluon.html
TD
p82
g63
NtRp83
(dp84
g66
(dp85
S'_style'
p86
S'font-weight:bold;vertical-align:top'
p87
ssg75
g78
sg68
(lp88
S'ajax'
p89
asbag61
(g82
g63
NtRp90
(dp91
g66
(dp92
S'_valign'
p93
S'top'
p94
ssg75
g78
sg68
(lp95
S':'
asbag61
(g82
g63
NtRp96
(dp97
g66
(dp98
sg75
g78
sg68
(lp99
g61
(g62
g63
NtRp100
(dp101
g66
(dp102
g74
I5
ssg75
g96
sg68
(lp103
S'False'
p104
asbasbasbag61
(g77
g63
NtRp105
(dp106
g66
(dp107
sg75
g71
sg68
(lp108
g61
(g82
g63
NtRp109
(dp110
g66
(dp111
g86
g87
ssg75
g105
sg68
(lp112
S'application'
p113
asbag61
(g82
g63
NtRp114
(dp115
g66
(dp116
g93
g94
ssg75
g105
sg68
(lp117
S':'
asbag61
(g82
g63
NtRp118
(dp119
g66
(dp120
sg75
g105
sg68
(lp121
g61
(g62
g63
NtRp122
(dp123
g66
(dp124
g74
I5
ssg75
g118
sg68
(lp125
S'SlugBarter'
p126
asbasbasbag61
(g77
g63
NtRp127
(dp128
g66
(dp129
sg75
g71
sg68
(lp130
g61
(g82
g63
NtRp131
(dp132
g66
(dp133
g86
g87
ssg75
g127
sg68
(lp134
g48
asbag61
(g82
g63
NtRp135
(dp136
g66
(dp137
g93
g94
ssg75
g127
sg68
(lp138
S':'
asbag61
(g82
g63
NtRp139
(dp140
g66
(dp141
sg75
g127
sg68
(lp142
g61
(g62
g63
NtRp143
(dp144
g66
(dp145
g74
I5
ssg75
g139
sg68
(lp146
g61
(g70
g63
NtRp147
(dp148
g66
(dp149
g74
I4
ssg75
Nsg68
(lp150
sbasbasbasbag61
(g77
g63
NtRp151
(dp152
g66
(dp153
sg75
g71
sg68
(lp154
g61
(g82
g63
NtRp155
(dp156
g66
(dp157
g86
g87
ssg75
g151
sg68
(lp158
S'body'
p159
asbag61
(g82
g63
NtRp160
(dp161
g66
(dp162
g93
g94
ssg75
g151
sg68
(lp163
S':'
asbag61
(g82
g63
NtRp164
(dp165
g66
(dp166
sg75
g151
sg68
(lp167
g61
(g62
g63
NtRp168
(dp169
g66
(dp170
g74
I5
ssg75
g164
sg68
(lp171
S'<cStringIO.StringO object at 0x06371760>'
p172
asbasbasbag61
(g77
g63
NtRp173
(dp174
g66
(dp175
sg75
g71
sg68
(lp176
g61
(g82
g63
NtRp177
(dp178
g66
(dp179
g86
g87
ssg75
g173
sg68
(lp180
S'client'
p181
asbag61
(g82
g63
NtRp182
(dp183
g66
(dp184
g93
g94
ssg75
g173
sg68
(lp185
S':'
asbag61
(g82
g63
NtRp186
(dp187
g66
(dp188
sg75
g173
sg68
(lp189
g61
(g62
g63
NtRp190
(dp191
g66
(dp192
g74
I5
ssg75
g186
sg68
(lp193
S'127.0.0.1'
p194
asbasbasbag61
(g77
g63
NtRp195
(dp196
g66
(dp197
sg75
g71
sg68
(lp198
g61
(g82
g63
NtRp199
(dp200
g66
(dp201
g86
g87
ssg75
g195
sg68
(lp202
S'controller'
p203
asbag61
(g82
g63
NtRp204
(dp205
g66
(dp206
g93
g94
ssg75
g195
sg68
(lp207
S':'
asbag61
(g82
g63
NtRp208
(dp209
g66
(dp210
sg75
g195
sg68
(lp211
g61
(g62
g63
NtRp212
(dp213
g66
(dp214
g74
I5
ssg75
g208
sg68
(lp215
S'default'
p216
asbasbasbag61
(g77
g63
NtRp217
(dp218
g66
(dp219
sg75
g71
sg68
(lp220
g61
(g82
g63
NtRp221
(dp222
g66
(dp223
g86
g87
ssg75
g217
sg68
(lp224
S'cookies'
p225
asbag61
(g82
g63
NtRp226
(dp227
g66
(dp228
g93
g94
ssg75
g217
sg68
(lp229
S':'
asbag61
(g82
g63
NtRp230
(dp231
g66
(dp232
sg75
g217
sg68
(lp233
g61
(g62
g63
NtRp234
(dp235
g66
(dp236
g74
I5
ssg75
g230
sg68
(lp237
g61
(g70
g63
NtRp238
(dp239
g66
(dp240
g74
I4
ssg75
Nsg68
(lp241
g61
(g77
g63
NtRp242
(dp243
g66
(dp244
sg75
g238
sg68
(lp245
g61
(g82
g63
NtRp246
(dp247
g66
(dp248
g86
g87
ssg75
g242
sg68
(lp249
S'session_id_admin'
p250
asbag61
(g82
g63
NtRp251
(dp252
g66
(dp253
g93
g94
ssg75
g242
sg68
(lp254
S':'
asbag61
(g82
g63
NtRp255
(dp256
g66
(dp257
sg75
g242
sg68
(lp258
g61
(g62
g63
NtRp259
(dp260
g66
(dp261
g74
I4
ssg75
g255
sg68
(lp262
g61
(g70
g63
NtRp263
(dp264
g66
(dp265
g74
I3
ssg75
Nsg68
(lp266
g61
(g77
g63
NtRp267
(dp268
g66
(dp269
sg75
g263
sg68
(lp270
g61
(g82
g63
NtRp271
(dp272
g66
(dp273
g86
g87
ssg75
g267
sg68
(lp274
S'comment'
p275
asbag61
(g82
g63
NtRp276
(dp277
g66
(dp278
g93
g94
ssg75
g267
sg68
(lp279
S':'
asbag61
(g82
g63
NtRp280
(dp281
g66
(dp282
sg75
g267
sg68
(lp283
g61
(g62
g63
NtRp284
(dp285
g66
(dp286
g74
I3
ssg75
g280
sg68
(lp287
S''
asbasbasbag61
(g77
g63
NtRp288
(dp289
g66
(dp290
sg75
g263
sg68
(lp291
g61
(g82
g63
NtRp292
(dp293
g66
(dp294
g86
g87
ssg75
g288
sg68
(lp295
S'domain'
p296
asbag61
(g82
g63
NtRp297
(dp298
g66
(dp299
g93
g94
ssg75
g288
sg68
(lp300
S':'
asbag61
(g82
g63
NtRp301
(dp302
g66
(dp303
sg75
g288
sg68
(lp304
g61
(g62
g63
NtRp305
(dp306
g66
(dp307
g74
I3
ssg75
g301
sg68
(lp308
S''
asbasbasbag61
(g77
g63
NtRp309
(dp310
g66
(dp311
sg75
g263
sg68
(lp312
g61
(g82
g63
NtRp313
(dp314
g66
(dp315
g86
g87
ssg75
g309
sg68
(lp316
S'expires'
p317
asbag61
(g82
g63
NtRp318
(dp319
g66
(dp320
g93
g94
ssg75
g309
sg68
(lp321
S':'
asbag61
(g82
g63
NtRp322
(dp323
g66
(dp324
sg75
g309
sg68
(lp325
g61
(g62
g63
NtRp326
(dp327
g66
(dp328
g74
I3
ssg75
g322
sg68
(lp329
S''
asbasbasbag61
(g77
g63
NtRp330
(dp331
g66
(dp332
sg75
g263
sg68
(lp333
g61
(g82
g63
NtRp334
(dp335
g66
(dp336
g86
g87
ssg75
g330
sg68
(lp337
S'max-age'
p338
asbag61
(g82
g63
NtRp339
(dp340
g66
(dp341
g93
g94
ssg75
g330
sg68
(lp342
S':'
asbag61
(g82
g63
NtRp343
(dp344
g66
(dp345
sg75
g330
sg68
(lp346
g61
(g62
g63
NtRp347
(dp348
g66
(dp349
g74
I3
ssg75
g343
sg68
(lp350
S''
asbasbasbag61
(g77
g63
NtRp351
(dp352
g66
(dp353
sg75
g263
sg68
(lp354
g61
(g82
g63
NtRp355
(dp356
g66
(dp357
g86
g87
ssg75
g351
sg68
(lp358
S'path'
p359
asbag61
(g82
g63
NtRp360
(dp361
g66
(dp362
g93
g94
ssg75
g351
sg68
(lp363
S':'
asbag61
(g82
g63
NtRp364
(dp365
g66
(dp366
sg75
g351
sg68
(lp367
g61
(g62
g63
NtRp368
(dp369
g66
(dp370
g74
I3
ssg75
g364
sg68
(lp371
S''
asbasbasbag61
(g77
g63
NtRp372
(dp373
g66
(dp374
sg75
g263
sg68
(lp375
g61
(g82
g63
NtRp376
(dp377
g66
(dp378
g86
g87
ssg75
g372
sg68
(lp379
S'secure'
p380
asbag61
(g82
g63
NtRp381
(dp382
g66
(dp383
g93
g94
ssg75
g372
sg68
(lp384
S':'
asbag61
(g82
g63
NtRp385
(dp386
g66
(dp387
sg75
g372
sg68
(lp388
g61
(g62
g63
NtRp389
(dp390
g66
(dp391
g74
I3
ssg75
g385
sg68
(lp392
S''
asbasbasbag61
(g77
g63
NtRp393
(dp394
g66
(dp395
sg75
g263
sg68
(lp396
g61
(g82
g63
NtRp397
(dp398
g66
(dp399
g86
g87
ssg75
g393
sg68
(lp400
S'version'
p401
asbag61
(g82
g63
NtRp402
(dp403
g66
(dp404
g93
g94
ssg75
g393
sg68
(lp405
S':'
asbag61
(g82
g63
NtRp406
(dp407
g66
(dp408
sg75
g393
sg68
(lp409
g61
(g62
g63
NtRp410
(dp411
g66
(dp412
g74
I3
ssg75
g406
sg68
(lp413
S''
asbasbasbasbasbasbasbag61
(g77
g63
NtRp414
(dp415
g66
(dp416
sg75
g238
sg68
(lp417
g61
(g82
g63
NtRp418
(dp419
g66
(dp420
g86
g87
ssg75
g414
sg68
(lp421
S'session_id_assignment3'
p422
asbag61
(g82
g63
NtRp423
(dp424
g66
(dp425
g93
g94
ssg75
g414
sg68
(lp426
S':'
asbag61
(g82
g63
NtRp427
(dp428
g66
(dp429
sg75
g414
sg68
(lp430
g61
(g62
g63
NtRp431
(dp432
g66
(dp433
g74
I4
ssg75
g427
sg68
(lp434
g61
(g70
g63
NtRp435
(dp436
g66
(dp437
g74
I3
ssg75
Nsg68
(lp438
g61
(g77
g63
NtRp439
(dp440
g66
(dp441
sg75
g435
sg68
(lp442
g61
(g82
g63
NtRp443
(dp444
g66
(dp445
g86
g87
ssg75
g439
sg68
(lp446
g275
asbag61
(g82
g63
NtRp447
(dp448
g66
(dp449
g93
g94
ssg75
g439
sg68
(lp450
S':'
asbag61
(g82
g63
NtRp451
(dp452
g66
(dp453
sg75
g439
sg68
(lp454
g61
(g62
g63
NtRp455
(dp456
g66
(dp457
g74
I3
ssg75
g451
sg68
(lp458
S''
asbasbasbag61
(g77
g63
NtRp459
(dp460
g66
(dp461
sg75
g435
sg68
(lp462
g61
(g82
g63
NtRp463
(dp464
g66
(dp465
g86
g87
ssg75
g459
sg68
(lp466
g296
asbag61
(g82
g63
NtRp467
(dp468
g66
(dp469
g93
g94
ssg75
g459
sg68
(lp470
S':'
asbag61
(g82
g63
NtRp471
(dp472
g66
(dp473
sg75
g459
sg68
(lp474
g61
(g62
g63
NtRp475
(dp476
g66
(dp477
g74
I3
ssg75
g471
sg68
(lp478
S''
asbasbasbag61
(g77
g63
NtRp479
(dp480
g66
(dp481
sg75
g435
sg68
(lp482
g61
(g82
g63
NtRp483
(dp484
g66
(dp485
g86
g87
ssg75
g479
sg68
(lp486
g317
asbag61
(g82
g63
NtRp487
(dp488
g66
(dp489
g93
g94
ssg75
g479
sg68
(lp490
S':'
asbag61
(g82
g63
NtRp491
(dp492
g66
(dp493
sg75
g479
sg68
(lp494
g61
(g62
g63
NtRp495
(dp496
g66
(dp497
g74
I3
ssg75
g491
sg68
(lp498
S''
asbasbasbag61
(g77
g63
NtRp499
(dp500
g66
(dp501
sg75
g435
sg68
(lp502
g61
(g82
g63
NtRp503
(dp504
g66
(dp505
g86
g87
ssg75
g499
sg68
(lp506
g338
asbag61
(g82
g63
NtRp507
(dp508
g66
(dp509
g93
g94
ssg75
g499
sg68
(lp510
S':'
asbag61
(g82
g63
NtRp511
(dp512
g66
(dp513
sg75
g499
sg68
(lp514
g61
(g62
g63
NtRp515
(dp516
g66
(dp517
g74
I3
ssg75
g511
sg68
(lp518
S''
asbasbasbag61
(g77
g63
NtRp519
(dp520
g66
(dp521
sg75
g435
sg68
(lp522
g61
(g82
g63
NtRp523
(dp524
g66
(dp525
g86
g87
ssg75
g519
sg68
(lp526
g359
asbag61
(g82
g63
NtRp527
(dp528
g66
(dp529
g93
g94
ssg75
g519
sg68
(lp530
S':'
asbag61
(g82
g63
NtRp531
(dp532
g66
(dp533
sg75
g519
sg68
(lp534
g61
(g62
g63
NtRp535
(dp536
g66
(dp537
g74
I3
ssg75
g531
sg68
(lp538
S''
asbasbasbag61
(g77
g63
NtRp539
(dp540
g66
(dp541
sg75
g435
sg68
(lp542
g61
(g82
g63
NtRp543
(dp544
g66
(dp545
g86
g87
ssg75
g539
sg68
(lp546
g380
asbag61
(g82
g63
NtRp547
(dp548
g66
(dp549
g93
g94
ssg75
g539
sg68
(lp550
S':'
asbag61
(g82
g63
NtRp551
(dp552
g66
(dp553
sg75
g539
sg68
(lp554
g61
(g62
g63
NtRp555
(dp556
g66
(dp557
g74
I3
ssg75
g551
sg68
(lp558
S''
asbasbasbag61
(g77
g63
NtRp559
(dp560
g66
(dp561
sg75
g435
sg68
(lp562
g61
(g82
g63
NtRp563
(dp564
g66
(dp565
g86
g87
ssg75
g559
sg68
(lp566
g401
asbag61
(g82
g63
NtRp567
(dp568
g66
(dp569
g93
g94
ssg75
g559
sg68
(lp570
S':'
asbag61
(g82
g63
NtRp571
(dp572
g66
(dp573
sg75
g559
sg68
(lp574
g61
(g62
g63
NtRp575
(dp576
g66
(dp577
g74
I3
ssg75
g571
sg68
(lp578
S''
asbasbasbasbasbasbasbag61
(g77
g63
NtRp579
(dp580
g66
(dp581
sg75
g238
sg68
(lp582
g61
(g82
g63
NtRp583
(dp584
g66
(dp585
g86
g87
ssg75
g579
sg68
(lp586
S'session_id_onlinenotes_p1_'
p587
asbag61
(g82
g63
NtRp588
(dp589
g66
(dp590
g93
g94
ssg75
g579
sg68
(lp591
S':'
asbag61
(g82
g63
NtRp592
(dp593
g66
(dp594
sg75
g579
sg68
(lp595
g61
(g62
g63
NtRp596
(dp597
g66
(dp598
g74
I4
ssg75
g592
sg68
(lp599
g61
(g70
g63
NtRp600
(dp601
g66
(dp602
g74
I3
ssg75
Nsg68
(lp603
g61
(g77
g63
NtRp604
(dp605
g66
(dp606
sg75
g600
sg68
(lp607
g61
(g82
g63
NtRp608
(dp609
g66
(dp610
g86
g87
ssg75
g604
sg68
(lp611
g275
asbag61
(g82
g63
NtRp612
(dp613
g66
(dp614
g93
g94
ssg75
g604
sg68
(lp615
S':'
asbag61
(g82
g63
NtRp616
(dp617
g66
(dp618
sg75
g604
sg68
(lp619
g61
(g62
g63
NtRp620
(dp621
g66
(dp622
g74
I3
ssg75
g616
sg68
(lp623
S''
asbasbasbag61
(g77
g63
NtRp624
(dp625
g66
(dp626
sg75
g600
sg68
(lp627
g61
(g82
g63
NtRp628
(dp629
g66
(dp630
g86
g87
ssg75
g624
sg68
(lp631
g296
asbag61
(g82
g63
NtRp632
(dp633
g66
(dp634
g93
g94
ssg75
g624
sg68
(lp635
S':'
asbag61
(g82
g63
NtRp636
(dp637
g66
(dp638
sg75
g624
sg68
(lp639
g61
(g62
g63
NtRp640
(dp641
g66
(dp642
g74
I3
ssg75
g636
sg68
(lp643
S''
asbasbasbag61
(g77
g63
NtRp644
(dp645
g66
(dp646
sg75
g600
sg68
(lp647
g61
(g82
g63
NtRp648
(dp649
g66
(dp650
g86
g87
ssg75
g644
sg68
(lp651
g317
asbag61
(g82
g63
NtRp652
(dp653
g66
(dp654
g93
g94
ssg75
g644
sg68
(lp655
S':'
asbag61
(g82
g63
NtRp656
(dp657
g66
(dp658
sg75
g644
sg68
(lp659
g61
(g62
g63
NtRp660
(dp661
g66
(dp662
g74
I3
ssg75
g656
sg68
(lp663
S''
asbasbasbag61
(g77
g63
NtRp664
(dp665
g66
(dp666
sg75
g600
sg68
(lp667
g61
(g82
g63
NtRp668
(dp669
g66
(dp670
g86
g87
ssg75
g664
sg68
(lp671
g338
asbag61
(g82
g63
NtRp672
(dp673
g66
(dp674
g93
g94
ssg75
g664
sg68
(lp675
S':'
asbag61
(g82
g63
NtRp676
(dp677
g66
(dp678
sg75
g664
sg68
(lp679
g61
(g62
g63
NtRp680
(dp681
g66
(dp682
g74
I3
ssg75
g676
sg68
(lp683
S''
asbasbasbag61
(g77
g63
NtRp684
(dp685
g66
(dp686
sg75
g600
sg68
(lp687
g61
(g82
g63
NtRp688
(dp689
g66
(dp690
g86
g87
ssg75
g684
sg68
(lp691
g359
asbag61
(g82
g63
NtRp692
(dp693
g66
(dp694
g93
g94
ssg75
g684
sg68
(lp695
S':'
asbag61
(g82
g63
NtRp696
(dp697
g66
(dp698
sg75
g684
sg68
(lp699
g61
(g62
g63
NtRp700
(dp701
g66
(dp702
g74
I3
ssg75
g696
sg68
(lp703
S''
asbasbasbag61
(g77
g63
NtRp704
(dp705
g66
(dp706
sg75
g600
sg68
(lp707
g61
(g82
g63
NtRp708
(dp709
g66
(dp710
g86
g87
ssg75
g704
sg68
(lp711
g380
asbag61
(g82
g63
NtRp712
(dp713
g66
(dp714
g93
g94
ssg75
g704
sg68
(lp715
S':'
asbag61
(g82
g63
NtRp716
(dp717
g66
(dp718
sg75
g704
sg68
(lp719
g61
(g62
g63
NtRp720
(dp721
g66
(dp722
g74
I3
ssg75
g716
sg68
(lp723
S''
asbasbasbag61
(g77
g63
NtRp724
(dp725
g66
(dp726
sg75
g600
sg68
(lp727
g61
(g82
g63
NtRp728
(dp729
g66
(dp730
g86
g87
ssg75
g724
sg68
(lp731
g401
asbag61
(g82
g63
NtRp732
(dp733
g66
(dp734
g93
g94
ssg75
g724
sg68
(lp735
S':'
asbag61
(g82
g63
NtRp736
(dp737
g66
(dp738
sg75
g724
sg68
(lp739
g61
(g62
g63
NtRp740
(dp741
g66
(dp742
g74
I3
ssg75
g736
sg68
(lp743
S''
asbasbasbasbasbasbasbag61
(g77
g63
NtRp744
(dp745
g66
(dp746
sg75
g238
sg68
(lp747
g61
(g82
g63
NtRp748
(dp749
g66
(dp750
g86
g87
ssg75
g744
sg68
(lp751
S'session_id_slug_register_page'
p752
asbag61
(g82
g63
NtRp753
(dp754
g66
(dp755
g93
g94
ssg75
g744
sg68
(lp756
S':'
asbag61
(g82
g63
NtRp757
(dp758
g66
(dp759
sg75
g744
sg68
(lp760
g61
(g62
g63
NtRp761
(dp762
g66
(dp763
g74
I4
ssg75
g757
sg68
(lp764
g61
(g70
g63
NtRp765
(dp766
g66
(dp767
g74
I3
ssg75
Nsg68
(lp768
g61
(g77
g63
NtRp769
(dp770
g66
(dp771
sg75
g765
sg68
(lp772
g61
(g82
g63
NtRp773
(dp774
g66
(dp775
g86
g87
ssg75
g769
sg68
(lp776
g275
asbag61
(g82
g63
NtRp777
(dp778
g66
(dp779
g93
g94
ssg75
g769
sg68
(lp780
S':'
asbag61
(g82
g63
NtRp781
(dp782
g66
(dp783
sg75
g769
sg68
(lp784
g61
(g62
g63
NtRp785
(dp786
g66
(dp787
g74
I3
ssg75
g781
sg68
(lp788
S''
asbasbasbag61
(g77
g63
NtRp789
(dp790
g66
(dp791
sg75
g765
sg68
(lp792
g61
(g82
g63
NtRp793
(dp794
g66
(dp795
g86
g87
ssg75
g789
sg68
(lp796
g296
asbag61
(g82
g63
NtRp797
(dp798
g66
(dp799
g93
g94
ssg75
g789
sg68
(lp800
S':'
asbag61
(g82
g63
NtRp801
(dp802
g66
(dp803
sg75
g789
sg68
(lp804
g61
(g62
g63
NtRp805
(dp806
g66
(dp807
g74
I3
ssg75
g801
sg68
(lp808
S''
asbasbasbag61
(g77
g63
NtRp809
(dp810
g66
(dp811
sg75
g765
sg68
(lp812
g61
(g82
g63
NtRp813
(dp814
g66
(dp815
g86
g87
ssg75
g809
sg68
(lp816
g317
asbag61
(g82
g63
NtRp817
(dp818
g66
(dp819
g93
g94
ssg75
g809
sg68
(lp820
S':'
asbag61
(g82
g63
NtRp821
(dp822
g66
(dp823
sg75
g809
sg68
(lp824
g61
(g62
g63
NtRp825
(dp826
g66
(dp827
g74
I3
ssg75
g821
sg68
(lp828
S''
asbasbasbag61
(g77
g63
NtRp829
(dp830
g66
(dp831
sg75
g765
sg68
(lp832
g61
(g82
g63
NtRp833
(dp834
g66
(dp835
g86
g87
ssg75
g829
sg68
(lp836
g338
asbag61
(g82
g63
NtRp837
(dp838
g66
(dp839
g93
g94
ssg75
g829
sg68
(lp840
S':'
asbag61
(g82
g63
NtRp841
(dp842
g66
(dp843
sg75
g829
sg68
(lp844
g61
(g62
g63
NtRp845
(dp846
g66
(dp847
g74
I3
ssg75
g841
sg68
(lp848
S''
asbasbasbag61
(g77
g63
NtRp849
(dp850
g66
(dp851
sg75
g765
sg68
(lp852
g61
(g82
g63
NtRp853
(dp854
g66
(dp855
g86
g87
ssg75
g849
sg68
(lp856
g359
asbag61
(g82
g63
NtRp857
(dp858
g66
(dp859
g93
g94
ssg75
g849
sg68
(lp860
S':'
asbag61
(g82
g63
NtRp861
(dp862
g66
(dp863
sg75
g849
sg68
(lp864
g61
(g62
g63
NtRp865
(dp866
g66
(dp867
g74
I3
ssg75
g861
sg68
(lp868
S''
asbasbasbag61
(g77
g63
NtRp869
(dp870
g66
(dp871
sg75
g765
sg68
(lp872
g61
(g82
g63
NtRp873
(dp874
g66
(dp875
g86
g87
ssg75
g869
sg68
(lp876
g380
asbag61
(g82
g63
NtRp877
(dp878
g66
(dp879
g93
g94
ssg75
g869
sg68
(lp880
S':'
asbag61
(g82
g63
NtRp881
(dp882
g66
(dp883
sg75
g869
sg68
(lp884
g61
(g62
g63
NtRp885
(dp886
g66
(dp887
g74
I3
ssg75
g881
sg68
(lp888
S''
asbasbasbag61
(g77
g63
NtRp889
(dp890
g66
(dp891
sg75
g765
sg68
(lp892
g61
(g82
g63
NtRp893
(dp894
g66
(dp895
g86
g87
ssg75
g889
sg68
(lp896
g401
asbag61
(g82
g63
NtRp897
(dp898
g66
(dp899
g93
g94
ssg75
g889
sg68
(lp900
S':'
asbag61
(g82
g63
NtRp901
(dp902
g66
(dp903
sg75
g889
sg68
(lp904
g61
(g62
g63
NtRp905
(dp906
g66
(dp907
g74
I3
ssg75
g901
sg68
(lp908
S''
asbasbasbasbasbasbasbag61
(g77
g63
NtRp909
(dp910
g66
(dp911
sg75
g238
sg68
(lp912
g61
(g82
g63
NtRp913
(dp914
g66
(dp915
g86
g87
ssg75
g909
sg68
(lp916
S'session_id_slugbarter'
p917
asbag61
(g82
g63
NtRp918
(dp919
g66
(dp920
g93
g94
ssg75
g909
sg68
(lp921
S':'
asbag61
(g82
g63
NtRp922
(dp923
g66
(dp924
sg75
g909
sg68
(lp925
g61
(g62
g63
NtRp926
(dp927
g66
(dp928
g74
I4
ssg75
g922
sg68
(lp929
g61
(g70
g63
NtRp930
(dp931
g66
(dp932
g74
I3
ssg75
Nsg68
(lp933
g61
(g77
g63
NtRp934
(dp935
g66
(dp936
sg75
g930
sg68
(lp937
g61
(g82
g63
NtRp938
(dp939
g66
(dp940
g86
g87
ssg75
g934
sg68
(lp941
g275
asbag61
(g82
g63
NtRp942
(dp943
g66
(dp944
g93
g94
ssg75
g934
sg68
(lp945
S':'
asbag61
(g82
g63
NtRp946
(dp947
g66
(dp948
sg75
g934
sg68
(lp949
g61
(g62
g63
NtRp950
(dp951
g66
(dp952
g74
I3
ssg75
g946
sg68
(lp953
S''
asbasbasbag61
(g77
g63
NtRp954
(dp955
g66
(dp956
sg75
g930
sg68
(lp957
g61
(g82
g63
NtRp958
(dp959
g66
(dp960
g86
g87
ssg75
g954
sg68
(lp961
g296
asbag61
(g82
g63
NtRp962
(dp963
g66
(dp964
g93
g94
ssg75
g954
sg68
(lp965
S':'
asbag61
(g82
g63
NtRp966
(dp967
g66
(dp968
sg75
g954
sg68
(lp969
g61
(g62
g63
NtRp970
(dp971
g66
(dp972
g74
I3
ssg75
g966
sg68
(lp973
S''
asbasbasbag61
(g77
g63
NtRp974
(dp975
g66
(dp976
sg75
g930
sg68
(lp977
g61
(g82
g63
NtRp978
(dp979
g66
(dp980
g86
g87
ssg75
g974
sg68
(lp981
g317
asbag61
(g82
g63
NtRp982
(dp983
g66
(dp984
g93
g94
ssg75
g974
sg68
(lp985
S':'
asbag61
(g82
g63
NtRp986
(dp987
g66
(dp988
sg75
g974
sg68
(lp989
g61
(g62
g63
NtRp990
(dp991
g66
(dp992
g74
I3
ssg75
g986
sg68
(lp993
S''
asbasbasbag61
(g77
g63
NtRp994
(dp995
g66
(dp996
sg75
g930
sg68
(lp997
g61
(g82
g63
NtRp998
(dp999
g66
(dp1000
g86
g87
ssg75
g994
sg68
(lp1001
g338
asbag61
(g82
g63
NtRp1002
(dp1003
g66
(dp1004
g93
g94
ssg75
g994
sg68
(lp1005
S':'
asbag61
(g82
g63
NtRp1006
(dp1007
g66
(dp1008
sg75
g994
sg68
(lp1009
g61
(g62
g63
NtRp1010
(dp1011
g66
(dp1012
g74
I3
ssg75
g1006
sg68
(lp1013
S''
asbasbasbag61
(g77
g63
NtRp1014
(dp1015
g66
(dp1016
sg75
g930
sg68
(lp1017
g61
(g82
g63
NtRp1018
(dp1019
g66
(dp1020
g86
g87
ssg75
g1014
sg68
(lp1021
g359
asbag61
(g82
g63
NtRp1022
(dp1023
g66
(dp1024
g93
g94
ssg75
g1014
sg68
(lp1025
S':'
asbag61
(g82
g63
NtRp1026
(dp1027
g66
(dp1028
sg75
g1014
sg68
(lp1029
g61
(g62
g63
NtRp1030
(dp1031
g66
(dp1032
g74
I3
ssg75
g1026
sg68
(lp1033
S''
asbasbasbag61
(g77
g63
NtRp1034
(dp1035
g66
(dp1036
sg75
g930
sg68
(lp1037
g61
(g82
g63
NtRp1038
(dp1039
g66
(dp1040
g86
g87
ssg75
g1034
sg68
(lp1041
g380
asbag61
(g82
g63
NtRp1042
(dp1043
g66
(dp1044
g93
g94
ssg75
g1034
sg68
(lp1045
S':'
asbag61
(g82
g63
NtRp1046
(dp1047
g66
(dp1048
sg75
g1034
sg68
(lp1049
g61
(g62
g63
NtRp1050
(dp1051
g66
(dp1052
g74
I3
ssg75
g1046
sg68
(lp1053
S''
asbasbasbag61
(g77
g63
NtRp1054
(dp1055
g66
(dp1056
sg75
g930
sg68
(lp1057
g61
(g82
g63
NtRp1058
(dp1059
g66
(dp1060
g86
g87
ssg75
g1054
sg68
(lp1061
g401
asbag61
(g82
g63
NtRp1062
(dp1063
g66
(dp1064
g93
g94
ssg75
g1054
sg68
(lp1065
S':'
asbag61
(g82
g63
NtRp1066
(dp1067
g66
(dp1068
sg75
g1054
sg68
(lp1069
g61
(g62
g63
NtRp1070
(dp1071
g66
(dp1072
g74
I3
ssg75
g1066
sg68
(lp1073
S''
asbasbasbasbasbasbasbag61
(g77
g63
NtRp1074
(dp1075
g66
(dp1076
sg75
g238
sg68
(lp1077
g61
(g82
g63
NtRp1078
(dp1079
g66
(dp1080
g86
g87
ssg75
g1074
sg68
(lp1081
S'session_id_welcome'
p1082
asbag61
(g82
g63
NtRp1083
(dp1084
g66
(dp1085
g93
g94
ssg75
g1074
sg68
(lp1086
S':'
asbag61
(g82
g63
NtRp1087
(dp1088
g66
(dp1089
sg75
g1074
sg68
(lp1090
g61
(g62
g63
NtRp1091
(dp1092
g66
(dp1093
g74
I4
ssg75
g1087
sg68
(lp1094
g61
(g70
g63
NtRp1095
(dp1096
g66
(dp1097
g74
I3
ssg75
Nsg68
(lp1098
g61
(g77
g63
NtRp1099
(dp1100
g66
(dp1101
sg75
g1095
sg68
(lp1102
g61
(g82
g63
NtRp1103
(dp1104
g66
(dp1105
g86
g87
ssg75
g1099
sg68
(lp1106
g275
asbag61
(g82
g63
NtRp1107
(dp1108
g66
(dp1109
g93
g94
ssg75
g1099
sg68
(lp1110
S':'
asbag61
(g82
g63
NtRp1111
(dp1112
g66
(dp1113
sg75
g1099
sg68
(lp1114
g61
(g62
g63
NtRp1115
(dp1116
g66
(dp1117
g74
I3
ssg75
g1111
sg68
(lp1118
S''
asbasbasbag61
(g77
g63
NtRp1119
(dp1120
g66
(dp1121
sg75
g1095
sg68
(lp1122
g61
(g82
g63
NtRp1123
(dp1124
g66
(dp1125
g86
g87
ssg75
g1119
sg68
(lp1126
g296
asbag61
(g82
g63
NtRp1127
(dp1128
g66
(dp1129
g93
g94
ssg75
g1119
sg68
(lp1130
S':'
asbag61
(g82
g63
NtRp1131
(dp1132
g66
(dp1133
sg75
g1119
sg68
(lp1134
g61
(g62
g63
NtRp1135
(dp1136
g66
(dp1137
g74
I3
ssg75
g1131
sg68
(lp1138
S''
asbasbasbag61
(g77
g63
NtRp1139
(dp1140
g66
(dp1141
sg75
g1095
sg68
(lp1142
g61
(g82
g63
NtRp1143
(dp1144
g66
(dp1145
g86
g87
ssg75
g1139
sg68
(lp1146
g317
asbag61
(g82
g63
NtRp1147
(dp1148
g66
(dp1149
g93
g94
ssg75
g1139
sg68
(lp1150
S':'
asbag61
(g82
g63
NtRp1151
(dp1152
g66
(dp1153
sg75
g1139
sg68
(lp1154
g61
(g62
g63
NtRp1155
(dp1156
g66
(dp1157
g74
I3
ssg75
g1151
sg68
(lp1158
S''
asbasbasbag61
(g77
g63
NtRp1159
(dp1160
g66
(dp1161
sg75
g1095
sg68
(lp1162
g61
(g82
g63
NtRp1163
(dp1164
g66
(dp1165
g86
g87
ssg75
g1159
sg68
(lp1166
g338
asbag61
(g82
g63
NtRp1167
(dp1168
g66
(dp1169
g93
g94
ssg75
g1159
sg68
(lp1170
S':'
asbag61
(g82
g63
NtRp1171
(dp1172
g66
(dp1173
sg75
g1159
sg68
(lp1174
g61
(g62
g63
NtRp1175
(dp1176
g66
(dp1177
g74
I3
ssg75
g1171
sg68
(lp1178
S''
asbasbasbag61
(g77
g63
NtRp1179
(dp1180
g66
(dp1181
sg75
g1095
sg68
(lp1182
g61
(g82
g63
NtRp1183
(dp1184
g66
(dp1185
g86
g87
ssg75
g1179
sg68
(lp1186
g359
asbag61
(g82
g63
NtRp1187
(dp1188
g66
(dp1189
g93
g94
ssg75
g1179
sg68
(lp1190
S':'
asbag61
(g82
g63
NtRp1191
(dp1192
g66
(dp1193
sg75
g1179
sg68
(lp1194
g61
(g62
g63
NtRp1195
(dp1196
g66
(dp1197
g74
I3
ssg75
g1191
sg68
(lp1198
S''
asbasbasbag61
(g77
g63
NtRp1199
(dp1200
g66
(dp1201
sg75
g1095
sg68
(lp1202
g61
(g82
g63
NtRp1203
(dp1204
g66
(dp1205
g86
g87
ssg75
g1199
sg68
(lp1206
g380
asbag61
(g82
g63
NtRp1207
(dp1208
g66
(dp1209
g93
g94
ssg75
g1199
sg68
(lp1210
S':'
asbag61
(g82
g63
NtRp1211
(dp1212
g66
(dp1213
sg75
g1199
sg68
(lp1214
g61
(g62
g63
NtRp1215
(dp1216
g66
(dp1217
g74
I3
ssg75
g1211
sg68
(lp1218
S''
asbasbasbag61
(g77
g63
NtRp1219
(dp1220
g66
(dp1221
sg75
g1095
sg68
(lp1222
g61
(g82
g63
NtRp1223
(dp1224
g66
(dp1225
g86
g87
ssg75
g1219
sg68
(lp1226
g401
asbag61
(g82
g63
NtRp1227
(dp1228
g66
(dp1229
g93
g94
ssg75
g1219
sg68
(lp1230
S':'
asbag61
(g82
g63
NtRp1231
(dp1232
g66
(dp1233
sg75
g1219
sg68
(lp1234
g61
(g62
g63
NtRp1235
(dp1236
g66
(dp1237
g74
I3
ssg75
g1231
sg68
(lp1238
S''
asbasbasbasbasbasbasbasbasbasbasbag61
(g77
g63
NtRp1239
(dp1240
g66
(dp1241
sg75
g71
sg68
(lp1242
g61
(g82
g63
NtRp1243
(dp1244
g66
(dp1245
g86
g87
ssg75
g1239
sg68
(lp1246
S'env'
p1247
asbag61
(g82
g63
NtRp1248
(dp1249
g66
(dp1250
g93
g94
ssg75
g1239
sg68
(lp1251
S':'
asbag61
(g82
g63
NtRp1252
(dp1253
g66
(dp1254
sg75
g1239
sg68
(lp1255
g61
(g62
g63
NtRp1256
(dp1257
g66
(dp1258
g74
I5
ssg75
g1252
sg68
(lp1259
g61
(g70
g63
NtRp1260
(dp1261
g66
(dp1262
g74
I4
ssg75
Nsg68
(lp1263
g61
(g77
g63
NtRp1264
(dp1265
g66
(dp1266
sg75
g1260
sg68
(lp1267
g61
(g82
g63
NtRp1268
(dp1269
g66
(dp1270
g86
g87
ssg75
g1264
sg68
(lp1271
S'app_folders'
p1272
asbag61
(g82
g63
NtRp1273
(dp1274
g66
(dp1275
g93
g94
ssg75
g1264
sg68
(lp1276
S':'
asbag61
(g82
g63
NtRp1277
(dp1278
g66
(dp1279
sg75
g1264
sg68
(lp1280
g61
(g62
g63
NtRp1281
(dp1282
g66
(dp1283
g74
I4
ssg75
g1277
sg68
(lp1284
S"set(['C:\\\\Users\\\\omkara\\\\Desktop\\\\web2py\\\\applications\\\\slug_register_page\\\\', 'C:\\\\Users\\\\omkara\\\\Desktop\\\\web2py\\\\applications\\\\admin\\\\', 'C:\\\\Users\\\\omkara\\\\Desktop\\\\web2py\\\\applications\\\\Assignment3\\\\', 'C:\\\\Users\\\\omkara\\\\Desktop\\\\web2py\\\\applications\\\\welcome\\\\', 'C:\\\\Users\\\\omkara\\\\Desktop\\\\web2py\\\\applications\\\\OnlineNotes_p1_\\\\', 'C:\\\\Users\\\\omkara\\\\Desktop\\\\web2py\\\\applications\\\\SlugBarter\\\\'])"
p1285
asbasbasbag61
(g77
g63
NtRp1286
(dp1287
g66
(dp1288
sg75
g1260
sg68
(lp1289
g61
(g82
g63
NtRp1290
(dp1291
g66
(dp1292
g86
g87
ssg75
g1286
sg68
(lp1293
S'applications_parent'
p1294
asbag61
(g82
g63
NtRp1295
(dp1296
g66
(dp1297
g93
g94
ssg75
g1286
sg68
(lp1298
S':'
asbag61
(g82
g63
NtRp1299
(dp1300
g66
(dp1301
sg75
g1286
sg68
(lp1302
g61
(g62
g63
NtRp1303
(dp1304
g66
(dp1305
g74
I4
ssg75
g1299
sg68
(lp1306
S'C:\\Users\\omkara\\Desktop\\web2py'
p1307
asbasbasbag61
(g77
g63
NtRp1308
(dp1309
g66
(dp1310
sg75
g1260
sg68
(lp1311
g61
(g82
g63
NtRp1312
(dp1313
g66
(dp1314
g86
g87
ssg75
g1308
sg68
(lp1315
S'cmd_args'
p1316
asbag61
(g82
g63
NtRp1317
(dp1318
g66
(dp1319
g93
g94
ssg75
g1308
sg68
(lp1320
S':'
asbag61
(g82
g63
NtRp1321
(dp1322
g66
(dp1323
sg75
g1308
sg68
(lp1324
g61
(g62
g63
NtRp1325
(dp1326
g66
(dp1327
g74
I4
ssg75
g1321
sg68
(lp1328
g61
(g70
g63
NtRp1329
(dp1330
g66
(dp1331
g74
I3
ssg75
Nsg68
(lp1332
sbasbasbasbag61
(g77
g63
NtRp1333
(dp1334
g66
(dp1335
sg75
g1260
sg68
(lp1336
g61
(g82
g63
NtRp1337
(dp1338
g66
(dp1339
g86
g87
ssg75
g1333
sg68
(lp1340
S'cmd_options'
p1341
asbag61
(g82
g63
NtRp1342
(dp1343
g66
(dp1344
g93
g94
ssg75
g1333
sg68
(lp1345
S':'
asbag61
(g82
g63
NtRp1346
(dp1347
g66
(dp1348
sg75
g1333
sg68
(lp1349
g61
(g62
g63
NtRp1350
(dp1351
g66
(dp1352
g74
I4
ssg75
g1346
sg68
(lp1353
S"<Values at 0x28230f8: {'verbose': False, 'ip': '127.0.0.1', 'shutdown_timeout': 5, 'taskbar': False, 'nocron': False, 'pid_filename': 'httpserver.pid', 'maxthreads': None, 'softcron': False, 'server_name': 'omkara-PC', 'bpython': False, 'nogui': False, 'port': 8000, 'extcron': False, 'debuglevel': 30, 'test': None, 'folder': 'C:\\\\Users\\\\omkara\\\\Desktop\\\\web2py', 'config': '', 'import_models': False, 'winservice': '', 'shell': None, 'run': '', 'log_filename': 'httpserver.log', 'args': [''], 'socket_timeout': 5, 'ssl_ca_certificate': None, 'scheduler': None, 'profiler_filename': None, 'ssl_private_key': '', 'password': '<ask>', 'request_queue_size': 5, 'ssl_certificate': '', 'cronjob': False, 'numthreads': None, 'quiet': False, 'interfaces': None, 'minthreads': None, 'timeout': 10, 'plain': False, 'nobanner': False}>"
p1354
asbasbasbag61
(g77
g63
NtRp1355
(dp1356
g66
(dp1357
sg75
g1260
sg68
(lp1358
g61
(g82
g63
NtRp1359
(dp1360
g66
(dp1361
g86
g87
ssg75
g1355
sg68
(lp1362
S'db_sessions'
p1363
asbag61
(g82
g63
NtRp1364
(dp1365
g66
(dp1366
g93
g94
ssg75
g1355
sg68
(lp1367
S':'
asbag61
(g82
g63
NtRp1368
(dp1369
g66
(dp1370
sg75
g1355
sg68
(lp1371
g61
(g62
g63
NtRp1372
(dp1373
g66
(dp1374
g74
I4
ssg75
g1368
sg68
(lp1375
S'set([])'
p1376
asbasbasbag61
(g77
g63
NtRp1377
(dp1378
g66
(dp1379
sg75
g1260
sg68
(lp1380
g61
(g82
g63
NtRp1381
(dp1382
g66
(dp1383
g86
g87
ssg75
g1377
sg68
(lp1384
S'debugging'
p1385
asbag61
(g82
g63
NtRp1386
(dp1387
g66
(dp1388
g93
g94
ssg75
g1377
sg68
(lp1389
S':'
asbag61
(g82
g63
NtRp1390
(dp1391
g66
(dp1392
sg75
g1377
sg68
(lp1393
g61
(g62
g63
NtRp1394
(dp1395
g66
(dp1396
g74
I4
ssg75
g1390
sg68
(lp1397
g104
asbasbasbag61
(g77
g63
NtRp1398
(dp1399
g66
(dp1400
sg75
g1260
sg68
(lp1401
g61
(g82
g63
NtRp1402
(dp1403
g66
(dp1404
g86
g87
ssg75
g1398
sg68
(lp1405
S'gluon_parent'
p1406
asbag61
(g82
g63
NtRp1407
(dp1408
g66
(dp1409
g93
g94
ssg75
g1398
sg68
(lp1410
S':'
asbag61
(g82
g63
NtRp1411
(dp1412
g66
(dp1413
sg75
g1398
sg68
(lp1414
g61
(g62
g63
NtRp1415
(dp1416
g66
(dp1417
g74
I4
ssg75
g1411
sg68
(lp1418
S'C:\\Users\\omkara\\Desktop\\web2py'
p1419
asbasbasbag61
(g77
g63
NtRp1420
(dp1421
g66
(dp1422
sg75
g1260
sg68
(lp1423
g61
(g82
g63
NtRp1424
(dp1425
g66
(dp1426
g86
g87
ssg75
g1420
sg68
(lp1427
S'http_accept'
p1428
asbag61
(g82
g63
NtRp1429
(dp1430
g66
(dp1431
g93
g94
ssg75
g1420
sg68
(lp1432
S':'
asbag61
(g82
g63
NtRp1433
(dp1434
g66
(dp1435
sg75
g1420
sg68
(lp1436
g61
(g62
g63
NtRp1437
(dp1438
g66
(dp1439
g74
I4
ssg75
g1433
sg68
(lp1440
S'text/html,application/xhtml+xml,application/xml;q=0.9,*/*;q=0.8'
p1441
asbasbasbag61
(g77
g63
NtRp1442
(dp1443
g66
(dp1444
sg75
g1260
sg68
(lp1445
g61
(g82
g63
NtRp1446
(dp1447
g66
(dp1448
g86
g87
ssg75
g1442
sg68
(lp1449
S'http_accept_charset'
p1450
asbag61
(g82
g63
NtRp1451
(dp1452
g66
(dp1453
g93
g94
ssg75
g1442
sg68
(lp1454
S':'
asbag61
(g82
g63
NtRp1455
(dp1456
g66
(dp1457
sg75
g1442
sg68
(lp1458
g61
(g62
g63
NtRp1459
(dp1460
g66
(dp1461
g74
I4
ssg75
g1455
sg68
(lp1462
S'ISO-8859-1,utf-8;q=0.7,*;q=0.3'
p1463
asbasbasbag61
(g77
g63
NtRp1464
(dp1465
g66
(dp1466
sg75
g1260
sg68
(lp1467
g61
(g82
g63
NtRp1468
(dp1469
g66
(dp1470
g86
g87
ssg75
g1464
sg68
(lp1471
S'http_accept_encoding'
p1472
asbag61
(g82
g63
NtRp1473
(dp1474
g66
(dp1475
g93
g94
ssg75
g1464
sg68
(lp1476
S':'
asbag61
(g82
g63
NtRp1477
(dp1478
g66
(dp1479
sg75
g1464
sg68
(lp1480
g61
(g62
g63
NtRp1481
(dp1482
g66
(dp1483
g74
I4
ssg75
g1477
sg68
(lp1484
S'gzip,deflate,sdch'
p1485
asbasbasbag61
(g77
g63
NtRp1486
(dp1487
g66
(dp1488
sg75
g1260
sg68
(lp1489
g61
(g82
g63
NtRp1490
(dp1491
g66
(dp1492
g86
g87
ssg75
g1486
sg68
(lp1493
S'http_accept_language'
p1494
asbag61
(g82
g63
NtRp1495
(dp1496
g66
(dp1497
g93
g94
ssg75
g1486
sg68
(lp1498
S':'
asbag61
(g82
g63
NtRp1499
(dp1500
g66
(dp1501
sg75
g1486
sg68
(lp1502
g61
(g62
g63
NtRp1503
(dp1504
g66
(dp1505
g74
I4
ssg75
g1499
sg68
(lp1506
S'en-US,en;q=0.8'
p1507
asbasbasbag61
(g77
g63
NtRp1508
(dp1509
g66
(dp1510
sg75
g1260
sg68
(lp1511
g61
(g82
g63
NtRp1512
(dp1513
g66
(dp1514
g86
g87
ssg75
g1508
sg68
(lp1515
S'http_connection'
p1516
asbag61
(g82
g63
NtRp1517
(dp1518
g66
(dp1519
g93
g94
ssg75
g1508
sg68
(lp1520
S':'
asbag61
(g82
g63
NtRp1521
(dp1522
g66
(dp1523
sg75
g1508
sg68
(lp1524
g61
(g62
g63
NtRp1525
(dp1526
g66
(dp1527
g74
I4
ssg75
g1521
sg68
(lp1528
S'keep-alive'
p1529
asbasbasbag61
(g77
g63
NtRp1530
(dp1531
g66
(dp1532
sg75
g1260
sg68
(lp1533
g61
(g82
g63
NtRp1534
(dp1535
g66
(dp1536
g86
g87
ssg75
g1530
sg68
(lp1537
S'http_cookie'
p1538
asbag61
(g82
g63
NtRp1539
(dp1540
g66
(dp1541
g93
g94
ssg75
g1530
sg68
(lp1542
S':'
asbag61
(g82
g63
NtRp1543
(dp1544
g66
(dp1545
sg75
g1530
sg68
(lp1546
g61
(g62
g63
NtRp1547
(dp1548
g66
(dp1549
g74
I4
ssg75
g1543
sg68
(lp1550
S'session_id_slug_register_page=127.0.0.1-f15706e9-1295-4966-b038-fe9f2920c63b; session_id_onlinenotes_p1_=127.0.0.1-bbeb3d58-63a6-43f5-96c1-8855c711fc8e; session_id_slugbarter=127.0.0.1-731893cd-2bbe-4a91-9483-28b500d609be; session_id_welcome=127.0.0.1-11de0b4a-f781-45be-b8a0-5c0546ffb1c7; session_id_assignment3=127.0.0.1-133e2d9b-1c70-4de6-8636-a7632b1c4876; session_id_admin=127.0.0.1-7358f818-ffbc-48b5-961c-b6a4259bb946'
p1551
asbasbasbag61
(g77
g63
NtRp1552
(dp1553
g66
(dp1554
sg75
g1260
sg68
(lp1555
g61
(g82
g63
NtRp1556
(dp1557
g66
(dp1558
g86
g87
ssg75
g1552
sg68
(lp1559
S'http_host'
p1560
asbag61
(g82
g63
NtRp1561
(dp1562
g66
(dp1563
g93
g94
ssg75
g1552
sg68
(lp1564
S':'
asbag61
(g82
g63
NtRp1565
(dp1566
g66
(dp1567
sg75
g1552
sg68
(lp1568
g61
(g62
g63
NtRp1569
(dp1570
g66
(dp1571
g74
I4
ssg75
g1565
sg68
(lp1572
S'127.0.0.1:8000'
p1573
asbasbasbag61
(g77
g63
NtRp1574
(dp1575
g66
(dp1576
sg75
g1260
sg68
(lp1577
g61
(g82
g63
NtRp1578
(dp1579
g66
(dp1580
g86
g87
ssg75
g1574
sg68
(lp1581
S'http_user_agent'
p1582
asbag61
(g82
g63
NtRp1583
(dp1584
g66
(dp1585
g93
g94
ssg75
g1574
sg68
(lp1586
S':'
asbag61
(g82
g63
NtRp1587
(dp1588
g66
(dp1589
sg75
g1574
sg68
(lp1590
g61
(g62
g63
NtRp1591
(dp1592
g66
(dp1593
g74
I4
ssg75
g1587
sg68
(lp1594
S'Mozilla/5.0 (Windows NT 6.1) AppleWebKit/537.4 (KHTML, like Gecko) Chrome/22.0.1229.94 Safari/537.4'
p1595
asbasbasbag61
(g77
g63
NtRp1596
(dp1597
g66
(dp1598
sg75
g1260
sg68
(lp1599
g61
(g82
g63
NtRp1600
(dp1601
g66
(dp1602
g86
g87
ssg75
g1596
sg68
(lp1603
S'is_jython'
p1604
asbag61
(g82
g63
NtRp1605
(dp1606
g66
(dp1607
g93
g94
ssg75
g1596
sg68
(lp1608
S':'
asbag61
(g82
g63
NtRp1609
(dp1610
g66
(dp1611
sg75
g1596
sg68
(lp1612
g61
(g62
g63
NtRp1613
(dp1614
g66
(dp1615
g74
I4
ssg75
g1609
sg68
(lp1616
g104
asbasbasbag61
(g77
g63
NtRp1617
(dp1618
g66
(dp1619
sg75
g1260
sg68
(lp1620
g61
(g82
g63
NtRp1621
(dp1622
g66
(dp1623
g86
g87
ssg75
g1617
sg68
(lp1624
S'is_pypy'
p1625
asbag61
(g82
g63
NtRp1626
(dp1627
g66
(dp1628
g93
g94
ssg75
g1617
sg68
(lp1629
S':'
asbag61
(g82
g63
NtRp1630
(dp1631
g66
(dp1632
sg75
g1617
sg68
(lp1633
g61
(g62
g63
NtRp1634
(dp1635
g66
(dp1636
g74
I4
ssg75
g1630
sg68
(lp1637
g104
asbasbasbag61
(g77
g63
NtRp1638
(dp1639
g66
(dp1640
sg75
g1260
sg68
(lp1641
g61
(g82
g63
NtRp1642
(dp1643
g66
(dp1644
g86
g87
ssg75
g1638
sg68
(lp1645
S'path_info'
p1646
asbag61
(g82
g63
NtRp1647
(dp1648
g66
(dp1649
g93
g94
ssg75
g1638
sg68
(lp1650
S':'
asbag61
(g82
g63
NtRp1651
(dp1652
g66
(dp1653
sg75
g1638
sg68
(lp1654
g61
(g62
g63
NtRp1655
(dp1656
g66
(dp1657
g74
I4
ssg75
g1651
sg68
(lp1658
S'/SlugBarter/default/'
p1659
asbasbasbag61
(g77
g63
NtRp1660
(dp1661
g66
(dp1662
sg75
g1260
sg68
(lp1663
g61
(g82
g63
NtRp1664
(dp1665
g66
(dp1666
g86
g87
ssg75
g1660
sg68
(lp1667
S'query_string'
p1668
asbag61
(g82
g63
NtRp1669
(dp1670
g66
(dp1671
g93
g94
ssg75
g1660
sg68
(lp1672
S':'
asbag61
(g82
g63
NtRp1673
(dp1674
g66
(dp1675
sg75
g1660
sg68
(lp1676
g61
(g62
g63
NtRp1677
(dp1678
g66
(dp1679
g74
I4
ssg75
g1673
sg68
(lp1680
S''
asbasbasbag61
(g77
g63
NtRp1681
(dp1682
g66
(dp1683
sg75
g1260
sg68
(lp1684
g61
(g82
g63
NtRp1685
(dp1686
g66
(dp1687
g86
g87
ssg75
g1681
sg68
(lp1688
S'remote_addr'
p1689
asbag61
(g82
g63
NtRp1690
(dp1691
g66
(dp1692
g93
g94
ssg75
g1681
sg68
(lp1693
S':'
asbag61
(g82
g63
NtRp1694
(dp1695
g66
(dp1696
sg75
g1681
sg68
(lp1697
g61
(g62
g63
NtRp1698
(dp1699
g66
(dp1700
g74
I4
ssg75
g1694
sg68
(lp1701
g194
asbasbasbag61
(g77
g63
NtRp1702
(dp1703
g66
(dp1704
sg75
g1260
sg68
(lp1705
g61
(g82
g63
NtRp1706
(dp1707
g66
(dp1708
g86
g87
ssg75
g1702
sg68
(lp1709
S'remote_port'
p1710
asbag61
(g82
g63
NtRp1711
(dp1712
g66
(dp1713
g93
g94
ssg75
g1702
sg68
(lp1714
S':'
asbag61
(g82
g63
NtRp1715
(dp1716
g66
(dp1717
sg75
g1702
sg68
(lp1718
g61
(g62
g63
NtRp1719
(dp1720
g66
(dp1721
g74
I4
ssg75
g1715
sg68
(lp1722
S'65315'
p1723
asbasbasbag61
(g77
g63
NtRp1724
(dp1725
g66
(dp1726
sg75
g1260
sg68
(lp1727
g61
(g82
g63
NtRp1728
(dp1729
g66
(dp1730
g86
g87
ssg75
g1724
sg68
(lp1731
S'request_method'
p1732
asbag61
(g82
g63
NtRp1733
(dp1734
g66
(dp1735
g93
g94
ssg75
g1724
sg68
(lp1736
S':'
asbag61
(g82
g63
NtRp1737
(dp1738
g66
(dp1739
sg75
g1724
sg68
(lp1740
g61
(g62
g63
NtRp1741
(dp1742
g66
(dp1743
g74
I4
ssg75
g1737
sg68
(lp1744
S'GET'
p1745
asbasbasbag61
(g77
g63
NtRp1746
(dp1747
g66
(dp1748
sg75
g1260
sg68
(lp1749
g61
(g82
g63
NtRp1750
(dp1751
g66
(dp1752
g86
g87
ssg75
g1746
sg68
(lp1753
S'script_name'
p1754
asbag61
(g82
g63
NtRp1755
(dp1756
g66
(dp1757
g93
g94
ssg75
g1746
sg68
(lp1758
S':'
asbag61
(g82
g63
NtRp1759
(dp1760
g66
(dp1761
sg75
g1746
sg68
(lp1762
g61
(g62
g63
NtRp1763
(dp1764
g66
(dp1765
g74
I4
ssg75
g1759
sg68
(lp1766
S''
asbasbasbag61
(g77
g63
NtRp1767
(dp1768
g66
(dp1769
sg75
g1260
sg68
(lp1770
g61
(g82
g63
NtRp1771
(dp1772
g66
(dp1773
g86
g87
ssg75
g1767
sg68
(lp1774
S'server_name'
p1775
asbag61
(g82
g63
NtRp1776
(dp1777
g66
(dp1778
g93
g94
ssg75
g1767
sg68
(lp1779
S':'
asbag61
(g82
g63
NtRp1780
(dp1781
g66
(dp1782
sg75
g1767
sg68
(lp1783
g61
(g62
g63
NtRp1784
(dp1785
g66
(dp1786
g74
I4
ssg75
g1780
sg68
(lp1787
S'omkara-PC'
p1788
asbasbasbag61
(g77
g63
NtRp1789
(dp1790
g66
(dp1791
sg75
g1260
sg68
(lp1792
g61
(g82
g63
NtRp1793
(dp1794
g66
(dp1795
g86
g87
ssg75
g1789
sg68
(lp1796
S'server_port'
p1797
asbag61
(g82
g63
NtRp1798
(dp1799
g66
(dp1800
g93
g94
ssg75
g1789
sg68
(lp1801
S':'
asbag61
(g82
g63
NtRp1802
(dp1803
g66
(dp1804
sg75
g1789
sg68
(lp1805
g61
(g62
g63
NtRp1806
(dp1807
g66
(dp1808
g74
I4
ssg75
g1802
sg68
(lp1809
S'8000'
p1810
asbasbasbag61
(g77
g63
NtRp1811
(dp1812
g66
(dp1813
sg75
g1260
sg68
(lp1814
g61
(g82
g63
NtRp1815
(dp1816
g66
(dp1817
g86
g87
ssg75
g1811
sg68
(lp1818
S'server_protocol'
p1819
asbag61
(g82
g63
NtRp1820
(dp1821
g66
(dp1822
g93
g94
ssg75
g1811
sg68
(lp1823
S':'
asbag61
(g82
g63
NtRp1824
(dp1825
g66
(dp1826
sg75
g1811
sg68
(lp1827
g61
(g62
g63
NtRp1828
(dp1829
g66
(dp1830
g74
I4
ssg75
g1824
sg68
(lp1831
S'HTTP/1.1'
p1832
asbasbasbag61
(g77
g63
NtRp1833
(dp1834
g66
(dp1835
sg75
g1260
sg68
(lp1836
g61
(g82
g63
NtRp1837
(dp1838
g66
(dp1839
g86
g87
ssg75
g1833
sg68
(lp1840
S'server_software'
p1841
asbag61
(g82
g63
NtRp1842
(dp1843
g66
(dp1844
g93
g94
ssg75
g1833
sg68
(lp1845
S':'
asbag61
(g82
g63
NtRp1846
(dp1847
g66
(dp1848
sg75
g1833
sg68
(lp1849
g61
(g62
g63
NtRp1850
(dp1851
g66
(dp1852
g74
I4
ssg75
g1846
sg68
(lp1853
S'Rocket 1.2.4'
p1854
asbasbasbag61
(g77
g63
NtRp1855
(dp1856
g66
(dp1857
sg75
g1260
sg68
(lp1858
g61
(g82
g63
NtRp1859
(dp1860
g66
(dp1861
g86
g87
ssg75
g1855
sg68
(lp1862
S'web2py_crontype'
p1863
asbag61
(g82
g63
NtRp1864
(dp1865
g66
(dp1866
g93
g94
ssg75
g1855
sg68
(lp1867
S':'
asbag61
(g82
g63
NtRp1868
(dp1869
g66
(dp1870
sg75
g1855
sg68
(lp1871
g61
(g62
g63
NtRp1872
(dp1873
g66
(dp1874
g74
I4
ssg75
g1868
sg68
(lp1875
S'hard'
p1876
asbasbasbag61
(g77
g63
NtRp1877
(dp1878
g66
(dp1879
sg75
g1260
sg68
(lp1880
g61
(g82
g63
NtRp1881
(dp1882
g66
(dp1883
g86
g87
ssg75
g1877
sg68
(lp1884
S'web2py_path'
p1885
asbag61
(g82
g63
NtRp1886
(dp1887
g66
(dp1888
g93
g94
ssg75
g1877
sg68
(lp1889
S':'
asbag61
(g82
g63
NtRp1890
(dp1891
g66
(dp1892
sg75
g1877
sg68
(lp1893
g61
(g62
g63
NtRp1894
(dp1895
g66
(dp1896
g74
I4
ssg75
g1890
sg68
(lp1897
g1307
asbasbasbag61
(g77
g63
NtRp1898
(dp1899
g66
(dp1900
sg75
g1260
sg68
(lp1901
g61
(g82
g63
NtRp1902
(dp1903
g66
(dp1904
g86
g87
ssg75
g1898
sg68
(lp1905
S'web2py_version'
p1906
asbag61
(g82
g63
NtRp1907
(dp1908
g66
(dp1909
g93
g94
ssg75
g1898
sg68
(lp1910
S':'
asbag61
(g82
g63
NtRp1911
(dp1912
g66
(dp1913
sg75
g1898
sg68
(lp1914
g61
(g62
g63
NtRp1915
(dp1916
g66
(dp1917
g74
I4
ssg75
g1911
sg68
(lp1918
g61
(g70
g63
NtRp1919
(dp1920
g66
(dp1921
g74
I3
ssg75
Nsg68
(lp1922
g61
(g77
g63
NtRp1923
(dp1924
g66
(dp1925
sg75
g1919
sg68
(lp1926
g61
(g82
g63
NtRp1927
(dp1928
g66
(dp1929
sg75
g1923
sg68
(lp1930
g61
(g62
g63
NtRp1931
(dp1932
g66
(dp1933
g74
I3
ssg75
g1927
sg68
(lp1934
S'1'
asbasbasbag61
(g77
g63
NtRp1935
(dp1936
g66
(dp1937
sg75
g1919
sg68
(lp1938
g61
(g82
g63
NtRp1939
(dp1940
g66
(dp1941
sg75
g1935
sg68
(lp1942
g61
(g62
g63
NtRp1943
(dp1944
g66
(dp1945
g74
I3
ssg75
g1939
sg68
(lp1946
S'99'
p1947
asbasbasbag61
(g77
g63
NtRp1948
(dp1949
g66
(dp1950
sg75
g1919
sg68
(lp1951
g61
(g82
g63
NtRp1952
(dp1953
g66
(dp1954
sg75
g1948
sg68
(lp1955
g61
(g62
g63
NtRp1956
(dp1957
g66
(dp1958
g74
I3
ssg75
g1952
sg68
(lp1959
S'7'
asbasbasbag61
(g77
g63
NtRp1960
(dp1961
g66
(dp1962
sg75
g1919
sg68
(lp1963
g61
(g82
g63
NtRp1964
(dp1965
g66
(dp1966
sg75
g1960
sg68
(lp1967
g61
(g62
g63
NtRp1968
(dp1969
g66
(dp1970
g74
I3
ssg75
g1964
sg68
(lp1971
S'datetime.datetime(2012, 3, 4, 22, 12, 8)'
p1972
asbasbasbag61
(g77
g63
NtRp1973
(dp1974
g66
(dp1975
sg75
g1919
sg68
(lp1976
g61
(g82
g63
NtRp1977
(dp1978
g66
(dp1979
sg75
g1973
sg68
(lp1980
g61
(g62
g63
NtRp1981
(dp1982
g66
(dp1983
g74
I3
ssg75
g1977
sg68
(lp1984
S'stable'
p1985
asbasbasbasbasbasbasbag61
(g77
g63
NtRp1986
(dp1987
g66
(dp1988
sg75
g1260
sg68
(lp1989
g61
(g82
g63
NtRp1990
(dp1991
g66
(dp1992
g86
g87
ssg75
g1986
sg68
(lp1993
S'wsgi_errors'
p1994
asbag61
(g82
g63
NtRp1995
(dp1996
g66
(dp1997
g93
g94
ssg75
g1986
sg68
(lp1998
S':'
asbag61
(g82
g63
NtRp1999
(dp2000
g66
(dp2001
sg75
g1986
sg68
(lp2002
g61
(g62
g63
NtRp2003
(dp2004
g66
(dp2005
g74
I4
ssg75
g1999
sg68
(lp2006
S'<__main__.Stderr object at 0x01377670>'
p2007
asbasbasbag61
(g77
g63
NtRp2008
(dp2009
g66
(dp2010
sg75
g1260
sg68
(lp2011
g61
(g82
g63
NtRp2012
(dp2013
g66
(dp2014
g86
g87
ssg75
g2008
sg68
(lp2015
S'wsgi_file_wrapper'
p2016
asbag61
(g82
g63
NtRp2017
(dp2018
g66
(dp2019
g93
g94
ssg75
g2008
sg68
(lp2020
S':'
asbag61
(g82
g63
NtRp2021
(dp2022
g66
(dp2023
sg75
g2008
sg68
(lp2024
g61
(g62
g63
NtRp2025
(dp2026
g66
(dp2027
g74
I4
ssg75
g2021
sg68
(lp2028
S'<class wsgiref.util.FileWrapper at 0x025B2210>'
p2029
asbasbasbag61
(g77
g63
NtRp2030
(dp2031
g66
(dp2032
sg75
g1260
sg68
(lp2033
g61
(g82
g63
NtRp2034
(dp2035
g66
(dp2036
g86
g87
ssg75
g2030
sg68
(lp2037
S'wsgi_input'
p2038
asbag61
(g82
g63
NtRp2039
(dp2040
g66
(dp2041
g93
g94
ssg75
g2030
sg68
(lp2042
S':'
asbag61
(g82
g63
NtRp2043
(dp2044
g66
(dp2045
sg75
g2030
sg68
(lp2046
g61
(g62
g63
NtRp2047
(dp2048
g66
(dp2049
g74
I4
ssg75
g2043
sg68
(lp2050
S'<socket._fileobject object at 0x063894F0>'
p2051
asbasbasbag61
(g77
g63
NtRp2052
(dp2053
g66
(dp2054
sg75
g1260
sg68
(lp2055
g61
(g82
g63
NtRp2056
(dp2057
g66
(dp2058
g86
g87
ssg75
g2052
sg68
(lp2059
S'wsgi_multiprocess'
p2060
asbag61
(g82
g63
NtRp2061
(dp2062
g66
(dp2063
g93
g94
ssg75
g2052
sg68
(lp2064
S':'
asbag61
(g82
g63
NtRp2065
(dp2066
g66
(dp2067
sg75
g2052
sg68
(lp2068
g61
(g62
g63
NtRp2069
(dp2070
g66
(dp2071
g74
I4
ssg75
g2065
sg68
(lp2072
g104
asbasbasbag61
(g77
g63
NtRp2073
(dp2074
g66
(dp2075
sg75
g1260
sg68
(lp2076
g61
(g82
g63
NtRp2077
(dp2078
g66
(dp2079
g86
g87
ssg75
g2073
sg68
(lp2080
S'wsgi_multithread'
p2081
asbag61
(g82
g63
NtRp2082
(dp2083
g66
(dp2084
g93
g94
ssg75
g2073
sg68
(lp2085
S':'
asbag61
(g82
g63
NtRp2086
(dp2087
g66
(dp2088
sg75
g2073
sg68
(lp2089
g61
(g62
g63
NtRp2090
(dp2091
g66
(dp2092
g74
I4
ssg75
g2086
sg68
(lp2093
S'True'
p2094
asbasbasbag61
(g77
g63
NtRp2095
(dp2096
g66
(dp2097
sg75
g1260
sg68
(lp2098
g61
(g82
g63
NtRp2099
(dp2100
g66
(dp2101
g86
g87
ssg75
g2095
sg68
(lp2102
S'wsgi_run_once'
p2103
asbag61
(g82
g63
NtRp2104
(dp2105
g66
(dp2106
g93
g94
ssg75
g2095
sg68
(lp2107
S':'
asbag61
(g82
g63
NtRp2108
(dp2109
g66
(dp2110
sg75
g2095
sg68
(lp2111
g61
(g62
g63
NtRp2112
(dp2113
g66
(dp2114
g74
I4
ssg75
g2108
sg68
(lp2115
g104
asbasbasbag61
(g77
g63
NtRp2116
(dp2117
g66
(dp2118
sg75
g1260
sg68
(lp2119
g61
(g82
g63
NtRp2120
(dp2121
g66
(dp2122
g86
g87
ssg75
g2116
sg68
(lp2123
S'wsgi_url_scheme'
p2124
asbag61
(g82
g63
NtRp2125
(dp2126
g66
(dp2127
g93
g94
ssg75
g2116
sg68
(lp2128
S':'
asbag61
(g82
g63
NtRp2129
(dp2130
g66
(dp2131
sg75
g2116
sg68
(lp2132
g61
(g62
g63
NtRp2133
(dp2134
g66
(dp2135
g74
I4
ssg75
g2129
sg68
(lp2136
S'http'
p2137
asbasbasbag61
(g77
g63
NtRp2138
(dp2139
g66
(dp2140
sg75
g1260
sg68
(lp2141
g61
(g82
g63
NtRp2142
(dp2143
g66
(dp2144
g86
g87
ssg75
g2138
sg68
(lp2145
S'wsgi_version'
p2146
asbag61
(g82
g63
NtRp2147
(dp2148
g66
(dp2149
g93
g94
ssg75
g2138
sg68
(lp2150
S':'
asbag61
(g82
g63
NtRp2151
(dp2152
g66
(dp2153
sg75
g2138
sg68
(lp2154
g61
(g62
g63
NtRp2155
(dp2156
g66
(dp2157
g74
I4
ssg75
g2151
sg68
(lp2158
g61
(g70
g63
NtRp2159
(dp2160
g66
(dp2161
g74
I3
ssg75
Nsg68
(lp2162
g61
(g77
g63
NtRp2163
(dp2164
g66
(dp2165
sg75
g2159
sg68
(lp2166
g61
(g82
g63
NtRp2167
(dp2168
g66
(dp2169
sg75
g2163
sg68
(lp2170
g61
(g62
g63
NtRp2171
(dp2172
g66
(dp2173
g74
I3
ssg75
g2167
sg68
(lp2174
S'1'
asbasbasbag61
(g77
g63
NtRp2175
(dp2176
g66
(dp2177
sg75
g2159
sg68
(lp2178
g61
(g82
g63
NtRp2179
(dp2180
g66
(dp2181
sg75
g2175
sg68
(lp2182
g61
(g62
g63
NtRp2183
(dp2184
g66
(dp2185
g74
I3
ssg75
g2179
sg68
(lp2186
S'0'
asbasbasbasbasbasbasbasbasbasbasbag61
(g77
g63
NtRp2187
(dp2188
g66
(dp2189
sg75
g71
sg68
(lp2190
g61
(g82
g63
NtRp2191
(dp2192
g66
(dp2193
g86
g87
ssg75
g2187
sg68
(lp2194
S'extension'
p2195
asbag61
(g82
g63
NtRp2196
(dp2197
g66
(dp2198
g93
g94
ssg75
g2187
sg68
(lp2199
S':'
asbag61
(g82
g63
NtRp2200
(dp2201
g66
(dp2202
sg75
g2187
sg68
(lp2203
g61
(g62
g63
NtRp2204
(dp2205
g66
(dp2206
g74
I5
ssg75
g2200
sg68
(lp2207
S'html'
p2208
asbasbasbag61
(g77
g63
NtRp2209
(dp2210
g66
(dp2211
sg75
g71
sg68
(lp2212
g61
(g82
g63
NtRp2213
(dp2214
g66
(dp2215
g86
g87
ssg75
g2209
sg68
(lp2216
S'folder'
p2217
asbag61
(g82
g63
NtRp2218
(dp2219
g66
(dp2220
g93
g94
ssg75
g2209
sg68
(lp2221
S':'
asbag61
(g82
g63
NtRp2222
(dp2223
g66
(dp2224
sg75
g2209
sg68
(lp2225
g61
(g62
g63
NtRp2226
(dp2227
g66
(dp2228
g74
I5
ssg75
g2222
sg68
(lp2229
S'C:\\Users\\omkara\\Desktop\\web2py\\applications\\SlugBarter\\'
p2230
asbasbasbag61
(g77
g63
NtRp2231
(dp2232
g66
(dp2233
sg75
g71
sg68
(lp2234
g61
(g82
g63
NtRp2235
(dp2236
g66
(dp2237
g86
g87
ssg75
g2231
sg68
(lp2238
S'function'
p2239
asbag61
(g82
g63
NtRp2240
(dp2241
g66
(dp2242
g93
g94
ssg75
g2231
sg68
(lp2243
S':'
asbag61
(g82
g63
NtRp2244
(dp2245
g66
(dp2246
sg75
g2231
sg68
(lp2247
g61
(g62
g63
NtRp2248
(dp2249
g66
(dp2250
g74
I5
ssg75
g2244
sg68
(lp2251
S'index'
p2252
asbasbasbag61
(g77
g63
NtRp2253
(dp2254
g66
(dp2255
sg75
g71
sg68
(lp2256
g61
(g82
g63
NtRp2257
(dp2258
g66
(dp2259
g86
g87
ssg75
g2253
sg68
(lp2260
S'get_vars'
p2261
asbag61
(g82
g63
NtRp2262
(dp2263
g66
(dp2264
g93
g94
ssg75
g2253
sg68
(lp2265
S':'
asbag61
(g82
g63
NtRp2266
(dp2267
g66
(dp2268
sg75
g2253
sg68
(lp2269
g61
(g62
g63
NtRp2270
(dp2271
g66
(dp2272
g74
I5
ssg75
g2266
sg68
(lp2273
g61
(g70
g63
NtRp2274
(dp2275
g66
(dp2276
g74
I4
ssg75
Nsg68
(lp2277
sbasbasbasbag61
(g77
g63
NtRp2278
(dp2279
g66
(dp2280
sg75
g71
sg68
(lp2281
g61
(g82
g63
NtRp2282
(dp2283
g66
(dp2284
g86
g87
ssg75
g2278
sg68
(lp2285
S'global_settings'
p2286
asbag61
(g82
g63
NtRp2287
(dp2288
g66
(dp2289
g93
g94
ssg75
g2278
sg68
(lp2290
S':'
asbag61
(g82
g63
NtRp2291
(dp2292
g66
(dp2293
sg75
g2278
sg68
(lp2294
g61
(g62
g63
NtRp2295
(dp2296
g66
(dp2297
g74
I5
ssg75
g2291
sg68
(lp2298
g61
(g70
g63
NtRp2299
(dp2300
g66
(dp2301
g74
I4
ssg75
Nsg68
(lp2302
g61
(g77
g63
NtRp2303
(dp2304
g66
(dp2305
sg75
g2299
sg68
(lp2306
g61
(g82
g63
NtRp2307
(dp2308
g66
(dp2309
g86
g87
ssg75
g2303
sg68
(lp2310
g1272
asbag61
(g82
g63
NtRp2311
(dp2312
g66
(dp2313
g93
g94
ssg75
g2303
sg68
(lp2314
S':'
asbag61
(g82
g63
NtRp2315
(dp2316
g66
(dp2317
sg75
g2303
sg68
(lp2318
g61
(g62
g63
NtRp2319
(dp2320
g66
(dp2321
g74
I4
ssg75
g2315
sg68
(lp2322
S"set(['C:\\\\Users\\\\omkara\\\\Desktop\\\\web2py\\\\applications\\\\slug_register_page\\\\', 'C:\\\\Users\\\\omkara\\\\Desktop\\\\web2py\\\\applications\\\\admin\\\\', 'C:\\\\Users\\\\omkara\\\\Desktop\\\\web2py\\\\applications\\\\Assignment3\\\\', 'C:\\\\Users\\\\omkara\\\\Desktop\\\\web2py\\\\applications\\\\welcome\\\\', 'C:\\\\Users\\\\omkara\\\\Desktop\\\\web2py\\\\applications\\\\OnlineNotes_p1_\\\\', 'C:\\\\Users\\\\omkara\\\\Desktop\\\\web2py\\\\applications\\\\SlugBarter\\\\'])"
p2323
asbasbasbag61
(g77
g63
NtRp2324
(dp2325
g66
(dp2326
sg75
g2299
sg68
(lp2327
g61
(g82
g63
NtRp2328
(dp2329
g66
(dp2330
g86
g87
ssg75
g2324
sg68
(lp2331
g1294
asbag61
(g82
g63
NtRp2332
(dp2333
g66
(dp2334
g93
g94
ssg75
g2324
sg68
(lp2335
S':'
asbag61
(g82
g63
NtRp2336
(dp2337
g66
(dp2338
sg75
g2324
sg68
(lp2339
g61
(g62
g63
NtRp2340
(dp2341
g66
(dp2342
g74
I4
ssg75
g2336
sg68
(lp2343
g1307
asbasbasbag61
(g77
g63
NtRp2344
(dp2345
g66
(dp2346
sg75
g2299
sg68
(lp2347
g61
(g82
g63
NtRp2348
(dp2349
g66
(dp2350
g86
g87
ssg75
g2344
sg68
(lp2351
g1316
asbag61
(g82
g63
NtRp2352
(dp2353
g66
(dp2354
g93
g94
ssg75
g2344
sg68
(lp2355
S':'
asbag61
(g82
g63
NtRp2356
(dp2357
g66
(dp2358
sg75
g2344
sg68
(lp2359
g61
(g62
g63
NtRp2360
(dp2361
g66
(dp2362
g74
I4
ssg75
g2356
sg68
(lp2363
g61
(g70
g63
NtRp2364
(dp2365
g66
(dp2366
g74
I3
ssg75
Nsg68
(lp2367
sbasbasbasbag61
(g77
g63
NtRp2368
(dp2369
g66
(dp2370
sg75
g2299
sg68
(lp2371
g61
(g82
g63
NtRp2372
(dp2373
g66
(dp2374
g86
g87
ssg75
g2368
sg68
(lp2375
g1341
asbag61
(g82
g63
NtRp2376
(dp2377
g66
(dp2378
g93
g94
ssg75
g2368
sg68
(lp2379
S':'
asbag61
(g82
g63
NtRp2380
(dp2381
g66
(dp2382
sg75
g2368
sg68
(lp2383
g61
(g62
g63
NtRp2384
(dp2385
g66
(dp2386
g74
I4
ssg75
g2380
sg68
(lp2387
S"<Values at 0x28230f8: {'verbose': False, 'ip': '127.0.0.1', 'shutdown_timeout': 5, 'taskbar': False, 'nocron': False, 'pid_filename': 'httpserver.pid', 'maxthreads': None, 'softcron': False, 'server_name': 'omkara-PC', 'bpython': False, 'nogui': False, 'port': 8000, 'extcron': False, 'debuglevel': 30, 'test': None, 'folder': 'C:\\\\Users\\\\omkara\\\\Desktop\\\\web2py', 'config': '', 'import_models': False, 'winservice': '', 'shell': None, 'run': '', 'log_filename': 'httpserver.log', 'args': [''], 'socket_timeout': 5, 'ssl_ca_certificate': None, 'scheduler': None, 'profiler_filename': None, 'ssl_private_key': '', 'password': '<ask>', 'request_queue_size': 5, 'ssl_certificate': '', 'cronjob': False, 'numthreads': None, 'quiet': False, 'interfaces': None, 'minthreads': None, 'timeout': 10, 'plain': False, 'nobanner': False}>"
p2388
asbasbasbag61
(g77
g63
NtRp2389
(dp2390
g66
(dp2391
sg75
g2299
sg68
(lp2392
g61
(g82
g63
NtRp2393
(dp2394
g66
(dp2395
g86
g87
ssg75
g2389
sg68
(lp2396
g1363
asbag61
(g82
g63
NtRp2397
(dp2398
g66
(dp2399
g93
g94
ssg75
g2389
sg68
(lp2400
S':'
asbag61
(g82
g63
NtRp2401
(dp2402
g66
(dp2403
sg75
g2389
sg68
(lp2404
g61
(g62
g63
NtRp2405
(dp2406
g66
(dp2407
g74
I4
ssg75
g2401
sg68
(lp2408
S'set([])'
p2409
asbasbasbag61
(g77
g63
NtRp2410
(dp2411
g66
(dp2412
sg75
g2299
sg68
(lp2413
g61
(g82
g63
NtRp2414
(dp2415
g66
(dp2416
g86
g87
ssg75
g2410
sg68
(lp2417
g1385
asbag61
(g82
g63
NtRp2418
(dp2419
g66
(dp2420
g93
g94
ssg75
g2410
sg68
(lp2421
S':'
asbag61
(g82
g63
NtRp2422
(dp2423
g66
(dp2424
sg75
g2410
sg68
(lp2425
g61
(g62
g63
NtRp2426
(dp2427
g66
(dp2428
g74
I4
ssg75
g2422
sg68
(lp2429
g104
asbasbasbag61
(g77
g63
NtRp2430
(dp2431
g66
(dp2432
sg75
g2299
sg68
(lp2433
g61
(g82
g63
NtRp2434
(dp2435
g66
(dp2436
g86
g87
ssg75
g2430
sg68
(lp2437
g1406
asbag61
(g82
g63
NtRp2438
(dp2439
g66
(dp2440
g93
g94
ssg75
g2430
sg68
(lp2441
S':'
asbag61
(g82
g63
NtRp2442
(dp2443
g66
(dp2444
sg75
g2430
sg68
(lp2445
g61
(g62
g63
NtRp2446
(dp2447
g66
(dp2448
g74
I4
ssg75
g2442
sg68
(lp2449
g1419
asbasbasbag61
(g77
g63
NtRp2450
(dp2451
g66
(dp2452
sg75
g2299
sg68
(lp2453
g61
(g82
g63
NtRp2454
(dp2455
g66
(dp2456
g86
g87
ssg75
g2450
sg68
(lp2457
g1604
asbag61
(g82
g63
NtRp2458
(dp2459
g66
(dp2460
g93
g94
ssg75
g2450
sg68
(lp2461
S':'
asbag61
(g82
g63
NtRp2462
(dp2463
g66
(dp2464
sg75
g2450
sg68
(lp2465
g61
(g62
g63
NtRp2466
(dp2467
g66
(dp2468
g74
I4
ssg75
g2462
sg68
(lp2469
g104
asbasbasbag61
(g77
g63
NtRp2470
(dp2471
g66
(dp2472
sg75
g2299
sg68
(lp2473
g61
(g82
g63
NtRp2474
(dp2475
g66
(dp2476
g86
g87
ssg75
g2470
sg68
(lp2477
g1625
asbag61
(g82
g63
NtRp2478
(dp2479
g66
(dp2480
g93
g94
ssg75
g2470
sg68
(lp2481
S':'
asbag61
(g82
g63
NtRp2482
(dp2483
g66
(dp2484
sg75
g2470
sg68
(lp2485
g61
(g62
g63
NtRp2486
(dp2487
g66
(dp2488
g74
I4
ssg75
g2482
sg68
(lp2489
g104
asbasbasbag61
(g77
g63
NtRp2490
(dp2491
g66
(dp2492
sg75
g2299
sg68
(lp2493
g61
(g82
g63
NtRp2494
(dp2495
g66
(dp2496
g86
g87
ssg75
g2490
sg68
(lp2497
g1863
asbag61
(g82
g63
NtRp2498
(dp2499
g66
(dp2500
g93
g94
ssg75
g2490
sg68
(lp2501
S':'
asbag61
(g82
g63
NtRp2502
(dp2503
g66
(dp2504
sg75
g2490
sg68
(lp2505
g61
(g62
g63
NtRp2506
(dp2507
g66
(dp2508
g74
I4
ssg75
g2502
sg68
(lp2509
g1876
asbasbasbag61
(g77
g63
NtRp2510
(dp2511
g66
(dp2512
sg75
g2299
sg68
(lp2513
g61
(g82
g63
NtRp2514
(dp2515
g66
(dp2516
g86
g87
ssg75
g2510
sg68
(lp2517
g1906
asbag61
(g82
g63
NtRp2518
(dp2519
g66
(dp2520
g93
g94
ssg75
g2510
sg68
(lp2521
S':'
asbag61
(g82
g63
NtRp2522
(dp2523
g66
(dp2524
sg75
g2510
sg68
(lp2525
g61
(g62
g63
NtRp2526
(dp2527
g66
(dp2528
g74
I4
ssg75
g2522
sg68
(lp2529
g61
(g70
g63
NtRp2530
(dp2531
g66
(dp2532
g74
I3
ssg75
Nsg68
(lp2533
g61
(g77
g63
NtRp2534
(dp2535
g66
(dp2536
sg75
g2530
sg68
(lp2537
g61
(g82
g63
NtRp2538
(dp2539
g66
(dp2540
sg75
g2534
sg68
(lp2541
g61
(g62
g63
NtRp2542
(dp2543
g66
(dp2544
g74
I3
ssg75
g2538
sg68
(lp2545
S'1'
asbasbasbag61
(g77
g63
NtRp2546
(dp2547
g66
(dp2548
sg75
g2530
sg68
(lp2549
g61
(g82
g63
NtRp2550
(dp2551
g66
(dp2552
sg75
g2546
sg68
(lp2553
g61
(g62
g63
NtRp2554
(dp2555
g66
(dp2556
g74
I3
ssg75
g2550
sg68
(lp2557
S'99'
p2558
asbasbasbag61
(g77
g63
NtRp2559
(dp2560
g66
(dp2561
sg75
g2530
sg68
(lp2562
g61
(g82
g63
NtRp2563
(dp2564
g66
(dp2565
sg75
g2559
sg68
(lp2566
g61
(g62
g63
NtRp2567
(dp2568
g66
(dp2569
g74
I3
ssg75
g2563
sg68
(lp2570
S'7'
asbasbasbag61
(g77
g63
NtRp2571
(dp2572
g66
(dp2573
sg75
g2530
sg68
(lp2574
g61
(g82
g63
NtRp2575
(dp2576
g66
(dp2577
sg75
g2571
sg68
(lp2578
g61
(g62
g63
NtRp2579
(dp2580
g66
(dp2581
g74
I3
ssg75
g2575
sg68
(lp2582
S'datetime.datetime(2012, 3, 4, 22, 12, 8)'
p2583
asbasbasbag61
(g77
g63
NtRp2584
(dp2585
g66
(dp2586
sg75
g2530
sg68
(lp2587
g61
(g82
g63
NtRp2588
(dp2589
g66
(dp2590
sg75
g2584
sg68
(lp2591
g61
(g62
g63
NtRp2592
(dp2593
g66
(dp2594
g74
I3
ssg75
g2588
sg68
(lp2595
g1985
asbasbasbasbasbasbasbasbasbasbasbag61
(g77
g63
NtRp2596
(dp2597
g66
(dp2598
sg75
g71
sg68
(lp2599
g61
(g82
g63
NtRp2600
(dp2601
g66
(dp2602
g86
g87
ssg75
g2596
sg68
(lp2603
S'is_https'
p2604
asbag61
(g82
g63
NtRp2605
(dp2606
g66
(dp2607
g93
g94
ssg75
g2596
sg68
(lp2608
S':'
asbag61
(g82
g63
NtRp2609
(dp2610
g66
(dp2611
sg75
g2596
sg68
(lp2612
g61
(g62
g63
NtRp2613
(dp2614
g66
(dp2615
g74
I5
ssg75
g2609
sg68
(lp2616
g104
asbasbasbag61
(g77
g63
NtRp2617
(dp2618
g66
(dp2619
sg75
g71
sg68
(lp2620
g61
(g82
g63
NtRp2621
(dp2622
g66
(dp2623
g86
g87
ssg75
g2617
sg68
(lp2624
S'is_local'
p2625
asbag61
(g82
g63
NtRp2626
(dp2627
g66
(dp2628
g93
g94
ssg75
g2617
sg68
(lp2629
S':'
asbag61
(g82
g63
NtRp2630
(dp2631
g66
(dp2632
sg75
g2617
sg68
(lp2633
g61
(g62
g63
NtRp2634
(dp2635
g66
(dp2636
g74
I5
ssg75
g2630
sg68
(lp2637
g2094
asbasbasbag61
(g77
g63
NtRp2638
(dp2639
g66
(dp2640
sg75
g71
sg68
(lp2641
g61
(g82
g63
NtRp2642
(dp2643
g66
(dp2644
g86
g87
ssg75
g2638
sg68
(lp2645
S'is_restful'
p2646
asbag61
(g82
g63
NtRp2647
(dp2648
g66
(dp2649
g93
g94
ssg75
g2638
sg68
(lp2650
S':'
asbag61
(g82
g63
NtRp2651
(dp2652
g66
(dp2653
sg75
g2638
sg68
(lp2654
g61
(g62
g63
NtRp2655
(dp2656
g66
(dp2657
g74
I5
ssg75
g2651
sg68
(lp2658
g104
asbasbasbag61
(g77
g63
NtRp2659
(dp2660
g66
(dp2661
sg75
g71
sg68
(lp2662
g61
(g82
g63
NtRp2663
(dp2664
g66
(dp2665
g86
g87
ssg75
g2659
sg68
(lp2666
S'now'
p2667
asbag61
(g82
g63
NtRp2668
(dp2669
g66
(dp2670
g93
g94
ssg75
g2659
sg68
(lp2671
S':'
asbag61
(g82
g63
NtRp2672
(dp2673
g66
(dp2674
sg75
g2659
sg68
(lp2675
g61
(g62
g63
NtRp2676
(dp2677
g66
(dp2678
g74
I5
ssg75
g2672
sg68
(lp2679
S'datetime.datetime(2012, 11, 6, 16, 43, 58, 425000)'
p2680
asbasbasbag61
(g77
g63
NtRp2681
(dp2682
g66
(dp2683
sg75
g71
sg68
(lp2684
g61
(g82
g63
NtRp2685
(dp2686
g66
(dp2687
g86
g87
ssg75
g2681
sg68
(lp2688
S'post_vars'
p2689
asbag61
(g82
g63
NtRp2690
(dp2691
g66
(dp2692
g93
g94
ssg75
g2681
sg68
(lp2693
S':'
asbag61
(g82
g63
NtRp2694
(dp2695
g66
(dp2696
sg75
g2681
sg68
(lp2697
g61
(g62
g63
NtRp2698
(dp2699
g66
(dp2700
g74
I5
ssg75
g2694
sg68
(lp2701
g61
(g70
g63
NtRp2702
(dp2703
g66
(dp2704
g74
I4
ssg75
Nsg68
(lp2705
sbasbasbasbag61
(g77
g63
NtRp2706
(dp2707
g66
(dp2708
sg75
g71
sg68
(lp2709
g61
(g82
g63
NtRp2710
(dp2711
g66
(dp2712
g86
g87
ssg75
g2706
sg68
(lp2713
S'url'
p2714
asbag61
(g82
g63
NtRp2715
(dp2716
g66
(dp2717
g93
g94
ssg75
g2706
sg68
(lp2718
S':'
asbag61
(g82
g63
NtRp2719
(dp2720
g66
(dp2721
sg75
g2706
sg68
(lp2722
g61
(g62
g63
NtRp2723
(dp2724
g66
(dp2725
g74
I5
ssg75
g2719
sg68
(lp2726
S'/SlugBarter/default/index'
p2727
asbasbasbag61
(g77
g63
NtRp2728
(dp2729
g66
(dp2730
sg75
g71
sg68
(lp2731
g61
(g82
g63
NtRp2732
(dp2733
g66
(dp2734
g86
g87
ssg75
g2728
sg68
(lp2735
S'utcnow'
p2736
asbag61
(g82
g63
NtRp2737
(dp2738
g66
(dp2739
g93
g94
ssg75
g2728
sg68
(lp2740
S':'
asbag61
(g82
g63
NtRp2741
(dp2742
g66
(dp2743
sg75
g2728
sg68
(lp2744
g61
(g62
g63
NtRp2745
(dp2746
g66
(dp2747
g74
I5
ssg75
g2741
sg68
(lp2748
S'datetime.datetime(2012, 11, 7, 0, 43, 58, 425000)'
p2749
asbasbasbag61
(g77
g63
NtRp2750
(dp2751
g66
(dp2752
sg75
g71
sg68
(lp2753
g61
(g82
g63
NtRp2754
(dp2755
g66
(dp2756
g86
g87
ssg75
g2750
sg68
(lp2757
S'uuid'
p2758
asbag61
(g82
g63
NtRp2759
(dp2760
g66
(dp2761
g93
g94
ssg75
g2750
sg68
(lp2762
S':'
asbag61
(g82
g63
NtRp2763
(dp2764
g66
(dp2765
sg75
g2750
sg68
(lp2766
g61
(g62
g63
NtRp2767
(dp2768
g66
(dp2769
g74
I5
ssg75
g2763
sg68
(lp2770
S'SlugBarter/127.0.0.1.2012-11-06.16-43-58.adc3cbcb-e768-4252-b8f1-6a41500fb5a4'
p2771
asbasbasbag61
(g77
g63
NtRp2772
(dp2773
g66
(dp2774
sg75
g71
sg68
(lp2775
g61
(g82
g63
NtRp2776
(dp2777
g66
(dp2778
g86
g87
ssg75
g2772
sg68
(lp2779
S'vars'
p2780
asbag61
(g82
g63
NtRp2781
(dp2782
g66
(dp2783
g93
g94
ssg75
g2772
sg68
(lp2784
S':'
asbag61
(g82
g63
NtRp2785
(dp2786
g66
(dp2787
sg75
g2772
sg68
(lp2788
g61
(g62
g63
NtRp2789
(dp2790
g66
(dp2791
g74
I5
ssg75
g2785
sg68
(lp2792
g61
(g70
g63
NtRp2793
(dp2794
g66
(dp2795
g74
I4
ssg75
Nsg68
(lp2796
sbasbasbasbag61
(g77
g63
NtRp2797
(dp2798
g66
(dp2799
sg75
g71
sg68
(lp2800
g61
(g82
g63
NtRp2801
(dp2802
g66
(dp2803
g86
g87
ssg75
g2797
sg68
(lp2804
S'wsgi'
p2805
asbag61
(g82
g63
NtRp2806
(dp2807
g66
(dp2808
g93
g94
ssg75
g2797
sg68
(lp2809
S':'
asbag61
(g82
g63
NtRp2810
(dp2811
g66
(dp2812
sg75
g2797
sg68
(lp2813
g61
(g62
g63
NtRp2814
(dp2815
g66
(dp2816
g74
I5
ssg75
g2810
sg68
(lp2817
g61
(g70
g63
NtRp2818
(dp2819
g66
(dp2820
g74
I4
ssg75
Nsg68
(lp2821
g61
(g77
g63
NtRp2822
(dp2823
g66
(dp2824
sg75
g2818
sg68
(lp2825
g61
(g82
g63
NtRp2826
(dp2827
g66
(dp2828
g86
g87
ssg75
g2822
sg68
(lp2829
S'environ'
p2830
asbag61
(g82
g63
NtRp2831
(dp2832
g66
(dp2833
g93
g94
ssg75
g2822
sg68
(lp2834
S':'
asbag61
(g82
g63
NtRp2835
(dp2836
g66
(dp2837
sg75
g2822
sg68
(lp2838
g61
(g62
g63
NtRp2839
(dp2840
g66
(dp2841
g74
I4
ssg75
g2835
sg68
(lp2842
g61
(g70
g63
NtRp2843
(dp2844
g66
(dp2845
g74
I3
ssg75
Nsg68
(lp2846
g61
(g77
g63
NtRp2847
(dp2848
g66
(dp2849
sg75
g2843
sg68
(lp2850
g61
(g82
g63
NtRp2851
(dp2852
g66
(dp2853
g86
g87
ssg75
g2847
sg68
(lp2854
S'HTTP_ACCEPT'
p2855
asbag61
(g82
g63
NtRp2856
(dp2857
g66
(dp2858
g93
g94
ssg75
g2847
sg68
(lp2859
S':'
asbag61
(g82
g63
NtRp2860
(dp2861
g66
(dp2862
sg75
g2847
sg68
(lp2863
g61
(g62
g63
NtRp2864
(dp2865
g66
(dp2866
g74
I3
ssg75
g2860
sg68
(lp2867
g1441
asbasbasbag61
(g77
g63
NtRp2868
(dp2869
g66
(dp2870
sg75
g2843
sg68
(lp2871
g61
(g82
g63
NtRp2872
(dp2873
g66
(dp2874
g86
g87
ssg75
g2868
sg68
(lp2875
S'HTTP_ACCEPT_CHARSET'
p2876
asbag61
(g82
g63
NtRp2877
(dp2878
g66
(dp2879
g93
g94
ssg75
g2868
sg68
(lp2880
S':'
asbag61
(g82
g63
NtRp2881
(dp2882
g66
(dp2883
sg75
g2868
sg68
(lp2884
g61
(g62
g63
NtRp2885
(dp2886
g66
(dp2887
g74
I3
ssg75
g2881
sg68
(lp2888
g1463
asbasbasbag61
(g77
g63
NtRp2889
(dp2890
g66
(dp2891
sg75
g2843
sg68
(lp2892
g61
(g82
g63
NtRp2893
(dp2894
g66
(dp2895
g86
g87
ssg75
g2889
sg68
(lp2896
S'HTTP_ACCEPT_ENCODING'
p2897
asbag61
(g82
g63
NtRp2898
(dp2899
g66
(dp2900
g93
g94
ssg75
g2889
sg68
(lp2901
S':'
asbag61
(g82
g63
NtRp2902
(dp2903
g66
(dp2904
sg75
g2889
sg68
(lp2905
g61
(g62
g63
NtRp2906
(dp2907
g66
(dp2908
g74
I3
ssg75
g2902
sg68
(lp2909
g1485
asbasbasbag61
(g77
g63
NtRp2910
(dp2911
g66
(dp2912
sg75
g2843
sg68
(lp2913
g61
(g82
g63
NtRp2914
(dp2915
g66
(dp2916
g86
g87
ssg75
g2910
sg68
(lp2917
S'HTTP_ACCEPT_LANGUAGE'
p2918
asbag61
(g82
g63
NtRp2919
(dp2920
g66
(dp2921
g93
g94
ssg75
g2910
sg68
(lp2922
S':'
asbag61
(g82
g63
NtRp2923
(dp2924
g66
(dp2925
sg75
g2910
sg68
(lp2926
g61
(g62
g63
NtRp2927
(dp2928
g66
(dp2929
g74
I3
ssg75
g2923
sg68
(lp2930
g1507
asbasbasbag61
(g77
g63
NtRp2931
(dp2932
g66
(dp2933
sg75
g2843
sg68
(lp2934
g61
(g82
g63
NtRp2935
(dp2936
g66
(dp2937
g86
g87
ssg75
g2931
sg68
(lp2938
S'HTTP_CONNECTION'
p2939
asbag61
(g82
g63
NtRp2940
(dp2941
g66
(dp2942
g93
g94
ssg75
g2931
sg68
(lp2943
S':'
asbag61
(g82
g63
NtRp2944
(dp2945
g66
(dp2946
sg75
g2931
sg68
(lp2947
g61
(g62
g63
NtRp2948
(dp2949
g66
(dp2950
g74
I3
ssg75
g2944
sg68
(lp2951
g1529
asbasbasbag61
(g77
g63
NtRp2952
(dp2953
g66
(dp2954
sg75
g2843
sg68
(lp2955
g61
(g82
g63
NtRp2956
(dp2957
g66
(dp2958
g86
g87
ssg75
g2952
sg68
(lp2959
S'HTTP_COOKIE'
p2960
asbag61
(g82
g63
NtRp2961
(dp2962
g66
(dp2963
g93
g94
ssg75
g2952
sg68
(lp2964
S':'
asbag61
(g82
g63
NtRp2965
(dp2966
g66
(dp2967
sg75
g2952
sg68
(lp2968
g61
(g62
g63
NtRp2969
(dp2970
g66
(dp2971
g74
I3
ssg75
g2965
sg68
(lp2972
g1551
asbasbasbag61
(g77
g63
NtRp2973
(dp2974
g66
(dp2975
sg75
g2843
sg68
(lp2976
g61
(g82
g63
NtRp2977
(dp2978
g66
(dp2979
g86
g87
ssg75
g2973
sg68
(lp2980
S'HTTP_HOST'
p2981
asbag61
(g82
g63
NtRp2982
(dp2983
g66
(dp2984
g93
g94
ssg75
g2973
sg68
(lp2985
S':'
asbag61
(g82
g63
NtRp2986
(dp2987
g66
(dp2988
sg75
g2973
sg68
(lp2989
g61
(g62
g63
NtRp2990
(dp2991
g66
(dp2992
g74
I3
ssg75
g2986
sg68
(lp2993
g1573
asbasbasbag61
(g77
g63
NtRp2994
(dp2995
g66
(dp2996
sg75
g2843
sg68
(lp2997
g61
(g82
g63
NtRp2998
(dp2999
g66
(dp3000
g86
g87
ssg75
g2994
sg68
(lp3001
S'HTTP_USER_AGENT'
p3002
asbag61
(g82
g63
NtRp3003
(dp3004
g66
(dp3005
g93
g94
ssg75
g2994
sg68
(lp3006
S':'
asbag61
(g82
g63
NtRp3007
(dp3008
g66
(dp3009
sg75
g2994
sg68
(lp3010
g61
(g62
g63
NtRp3011
(dp3012
g66
(dp3013
g74
I3
ssg75
g3007
sg68
(lp3014
g1595
asbasbasbag61
(g77
g63
NtRp3015
(dp3016
g66
(dp3017
sg75
g2843
sg68
(lp3018
g61
(g82
g63
NtRp3019
(dp3020
g66
(dp3021
g86
g87
ssg75
g3015
sg68
(lp3022
S'PATH_INFO'
p3023
asbag61
(g82
g63
NtRp3024
(dp3025
g66
(dp3026
g93
g94
ssg75
g3015
sg68
(lp3027
S':'
asbag61
(g82
g63
NtRp3028
(dp3029
g66
(dp3030
sg75
g3015
sg68
(lp3031
g61
(g62
g63
NtRp3032
(dp3033
g66
(dp3034
g74
I3
ssg75
g3028
sg68
(lp3035
g1659
asbasbasbag61
(g77
g63
NtRp3036
(dp3037
g66
(dp3038
sg75
g2843
sg68
(lp3039
g61
(g82
g63
NtRp3040
(dp3041
g66
(dp3042
g86
g87
ssg75
g3036
sg68
(lp3043
S'QUERY_STRING'
p3044
asbag61
(g82
g63
NtRp3045
(dp3046
g66
(dp3047
g93
g94
ssg75
g3036
sg68
(lp3048
S':'
asbag61
(g82
g63
NtRp3049
(dp3050
g66
(dp3051
sg75
g3036
sg68
(lp3052
g61
(g62
g63
NtRp3053
(dp3054
g66
(dp3055
g74
I3
ssg75
g3049
sg68
(lp3056
S''
asbasbasbag61
(g77
g63
NtRp3057
(dp3058
g66
(dp3059
sg75
g2843
sg68
(lp3060
g61
(g82
g63
NtRp3061
(dp3062
g66
(dp3063
g86
g87
ssg75
g3057
sg68
(lp3064
S'REMOTE_ADDR'
p3065
asbag61
(g82
g63
NtRp3066
(dp3067
g66
(dp3068
g93
g94
ssg75
g3057
sg68
(lp3069
S':'
asbag61
(g82
g63
NtRp3070
(dp3071
g66
(dp3072
sg75
g3057
sg68
(lp3073
g61
(g62
g63
NtRp3074
(dp3075
g66
(dp3076
g74
I3
ssg75
g3070
sg68
(lp3077
g194
asbasbasbag61
(g77
g63
NtRp3078
(dp3079
g66
(dp3080
sg75
g2843
sg68
(lp3081
g61
(g82
g63
NtRp3082
(dp3083
g66
(dp3084
g86
g87
ssg75
g3078
sg68
(lp3085
S'REMOTE_PORT'
p3086
asbag61
(g82
g63
NtRp3087
(dp3088
g66
(dp3089
g93
g94
ssg75
g3078
sg68
(lp3090
S':'
asbag61
(g82
g63
NtRp3091
(dp3092
g66
(dp3093
sg75
g3078
sg68
(lp3094
g61
(g62
g63
NtRp3095
(dp3096
g66
(dp3097
g74
I3
ssg75
g3091
sg68
(lp3098
g1723
asbasbasbag61
(g77
g63
NtRp3099
(dp3100
g66
(dp3101
sg75
g2843
sg68
(lp3102
g61
(g82
g63
NtRp3103
(dp3104
g66
(dp3105
g86
g87
ssg75
g3099
sg68
(lp3106
S'REQUEST_METHOD'
p3107
asbag61
(g82
g63
NtRp3108
(dp3109
g66
(dp3110
g93
g94
ssg75
g3099
sg68
(lp3111
S':'
asbag61
(g82
g63
NtRp3112
(dp3113
g66
(dp3114
sg75
g3099
sg68
(lp3115
g61
(g62
g63
NtRp3116
(dp3117
g66
(dp3118
g74
I3
ssg75
g3112
sg68
(lp3119
g1745
asbasbasbag61
(g77
g63
NtRp3120
(dp3121
g66
(dp3122
sg75
g2843
sg68
(lp3123
g61
(g82
g63
NtRp3124
(dp3125
g66
(dp3126
g86
g87
ssg75
g3120
sg68
(lp3127
S'SCRIPT_NAME'
p3128
asbag61
(g82
g63
NtRp3129
(dp3130
g66
(dp3131
g93
g94
ssg75
g3120
sg68
(lp3132
S':'
asbag61
(g82
g63
NtRp3133
(dp3134
g66
(dp3135
sg75
g3120
sg68
(lp3136
g61
(g62
g63
NtRp3137
(dp3138
g66
(dp3139
g74
I3
ssg75
g3133
sg68
(lp3140
S''
asbasbasbag61
(g77
g63
NtRp3141
(dp3142
g66
(dp3143
sg75
g2843
sg68
(lp3144
g61
(g82
g63
NtRp3145
(dp3146
g66
(dp3147
g86
g87
ssg75
g3141
sg68
(lp3148
S'SERVER_NAME'
p3149
asbag61
(g82
g63
NtRp3150
(dp3151
g66
(dp3152
g93
g94
ssg75
g3141
sg68
(lp3153
S':'
asbag61
(g82
g63
NtRp3154
(dp3155
g66
(dp3156
sg75
g3141
sg68
(lp3157
g61
(g62
g63
NtRp3158
(dp3159
g66
(dp3160
g74
I3
ssg75
g3154
sg68
(lp3161
g1788
asbasbasbag61
(g77
g63
NtRp3162
(dp3163
g66
(dp3164
sg75
g2843
sg68
(lp3165
g61
(g82
g63
NtRp3166
(dp3167
g66
(dp3168
g86
g87
ssg75
g3162
sg68
(lp3169
S'SERVER_PORT'
p3170
asbag61
(g82
g63
NtRp3171
(dp3172
g66
(dp3173
g93
g94
ssg75
g3162
sg68
(lp3174
S':'
asbag61
(g82
g63
NtRp3175
(dp3176
g66
(dp3177
sg75
g3162
sg68
(lp3178
g61
(g62
g63
NtRp3179
(dp3180
g66
(dp3181
g74
I3
ssg75
g3175
sg68
(lp3182
g1810
asbasbasbag61
(g77
g63
NtRp3183
(dp3184
g66
(dp3185
sg75
g2843
sg68
(lp3186
g61
(g82
g63
NtRp3187
(dp3188
g66
(dp3189
g86
g87
ssg75
g3183
sg68
(lp3190
S'SERVER_PROTOCOL'
p3191
asbag61
(g82
g63
NtRp3192
(dp3193
g66
(dp3194
g93
g94
ssg75
g3183
sg68
(lp3195
S':'
asbag61
(g82
g63
NtRp3196
(dp3197
g66
(dp3198
sg75
g3183
sg68
(lp3199
g61
(g62
g63
NtRp3200
(dp3201
g66
(dp3202
g74
I3
ssg75
g3196
sg68
(lp3203
g1832
asbasbasbag61
(g77
g63
NtRp3204
(dp3205
g66
(dp3206
sg75
g2843
sg68
(lp3207
g61
(g82
g63
NtRp3208
(dp3209
g66
(dp3210
g86
g87
ssg75
g3204
sg68
(lp3211
S'SERVER_SOFTWARE'
p3212
asbag61
(g82
g63
NtRp3213
(dp3214
g66
(dp3215
g93
g94
ssg75
g3204
sg68
(lp3216
S':'
asbag61
(g82
g63
NtRp3217
(dp3218
g66
(dp3219
sg75
g3204
sg68
(lp3220
g61
(g62
g63
NtRp3221
(dp3222
g66
(dp3223
g74
I3
ssg75
g3217
sg68
(lp3224
g1854
asbasbasbag61
(g77
g63
NtRp3225
(dp3226
g66
(dp3227
sg75
g2843
sg68
(lp3228
g61
(g82
g63
NtRp3229
(dp3230
g66
(dp3231
g86
g87
ssg75
g3225
sg68
(lp3232
S'wsgi.errors'
p3233
asbag61
(g82
g63
NtRp3234
(dp3235
g66
(dp3236
g93
g94
ssg75
g3225
sg68
(lp3237
S':'
asbag61
(g82
g63
NtRp3238
(dp3239
g66
(dp3240
sg75
g3225
sg68
(lp3241
g61
(g62
g63
NtRp3242
(dp3243
g66
(dp3244
g74
I3
ssg75
g3238
sg68
(lp3245
S'<__main__.Stderr object at 0x01377670>'
p3246
asbasbasbag61
(g77
g63
NtRp3247
(dp3248
g66
(dp3249
sg75
g2843
sg68
(lp3250
g61
(g82
g63
NtRp3251
(dp3252
g66
(dp3253
g86
g87
ssg75
g3247
sg68
(lp3254
S'wsgi.file_wrapper'
p3255
asbag61
(g82
g63
NtRp3256
(dp3257
g66
(dp3258
g93
g94
ssg75
g3247
sg68
(lp3259
S':'
asbag61
(g82
g63
NtRp3260
(dp3261
g66
(dp3262
sg75
g3247
sg68
(lp3263
g61
(g62
g63
NtRp3264
(dp3265
g66
(dp3266
g74
I3
ssg75
g3260
sg68
(lp3267
S'<class wsgiref.util.FileWrapper at 0x025B2210>'
p3268
asbasbasbag61
(g77
g63
NtRp3269
(dp3270
g66
(dp3271
sg75
g2843
sg68
(lp3272
g61
(g82
g63
NtRp3273
(dp3274
g66
(dp3275
g86
g87
ssg75
g3269
sg68
(lp3276
S'wsgi.input'
p3277
asbag61
(g82
g63
NtRp3278
(dp3279
g66
(dp3280
g93
g94
ssg75
g3269
sg68
(lp3281
S':'
asbag61
(g82
g63
NtRp3282
(dp3283
g66
(dp3284
sg75
g3269
sg68
(lp3285
g61
(g62
g63
NtRp3286
(dp3287
g66
(dp3288
g74
I3
ssg75
g3282
sg68
(lp3289
S'<cStringIO.StringO object at 0x06371760>'
p3290
asbasbasbag61
(g77
g63
NtRp3291
(dp3292
g66
(dp3293
sg75
g2843
sg68
(lp3294
g61
(g82
g63
NtRp3295
(dp3296
g66
(dp3297
g86
g87
ssg75
g3291
sg68
(lp3298
S'wsgi.multiprocess'
p3299
asbag61
(g82
g63
NtRp3300
(dp3301
g66
(dp3302
g93
g94
ssg75
g3291
sg68
(lp3303
S':'
asbag61
(g82
g63
NtRp3304
(dp3305
g66
(dp3306
sg75
g3291
sg68
(lp3307
g61
(g62
g63
NtRp3308
(dp3309
g66
(dp3310
g74
I3
ssg75
g3304
sg68
(lp3311
g104
asbasbasbag61
(g77
g63
NtRp3312
(dp3313
g66
(dp3314
sg75
g2843
sg68
(lp3315
g61
(g82
g63
NtRp3316
(dp3317
g66
(dp3318
g86
g87
ssg75
g3312
sg68
(lp3319
S'wsgi.multithread'
p3320
asbag61
(g82
g63
NtRp3321
(dp3322
g66
(dp3323
g93
g94
ssg75
g3312
sg68
(lp3324
S':'
asbag61
(g82
g63
NtRp3325
(dp3326
g66
(dp3327
sg75
g3312
sg68
(lp3328
g61
(g62
g63
NtRp3329
(dp3330
g66
(dp3331
g74
I3
ssg75
g3325
sg68
(lp3332
g2094
asbasbasbag61
(g77
g63
NtRp3333
(dp3334
g66
(dp3335
sg75
g2843
sg68
(lp3336
g61
(g82
g63
NtRp3337
(dp3338
g66
(dp3339
g86
g87
ssg75
g3333
sg68
(lp3340
S'wsgi.run_once'
p3341
asbag61
(g82
g63
NtRp3342
(dp3343
g66
(dp3344
g93
g94
ssg75
g3333
sg68
(lp3345
S':'
asbag61
(g82
g63
NtRp3346
(dp3347
g66
(dp3348
sg75
g3333
sg68
(lp3349
g61
(g62
g63
NtRp3350
(dp3351
g66
(dp3352
g74
I3
ssg75
g3346
sg68
(lp3353
g104
asbasbasbag61
(g77
g63
NtRp3354
(dp3355
g66
(dp3356
sg75
g2843
sg68
(lp3357
g61
(g82
g63
NtRp3358
(dp3359
g66
(dp3360
g86
g87
ssg75
g3354
sg68
(lp3361
S'wsgi.url_scheme'
p3362
asbag61
(g82
g63
NtRp3363
(dp3364
g66
(dp3365
g93
g94
ssg75
g3354
sg68
(lp3366
S':'
asbag61
(g82
g63
NtRp3367
(dp3368
g66
(dp3369
sg75
g3354
sg68
(lp3370
g61
(g62
g63
NtRp3371
(dp3372
g66
(dp3373
g74
I3
ssg75
g3367
sg68
(lp3374
g2137
asbasbasbag61
(g77
g63
NtRp3375
(dp3376
g66
(dp3377
sg75
g2843
sg68
(lp3378
g61
(g82
g63
NtRp3379
(dp3380
g66
(dp3381
g86
g87
ssg75
g3375
sg68
(lp3382
S'wsgi.version'
p3383
asbag61
(g82
g63
NtRp3384
(dp3385
g66
(dp3386
g93
g94
ssg75
g3375
sg68
(lp3387
S':'
asbag61
(g82
g63
NtRp3388
(dp3389
g66
(dp3390
sg75
g3375
sg68
(lp3391
g61
(g62
g63
NtRp3392
(dp3393
g66
(dp3394
g74
I3
ssg75
g3388
sg68
(lp3395
S'1'
asbasbasbasbasbasbasbasbasbasbasbasbasbsS'frames'
p3396
(lp3397
(dp3398
S'file'
p3399
S'C:\\Users\\omkara\\Desktop\\web2py\\gluon\\restricted.py'
p3400
sS'dump'
p3401
(dp3402
sS'lnum'
p3403
I205
sS'lines'
p3404
(dp3405
sS'call'
p3406
S"(code='#Needed for authenticating users\\nfrom gluon.tool...e_user = custom_auth_table \\nauth.define_tables()\\n', environment={'A': <class 'gluon.html.A'>, 'Auth': <class 'gluon.tools.Auth'>, 'B': <class 'gluon.html.B'>, 'BEAUTIFY': <class 'gluon.html.BEAUTIFY'>, 'BODY': <class 'gluon.html.BODY'>, 'BR': <class 'gluon.html.BR'>, 'BUTTON': <class 'gluon.html.BUTTON'>, 'CAT': <class 'gluon.html.CAT'>, 'CENTER': <class 'gluon.html.CENTER'>, 'CLEANUP': <class 'gluon.validators.CLEANUP'>, ...}, layer=r'C:\\Users\\omkara\\Desktop\\web2py\\applications\\SlugBarter\\models\\registerForm.py')"
p3407
sS'func'
p3408
S'restricted'
p3409
sa(dp3410
g3399
S'C:\\Users\\omkara\\Desktop\\web2py\\applications\\SlugBarter\\models\\registerForm.py'
p3411
sg3401
(dp3412
sg3403
I18
sg3404
(dp3413
I13
S"    Field('registration_key', length=512,                # required"
p3414
sI14
S"          writable=False, readable=False, default=''),"
p3415
sI15
S"    Field('reset_password_key', length=512,              # required"
p3416
sI16
S"          writable=False, readable=False, default=''),"
p3417
sI17
S"    Field('registration_id', length=512,                 # required"
p3418
sI18
S"          writable=False, readable=False, default='')"
p3419
sI19
S'    )'
p3420
sI20
S''
sI21
S'custom_auth_table = db[auth.settings.table_user_name]'
p3421
sI22
S'custom_auth_table.firstName.requires = [IS_NOT_EMPTY()]'
p3422
ssg3406
S'()'
p3423
sg3408
S'<module>'
p3424
sa(dp3425
g3399
S'C:\\Users\\omkara\\Desktop\\web2py\\gluon\\dal.py'
p3426
sg3401
(dp3427
sg3403
I6292
sg3404
(dp3428
sg3406
S"(self=<DAL {'auth_event': <Table {'origin': <gluon.dal..._key': <gluon.dal.Field object at 0x05E98210>}>}>, tablename='auth_user', *fields=(<gluon.dal.Field object at 0x063BDED0>, <gluon.dal.Field object at 0x0692C330>, <gluon.dal.Field object at 0x0692C590>, <gluon.dal.Field object at 0x0692CF50>, <gluon.dal.Field object at 0x0692C710>, <gluon.dal.Field object at 0x0692CA90>, <gluon.dal.Field object at 0x0692C890>, <gluon.dal.Field object at 0x0692C170>), **args={})"
p3429
sg3408
S'define_table'
p3430
sasS'pyver'
p3431
S'Python 2.5.4: C:\\Users\\omkara\\Desktop\\web2py\\web2py_no_console.exe'
p3432
sS'session'
p3433
g61
(g62
g63
NtRp3434
(dp3435
g66
(dp3436
sg68
(lp3437
g61
(g70
g63
NtRp3438
(dp3439
g66
(dp3440
g74
I5
ssg75
Nsg68
(lp3441
sbasbsS'etype'
p3442
S"<type 'exceptions.SyntaxError'>"
p3443
sS'date'
p3444
S'Tue Nov 06 16:43:58 2012'
p3445
sS'response'
p3446
g61
(g62
g63
NtRp3447
(dp3448
g66
(dp3449
sg68
(lp3450
g61
(g70
g63
NtRp3451
(dp3452
g66
(dp3453
g74
I5
ssg75
Nsg68
(lp3454
g61
(g77
g63
NtRp3455
(dp3456
g66
(dp3457
sg75
g3451
sg68
(lp3458
g61
(g82
g63
NtRp3459
(dp3460
g66
(dp3461
g86
g87
ssg75
g3455
sg68
(lp3462
g159
asbag61
(g82
g63
NtRp3463
(dp3464
g66
(dp3465
g93
g94
ssg75
g3455
sg68
(lp3466
S':'
asbag61
(g82
g63
NtRp3467
(dp3468
g66
(dp3469
sg75
g3455
sg68
(lp3470
g61
(g62
g63
NtRp3471
(dp3472
g66
(dp3473
g74
I5
ssg75
g3467
sg68
(lp3474
S'<cStringIO.StringO object at 0x06371D60>'
p3475
asbasbasbag61
(g77
g63
NtRp3476
(dp3477
g66
(dp3478
sg75
g3451
sg68
(lp3479
g61
(g82
g63
NtRp3480
(dp3481
g66
(dp3482
g86
g87
ssg75
g3476
sg68
(lp3483
g225
asbag61
(g82
g63
NtRp3484
(dp3485
g66
(dp3486
g93
g94
ssg75
g3476
sg68
(lp3487
S':'
asbag61
(g82
g63
NtRp3488
(dp3489
g66
(dp3490
sg75
g3476
sg68
(lp3491
g61
(g62
g63
NtRp3492
(dp3493
g66
(dp3494
g74
I5
ssg75
g3488
sg68
(lp3495
g61
(g70
g63
NtRp3496
(dp3497
g66
(dp3498
g74
I4
ssg75
Nsg68
(lp3499
g61
(g77
g63
NtRp3500
(dp3501
g66
(dp3502
sg75
g3496
sg68
(lp3503
g61
(g82
g63
NtRp3504
(dp3505
g66
(dp3506
g86
g87
ssg75
g3500
sg68
(lp3507
S'session_id_slugbarter'
p3508
asbag61
(g82
g63
NtRp3509
(dp3510
g66
(dp3511
g93
g94
ssg75
g3500
sg68
(lp3512
S':'
asbag61
(g82
g63
NtRp3513
(dp3514
g66
(dp3515
sg75
g3500
sg68
(lp3516
g61
(g62
g63
NtRp3517
(dp3518
g66
(dp3519
g74
I4
ssg75
g3513
sg68
(lp3520
g61
(g70
g63
NtRp3521
(dp3522
g66
(dp3523
g74
I3
ssg75
Nsg68
(lp3524
g61
(g77
g63
NtRp3525
(dp3526
g66
(dp3527
sg75
g3521
sg68
(lp3528
g61
(g82
g63
NtRp3529
(dp3530
g66
(dp3531
g86
g87
ssg75
g3525
sg68
(lp3532
g275
asbag61
(g82
g63
NtRp3533
(dp3534
g66
(dp3535
g93
g94
ssg75
g3525
sg68
(lp3536
S':'
asbag61
(g82
g63
NtRp3537
(dp3538
g66
(dp3539
sg75
g3525
sg68
(lp3540
g61
(g62
g63
NtRp3541
(dp3542
g66
(dp3543
g74
I3
ssg75
g3537
sg68
(lp3544
S''
asbasbasbag61
(g77
g63
NtRp3545
(dp3546
g66
(dp3547
sg75
g3521
sg68
(lp3548
g61
(g82
g63
NtRp3549
(dp3550
g66
(dp3551
g86
g87
ssg75
g3545
sg68
(lp3552
g296
asbag61
(g82
g63
NtRp3553
(dp3554
g66
(dp3555
g93
g94
ssg75
g3545
sg68
(lp3556
S':'
asbag61
(g82
g63
NtRp3557
(dp3558
g66
(dp3559
sg75
g3545
sg68
(lp3560
g61
(g62
g63
NtRp3561
(dp3562
g66
(dp3563
g74
I3
ssg75
g3557
sg68
(lp3564
S''
asbasbasbag61
(g77
g63
NtRp3565
(dp3566
g66
(dp3567
sg75
g3521
sg68
(lp3568
g61
(g82
g63
NtRp3569
(dp3570
g66
(dp3571
g86
g87
ssg75
g3565
sg68
(lp3572
g317
asbag61
(g82
g63
NtRp3573
(dp3574
g66
(dp3575
g93
g94
ssg75
g3565
sg68
(lp3576
S':'
asbag61
(g82
g63
NtRp3577
(dp3578
g66
(dp3579
sg75
g3565
sg68
(lp3580
g61
(g62
g63
NtRp3581
(dp3582
g66
(dp3583
g74
I3
ssg75
g3577
sg68
(lp3584
S''
asbasbasbag61
(g77
g63
NtRp3585
(dp3586
g66
(dp3587
sg75
g3521
sg68
(lp3588
g61
(g82
g63
NtRp3589
(dp3590
g66
(dp3591
g86
g87
ssg75
g3585
sg68
(lp3592
g338
asbag61
(g82
g63
NtRp3593
(dp3594
g66
(dp3595
g93
g94
ssg75
g3585
sg68
(lp3596
S':'
asbag61
(g82
g63
NtRp3597
(dp3598
g66
(dp3599
sg75
g3585
sg68
(lp3600
g61
(g62
g63
NtRp3601
(dp3602
g66
(dp3603
g74
I3
ssg75
g3597
sg68
(lp3604
S''
asbasbasbag61
(g77
g63
NtRp3605
(dp3606
g66
(dp3607
sg75
g3521
sg68
(lp3608
g61
(g82
g63
NtRp3609
(dp3610
g66
(dp3611
g86
g87
ssg75
g3605
sg68
(lp3612
g359
asbag61
(g82
g63
NtRp3613
(dp3614
g66
(dp3615
g93
g94
ssg75
g3605
sg68
(lp3616
S':'
asbag61
(g82
g63
NtRp3617
(dp3618
g66
(dp3619
sg75
g3605
sg68
(lp3620
g61
(g62
g63
NtRp3621
(dp3622
g66
(dp3623
g74
I3
ssg75
g3617
sg68
(lp3624
S'/'
asbasbasbag61
(g77
g63
NtRp3625
(dp3626
g66
(dp3627
sg75
g3521
sg68
(lp3628
g61
(g82
g63
NtRp3629
(dp3630
g66
(dp3631
g86
g87
ssg75
g3625
sg68
(lp3632
g380
asbag61
(g82
g63
NtRp3633
(dp3634
g66
(dp3635
g93
g94
ssg75
g3625
sg68
(lp3636
S':'
asbag61
(g82
g63
NtRp3637
(dp3638
g66
(dp3639
sg75
g3625
sg68
(lp3640
g61
(g62
g63
NtRp3641
(dp3642
g66
(dp3643
g74
I3
ssg75
g3637
sg68
(lp3644
S''
asbasbasbag61
(g77
g63
NtRp3645
(dp3646
g66
(dp3647
sg75
g3521
sg68
(lp3648
g61
(g82
g63
NtRp3649
(dp3650
g66
(dp3651
g86
g87
ssg75
g3645
sg68
(lp3652
g401
asbag61
(g82
g63
NtRp3653
(dp3654
g66
(dp3655
g93
g94
ssg75
g3645
sg68
(lp3656
S':'
asbag61
(g82
g63
NtRp3657
(dp3658
g66
(dp3659
sg75
g3645
sg68
(lp3660
g61
(g62
g63
NtRp3661
(dp3662
g66
(dp3663
g74
I3
ssg75
g3657
sg68
(lp3664
S''
asbasbasbasbasbasbasbasbasbasbasbag61
(g77
g63
NtRp3665
(dp3666
g66
(dp3667
sg75
g3451
sg68
(lp3668
g61
(g82
g63
NtRp3669
(dp3670
g66
(dp3671
g86
g87
ssg75
g3665
sg68
(lp3672
S'delimiters'
p3673
asbag61
(g82
g63
NtRp3674
(dp3675
g66
(dp3676
g93
g94
ssg75
g3665
sg68
(lp3677
S':'
asbag61
(g82
g63
NtRp3678
(dp3679
g66
(dp3680
sg75
g3665
sg68
(lp3681
g61
(g62
g63
NtRp3682
(dp3683
g66
(dp3684
g74
I5
ssg75
g3678
sg68
(lp3685
g61
(g70
g63
NtRp3686
(dp3687
g66
(dp3688
g74
I4
ssg75
Nsg68
(lp3689
g61
(g77
g63
NtRp3690
(dp3691
g66
(dp3692
sg75
g3686
sg68
(lp3693
g61
(g82
g63
NtRp3694
(dp3695
g66
(dp3696
sg75
g3690
sg68
(lp3697
g61
(g62
g63
NtRp3698
(dp3699
g66
(dp3700
g74
I4
ssg75
g3694
sg68
(lp3701
S'{{'
p3702
asbasbasbag61
(g77
g63
NtRp3703
(dp3704
g66
(dp3705
sg75
g3686
sg68
(lp3706
g61
(g82
g63
NtRp3707
(dp3708
g66
(dp3709
sg75
g3703
sg68
(lp3710
g61
(g62
g63
NtRp3711
(dp3712
g66
(dp3713
g74
I4
ssg75
g3707
sg68
(lp3714
S'}}'
p3715
asbasbasbasbasbasbasbag61
(g77
g63
NtRp3716
(dp3717
g66
(dp3718
sg75
g3451
sg68
(lp3719
g61
(g82
g63
NtRp3720
(dp3721
g66
(dp3722
g86
g87
ssg75
g3716
sg68
(lp3723
S'files'
p3724
asbag61
(g82
g63
NtRp3725
(dp3726
g66
(dp3727
g93
g94
ssg75
g3716
sg68
(lp3728
S':'
asbag61
(g82
g63
NtRp3729
(dp3730
g66
(dp3731
sg75
g3716
sg68
(lp3732
g61
(g62
g63
NtRp3733
(dp3734
g66
(dp3735
g74
I5
ssg75
g3729
sg68
(lp3736
g61
(g70
g63
NtRp3737
(dp3738
g66
(dp3739
g74
I4
ssg75
Nsg68
(lp3740
sbasbasbasbag61
(g77
g63
NtRp3741
(dp3742
g66
(dp3743
sg75
g3451
sg68
(lp3744
g61
(g82
g63
NtRp3745
(dp3746
g66
(dp3747
g86
g87
ssg75
g3741
sg68
(lp3748
S'flash'
p3749
asbag61
(g82
g63
NtRp3750
(dp3751
g66
(dp3752
g93
g94
ssg75
g3741
sg68
(lp3753
S':'
asbag61
(g82
g63
NtRp3754
(dp3755
g66
(dp3756
sg75
g3741
sg68
(lp3757
g61
(g62
g63
NtRp3758
(dp3759
g66
(dp3760
g74
I5
ssg75
g3754
sg68
(lp3761
S''
asbasbasbag61
(g77
g63
NtRp3762
(dp3763
g66
(dp3764
sg75
g3451
sg68
(lp3765
g61
(g82
g63
NtRp3766
(dp3767
g66
(dp3768
g86
g87
ssg75
g3762
sg68
(lp3769
S'generic_patterns'
p3770
asbag61
(g82
g63
NtRp3771
(dp3772
g66
(dp3773
g93
g94
ssg75
g3762
sg68
(lp3774
S':'
asbag61
(g82
g63
NtRp3775
(dp3776
g66
(dp3777
sg75
g3762
sg68
(lp3778
g61
(g62
g63
NtRp3779
(dp3780
g66
(dp3781
g74
I5
ssg75
g3775
sg68
(lp3782
g61
(g70
g63
NtRp3783
(dp3784
g66
(dp3785
g74
I4
ssg75
Nsg68
(lp3786
g61
(g77
g63
NtRp3787
(dp3788
g66
(dp3789
sg75
g3783
sg68
(lp3790
g61
(g82
g63
NtRp3791
(dp3792
g66
(dp3793
sg75
g3787
sg68
(lp3794
g61
(g62
g63
NtRp3795
(dp3796
g66
(dp3797
g74
I4
ssg75
g3791
sg68
(lp3798
S'*'
asbasbasbasbasbasbasbag61
(g77
g63
NtRp3799
(dp3800
g66
(dp3801
sg75
g3451
sg68
(lp3802
g61
(g82
g63
NtRp3803
(dp3804
g66
(dp3805
g86
g87
ssg75
g3799
sg68
(lp3806
S'headers'
p3807
asbag61
(g82
g63
NtRp3808
(dp3809
g66
(dp3810
g93
g94
ssg75
g3799
sg68
(lp3811
S':'
asbag61
(g82
g63
NtRp3812
(dp3813
g66
(dp3814
sg75
g3799
sg68
(lp3815
g61
(g62
g63
NtRp3816
(dp3817
g66
(dp3818
g74
I5
ssg75
g3812
sg68
(lp3819
g61
(g70
g63
NtRp3820
(dp3821
g66
(dp3822
g74
I4
ssg75
Nsg68
(lp3823
g61
(g77
g63
NtRp3824
(dp3825
g66
(dp3826
sg75
g3820
sg68
(lp3827
g61
(g82
g63
NtRp3828
(dp3829
g66
(dp3830
g86
g87
ssg75
g3824
sg68
(lp3831
S'Cache-Control'
p3832
asbag61
(g82
g63
NtRp3833
(dp3834
g66
(dp3835
g93
g94
ssg75
g3824
sg68
(lp3836
S':'
asbag61
(g82
g63
NtRp3837
(dp3838
g66
(dp3839
sg75
g3824
sg68
(lp3840
g61
(g62
g63
NtRp3841
(dp3842
g66
(dp3843
g74
I4
ssg75
g3837
sg68
(lp3844
S'no-store, no-cache, must-revalidate, post-check=0, pre-check=0'
p3845
asbasbasbag61
(g77
g63
NtRp3846
(dp3847
g66
(dp3848
sg75
g3820
sg68
(lp3849
g61
(g82
g63
NtRp3850
(dp3851
g66
(dp3852
g86
g87
ssg75
g3846
sg68
(lp3853
S'Content-Type'
p3854
asbag61
(g82
g63
NtRp3855
(dp3856
g66
(dp3857
g93
g94
ssg75
g3846
sg68
(lp3858
S':'
asbag61
(g82
g63
NtRp3859
(dp3860
g66
(dp3861
sg75
g3846
sg68
(lp3862
g61
(g62
g63
NtRp3863
(dp3864
g66
(dp3865
g74
I4
ssg75
g3859
sg68
(lp3866
S'text/html; charset=utf-8'
p3867
asbasbasbag61
(g77
g63
NtRp3868
(dp3869
g66
(dp3870
sg75
g3820
sg68
(lp3871
g61
(g82
g63
NtRp3872
(dp3873
g66
(dp3874
g86
g87
ssg75
g3868
sg68
(lp3875
S'Expires'
p3876
asbag61
(g82
g63
NtRp3877
(dp3878
g66
(dp3879
g93
g94
ssg75
g3868
sg68
(lp3880
S':'
asbag61
(g82
g63
NtRp3881
(dp3882
g66
(dp3883
sg75
g3868
sg68
(lp3884
g61
(g62
g63
NtRp3885
(dp3886
g66
(dp3887
g74
I4
ssg75
g3881
sg68
(lp3888
S'Wed, 07 Nov 2012 00:43:58 GMT'
p3889
asbasbasbag61
(g77
g63
NtRp3890
(dp3891
g66
(dp3892
sg75
g3820
sg68
(lp3893
g61
(g82
g63
NtRp3894
(dp3895
g66
(dp3896
g86
g87
ssg75
g3890
sg68
(lp3897
S'Pragma'
p3898
asbag61
(g82
g63
NtRp3899
(dp3900
g66
(dp3901
g93
g94
ssg75
g3890
sg68
(lp3902
S':'
asbag61
(g82
g63
NtRp3903
(dp3904
g66
(dp3905
sg75
g3890
sg68
(lp3906
g61
(g62
g63
NtRp3907
(dp3908
g66
(dp3909
g74
I4
ssg75
g3903
sg68
(lp3910
S'no-cache'
p3911
asbasbasbag61
(g77
g63
NtRp3912
(dp3913
g66
(dp3914
sg75
g3820
sg68
(lp3915
g61
(g82
g63
NtRp3916
(dp3917
g66
(dp3918
g86
g87
ssg75
g3912
sg68
(lp3919
S'X-Powered-By'
p3920
asbag61
(g82
g63
NtRp3921
(dp3922
g66
(dp3923
g93
g94
ssg75
g3912
sg68
(lp3924
S':'
asbag61
(g82
g63
NtRp3925
(dp3926
g66
(dp3927
sg75
g3912
sg68
(lp3928
g61
(g62
g63
NtRp3929
(dp3930
g66
(dp3931
g74
I4
ssg75
g3925
sg68
(lp3932
S'web2py'
p3933
asbasbasbasbasbasbasbag61
(g77
g63
NtRp3934
(dp3935
g66
(dp3936
sg75
g3451
sg68
(lp3937
g61
(g82
g63
NtRp3938
(dp3939
g66
(dp3940
g86
g87
ssg75
g3934
sg68
(lp3941
S'menu'
p3942
asbag61
(g82
g63
NtRp3943
(dp3944
g66
(dp3945
g93
g94
ssg75
g3934
sg68
(lp3946
S':'
asbag61
(g82
g63
NtRp3947
(dp3948
g66
(dp3949
sg75
g3934
sg68
(lp3950
g61
(g62
g63
NtRp3951
(dp3952
g66
(dp3953
g74
I5
ssg75
g3947
sg68
(lp3954
g61
(g70
g63
NtRp3955
(dp3956
g66
(dp3957
g74
I4
ssg75
Nsg68
(lp3958
g61
(g77
g63
NtRp3959
(dp3960
g66
(dp3961
sg75
g3955
sg68
(lp3962
g61
(g82
g63
NtRp3963
(dp3964
g66
(dp3965
sg75
g3959
sg68
(lp3966
g61
(g62
g63
NtRp3967
(dp3968
g66
(dp3969
g74
I4
ssg75
g3963
sg68
(lp3970
g61
(g70
g63
NtRp3971
(dp3972
g66
(dp3973
g74
I3
ssg75
Nsg68
(lp3974
g61
(g77
g63
NtRp3975
(dp3976
g66
(dp3977
sg75
g3971
sg68
(lp3978
g61
(g82
g63
NtRp3979
(dp3980
g66
(dp3981
sg75
g3975
sg68
(lp3982
g61
(g62
g63
NtRp3983
(dp3984
g66
(dp3985
g74
I3
ssg75
g3979
sg68
(lp3986
cgluon.languages
lazyT_unpickle
p3987
(S's\x04\x00\x00\x00Home'
tRp3988
asbasbasbag61
(g77
g63
NtRp3989
(dp3990
g66
(dp3991
sg75
g3971
sg68
(lp3992
g61
(g82
g63
NtRp3993
(dp3994
g66
(dp3995
sg75
g3989
sg68
(lp3996
g61
(g62
g63
NtRp3997
(dp3998
g66
(dp3999
g74
I3
ssg75
g3993
sg68
(lp4000
g104
asbasbasbag61
(g77
g63
NtRp4001
(dp4002
g66
(dp4003
sg75
g3971
sg68
(lp4004
g61
(g82
g63
NtRp4005
(dp4006
g66
(dp4007
sg75
g4001
sg68
(lp4008
g61
(g62
g63
NtRp4009
(dp4010
g66
(dp4011
g74
I3
ssg75
g4005
sg68
(lp4012
S'/SlugBarter/default/index'
p4013
asbasbasbag61
(g77
g63
NtRp4014
(dp4015
g66
(dp4016
sg75
g3971
sg68
(lp4017
g61
(g82
g63
NtRp4018
(dp4019
g66
(dp4020
sg75
g4014
sg68
(lp4021
g61
(g62
g63
NtRp4022
(dp4023
g66
(dp4024
g74
I3
ssg75
g4018
sg68
(lp4025
g61
(g70
g63
NtRp4026
(dp4027
g66
(dp4028
g74
I2
ssg75
Nsg68
(lp4029
sbasbasbasbasbasbasbasbag61
(g77
g63
NtRp4030
(dp4031
g66
(dp4032
sg75
g3955
sg68
(lp4033
g61
(g82
g63
NtRp4034
(dp4035
g66
(dp4036
sg75
g4030
sg68
(lp4037
g61
(g62
g63
NtRp4038
(dp4039
g66
(dp4040
g74
I4
ssg75
g4034
sg68
(lp4041
g61
(g70
g63
NtRp4042
(dp4043
g66
(dp4044
g74
I3
ssg75
Nsg68
(lp4045
g61
(g77
g63
NtRp4046
(dp4047
g66
(dp4048
sg75
g4042
sg68
(lp4049
g61
(g82
g63
NtRp4050
(dp4051
g66
(dp4052
sg75
g4046
sg68
(lp4053
g61
(g62
g63
NtRp4054
(dp4055
g66
(dp4056
g74
I3
ssg75
g4050
sg68
(lp4057
g61
(cgluon.html
SPAN
p4058
g63
NtRp4059
(dp4060
g66
(dp4061
g86
S'color:yellow'
p4062
ssg75
Nsg68
(lp4063
g3933
asbasbasbasbag61
(g77
g63
NtRp4064
(dp4065
g66
(dp4066
sg75
g4042
sg68
(lp4067
g61
(g82
g63
NtRp4068
(dp4069
g66
(dp4070
sg75
g4064
sg68
(lp4071
g61
(g62
g63
NtRp4072
(dp4073
g66
(dp4074
g74
I3
ssg75
g4068
sg68
(lp4075
g104
asbasbasbag61
(g77
g63
NtRp4076
(dp4077
g66
(dp4078
sg75
g4042
sg68
(lp4079
g61
(g82
g63
NtRp4080
(dp4081
g66
(dp4082
sg75
g4076
sg68
(lp4083
g61
(g62
g63
NtRp4084
(dp4085
g66
(dp4086
g74
I3
ssg75
g4080
sg68
(lp4087
S'None'
p4088
asbasbasbag61
(g77
g63
NtRp4089
(dp4090
g66
(dp4091
sg75
g4042
sg68
(lp4092
g61
(g82
g63
NtRp4093
(dp4094
g66
(dp4095
sg75
g4089
sg68
(lp4096
g61
(g62
g63
NtRp4097
(dp4098
g66
(dp4099
g74
I3
ssg75
g4093
sg68
(lp4100
g61
(g70
g63
NtRp4101
(dp4102
g66
(dp4103
g74
I2
ssg75
Nsg68
(lp4104
g61
(g77
g63
NtRp4105
(dp4106
g66
(dp4107
sg75
g4101
sg68
(lp4108
g61
(g82
g63
NtRp4109
(dp4110
g66
(dp4111
sg75
g4105
sg68
(lp4112
g61
(g62
g63
NtRp4113
(dp4114
g66
(dp4115
g74
I2
ssg75
g4109
sg68
(lp4116
g61
(g70
g63
NtRp4117
(dp4118
g66
(dp4119
g74
I1
ssg75
Nsg68
(lp4120
g61
(g77
g63
NtRp4121
(dp4122
g66
(dp4123
sg75
g4117
sg68
(lp4124
g61
(g82
g63
NtRp4125
(dp4126
g66
(dp4127
sg75
g4121
sg68
(lp4128
g61
(g62
g63
NtRp4129
(dp4130
g66
(dp4131
g74
I1
ssg75
g4125
sg68
(lp4132
g3987
(S's\x08\x00\x00\x00My Sites'
tRp4133
asbasbasbag61
(g77
g63
NtRp4134
(dp4135
g66
(dp4136
sg75
g4117
sg68
(lp4137
g61
(g82
g63
NtRp4138
(dp4139
g66
(dp4140
sg75
g4134
sg68
(lp4141
g61
(g62
g63
NtRp4142
(dp4143
g66
(dp4144
g74
I1
ssg75
g4138
sg68
(lp4145
I00
asbasbasbag61
(g77
g63
NtRp4146
(dp4147
g66
(dp4148
sg75
g4117
sg68
(lp4149
g61
(g82
g63
NtRp4150
(dp4151
g66
(dp4152
sg75
g4146
sg68
(lp4153
g61
(g62
g63
NtRp4154
(dp4155
g66
(dp4156
g74
I1
ssg75
g4150
sg68
(lp4157
S'/admin/default/site'
p4158
asbasbasbasbasbasbasbag61
(g77
g63
NtRp4159
(dp4160
g66
(dp4161
sg75
g4101
sg68
(lp4162
g61
(g82
g63
NtRp4163
(dp4164
g66
(dp4165
sg75
g4159
sg68
(lp4166
g61
(g62
g63
NtRp4167
(dp4168
g66
(dp4169
g74
I2
ssg75
g4163
sg68
(lp4170
g61
(g70
g63
NtRp4171
(dp4172
g66
(dp4173
g74
I1
ssg75
Nsg68
(lp4174
g61
(g77
g63
NtRp4175
(dp4176
g66
(dp4177
sg75
g4171
sg68
(lp4178
g61
(g82
g63
NtRp4179
(dp4180
g66
(dp4181
sg75
g4175
sg68
(lp4182
g61
(g62
g63
NtRp4183
(dp4184
g66
(dp4185
g74
I1
ssg75
g4179
sg68
(lp4186
g3987
(S's\x08\x00\x00\x00This App'
tRp4187
asbasbasbag61
(g77
g63
NtRp4188
(dp4189
g66
(dp4190
sg75
g4171
sg68
(lp4191
g61
(g82
g63
NtRp4192
(dp4193
g66
(dp4194
sg75
g4188
sg68
(lp4195
g61
(g62
g63
NtRp4196
(dp4197
g66
(dp4198
g74
I1
ssg75
g4192
sg68
(lp4199
I00
asbasbasbag61
(g77
g63
NtRp4200
(dp4201
g66
(dp4202
sg75
g4171
sg68
(lp4203
g61
(g82
g63
NtRp4204
(dp4205
g66
(dp4206
sg75
g4200
sg68
(lp4207
g61
(g62
g63
NtRp4208
(dp4209
g66
(dp4210
g74
I1
ssg75
g4204
sg68
(lp4211
S'/admin/default/design/SlugBarter'
p4212
asbasbasbag61
(g77
g63
NtRp4213
(dp4214
g66
(dp4215
sg75
g4171
sg68
(lp4216
g61
(g82
g63
NtRp4217
(dp4218
g66
(dp4219
sg75
g4213
sg68
(lp4220
g61
(g62
g63
NtRp4221
(dp4222
g66
(dp4223
g74
I1
ssg75
g4217
sg68
(lp4224
(lp4225
(g3987
(S's\n\x00\x00\x00Controller'
tRp4226
I00
S'/admin/default/edit/SlugBarter/controllers/default.py'
tp4227
a(g3987
(S's\x04\x00\x00\x00View'
tRp4228
I00
S'/admin/default/edit/SlugBarter/views/default/index.html'
tp4229
a(g3987
(S's\x06\x00\x00\x00Layout'
tRp4230
I00
S'/admin/default/edit/SlugBarter/views/layout.html'
tp4231
a(g3987
(S's\n\x00\x00\x00Stylesheet'
tRp4232
I00
S'/admin/default/edit/SlugBarter/static/css/web2py.css'
tp4233
a(g3987
(S's\x08\x00\x00\x00DB Model'
tRp4234
I00
S'/admin/default/edit/SlugBarter/models/db.py'
tp4235
a(g3987
(S's\n\x00\x00\x00Menu Model'
tRp4236
I00
S'/admin/default/edit/SlugBarter/models/menu.py'
tp4237
a(g3987
(S's\x08\x00\x00\x00Database'
tRp4238
I00
S'/SlugBarter/appadmin/index'
tp4239
a(g3987
(S's\x06\x00\x00\x00Errors'
tRp4240
I00
S'/admin/default/errors/SlugBarter'
tp4241
a(g3987
(S's\x05\x00\x00\x00About'
tRp4242
I00
S'/admin/default/about/SlugBarter'
tp4243
aasbasbasbasbasbasbasbag61
(g77
g63
NtRp4244
(dp4245
g66
(dp4246
sg75
g4101
sg68
(lp4247
g61
(g82
g63
NtRp4248
(dp4249
g66
(dp4250
sg75
g4244
sg68
(lp4251
g61
(g62
g63
NtRp4252
(dp4253
g66
(dp4254
g74
I2
ssg75
g4248
sg68
(lp4255
g61
(g70
g63
NtRp4256
(dp4257
g66
(dp4258
g74
I1
ssg75
Nsg68
(lp4259
g61
(g77
g63
NtRp4260
(dp4261
g66
(dp4262
sg75
g4256
sg68
(lp4263
g61
(g82
g63
NtRp4264
(dp4265
g66
(dp4266
sg75
g4260
sg68
(lp4267
g61
(g62
g63
NtRp4268
(dp4269
g66
(dp4270
g74
I1
ssg75
g4264
sg68
(lp4271
S'web2py.com'
p4272
asbasbasbag61
(g77
g63
NtRp4273
(dp4274
g66
(dp4275
sg75
g4256
sg68
(lp4276
g61
(g82
g63
NtRp4277
(dp4278
g66
(dp4279
sg75
g4273
sg68
(lp4280
g61
(g62
g63
NtRp4281
(dp4282
g66
(dp4283
g74
I1
ssg75
g4277
sg68
(lp4284
I00
asbasbasbag61
(g77
g63
NtRp4285
(dp4286
g66
(dp4287
sg75
g4256
sg68
(lp4288
g61
(g82
g63
NtRp4289
(dp4290
g66
(dp4291
sg75
g4285
sg68
(lp4292
g61
(g62
g63
NtRp4293
(dp4294
g66
(dp4295
g74
I1
ssg75
g4289
sg68
(lp4296
S'http://www.web2py.com'
p4297
asbasbasbag61
(g77
g63
NtRp4298
(dp4299
g66
(dp4300
sg75
g4256
sg68
(lp4301
g61
(g82
g63
NtRp4302
(dp4303
g66
(dp4304
sg75
g4298
sg68
(lp4305
g61
(g62
g63
NtRp4306
(dp4307
g66
(dp4308
g74
I1
ssg75
g4302
sg68
(lp4309
(lp4310
(g3987
(S's\x08\x00\x00\x00Download'
tRp4311
I00
S'http://www.web2py.com/examples/default/download'
p4312
tp4313
a(g3987
(S's\x07\x00\x00\x00Support'
tRp4314
I00
S'http://www.web2py.com/examples/default/support'
p4315
tp4316
a(g3987
(S's\x04\x00\x00\x00Demo'
tRp4317
I00
S'http://web2py.com/demo_admin'
p4318
tp4319
a(g3987
(S's\x0e\x00\x00\x00Quick Examples'
tRp4320
I00
S'http://web2py.com/examples/default/examples'
p4321
tp4322
a(g3987
(S's\x03\x00\x00\x00FAQ'
tRp4323
I00
S'http://web2py.com/AlterEgo'
p4324
tp4325
a(g3987
(S's\x06\x00\x00\x00Videos'
tRp4326
I00
S'http://www.web2py.com/examples/default/videos/'
p4327
tp4328
a(g3987
(S's\x11\x00\x00\x00Free Applications'
tRp4329
I00
S'http://web2py.com/appliances'
p4330
tp4331
a(g3987
(S's\x07\x00\x00\x00Plugins'
tRp4332
I00
S'http://web2py.com/plugins'
p4333
tp4334
a(g3987
(S's\x07\x00\x00\x00Layouts'
tRp4335
I00
S'http://web2py.com/layouts'
p4336
tp4337
a(g3987
(S's\x07\x00\x00\x00Recipes'
tRp4338
I00
S'http://web2pyslices.com/'
p4339
tp4340
a(g3987
(S's\x08\x00\x00\x00Semantic'
tRp4341
I00
S'http://web2py.com/semantic'
p4342
tp4343
aasbasbasbasbasbasbasbag61
(g77
g63
NtRp4344
(dp4345
g66
(dp4346
sg75
g4101
sg68
(lp4347
g61
(g82
g63
NtRp4348
(dp4349
g66
(dp4350
sg75
g4344
sg68
(lp4351
g61
(g62
g63
NtRp4352
(dp4353
g66
(dp4354
g74
I2
ssg75
g4348
sg68
(lp4355
g61
(g70
g63
NtRp4356
(dp4357
g66
(dp4358
g74
I1
ssg75
Nsg68
(lp4359
g61
(g77
g63
NtRp4360
(dp4361
g66
(dp4362
sg75
g4356
sg68
(lp4363
g61
(g82
g63
NtRp4364
(dp4365
g66
(dp4366
sg75
g4360
sg68
(lp4367
g61
(g62
g63
NtRp4368
(dp4369
g66
(dp4370
g74
I1
ssg75
g4364
sg68
(lp4371
g3987
(S's\r\x00\x00\x00Documentation'
tRp4372
asbasbasbag61
(g77
g63
NtRp4373
(dp4374
g66
(dp4375
sg75
g4356
sg68
(lp4376
g61
(g82
g63
NtRp4377
(dp4378
g66
(dp4379
sg75
g4373
sg68
(lp4380
g61
(g62
g63
NtRp4381
(dp4382
g66
(dp4383
g74
I1
ssg75
g4377
sg68
(lp4384
I00
asbasbasbag61
(g77
g63
NtRp4385
(dp4386
g66
(dp4387
sg75
g4356
sg68
(lp4388
g61
(g82
g63
NtRp4389
(dp4390
g66
(dp4391
sg75
g4385
sg68
(lp4392
g61
(g62
g63
NtRp4393
(dp4394
g66
(dp4395
g74
I1
ssg75
g4389
sg68
(lp4396
S'http://www.web2py.com/book'
p4397
asbasbasbag61
(g77
g63
NtRp4398
(dp4399
g66
(dp4400
sg75
g4356
sg68
(lp4401
g61
(g82
g63
NtRp4402
(dp4403
g66
(dp4404
sg75
g4398
sg68
(lp4405
g61
(g62
g63
NtRp4406
(dp4407
g66
(dp4408
g74
I1
ssg75
g4402
sg68
(lp4409
(lp4410
(g3987
(S's\x07\x00\x00\x00Preface'
tRp4411
I00
S'http://www.web2py.com/book/default/chapter/00'
p4412
tp4413
a(g3987
(S's\x0c\x00\x00\x00Introduction'
tRp4414
I00
S'http://www.web2py.com/book/default/chapter/01'
p4415
tp4416
a(g3987
(S's\x06\x00\x00\x00Python'
tRp4417
I00
S'http://www.web2py.com/book/default/chapter/02'
p4418
tp4419
a(g3987
(S's\x08\x00\x00\x00Overview'
tRp4420
I00
S'http://www.web2py.com/book/default/chapter/03'
p4421
tp4422
a(g3987
(S's\x08\x00\x00\x00The Core'
tRp4423
I00
S'http://www.web2py.com/book/default/chapter/04'
p4424
tp4425
a(g3987
(S's\t\x00\x00\x00The Views'
tRp4426
I00
S'http://www.web2py.com/book/default/chapter/05'
p4427
tp4428
a(g3987
(S's\x08\x00\x00\x00Database'
tRp4429
I00
S'http://www.web2py.com/book/default/chapter/06'
p4430
tp4431
a(g3987
(S's\x14\x00\x00\x00Forms and Validators'
tRp4432
I00
S'http://www.web2py.com/book/default/chapter/07'
p4433
tp4434
a(g3987
(S's\r\x00\x00\x00Email and SMS'
tRp4435
I00
S'http://www.web2py.com/book/default/chapter/08'
p4436
tp4437
a(g3987
(S's\x0e\x00\x00\x00Access Control'
tRp4438
I00
S'http://www.web2py.com/book/default/chapter/09'
p4439
tp4440
a(g3987
(S's\x08\x00\x00\x00Services'
tRp4441
I00
S'http://www.web2py.com/book/default/chapter/10'
p4442
tp4443
a(g3987
(S's\x0c\x00\x00\x00Ajax Recipes'
tRp4444
I00
S'http://www.web2py.com/book/default/chapter/11'
p4445
tp4446
a(g3987
(S's\x16\x00\x00\x00Components and Plugins'
tRp4447
I00
S'http://www.web2py.com/book/default/chapter/12'
p4448
tp4449
a(g3987
(S's\x12\x00\x00\x00Deployment Recipes'
tRp4450
I00
S'http://www.web2py.com/book/default/chapter/13'
p4451
tp4452
a(g3987
(S's\r\x00\x00\x00Other Recipes'
tRp4453
I00
S'http://www.web2py.com/book/default/chapter/14'
p4454
tp4455
a(g3987
(S's\r\x00\x00\x00Buy this book'
tRp4456
I00
S'http://stores.lulu.com/web2py'
p4457
tp4458
aasbasbasbasbasbasbasbag61
(g77
g63
NtRp4459
(dp4460
g66
(dp4461
sg75
g4101
sg68
(lp4462
g61
(g82
g63
NtRp4463
(dp4464
g66
(dp4465
sg75
g4459
sg68
(lp4466
g61
(g62
g63
NtRp4467
(dp4468
g66
(dp4469
g74
I2
ssg75
g4463
sg68
(lp4470
g61
(g70
g63
NtRp4471
(dp4472
g66
(dp4473
g74
I1
ssg75
Nsg68
(lp4474
g61
(g77
g63
NtRp4475
(dp4476
g66
(dp4477
sg75
g4471
sg68
(lp4478
g61
(g82
g63
NtRp4479
(dp4480
g66
(dp4481
sg75
g4475
sg68
(lp4482
g61
(g62
g63
NtRp4483
(dp4484
g66
(dp4485
g74
I1
ssg75
g4479
sg68
(lp4486
g3987
(S's\t\x00\x00\x00Community'
tRp4487
asbasbasbag61
(g77
g63
NtRp4488
(dp4489
g66
(dp4490
sg75
g4471
sg68
(lp4491
g61
(g82
g63
NtRp4492
(dp4493
g66
(dp4494
sg75
g4488
sg68
(lp4495
g61
(g62
g63
NtRp4496
(dp4497
g66
(dp4498
g74
I1
ssg75
g4492
sg68
(lp4499
I00
asbasbasbag61
(g77
g63
NtRp4500
(dp4501
g66
(dp4502
sg75
g4471
sg68
(lp4503
g61
(g82
g63
NtRp4504
(dp4505
g66
(dp4506
sg75
g4500
sg68
(lp4507
g61
(g62
g63
NtRp4508
(dp4509
g66
(dp4510
g74
I1
ssg75
g4504
sg68
(lp4511
Nasbasbasbag61
(g77
g63
NtRp4512
(dp4513
g66
(dp4514
sg75
g4471
sg68
(lp4515
g61
(g82
g63
NtRp4516
(dp4517
g66
(dp4518
sg75
g4512
sg68
(lp4519
g61
(g62
g63
NtRp4520
(dp4521
g66
(dp4522
g74
I1
ssg75
g4516
sg68
(lp4523
(lp4524
(g3987
(S's\x06\x00\x00\x00Groups'
tRp4525
I00
S'http://www.web2py.com/examples/default/usergroups'
p4526
tp4527
a(g3987
(S's\x07\x00\x00\x00Twitter'
tRp4528
I00
S'http://twitter.com/web2py'
p4529
tp4530
a(g3987
(S's\t\x00\x00\x00Live Chat'
tRp4531
I00
S'http://webchat.freenode.net/?channels=web2py'
p4532
tp4533
aasbasbasbasbasbasbasbag61
(g77
g63
NtRp4534
(dp4535
g66
(dp4536
sg75
g4101
sg68
(lp4537
g61
(g82
g63
NtRp4538
(dp4539
g66
(dp4540
sg75
g4534
sg68
(lp4541
g61
(g62
g63
NtRp4542
(dp4543
g66
(dp4544
g74
I2
ssg75
g4538
sg68
(lp4545
g61
(g70
g63
NtRp4546
(dp4547
g66
(dp4548
g74
I1
ssg75
Nsg68
(lp4549
g61
(g77
g63
NtRp4550
(dp4551
g66
(dp4552
sg75
g4546
sg68
(lp4553
g61
(g82
g63
NtRp4554
(dp4555
g66
(dp4556
sg75
g4550
sg68
(lp4557
g61
(g62
g63
NtRp4558
(dp4559
g66
(dp4560
g74
I1
ssg75
g4554
sg68
(lp4561
g3987
(S's\x07\x00\x00\x00Plugins'
tRp4562
asbasbasbag61
(g77
g63
NtRp4563
(dp4564
g66
(dp4565
sg75
g4546
sg68
(lp4566
g61
(g82
g63
NtRp4567
(dp4568
g66
(dp4569
sg75
g4563
sg68
(lp4570
g61
(g62
g63
NtRp4571
(dp4572
g66
(dp4573
g74
I1
ssg75
g4567
sg68
(lp4574
I00
asbasbasbag61
(g77
g63
NtRp4575
(dp4576
g66
(dp4577
sg75
g4546
sg68
(lp4578
g61
(g82
g63
NtRp4579
(dp4580
g66
(dp4581
sg75
g4575
sg68
(lp4582
g61
(g62
g63
NtRp4583
(dp4584
g66
(dp4585
g74
I1
ssg75
g4579
sg68
(lp4586
Nasbasbasbag61
(g77
g63
NtRp4587
(dp4588
g66
(dp4589
sg75
g4546
sg68
(lp4590
g61
(g82
g63
NtRp4591
(dp4592
g66
(dp4593
sg75
g4587
sg68
(lp4594
g61
(g62
g63
NtRp4595
(dp4596
g66
(dp4597
g74
I1
ssg75
g4591
sg68
(lp4598
(lp4599
(S'plugin_wiki'
p4600
I00
S'http://web2py.com/examples/default/download'
p4601
tp4602
a(g3987
(S's\r\x00\x00\x00Other Plugins'
tRp4603
I00
g4333
tp4604
a(g3987
(S's\x0e\x00\x00\x00Layout Plugins'
tRp4605
I00
g4336
tp4606
aasbasbasbasbasbasbasbasbasbasbasbasbasbasbasbasbasbasbasbag61
(g77
g63
NtRp4607
(dp4608
g66
(dp4609
sg75
g3451
sg68
(lp4610
g61
(g82
g63
NtRp4611
(dp4612
g66
(dp4613
g86
g87
ssg75
g4607
sg68
(lp4614
S'meta'
p4615
asbag61
(g82
g63
NtRp4616
(dp4617
g66
(dp4618
g93
g94
ssg75
g4607
sg68
(lp4619
S':'
asbag61
(g82
g63
NtRp4620
(dp4621
g66
(dp4622
sg75
g4607
sg68
(lp4623
g61
(g62
g63
NtRp4624
(dp4625
g66
(dp4626
g74
I5
ssg75
g4620
sg68
(lp4627
g61
(g70
g63
NtRp4628
(dp4629
g66
(dp4630
g74
I4
ssg75
Nsg68
(lp4631
g61
(g77
g63
NtRp4632
(dp4633
g66
(dp4634
sg75
g4628
sg68
(lp4635
g61
(g82
g63
NtRp4636
(dp4637
g66
(dp4638
g86
g87
ssg75
g4632
sg68
(lp4639
S'author'
p4640
asbag61
(g82
g63
NtRp4641
(dp4642
g66
(dp4643
g93
g94
ssg75
g4632
sg68
(lp4644
S':'
asbag61
(g82
g63
NtRp4645
(dp4646
g66
(dp4647
sg75
g4632
sg68
(lp4648
g61
(g62
g63
NtRp4649
(dp4650
g66
(dp4651
g74
I4
ssg75
g4645
sg68
(lp4652
S'Your Name <you@example.com>'
p4653
asbasbasbag61
(g77
g63
NtRp4654
(dp4655
g66
(dp4656
sg75
g4628
sg68
(lp4657
g61
(g82
g63
NtRp4658
(dp4659
g66
(dp4660
g86
g87
ssg75
g4654
sg68
(lp4661
S'copyright'
p4662
asbag61
(g82
g63
NtRp4663
(dp4664
g66
(dp4665
g93
g94
ssg75
g4654
sg68
(lp4666
S':'
asbag61
(g82
g63
NtRp4667
(dp4668
g66
(dp4669
sg75
g4654
sg68
(lp4670
g61
(g62
g63
NtRp4671
(dp4672
g66
(dp4673
g74
I4
ssg75
g4667
sg68
(lp4674
S'Copyright 2011'
p4675
asbasbasbag61
(g77
g63
NtRp4676
(dp4677
g66
(dp4678
sg75
g4628
sg68
(lp4679
g61
(g82
g63
NtRp4680
(dp4681
g66
(dp4682
g86
g87
ssg75
g4676
sg68
(lp4683
S'description'
p4684
asbag61
(g82
g63
NtRp4685
(dp4686
g66
(dp4687
g93
g94
ssg75
g4676
sg68
(lp4688
S':'
asbag61
(g82
g63
NtRp4689
(dp4690
g66
(dp4691
sg75
g4676
sg68
(lp4692
g61
(g62
g63
NtRp4693
(dp4694
g66
(dp4695
g74
I4
ssg75
g4689
sg68
(lp4696
S'a cool new app'
p4697
asbasbasbag61
(g77
g63
NtRp4698
(dp4699
g66
(dp4700
sg75
g4628
sg68
(lp4701
g61
(g82
g63
NtRp4702
(dp4703
g66
(dp4704
g86
g87
ssg75
g4698
sg68
(lp4705
S'generator'
p4706
asbag61
(g82
g63
NtRp4707
(dp4708
g66
(dp4709
g93
g94
ssg75
g4698
sg68
(lp4710
S':'
asbag61
(g82
g63
NtRp4711
(dp4712
g66
(dp4713
sg75
g4698
sg68
(lp4714
g61
(g62
g63
NtRp4715
(dp4716
g66
(dp4717
g74
I4
ssg75
g4711
sg68
(lp4718
S'Web2py Web Framework'
p4719
asbasbasbag61
(g77
g63
NtRp4720
(dp4721
g66
(dp4722
sg75
g4628
sg68
(lp4723
g61
(g82
g63
NtRp4724
(dp4725
g66
(dp4726
g86
g87
ssg75
g4720
sg68
(lp4727
S'keywords'
p4728
asbag61
(g82
g63
NtRp4729
(dp4730
g66
(dp4731
g93
g94
ssg75
g4720
sg68
(lp4732
S':'
asbag61
(g82
g63
NtRp4733
(dp4734
g66
(dp4735
sg75
g4720
sg68
(lp4736
g61
(g62
g63
NtRp4737
(dp4738
g66
(dp4739
g74
I4
ssg75
g4733
sg68
(lp4740
S'web2py, python, framework'
p4741
asbasbasbasbasbasbasbag61
(g77
g63
NtRp4742
(dp4743
g66
(dp4744
sg75
g3451
sg68
(lp4745
g61
(g82
g63
NtRp4746
(dp4747
g66
(dp4748
g86
g87
ssg75
g4742
sg68
(lp4749
S'postprocessing'
p4750
asbag61
(g82
g63
NtRp4751
(dp4752
g66
(dp4753
g93
g94
ssg75
g4742
sg68
(lp4754
S':'
asbag61
(g82
g63
NtRp4755
(dp4756
g66
(dp4757
sg75
g4742
sg68
(lp4758
g61
(g62
g63
NtRp4759
(dp4760
g66
(dp4761
g74
I5
ssg75
g4755
sg68
(lp4762
g61
(g70
g63
NtRp4763
(dp4764
g66
(dp4765
g74
I4
ssg75
Nsg68
(lp4766
sbasbasbasbag61
(g77
g63
NtRp4767
(dp4768
g66
(dp4769
sg75
g3451
sg68
(lp4770
g61
(g82
g63
NtRp4771
(dp4772
g66
(dp4773
g86
g87
ssg75
g4767
sg68
(lp4774
S'session_filename'
p4775
asbag61
(g82
g63
NtRp4776
(dp4777
g66
(dp4778
g93
g94
ssg75
g4767
sg68
(lp4779
S':'
asbag61
(g82
g63
NtRp4780
(dp4781
g66
(dp4782
sg75
g4767
sg68
(lp4783
g61
(g62
g63
NtRp4784
(dp4785
g66
(dp4786
g74
I5
ssg75
g4780
sg68
(lp4787
S'C:\\Users\\omkara\\Desktop\\web2py\\applications\\SlugBarter\\sessions\\127.0.0.1-b331e02a-78ae-45be-8bdf-9e6b320ad28a'
p4788
asbasbasbag61
(g77
g63
NtRp4789
(dp4790
g66
(dp4791
sg75
g3451
sg68
(lp4792
g61
(g82
g63
NtRp4793
(dp4794
g66
(dp4795
g86
g87
ssg75
g4789
sg68
(lp4796
S'session_id'
p4797
asbag61
(g82
g63
NtRp4798
(dp4799
g66
(dp4800
g93
g94
ssg75
g4789
sg68
(lp4801
S':'
asbag61
(g82
g63
NtRp4802
(dp4803
g66
(dp4804
sg75
g4789
sg68
(lp4805
g61
(g62
g63
NtRp4806
(dp4807
g66
(dp4808
g74
I5
ssg75
g4802
sg68
(lp4809
S'127.0.0.1-b331e02a-78ae-45be-8bdf-9e6b320ad28a'
p4810
asbasbasbag61
(g77
g63
NtRp4811
(dp4812
g66
(dp4813
sg75
g3451
sg68
(lp4814
g61
(g82
g63
NtRp4815
(dp4816
g66
(dp4817
g86
g87
ssg75
g4811
sg68
(lp4818
S'session_id_name'
p4819
asbag61
(g82
g63
NtRp4820
(dp4821
g66
(dp4822
g93
g94
ssg75
g4811
sg68
(lp4823
S':'
asbag61
(g82
g63
NtRp4824
(dp4825
g66
(dp4826
sg75
g4811
sg68
(lp4827
g61
(g62
g63
NtRp4828
(dp4829
g66
(dp4830
g74
I5
ssg75
g4824
sg68
(lp4831
g3508
asbasbasbag61
(g77
g63
NtRp4832
(dp4833
g66
(dp4834
sg75
g3451
sg68
(lp4835
g61
(g82
g63
NtRp4836
(dp4837
g66
(dp4838
g86
g87
ssg75
g4832
sg68
(lp4839
S'session_new'
p4840
asbag61
(g82
g63
NtRp4841
(dp4842
g66
(dp4843
g93
g94
ssg75
g4832
sg68
(lp4844
S':'
asbag61
(g82
g63
NtRp4845
(dp4846
g66
(dp4847
sg75
g4832
sg68
(lp4848
g61
(g62
g63
NtRp4849
(dp4850
g66
(dp4851
g74
I5
ssg75
g4845
sg68
(lp4852
g2094
asbasbasbag61
(g77
g63
NtRp4853
(dp4854
g66
(dp4855
sg75
g3451
sg68
(lp4856
g61
(g82
g63
NtRp4857
(dp4858
g66
(dp4859
g86
g87
ssg75
g4853
sg68
(lp4860
S'status'
p4861
asbag61
(g82
g63
NtRp4862
(dp4863
g66
(dp4864
g93
g94
ssg75
g4853
sg68
(lp4865
S':'
asbag61
(g82
g63
NtRp4866
(dp4867
g66
(dp4868
sg75
g4853
sg68
(lp4869
g61
(g62
g63
NtRp4870
(dp4871
g66
(dp4872
g74
I5
ssg75
g4866
sg68
(lp4873
S'200'
p4874
asbasbasbag61
(g77
g63
NtRp4875
(dp4876
g66
(dp4877
sg75
g3451
sg68
(lp4878
g61
(g82
g63
NtRp4879
(dp4880
g66
(dp4881
g86
g87
ssg75
g4875
sg68
(lp4882
S'subtitle'
p4883
asbag61
(g82
g63
NtRp4884
(dp4885
g66
(dp4886
g93
g94
ssg75
g4875
sg68
(lp4887
S':'
asbag61
(g82
g63
NtRp4888
(dp4889
g66
(dp4890
sg75
g4875
sg68
(lp4891
g61
(g62
g63
NtRp4892
(dp4893
g66
(dp4894
g74
I5
ssg75
g4888
sg68
(lp4895
g3987
(S's\r\x00\x00\x00customize me!'
tRp4896
asbasbasbag61
(g77
g63
NtRp4897
(dp4898
g66
(dp4899
sg75
g3451
sg68
(lp4900
g61
(g82
g63
NtRp4901
(dp4902
g66
(dp4903
g86
g87
ssg75
g4897
sg68
(lp4904
S'title'
p4905
asbag61
(g82
g63
NtRp4906
(dp4907
g66
(dp4908
g93
g94
ssg75
g4897
sg68
(lp4909
S':'
asbag61
(g82
g63
NtRp4910
(dp4911
g66
(dp4912
sg75
g4897
sg68
(lp4913
g61
(g62
g63
NtRp4914
(dp4915
g66
(dp4916
g74
I5
ssg75
g4910
sg68
(lp4917
S'Slugbarter'
p4918
asbasbasbag61
(g77
g63
NtRp4919
(dp4920
g66
(dp4921
sg75
g3451
sg68
(lp4922
g61
(g82
g63
NtRp4923
(dp4924
g66
(dp4925
g86
g87
ssg75
g4919
sg68
(lp4926
g2758
asbag61
(g82
g63
NtRp4927
(dp4928
g66
(dp4929
g93
g94
ssg75
g4919
sg68
(lp4930
S':'
asbag61
(g82
g63
NtRp4931
(dp4932
g66
(dp4933
sg75
g4919
sg68
(lp4934
g61
(g62
g63
NtRp4935
(dp4936
g66
(dp4937
g74
I5
ssg75
g4931
sg68
(lp4938
g2771
asbasbasbag61
(g77
g63
NtRp4939
(dp4940
g66
(dp4941
sg75
g3451
sg68
(lp4942
g61
(g82
g63
NtRp4943
(dp4944
g66
(dp4945
g86
g87
ssg75
g4939
sg68
(lp4946
S'view'
p4947
asbag61
(g82
g63
NtRp4948
(dp4949
g66
(dp4950
g93
g94
ssg75
g4939
sg68
(lp4951
S':'
asbag61
(g82
g63
NtRp4952
(dp4953
g66
(dp4954
sg75
g4939
sg68
(lp4955
g61
(g62
g63
NtRp4956
(dp4957
g66
(dp4958
g74
I5
ssg75
g4952
sg68
(lp4959
S'default/index.html'
p4960
asbasbasbasbasbsS'locals'
p4961
(dp4962
S'polymodel'
p4963
S'None'
p4964
sS'lowertablename'
p4965
S"'auth_user'"
p4966
sS'singular'
p4967
S"'Auth user'"
p4968
sS'migrate'
p4969
g2094
sS'fields'
p4970
S'(<gluon.dal.Field object at 0x063BDED0>, <gluon.dal.Field object at 0x0692C330>, <gluon.dal.Field object at 0x0692C590>, <gluon.dal.Field object at 0x0692CF50>, <gluon.dal.Field object at 0x0692C710>, <gluon.dal.Field object at 0x0692CA90>, <gluon.dal.Field object at 0x0692C890>, <gluon.dal.Field object at 0x0692C170>)'
p4971
sS'sequence_name'
p4972
S'None'
p4973
sg48
g21
sS'tablename'
p4974
S"'auth_user'"
p4975
sS'fake_migrate'
p4976
g104
sS'self'
p4977
S"<DAL {'auth_event': <Table {'origin': <gluon.dal..._key': <gluon.dal.Field object at 0x05E98210>}>}>"
p4978
sS'table_class'
p4979
S"<class 'gluon.dal.Table'>"
p4980
sS'format'
p4981
S'None'
p4982
sS'trigger_name'
p4983
S'None'
p4984
sS'plural'
p4985
S"'Auth users'"
p4986
sS'primarykey'
p4987
S'None'
p4988
sssS'traceback'
p4989
S'Traceback (most recent call last):\n  File "gluon/restricted.py", line 205, in restricted\n  File "C:\\Users\\omkara\\Desktop\\web2py\\applications\\SlugBarter\\models\\registerForm.py", line 18, in <module>\n  File "gluon/dal.py", line 6292, in define_table\nSyntaxError: invalid table name: auth_user\n'
p4990
s.