(dp1
S'output'
p2
S"<type 'exceptions.KeyError'> 'listings'"
p3
sS'layer'
p4
S'C:\\Users\\omkara\\Desktop\\web2py\\applications\\SlugBarter\\controllers/default.py'
p5
sS'code'
p6
S'# -*- coding: utf-8 -*-\n# this file is released under public domain and you can use without limitations\n\n#########################################################################\n## This is a samples controller\n## - index is the default action of any application\n## - user is required for authentication and authorization\n## - download is for downloading files uploaded in the db (does streaming)\n## - call exposes all registered services (none by default)\n#########################################################################\n\n#controller for when the user is at index page\ndef index():\n  return dict()\n    \n#controller for when the user registers\ndef register():\n    return dict(form = auth.register())\n   \n#controller for when the user login\ndef login(): \n  form = auth.login()\n  session.userName = form.vars.name\n  return dict(form = form)\n    \ndef mypage():\n    username = session.userName\n    return dict(username = username)\n    \n@auth.requires_login()   \ndef postlisting():\n    form = SQLFORM(db.listing)\n    if form.process().accepted:\n        session.flash = T(\'Accepted\')\n    elif form.errors:\n        session.flash = T(\'Form has errors\')\n    else:\n        session.flash = T("Please complete all the information in the form")\n        \n    return dict(form = form)\n\n@auth.requires_login()\ndef view_my_listings():\n    query = (db.listings.user == auth.user_id)\n    lists = db(query).select(db.listings.ALL)\n    return dict(lists = lists)\n\n\ndef user():\n    """\n    exposes:\n    http://..../[app]/default/user/login\n    http://..../[app]/default/user/logout\n    http://..../[app]/default/user/register\n    http://..../[app]/default/user/profile\n    http://..../[app]/default/user/retrieve_password\n    http://..../[app]/default/user/change_password\n    use @auth.requires_login()\n        @auth.requires_membership(\'group name\')\n        @auth.requires_permission(\'read\',\'table name\',record_id)\n    to decorate functions that need access control\n    """\n    return dict(form=auth())\n\n\ndef download():\n    """\n    allows downloading of uploaded files\n    http://..../[app]/default/download/[filename]\n    """\n    return response.download(request,db)\n\n\ndef call():\n    """\n    exposes services. for example:\n    http://..../[app]/default/call/jsonrpc\n    decorate with @services.jsonrpc the functions to expose\n    supports xml, json, xmlrpc, jsonrpc, amfrpc, rss, csv\n    """\n    return service()\n\n\n@auth.requires_signature()\ndef data():\n    """\n    http://..../[app]/default/data/tables\n    http://..../[app]/default/data/create/[table]\n    http://..../[app]/default/data/read/[table]/[id]\n    http://..../[app]/default/data/update/[table]/[id]\n    http://..../[app]/default/data/delete/[table]/[id]\n    http://..../[app]/default/data/select/[table]\n    http://..../[app]/default/data/search/[table]\n    but URLs must be signed, i.e. linked with\n      A(\'table\',_href=URL(\'data/tables\',user_signature=True))\n    or with the signed load operator\n      LOAD(\'default\',\'data.load\',args=\'tables\',ajax=True,user_signature=True)\n    """\n    return dict(form=crud())\n\nresponse._vars=response._caller(view_my_listings)\n'
p7
sS'snapshot'
p8
(dp9
S'exception'
p10
(dp11
S'__hash__'
p12
S"<method-wrapper '__hash__' of exceptions.KeyError object at 0x064D6558>"
p13
sS'__setattr__'
p14
S"<method-wrapper '__setattr__' of exceptions.KeyError object at 0x064D6558>"
p15
sS'__reduce_ex__'
p16
S'<built-in method __reduce_ex__ of exceptions.KeyError object at 0x064D6558>'
p17
sS'__getslice__'
p18
S"<method-wrapper '__getslice__' of exceptions.KeyError object at 0x064D6558>"
p19
sS'__getitem__'
p20
S"<method-wrapper '__getitem__' of exceptions.KeyError object at 0x064D6558>"
p21
sS'__setstate__'
p22
S'<built-in method __setstate__ of exceptions.KeyError object at 0x064D6558>'
p23
sS'__reduce__'
p24
S'<built-in method __reduce__ of exceptions.KeyError object at 0x064D6558>'
p25
sS'__str__'
p26
S"<method-wrapper '__str__' of exceptions.KeyError object at 0x064D6558>"
p27
sS'args'
p28
S"('listings',)"
p29
sS'__getattribute__'
p30
S"<method-wrapper '__getattribute__' of exceptions.KeyError object at 0x064D6558>"
p31
sS'__class__'
p32
S"<type 'exceptions.KeyError'>"
p33
sS'__delattr__'
p34
S"<method-wrapper '__delattr__' of exceptions.KeyError object at 0x064D6558>"
p35
sS'__repr__'
p36
S"<method-wrapper '__repr__' of exceptions.KeyError object at 0x064D6558>"
p37
sS'__dict__'
p38
S'{}'
p39
sS'__doc__'
p40
S"'Mapping key not found.'"
p41
sS'__init__'
p42
S"<method-wrapper '__init__' of exceptions.KeyError object at 0x064D6558>"
p43
sS'__new__'
p44
S'<built-in method __new__ of type object at 0x1E1CDFB8>'
p45
ssS'evalue'
p46
S"'listings'"
p47
sS'request'
p48
ccopy_reg
_reconstructor
p49
(cgluon.html
BEAUTIFY
p50
c__builtin__
object
p51
NtRp52
(dp53
S'attributes'
p54
(dp55
sS'components'
p56
(lp57
g49
(cgluon.html
TABLE
p58
g51
NtRp59
(dp60
g54
(dp61
S'level'
p62
I5
ssS'parent'
p63
Nsg56
(lp64
g49
(cgluon.html
TR
p65
g51
NtRp66
(dp67
g54
(dp68
sg63
g59
sg56
(lp69
g49
(cgluon.html
TD
p70
g51
NtRp71
(dp72
g54
(dp73
S'_style'
p74
S'font-weight:bold;vertical-align:top'
p75
ssg63
g66
sg56
(lp76
S'ajax'
p77
asbag49
(g70
g51
NtRp78
(dp79
g54
(dp80
S'_valign'
p81
S'top'
p82
ssg63
g66
sg56
(lp83
S':'
asbag49
(g70
g51
NtRp84
(dp85
g54
(dp86
sg63
g66
sg56
(lp87
g49
(g50
g51
NtRp88
(dp89
g54
(dp90
g62
I5
ssg63
g84
sg56
(lp91
S'False'
p92
asbasbasbag49
(g65
g51
NtRp93
(dp94
g54
(dp95
sg63
g59
sg56
(lp96
g49
(g70
g51
NtRp97
(dp98
g54
(dp99
g74
g75
ssg63
g93
sg56
(lp100
S'application'
p101
asbag49
(g70
g51
NtRp102
(dp103
g54
(dp104
g81
g82
ssg63
g93
sg56
(lp105
S':'
asbag49
(g70
g51
NtRp106
(dp107
g54
(dp108
sg63
g93
sg56
(lp109
g49
(g50
g51
NtRp110
(dp111
g54
(dp112
g62
I5
ssg63
g106
sg56
(lp113
S'SlugBarter'
p114
asbasbasbag49
(g65
g51
NtRp115
(dp116
g54
(dp117
sg63
g59
sg56
(lp118
g49
(g70
g51
NtRp119
(dp120
g54
(dp121
g74
g75
ssg63
g115
sg56
(lp122
g28
asbag49
(g70
g51
NtRp123
(dp124
g54
(dp125
g81
g82
ssg63
g115
sg56
(lp126
S':'
asbag49
(g70
g51
NtRp127
(dp128
g54
(dp129
sg63
g115
sg56
(lp130
g49
(g50
g51
NtRp131
(dp132
g54
(dp133
g62
I5
ssg63
g127
sg56
(lp134
g49
(g58
g51
NtRp135
(dp136
g54
(dp137
g62
I4
ssg63
Nsg56
(lp138
sbasbasbasbag49
(g65
g51
NtRp139
(dp140
g54
(dp141
sg63
g59
sg56
(lp142
g49
(g70
g51
NtRp143
(dp144
g54
(dp145
g74
g75
ssg63
g139
sg56
(lp146
S'body'
p147
asbag49
(g70
g51
NtRp148
(dp149
g54
(dp150
g81
g82
ssg63
g139
sg56
(lp151
S':'
asbag49
(g70
g51
NtRp152
(dp153
g54
(dp154
sg63
g139
sg56
(lp155
g49
(g50
g51
NtRp156
(dp157
g54
(dp158
g62
I5
ssg63
g152
sg56
(lp159
S'<cStringIO.StringO object at 0x06297760>'
p160
asbasbasbag49
(g65
g51
NtRp161
(dp162
g54
(dp163
sg63
g59
sg56
(lp164
g49
(g70
g51
NtRp165
(dp166
g54
(dp167
g74
g75
ssg63
g161
sg56
(lp168
S'client'
p169
asbag49
(g70
g51
NtRp170
(dp171
g54
(dp172
g81
g82
ssg63
g161
sg56
(lp173
S':'
asbag49
(g70
g51
NtRp174
(dp175
g54
(dp176
sg63
g161
sg56
(lp177
g49
(g50
g51
NtRp178
(dp179
g54
(dp180
g62
I5
ssg63
g174
sg56
(lp181
S'127.0.0.1'
p182
asbasbasbag49
(g65
g51
NtRp183
(dp184
g54
(dp185
sg63
g59
sg56
(lp186
g49
(g70
g51
NtRp187
(dp188
g54
(dp189
g74
g75
ssg63
g183
sg56
(lp190
S'controller'
p191
asbag49
(g70
g51
NtRp192
(dp193
g54
(dp194
g81
g82
ssg63
g183
sg56
(lp195
S':'
asbag49
(g70
g51
NtRp196
(dp197
g54
(dp198
sg63
g183
sg56
(lp199
g49
(g50
g51
NtRp200
(dp201
g54
(dp202
g62
I5
ssg63
g196
sg56
(lp203
S'default'
p204
asbasbasbag49
(g65
g51
NtRp205
(dp206
g54
(dp207
sg63
g59
sg56
(lp208
g49
(g70
g51
NtRp209
(dp210
g54
(dp211
g74
g75
ssg63
g205
sg56
(lp212
S'cookies'
p213
asbag49
(g70
g51
NtRp214
(dp215
g54
(dp216
g81
g82
ssg63
g205
sg56
(lp217
S':'
asbag49
(g70
g51
NtRp218
(dp219
g54
(dp220
sg63
g205
sg56
(lp221
g49
(g50
g51
NtRp222
(dp223
g54
(dp224
g62
I5
ssg63
g218
sg56
(lp225
g49
(g58
g51
NtRp226
(dp227
g54
(dp228
g62
I4
ssg63
Nsg56
(lp229
g49
(g65
g51
NtRp230
(dp231
g54
(dp232
sg63
g226
sg56
(lp233
g49
(g70
g51
NtRp234
(dp235
g54
(dp236
g74
g75
ssg63
g230
sg56
(lp237
S'session_id_admin'
p238
asbag49
(g70
g51
NtRp239
(dp240
g54
(dp241
g81
g82
ssg63
g230
sg56
(lp242
S':'
asbag49
(g70
g51
NtRp243
(dp244
g54
(dp245
sg63
g230
sg56
(lp246
g49
(g50
g51
NtRp247
(dp248
g54
(dp249
g62
I4
ssg63
g243
sg56
(lp250
g49
(g58
g51
NtRp251
(dp252
g54
(dp253
g62
I3
ssg63
Nsg56
(lp254
g49
(g65
g51
NtRp255
(dp256
g54
(dp257
sg63
g251
sg56
(lp258
g49
(g70
g51
NtRp259
(dp260
g54
(dp261
g74
g75
ssg63
g255
sg56
(lp262
S'comment'
p263
asbag49
(g70
g51
NtRp264
(dp265
g54
(dp266
g81
g82
ssg63
g255
sg56
(lp267
S':'
asbag49
(g70
g51
NtRp268
(dp269
g54
(dp270
sg63
g255
sg56
(lp271
g49
(g50
g51
NtRp272
(dp273
g54
(dp274
g62
I3
ssg63
g268
sg56
(lp275
S''
asbasbasbag49
(g65
g51
NtRp276
(dp277
g54
(dp278
sg63
g251
sg56
(lp279
g49
(g70
g51
NtRp280
(dp281
g54
(dp282
g74
g75
ssg63
g276
sg56
(lp283
S'domain'
p284
asbag49
(g70
g51
NtRp285
(dp286
g54
(dp287
g81
g82
ssg63
g276
sg56
(lp288
S':'
asbag49
(g70
g51
NtRp289
(dp290
g54
(dp291
sg63
g276
sg56
(lp292
g49
(g50
g51
NtRp293
(dp294
g54
(dp295
g62
I3
ssg63
g289
sg56
(lp296
S''
asbasbasbag49
(g65
g51
NtRp297
(dp298
g54
(dp299
sg63
g251
sg56
(lp300
g49
(g70
g51
NtRp301
(dp302
g54
(dp303
g74
g75
ssg63
g297
sg56
(lp304
S'expires'
p305
asbag49
(g70
g51
NtRp306
(dp307
g54
(dp308
g81
g82
ssg63
g297
sg56
(lp309
S':'
asbag49
(g70
g51
NtRp310
(dp311
g54
(dp312
sg63
g297
sg56
(lp313
g49
(g50
g51
NtRp314
(dp315
g54
(dp316
g62
I3
ssg63
g310
sg56
(lp317
S''
asbasbasbag49
(g65
g51
NtRp318
(dp319
g54
(dp320
sg63
g251
sg56
(lp321
g49
(g70
g51
NtRp322
(dp323
g54
(dp324
g74
g75
ssg63
g318
sg56
(lp325
S'max-age'
p326
asbag49
(g70
g51
NtRp327
(dp328
g54
(dp329
g81
g82
ssg63
g318
sg56
(lp330
S':'
asbag49
(g70
g51
NtRp331
(dp332
g54
(dp333
sg63
g318
sg56
(lp334
g49
(g50
g51
NtRp335
(dp336
g54
(dp337
g62
I3
ssg63
g331
sg56
(lp338
S''
asbasbasbag49
(g65
g51
NtRp339
(dp340
g54
(dp341
sg63
g251
sg56
(lp342
g49
(g70
g51
NtRp343
(dp344
g54
(dp345
g74
g75
ssg63
g339
sg56
(lp346
S'path'
p347
asbag49
(g70
g51
NtRp348
(dp349
g54
(dp350
g81
g82
ssg63
g339
sg56
(lp351
S':'
asbag49
(g70
g51
NtRp352
(dp353
g54
(dp354
sg63
g339
sg56
(lp355
g49
(g50
g51
NtRp356
(dp357
g54
(dp358
g62
I3
ssg63
g352
sg56
(lp359
S''
asbasbasbag49
(g65
g51
NtRp360
(dp361
g54
(dp362
sg63
g251
sg56
(lp363
g49
(g70
g51
NtRp364
(dp365
g54
(dp366
g74
g75
ssg63
g360
sg56
(lp367
S'secure'
p368
asbag49
(g70
g51
NtRp369
(dp370
g54
(dp371
g81
g82
ssg63
g360
sg56
(lp372
S':'
asbag49
(g70
g51
NtRp373
(dp374
g54
(dp375
sg63
g360
sg56
(lp376
g49
(g50
g51
NtRp377
(dp378
g54
(dp379
g62
I3
ssg63
g373
sg56
(lp380
S''
asbasbasbag49
(g65
g51
NtRp381
(dp382
g54
(dp383
sg63
g251
sg56
(lp384
g49
(g70
g51
NtRp385
(dp386
g54
(dp387
g74
g75
ssg63
g381
sg56
(lp388
S'version'
p389
asbag49
(g70
g51
NtRp390
(dp391
g54
(dp392
g81
g82
ssg63
g381
sg56
(lp393
S':'
asbag49
(g70
g51
NtRp394
(dp395
g54
(dp396
sg63
g381
sg56
(lp397
g49
(g50
g51
NtRp398
(dp399
g54
(dp400
g62
I3
ssg63
g394
sg56
(lp401
S''
asbasbasbasbasbasbasbag49
(g65
g51
NtRp402
(dp403
g54
(dp404
sg63
g226
sg56
(lp405
g49
(g70
g51
NtRp406
(dp407
g54
(dp408
g74
g75
ssg63
g402
sg56
(lp409
S'session_id_onlinenotes_p1_'
p410
asbag49
(g70
g51
NtRp411
(dp412
g54
(dp413
g81
g82
ssg63
g402
sg56
(lp414
S':'
asbag49
(g70
g51
NtRp415
(dp416
g54
(dp417
sg63
g402
sg56
(lp418
g49
(g50
g51
NtRp419
(dp420
g54
(dp421
g62
I4
ssg63
g415
sg56
(lp422
g49
(g58
g51
NtRp423
(dp424
g54
(dp425
g62
I3
ssg63
Nsg56
(lp426
g49
(g65
g51
NtRp427
(dp428
g54
(dp429
sg63
g423
sg56
(lp430
g49
(g70
g51
NtRp431
(dp432
g54
(dp433
g74
g75
ssg63
g427
sg56
(lp434
g263
asbag49
(g70
g51
NtRp435
(dp436
g54
(dp437
g81
g82
ssg63
g427
sg56
(lp438
S':'
asbag49
(g70
g51
NtRp439
(dp440
g54
(dp441
sg63
g427
sg56
(lp442
g49
(g50
g51
NtRp443
(dp444
g54
(dp445
g62
I3
ssg63
g439
sg56
(lp446
S''
asbasbasbag49
(g65
g51
NtRp447
(dp448
g54
(dp449
sg63
g423
sg56
(lp450
g49
(g70
g51
NtRp451
(dp452
g54
(dp453
g74
g75
ssg63
g447
sg56
(lp454
g284
asbag49
(g70
g51
NtRp455
(dp456
g54
(dp457
g81
g82
ssg63
g447
sg56
(lp458
S':'
asbag49
(g70
g51
NtRp459
(dp460
g54
(dp461
sg63
g447
sg56
(lp462
g49
(g50
g51
NtRp463
(dp464
g54
(dp465
g62
I3
ssg63
g459
sg56
(lp466
S''
asbasbasbag49
(g65
g51
NtRp467
(dp468
g54
(dp469
sg63
g423
sg56
(lp470
g49
(g70
g51
NtRp471
(dp472
g54
(dp473
g74
g75
ssg63
g467
sg56
(lp474
g305
asbag49
(g70
g51
NtRp475
(dp476
g54
(dp477
g81
g82
ssg63
g467
sg56
(lp478
S':'
asbag49
(g70
g51
NtRp479
(dp480
g54
(dp481
sg63
g467
sg56
(lp482
g49
(g50
g51
NtRp483
(dp484
g54
(dp485
g62
I3
ssg63
g479
sg56
(lp486
S''
asbasbasbag49
(g65
g51
NtRp487
(dp488
g54
(dp489
sg63
g423
sg56
(lp490
g49
(g70
g51
NtRp491
(dp492
g54
(dp493
g74
g75
ssg63
g487
sg56
(lp494
g326
asbag49
(g70
g51
NtRp495
(dp496
g54
(dp497
g81
g82
ssg63
g487
sg56
(lp498
S':'
asbag49
(g70
g51
NtRp499
(dp500
g54
(dp501
sg63
g487
sg56
(lp502
g49
(g50
g51
NtRp503
(dp504
g54
(dp505
g62
I3
ssg63
g499
sg56
(lp506
S''
asbasbasbag49
(g65
g51
NtRp507
(dp508
g54
(dp509
sg63
g423
sg56
(lp510
g49
(g70
g51
NtRp511
(dp512
g54
(dp513
g74
g75
ssg63
g507
sg56
(lp514
g347
asbag49
(g70
g51
NtRp515
(dp516
g54
(dp517
g81
g82
ssg63
g507
sg56
(lp518
S':'
asbag49
(g70
g51
NtRp519
(dp520
g54
(dp521
sg63
g507
sg56
(lp522
g49
(g50
g51
NtRp523
(dp524
g54
(dp525
g62
I3
ssg63
g519
sg56
(lp526
S''
asbasbasbag49
(g65
g51
NtRp527
(dp528
g54
(dp529
sg63
g423
sg56
(lp530
g49
(g70
g51
NtRp531
(dp532
g54
(dp533
g74
g75
ssg63
g527
sg56
(lp534
g368
asbag49
(g70
g51
NtRp535
(dp536
g54
(dp537
g81
g82
ssg63
g527
sg56
(lp538
S':'
asbag49
(g70
g51
NtRp539
(dp540
g54
(dp541
sg63
g527
sg56
(lp542
g49
(g50
g51
NtRp543
(dp544
g54
(dp545
g62
I3
ssg63
g539
sg56
(lp546
S''
asbasbasbag49
(g65
g51
NtRp547
(dp548
g54
(dp549
sg63
g423
sg56
(lp550
g49
(g70
g51
NtRp551
(dp552
g54
(dp553
g74
g75
ssg63
g547
sg56
(lp554
g389
asbag49
(g70
g51
NtRp555
(dp556
g54
(dp557
g81
g82
ssg63
g547
sg56
(lp558
S':'
asbag49
(g70
g51
NtRp559
(dp560
g54
(dp561
sg63
g547
sg56
(lp562
g49
(g50
g51
NtRp563
(dp564
g54
(dp565
g62
I3
ssg63
g559
sg56
(lp566
S''
asbasbasbasbasbasbasbag49
(g65
g51
NtRp567
(dp568
g54
(dp569
sg63
g226
sg56
(lp570
g49
(g70
g51
NtRp571
(dp572
g54
(dp573
g74
g75
ssg63
g567
sg56
(lp574
S'session_id_slug_register_page'
p575
asbag49
(g70
g51
NtRp576
(dp577
g54
(dp578
g81
g82
ssg63
g567
sg56
(lp579
S':'
asbag49
(g70
g51
NtRp580
(dp581
g54
(dp582
sg63
g567
sg56
(lp583
g49
(g50
g51
NtRp584
(dp585
g54
(dp586
g62
I4
ssg63
g580
sg56
(lp587
g49
(g58
g51
NtRp588
(dp589
g54
(dp590
g62
I3
ssg63
Nsg56
(lp591
g49
(g65
g51
NtRp592
(dp593
g54
(dp594
sg63
g588
sg56
(lp595
g49
(g70
g51
NtRp596
(dp597
g54
(dp598
g74
g75
ssg63
g592
sg56
(lp599
g263
asbag49
(g70
g51
NtRp600
(dp601
g54
(dp602
g81
g82
ssg63
g592
sg56
(lp603
S':'
asbag49
(g70
g51
NtRp604
(dp605
g54
(dp606
sg63
g592
sg56
(lp607
g49
(g50
g51
NtRp608
(dp609
g54
(dp610
g62
I3
ssg63
g604
sg56
(lp611
S''
asbasbasbag49
(g65
g51
NtRp612
(dp613
g54
(dp614
sg63
g588
sg56
(lp615
g49
(g70
g51
NtRp616
(dp617
g54
(dp618
g74
g75
ssg63
g612
sg56
(lp619
g284
asbag49
(g70
g51
NtRp620
(dp621
g54
(dp622
g81
g82
ssg63
g612
sg56
(lp623
S':'
asbag49
(g70
g51
NtRp624
(dp625
g54
(dp626
sg63
g612
sg56
(lp627
g49
(g50
g51
NtRp628
(dp629
g54
(dp630
g62
I3
ssg63
g624
sg56
(lp631
S''
asbasbasbag49
(g65
g51
NtRp632
(dp633
g54
(dp634
sg63
g588
sg56
(lp635
g49
(g70
g51
NtRp636
(dp637
g54
(dp638
g74
g75
ssg63
g632
sg56
(lp639
g305
asbag49
(g70
g51
NtRp640
(dp641
g54
(dp642
g81
g82
ssg63
g632
sg56
(lp643
S':'
asbag49
(g70
g51
NtRp644
(dp645
g54
(dp646
sg63
g632
sg56
(lp647
g49
(g50
g51
NtRp648
(dp649
g54
(dp650
g62
I3
ssg63
g644
sg56
(lp651
S''
asbasbasbag49
(g65
g51
NtRp652
(dp653
g54
(dp654
sg63
g588
sg56
(lp655
g49
(g70
g51
NtRp656
(dp657
g54
(dp658
g74
g75
ssg63
g652
sg56
(lp659
g326
asbag49
(g70
g51
NtRp660
(dp661
g54
(dp662
g81
g82
ssg63
g652
sg56
(lp663
S':'
asbag49
(g70
g51
NtRp664
(dp665
g54
(dp666
sg63
g652
sg56
(lp667
g49
(g50
g51
NtRp668
(dp669
g54
(dp670
g62
I3
ssg63
g664
sg56
(lp671
S''
asbasbasbag49
(g65
g51
NtRp672
(dp673
g54
(dp674
sg63
g588
sg56
(lp675
g49
(g70
g51
NtRp676
(dp677
g54
(dp678
g74
g75
ssg63
g672
sg56
(lp679
g347
asbag49
(g70
g51
NtRp680
(dp681
g54
(dp682
g81
g82
ssg63
g672
sg56
(lp683
S':'
asbag49
(g70
g51
NtRp684
(dp685
g54
(dp686
sg63
g672
sg56
(lp687
g49
(g50
g51
NtRp688
(dp689
g54
(dp690
g62
I3
ssg63
g684
sg56
(lp691
S''
asbasbasbag49
(g65
g51
NtRp692
(dp693
g54
(dp694
sg63
g588
sg56
(lp695
g49
(g70
g51
NtRp696
(dp697
g54
(dp698
g74
g75
ssg63
g692
sg56
(lp699
g368
asbag49
(g70
g51
NtRp700
(dp701
g54
(dp702
g81
g82
ssg63
g692
sg56
(lp703
S':'
asbag49
(g70
g51
NtRp704
(dp705
g54
(dp706
sg63
g692
sg56
(lp707
g49
(g50
g51
NtRp708
(dp709
g54
(dp710
g62
I3
ssg63
g704
sg56
(lp711
S''
asbasbasbag49
(g65
g51
NtRp712
(dp713
g54
(dp714
sg63
g588
sg56
(lp715
g49
(g70
g51
NtRp716
(dp717
g54
(dp718
g74
g75
ssg63
g712
sg56
(lp719
g389
asbag49
(g70
g51
NtRp720
(dp721
g54
(dp722
g81
g82
ssg63
g712
sg56
(lp723
S':'
asbag49
(g70
g51
NtRp724
(dp725
g54
(dp726
sg63
g712
sg56
(lp727
g49
(g50
g51
NtRp728
(dp729
g54
(dp730
g62
I3
ssg63
g724
sg56
(lp731
S''
asbasbasbasbasbasbasbag49
(g65
g51
NtRp732
(dp733
g54
(dp734
sg63
g226
sg56
(lp735
g49
(g70
g51
NtRp736
(dp737
g54
(dp738
g74
g75
ssg63
g732
sg56
(lp739
S'session_id_slugbarter'
p740
asbag49
(g70
g51
NtRp741
(dp742
g54
(dp743
g81
g82
ssg63
g732
sg56
(lp744
S':'
asbag49
(g70
g51
NtRp745
(dp746
g54
(dp747
sg63
g732
sg56
(lp748
g49
(g50
g51
NtRp749
(dp750
g54
(dp751
g62
I4
ssg63
g745
sg56
(lp752
g49
(g58
g51
NtRp753
(dp754
g54
(dp755
g62
I3
ssg63
Nsg56
(lp756
g49
(g65
g51
NtRp757
(dp758
g54
(dp759
sg63
g753
sg56
(lp760
g49
(g70
g51
NtRp761
(dp762
g54
(dp763
g74
g75
ssg63
g757
sg56
(lp764
g263
asbag49
(g70
g51
NtRp765
(dp766
g54
(dp767
g81
g82
ssg63
g757
sg56
(lp768
S':'
asbag49
(g70
g51
NtRp769
(dp770
g54
(dp771
sg63
g757
sg56
(lp772
g49
(g50
g51
NtRp773
(dp774
g54
(dp775
g62
I3
ssg63
g769
sg56
(lp776
S''
asbasbasbag49
(g65
g51
NtRp777
(dp778
g54
(dp779
sg63
g753
sg56
(lp780
g49
(g70
g51
NtRp781
(dp782
g54
(dp783
g74
g75
ssg63
g777
sg56
(lp784
g284
asbag49
(g70
g51
NtRp785
(dp786
g54
(dp787
g81
g82
ssg63
g777
sg56
(lp788
S':'
asbag49
(g70
g51
NtRp789
(dp790
g54
(dp791
sg63
g777
sg56
(lp792
g49
(g50
g51
NtRp793
(dp794
g54
(dp795
g62
I3
ssg63
g789
sg56
(lp796
S''
asbasbasbag49
(g65
g51
NtRp797
(dp798
g54
(dp799
sg63
g753
sg56
(lp800
g49
(g70
g51
NtRp801
(dp802
g54
(dp803
g74
g75
ssg63
g797
sg56
(lp804
g305
asbag49
(g70
g51
NtRp805
(dp806
g54
(dp807
g81
g82
ssg63
g797
sg56
(lp808
S':'
asbag49
(g70
g51
NtRp809
(dp810
g54
(dp811
sg63
g797
sg56
(lp812
g49
(g50
g51
NtRp813
(dp814
g54
(dp815
g62
I3
ssg63
g809
sg56
(lp816
S''
asbasbasbag49
(g65
g51
NtRp817
(dp818
g54
(dp819
sg63
g753
sg56
(lp820
g49
(g70
g51
NtRp821
(dp822
g54
(dp823
g74
g75
ssg63
g817
sg56
(lp824
g326
asbag49
(g70
g51
NtRp825
(dp826
g54
(dp827
g81
g82
ssg63
g817
sg56
(lp828
S':'
asbag49
(g70
g51
NtRp829
(dp830
g54
(dp831
sg63
g817
sg56
(lp832
g49
(g50
g51
NtRp833
(dp834
g54
(dp835
g62
I3
ssg63
g829
sg56
(lp836
S''
asbasbasbag49
(g65
g51
NtRp837
(dp838
g54
(dp839
sg63
g753
sg56
(lp840
g49
(g70
g51
NtRp841
(dp842
g54
(dp843
g74
g75
ssg63
g837
sg56
(lp844
g347
asbag49
(g70
g51
NtRp845
(dp846
g54
(dp847
g81
g82
ssg63
g837
sg56
(lp848
S':'
asbag49
(g70
g51
NtRp849
(dp850
g54
(dp851
sg63
g837
sg56
(lp852
g49
(g50
g51
NtRp853
(dp854
g54
(dp855
g62
I3
ssg63
g849
sg56
(lp856
S''
asbasbasbag49
(g65
g51
NtRp857
(dp858
g54
(dp859
sg63
g753
sg56
(lp860
g49
(g70
g51
NtRp861
(dp862
g54
(dp863
g74
g75
ssg63
g857
sg56
(lp864
g368
asbag49
(g70
g51
NtRp865
(dp866
g54
(dp867
g81
g82
ssg63
g857
sg56
(lp868
S':'
asbag49
(g70
g51
NtRp869
(dp870
g54
(dp871
sg63
g857
sg56
(lp872
g49
(g50
g51
NtRp873
(dp874
g54
(dp875
g62
I3
ssg63
g869
sg56
(lp876
S''
asbasbasbag49
(g65
g51
NtRp877
(dp878
g54
(dp879
sg63
g753
sg56
(lp880
g49
(g70
g51
NtRp881
(dp882
g54
(dp883
g74
g75
ssg63
g877
sg56
(lp884
g389
asbag49
(g70
g51
NtRp885
(dp886
g54
(dp887
g81
g82
ssg63
g877
sg56
(lp888
S':'
asbag49
(g70
g51
NtRp889
(dp890
g54
(dp891
sg63
g877
sg56
(lp892
g49
(g50
g51
NtRp893
(dp894
g54
(dp895
g62
I3
ssg63
g889
sg56
(lp896
S''
asbasbasbasbasbasbasbag49
(g65
g51
NtRp897
(dp898
g54
(dp899
sg63
g226
sg56
(lp900
g49
(g70
g51
NtRp901
(dp902
g54
(dp903
g74
g75
ssg63
g897
sg56
(lp904
S'session_id_testapp'
p905
asbag49
(g70
g51
NtRp906
(dp907
g54
(dp908
g81
g82
ssg63
g897
sg56
(lp909
S':'
asbag49
(g70
g51
NtRp910
(dp911
g54
(dp912
sg63
g897
sg56
(lp913
g49
(g50
g51
NtRp914
(dp915
g54
(dp916
g62
I4
ssg63
g910
sg56
(lp917
g49
(g58
g51
NtRp918
(dp919
g54
(dp920
g62
I3
ssg63
Nsg56
(lp921
g49
(g65
g51
NtRp922
(dp923
g54
(dp924
sg63
g918
sg56
(lp925
g49
(g70
g51
NtRp926
(dp927
g54
(dp928
g74
g75
ssg63
g922
sg56
(lp929
g263
asbag49
(g70
g51
NtRp930
(dp931
g54
(dp932
g81
g82
ssg63
g922
sg56
(lp933
S':'
asbag49
(g70
g51
NtRp934
(dp935
g54
(dp936
sg63
g922
sg56
(lp937
g49
(g50
g51
NtRp938
(dp939
g54
(dp940
g62
I3
ssg63
g934
sg56
(lp941
S''
asbasbasbag49
(g65
g51
NtRp942
(dp943
g54
(dp944
sg63
g918
sg56
(lp945
g49
(g70
g51
NtRp946
(dp947
g54
(dp948
g74
g75
ssg63
g942
sg56
(lp949
g284
asbag49
(g70
g51
NtRp950
(dp951
g54
(dp952
g81
g82
ssg63
g942
sg56
(lp953
S':'
asbag49
(g70
g51
NtRp954
(dp955
g54
(dp956
sg63
g942
sg56
(lp957
g49
(g50
g51
NtRp958
(dp959
g54
(dp960
g62
I3
ssg63
g954
sg56
(lp961
S''
asbasbasbag49
(g65
g51
NtRp962
(dp963
g54
(dp964
sg63
g918
sg56
(lp965
g49
(g70
g51
NtRp966
(dp967
g54
(dp968
g74
g75
ssg63
g962
sg56
(lp969
g305
asbag49
(g70
g51
NtRp970
(dp971
g54
(dp972
g81
g82
ssg63
g962
sg56
(lp973
S':'
asbag49
(g70
g51
NtRp974
(dp975
g54
(dp976
sg63
g962
sg56
(lp977
g49
(g50
g51
NtRp978
(dp979
g54
(dp980
g62
I3
ssg63
g974
sg56
(lp981
S''
asbasbasbag49
(g65
g51
NtRp982
(dp983
g54
(dp984
sg63
g918
sg56
(lp985
g49
(g70
g51
NtRp986
(dp987
g54
(dp988
g74
g75
ssg63
g982
sg56
(lp989
g326
asbag49
(g70
g51
NtRp990
(dp991
g54
(dp992
g81
g82
ssg63
g982
sg56
(lp993
S':'
asbag49
(g70
g51
NtRp994
(dp995
g54
(dp996
sg63
g982
sg56
(lp997
g49
(g50
g51
NtRp998
(dp999
g54
(dp1000
g62
I3
ssg63
g994
sg56
(lp1001
S''
asbasbasbag49
(g65
g51
NtRp1002
(dp1003
g54
(dp1004
sg63
g918
sg56
(lp1005
g49
(g70
g51
NtRp1006
(dp1007
g54
(dp1008
g74
g75
ssg63
g1002
sg56
(lp1009
g347
asbag49
(g70
g51
NtRp1010
(dp1011
g54
(dp1012
g81
g82
ssg63
g1002
sg56
(lp1013
S':'
asbag49
(g70
g51
NtRp1014
(dp1015
g54
(dp1016
sg63
g1002
sg56
(lp1017
g49
(g50
g51
NtRp1018
(dp1019
g54
(dp1020
g62
I3
ssg63
g1014
sg56
(lp1021
S''
asbasbasbag49
(g65
g51
NtRp1022
(dp1023
g54
(dp1024
sg63
g918
sg56
(lp1025
g49
(g70
g51
NtRp1026
(dp1027
g54
(dp1028
g74
g75
ssg63
g1022
sg56
(lp1029
g368
asbag49
(g70
g51
NtRp1030
(dp1031
g54
(dp1032
g81
g82
ssg63
g1022
sg56
(lp1033
S':'
asbag49
(g70
g51
NtRp1034
(dp1035
g54
(dp1036
sg63
g1022
sg56
(lp1037
g49
(g50
g51
NtRp1038
(dp1039
g54
(dp1040
g62
I3
ssg63
g1034
sg56
(lp1041
S''
asbasbasbag49
(g65
g51
NtRp1042
(dp1043
g54
(dp1044
sg63
g918
sg56
(lp1045
g49
(g70
g51
NtRp1046
(dp1047
g54
(dp1048
g74
g75
ssg63
g1042
sg56
(lp1049
g389
asbag49
(g70
g51
NtRp1050
(dp1051
g54
(dp1052
g81
g82
ssg63
g1042
sg56
(lp1053
S':'
asbag49
(g70
g51
NtRp1054
(dp1055
g54
(dp1056
sg63
g1042
sg56
(lp1057
g49
(g50
g51
NtRp1058
(dp1059
g54
(dp1060
g62
I3
ssg63
g1054
sg56
(lp1061
S''
asbasbasbasbasbasbasbag49
(g65
g51
NtRp1062
(dp1063
g54
(dp1064
sg63
g226
sg56
(lp1065
g49
(g70
g51
NtRp1066
(dp1067
g54
(dp1068
g74
g75
ssg63
g1062
sg56
(lp1069
S'session_id_welcome'
p1070
asbag49
(g70
g51
NtRp1071
(dp1072
g54
(dp1073
g81
g82
ssg63
g1062
sg56
(lp1074
S':'
asbag49
(g70
g51
NtRp1075
(dp1076
g54
(dp1077
sg63
g1062
sg56
(lp1078
g49
(g50
g51
NtRp1079
(dp1080
g54
(dp1081
g62
I4
ssg63
g1075
sg56
(lp1082
g49
(g58
g51
NtRp1083
(dp1084
g54
(dp1085
g62
I3
ssg63
Nsg56
(lp1086
g49
(g65
g51
NtRp1087
(dp1088
g54
(dp1089
sg63
g1083
sg56
(lp1090
g49
(g70
g51
NtRp1091
(dp1092
g54
(dp1093
g74
g75
ssg63
g1087
sg56
(lp1094
g263
asbag49
(g70
g51
NtRp1095
(dp1096
g54
(dp1097
g81
g82
ssg63
g1087
sg56
(lp1098
S':'
asbag49
(g70
g51
NtRp1099
(dp1100
g54
(dp1101
sg63
g1087
sg56
(lp1102
g49
(g50
g51
NtRp1103
(dp1104
g54
(dp1105
g62
I3
ssg63
g1099
sg56
(lp1106
S''
asbasbasbag49
(g65
g51
NtRp1107
(dp1108
g54
(dp1109
sg63
g1083
sg56
(lp1110
g49
(g70
g51
NtRp1111
(dp1112
g54
(dp1113
g74
g75
ssg63
g1107
sg56
(lp1114
g284
asbag49
(g70
g51
NtRp1115
(dp1116
g54
(dp1117
g81
g82
ssg63
g1107
sg56
(lp1118
S':'
asbag49
(g70
g51
NtRp1119
(dp1120
g54
(dp1121
sg63
g1107
sg56
(lp1122
g49
(g50
g51
NtRp1123
(dp1124
g54
(dp1125
g62
I3
ssg63
g1119
sg56
(lp1126
S''
asbasbasbag49
(g65
g51
NtRp1127
(dp1128
g54
(dp1129
sg63
g1083
sg56
(lp1130
g49
(g70
g51
NtRp1131
(dp1132
g54
(dp1133
g74
g75
ssg63
g1127
sg56
(lp1134
g305
asbag49
(g70
g51
NtRp1135
(dp1136
g54
(dp1137
g81
g82
ssg63
g1127
sg56
(lp1138
S':'
asbag49
(g70
g51
NtRp1139
(dp1140
g54
(dp1141
sg63
g1127
sg56
(lp1142
g49
(g50
g51
NtRp1143
(dp1144
g54
(dp1145
g62
I3
ssg63
g1139
sg56
(lp1146
S''
asbasbasbag49
(g65
g51
NtRp1147
(dp1148
g54
(dp1149
sg63
g1083
sg56
(lp1150
g49
(g70
g51
NtRp1151
(dp1152
g54
(dp1153
g74
g75
ssg63
g1147
sg56
(lp1154
g326
asbag49
(g70
g51
NtRp1155
(dp1156
g54
(dp1157
g81
g82
ssg63
g1147
sg56
(lp1158
S':'
asbag49
(g70
g51
NtRp1159
(dp1160
g54
(dp1161
sg63
g1147
sg56
(lp1162
g49
(g50
g51
NtRp1163
(dp1164
g54
(dp1165
g62
I3
ssg63
g1159
sg56
(lp1166
S''
asbasbasbag49
(g65
g51
NtRp1167
(dp1168
g54
(dp1169
sg63
g1083
sg56
(lp1170
g49
(g70
g51
NtRp1171
(dp1172
g54
(dp1173
g74
g75
ssg63
g1167
sg56
(lp1174
g347
asbag49
(g70
g51
NtRp1175
(dp1176
g54
(dp1177
g81
g82
ssg63
g1167
sg56
(lp1178
S':'
asbag49
(g70
g51
NtRp1179
(dp1180
g54
(dp1181
sg63
g1167
sg56
(lp1182
g49
(g50
g51
NtRp1183
(dp1184
g54
(dp1185
g62
I3
ssg63
g1179
sg56
(lp1186
S''
asbasbasbag49
(g65
g51
NtRp1187
(dp1188
g54
(dp1189
sg63
g1083
sg56
(lp1190
g49
(g70
g51
NtRp1191
(dp1192
g54
(dp1193
g74
g75
ssg63
g1187
sg56
(lp1194
g368
asbag49
(g70
g51
NtRp1195
(dp1196
g54
(dp1197
g81
g82
ssg63
g1187
sg56
(lp1198
S':'
asbag49
(g70
g51
NtRp1199
(dp1200
g54
(dp1201
sg63
g1187
sg56
(lp1202
g49
(g50
g51
NtRp1203
(dp1204
g54
(dp1205
g62
I3
ssg63
g1199
sg56
(lp1206
S''
asbasbasbag49
(g65
g51
NtRp1207
(dp1208
g54
(dp1209
sg63
g1083
sg56
(lp1210
g49
(g70
g51
NtRp1211
(dp1212
g54
(dp1213
g74
g75
ssg63
g1207
sg56
(lp1214
g389
asbag49
(g70
g51
NtRp1215
(dp1216
g54
(dp1217
g81
g82
ssg63
g1207
sg56
(lp1218
S':'
asbag49
(g70
g51
NtRp1219
(dp1220
g54
(dp1221
sg63
g1207
sg56
(lp1222
g49
(g50
g51
NtRp1223
(dp1224
g54
(dp1225
g62
I3
ssg63
g1219
sg56
(lp1226
S''
asbasbasbasbasbasbasbasbasbasbasbag49
(g65
g51
NtRp1227
(dp1228
g54
(dp1229
sg63
g59
sg56
(lp1230
g49
(g70
g51
NtRp1231
(dp1232
g54
(dp1233
g74
g75
ssg63
g1227
sg56
(lp1234
S'env'
p1235
asbag49
(g70
g51
NtRp1236
(dp1237
g54
(dp1238
g81
g82
ssg63
g1227
sg56
(lp1239
S':'
asbag49
(g70
g51
NtRp1240
(dp1241
g54
(dp1242
sg63
g1227
sg56
(lp1243
g49
(g50
g51
NtRp1244
(dp1245
g54
(dp1246
g62
I5
ssg63
g1240
sg56
(lp1247
g49
(g58
g51
NtRp1248
(dp1249
g54
(dp1250
g62
I4
ssg63
Nsg56
(lp1251
g49
(g65
g51
NtRp1252
(dp1253
g54
(dp1254
sg63
g1248
sg56
(lp1255
g49
(g70
g51
NtRp1256
(dp1257
g54
(dp1258
g74
g75
ssg63
g1252
sg56
(lp1259
S'app_folders'
p1260
asbag49
(g70
g51
NtRp1261
(dp1262
g54
(dp1263
g81
g82
ssg63
g1252
sg56
(lp1264
S':'
asbag49
(g70
g51
NtRp1265
(dp1266
g54
(dp1267
sg63
g1252
sg56
(lp1268
g49
(g50
g51
NtRp1269
(dp1270
g54
(dp1271
g62
I4
ssg63
g1265
sg56
(lp1272
S"set(['C:\\\\Users\\\\omkara\\\\Desktop\\\\web2py\\\\applications\\\\newA\\\\', 'C:\\\\Users\\\\omkara\\\\Desktop\\\\web2py\\\\applications\\\\slug_register_page\\\\', 'C:\\\\Users\\\\omkara\\\\Desktop\\\\web2py\\\\applications\\\\admin\\\\', 'C:\\\\Users\\\\omkara\\\\Desktop\\\\web2py\\\\applications\\\\welcome\\\\', 'C:\\\\Users\\\\omkara\\\\Desktop\\\\web2py\\\\applications\\\\slug_register\\\\', 'C:\\\\Users\\\\omkara\\\\Desktop\\\\web2py\\\\applications\\\\OnlineNotes_p1_\\\\', 'C:\\\\Users\\\\omkara\\\\Desktop\\\\web2py\\\\applications\\\\SlugBarter\\\\', 'C:\\\\Users\\\\omkara\\\\Desktop\\\\web2py\\\\applications\\\\testApp\\\\'])"
p1273
asbasbasbag49
(g65
g51
NtRp1274
(dp1275
g54
(dp1276
sg63
g1248
sg56
(lp1277
g49
(g70
g51
NtRp1278
(dp1279
g54
(dp1280
g74
g75
ssg63
g1274
sg56
(lp1281
S'applications_parent'
p1282
asbag49
(g70
g51
NtRp1283
(dp1284
g54
(dp1285
g81
g82
ssg63
g1274
sg56
(lp1286
S':'
asbag49
(g70
g51
NtRp1287
(dp1288
g54
(dp1289
sg63
g1274
sg56
(lp1290
g49
(g50
g51
NtRp1291
(dp1292
g54
(dp1293
g62
I4
ssg63
g1287
sg56
(lp1294
S'C:\\Users\\omkara\\Desktop\\web2py'
p1295
asbasbasbag49
(g65
g51
NtRp1296
(dp1297
g54
(dp1298
sg63
g1248
sg56
(lp1299
g49
(g70
g51
NtRp1300
(dp1301
g54
(dp1302
g74
g75
ssg63
g1296
sg56
(lp1303
S'cmd_args'
p1304
asbag49
(g70
g51
NtRp1305
(dp1306
g54
(dp1307
g81
g82
ssg63
g1296
sg56
(lp1308
S':'
asbag49
(g70
g51
NtRp1309
(dp1310
g54
(dp1311
sg63
g1296
sg56
(lp1312
g49
(g50
g51
NtRp1313
(dp1314
g54
(dp1315
g62
I4
ssg63
g1309
sg56
(lp1316
g49
(g58
g51
NtRp1317
(dp1318
g54
(dp1319
g62
I3
ssg63
Nsg56
(lp1320
sbasbasbasbag49
(g65
g51
NtRp1321
(dp1322
g54
(dp1323
sg63
g1248
sg56
(lp1324
g49
(g70
g51
NtRp1325
(dp1326
g54
(dp1327
g74
g75
ssg63
g1321
sg56
(lp1328
S'cmd_options'
p1329
asbag49
(g70
g51
NtRp1330
(dp1331
g54
(dp1332
g81
g82
ssg63
g1321
sg56
(lp1333
S':'
asbag49
(g70
g51
NtRp1334
(dp1335
g54
(dp1336
sg63
g1321
sg56
(lp1337
g49
(g50
g51
NtRp1338
(dp1339
g54
(dp1340
g62
I4
ssg63
g1334
sg56
(lp1341
S"<Values at 0x27b1f80: {'verbose': False, 'ip': '127.0.0.1', 'shutdown_timeout': 5, 'taskbar': False, 'nocron': False, 'pid_filename': 'httpserver.pid', 'maxthreads': None, 'softcron': False, 'server_name': 'omkara-PC', 'bpython': False, 'nogui': False, 'port': 8000, 'extcron': False, 'debuglevel': 30, 'test': None, 'folder': 'C:\\\\Users\\\\omkara\\\\Desktop\\\\web2py', 'config': '', 'import_models': False, 'winservice': '', 'shell': None, 'run': '', 'log_filename': 'httpserver.log', 'args': [''], 'socket_timeout': 5, 'ssl_ca_certificate': None, 'scheduler': None, 'profiler_filename': None, 'ssl_private_key': '', 'password': '<ask>', 'request_queue_size': 5, 'ssl_certificate': '', 'cronjob': False, 'numthreads': None, 'quiet': False, 'interfaces': None, 'minthreads': None, 'timeout': 10, 'plain': False, 'nobanner': False}>"
p1342
asbasbasbag49
(g65
g51
NtRp1343
(dp1344
g54
(dp1345
sg63
g1248
sg56
(lp1346
g49
(g70
g51
NtRp1347
(dp1348
g54
(dp1349
g74
g75
ssg63
g1343
sg56
(lp1350
S'db_sessions'
p1351
asbag49
(g70
g51
NtRp1352
(dp1353
g54
(dp1354
g81
g82
ssg63
g1343
sg56
(lp1355
S':'
asbag49
(g70
g51
NtRp1356
(dp1357
g54
(dp1358
sg63
g1343
sg56
(lp1359
g49
(g50
g51
NtRp1360
(dp1361
g54
(dp1362
g62
I4
ssg63
g1356
sg56
(lp1363
S'set([])'
p1364
asbasbasbag49
(g65
g51
NtRp1365
(dp1366
g54
(dp1367
sg63
g1248
sg56
(lp1368
g49
(g70
g51
NtRp1369
(dp1370
g54
(dp1371
g74
g75
ssg63
g1365
sg56
(lp1372
S'debugging'
p1373
asbag49
(g70
g51
NtRp1374
(dp1375
g54
(dp1376
g81
g82
ssg63
g1365
sg56
(lp1377
S':'
asbag49
(g70
g51
NtRp1378
(dp1379
g54
(dp1380
sg63
g1365
sg56
(lp1381
g49
(g50
g51
NtRp1382
(dp1383
g54
(dp1384
g62
I4
ssg63
g1378
sg56
(lp1385
g92
asbasbasbag49
(g65
g51
NtRp1386
(dp1387
g54
(dp1388
sg63
g1248
sg56
(lp1389
g49
(g70
g51
NtRp1390
(dp1391
g54
(dp1392
g74
g75
ssg63
g1386
sg56
(lp1393
S'gluon_parent'
p1394
asbag49
(g70
g51
NtRp1395
(dp1396
g54
(dp1397
g81
g82
ssg63
g1386
sg56
(lp1398
S':'
asbag49
(g70
g51
NtRp1399
(dp1400
g54
(dp1401
sg63
g1386
sg56
(lp1402
g49
(g50
g51
NtRp1403
(dp1404
g54
(dp1405
g62
I4
ssg63
g1399
sg56
(lp1406
S'C:\\Users\\omkara\\Desktop\\web2py'
p1407
asbasbasbag49
(g65
g51
NtRp1408
(dp1409
g54
(dp1410
sg63
g1248
sg56
(lp1411
g49
(g70
g51
NtRp1412
(dp1413
g54
(dp1414
g74
g75
ssg63
g1408
sg56
(lp1415
S'http_accept'
p1416
asbag49
(g70
g51
NtRp1417
(dp1418
g54
(dp1419
g81
g82
ssg63
g1408
sg56
(lp1420
S':'
asbag49
(g70
g51
NtRp1421
(dp1422
g54
(dp1423
sg63
g1408
sg56
(lp1424
g49
(g50
g51
NtRp1425
(dp1426
g54
(dp1427
g62
I4
ssg63
g1421
sg56
(lp1428
S'text/html,application/xhtml+xml,application/xml;q=0.9,*/*;q=0.8'
p1429
asbasbasbag49
(g65
g51
NtRp1430
(dp1431
g54
(dp1432
sg63
g1248
sg56
(lp1433
g49
(g70
g51
NtRp1434
(dp1435
g54
(dp1436
g74
g75
ssg63
g1430
sg56
(lp1437
S'http_accept_charset'
p1438
asbag49
(g70
g51
NtRp1439
(dp1440
g54
(dp1441
g81
g82
ssg63
g1430
sg56
(lp1442
S':'
asbag49
(g70
g51
NtRp1443
(dp1444
g54
(dp1445
sg63
g1430
sg56
(lp1446
g49
(g50
g51
NtRp1447
(dp1448
g54
(dp1449
g62
I4
ssg63
g1443
sg56
(lp1450
S'ISO-8859-1,utf-8;q=0.7,*;q=0.3'
p1451
asbasbasbag49
(g65
g51
NtRp1452
(dp1453
g54
(dp1454
sg63
g1248
sg56
(lp1455
g49
(g70
g51
NtRp1456
(dp1457
g54
(dp1458
g74
g75
ssg63
g1452
sg56
(lp1459
S'http_accept_encoding'
p1460
asbag49
(g70
g51
NtRp1461
(dp1462
g54
(dp1463
g81
g82
ssg63
g1452
sg56
(lp1464
S':'
asbag49
(g70
g51
NtRp1465
(dp1466
g54
(dp1467
sg63
g1452
sg56
(lp1468
g49
(g50
g51
NtRp1469
(dp1470
g54
(dp1471
g62
I4
ssg63
g1465
sg56
(lp1472
S'gzip,deflate,sdch'
p1473
asbasbasbag49
(g65
g51
NtRp1474
(dp1475
g54
(dp1476
sg63
g1248
sg56
(lp1477
g49
(g70
g51
NtRp1478
(dp1479
g54
(dp1480
g74
g75
ssg63
g1474
sg56
(lp1481
S'http_accept_language'
p1482
asbag49
(g70
g51
NtRp1483
(dp1484
g54
(dp1485
g81
g82
ssg63
g1474
sg56
(lp1486
S':'
asbag49
(g70
g51
NtRp1487
(dp1488
g54
(dp1489
sg63
g1474
sg56
(lp1490
g49
(g50
g51
NtRp1491
(dp1492
g54
(dp1493
g62
I4
ssg63
g1487
sg56
(lp1494
S'en-US,en;q=0.8'
p1495
asbasbasbag49
(g65
g51
NtRp1496
(dp1497
g54
(dp1498
sg63
g1248
sg56
(lp1499
g49
(g70
g51
NtRp1500
(dp1501
g54
(dp1502
g74
g75
ssg63
g1496
sg56
(lp1503
S'http_connection'
p1504
asbag49
(g70
g51
NtRp1505
(dp1506
g54
(dp1507
g81
g82
ssg63
g1496
sg56
(lp1508
S':'
asbag49
(g70
g51
NtRp1509
(dp1510
g54
(dp1511
sg63
g1496
sg56
(lp1512
g49
(g50
g51
NtRp1513
(dp1514
g54
(dp1515
g62
I4
ssg63
g1509
sg56
(lp1516
S'keep-alive'
p1517
asbasbasbag49
(g65
g51
NtRp1518
(dp1519
g54
(dp1520
sg63
g1248
sg56
(lp1521
g49
(g70
g51
NtRp1522
(dp1523
g54
(dp1524
g74
g75
ssg63
g1518
sg56
(lp1525
S'http_cookie'
p1526
asbag49
(g70
g51
NtRp1527
(dp1528
g54
(dp1529
g81
g82
ssg63
g1518
sg56
(lp1530
S':'
asbag49
(g70
g51
NtRp1531
(dp1532
g54
(dp1533
sg63
g1518
sg56
(lp1534
g49
(g50
g51
NtRp1535
(dp1536
g54
(dp1537
g62
I4
ssg63
g1531
sg56
(lp1538
S'session_id_slug_register_page=127.0.0.1-c2775933-22a4-419d-80e2-4c993aff45c7; session_id_welcome=127.0.0.1-a1b3016b-66b8-408b-ae8e-37231f35f16e; session_id_testapp=127.0.0.1-07eafbbd-d252-4b2b-84dc-0b0d16c3c06d; session_id_onlinenotes_p1_=127.0.0.1-2b1a349f-aa95-4718-93d5-e7df1c85d951; session_id_admin=127.0.0.1-dcf0163e-0560-4f31-a592-e577714771db; session_id_slugbarter=127.0.0.1-e6ebae72-1bbc-48a5-9458-95dbb65a4e54'
p1539
asbasbasbag49
(g65
g51
NtRp1540
(dp1541
g54
(dp1542
sg63
g1248
sg56
(lp1543
g49
(g70
g51
NtRp1544
(dp1545
g54
(dp1546
g74
g75
ssg63
g1540
sg56
(lp1547
S'http_host'
p1548
asbag49
(g70
g51
NtRp1549
(dp1550
g54
(dp1551
g81
g82
ssg63
g1540
sg56
(lp1552
S':'
asbag49
(g70
g51
NtRp1553
(dp1554
g54
(dp1555
sg63
g1540
sg56
(lp1556
g49
(g50
g51
NtRp1557
(dp1558
g54
(dp1559
g62
I4
ssg63
g1553
sg56
(lp1560
S'127.0.0.1:8000'
p1561
asbasbasbag49
(g65
g51
NtRp1562
(dp1563
g54
(dp1564
sg63
g1248
sg56
(lp1565
g49
(g70
g51
NtRp1566
(dp1567
g54
(dp1568
g74
g75
ssg63
g1562
sg56
(lp1569
S'http_referer'
p1570
asbag49
(g70
g51
NtRp1571
(dp1572
g54
(dp1573
g81
g82
ssg63
g1562
sg56
(lp1574
S':'
asbag49
(g70
g51
NtRp1575
(dp1576
g54
(dp1577
sg63
g1562
sg56
(lp1578
g49
(g50
g51
NtRp1579
(dp1580
g54
(dp1581
g62
I4
ssg63
g1575
sg56
(lp1582
S'http://127.0.0.1:8000/SlugBarter/default/mypage'
p1583
asbasbasbag49
(g65
g51
NtRp1584
(dp1585
g54
(dp1586
sg63
g1248
sg56
(lp1587
g49
(g70
g51
NtRp1588
(dp1589
g54
(dp1590
g74
g75
ssg63
g1584
sg56
(lp1591
S'http_user_agent'
p1592
asbag49
(g70
g51
NtRp1593
(dp1594
g54
(dp1595
g81
g82
ssg63
g1584
sg56
(lp1596
S':'
asbag49
(g70
g51
NtRp1597
(dp1598
g54
(dp1599
sg63
g1584
sg56
(lp1600
g49
(g50
g51
NtRp1601
(dp1602
g54
(dp1603
g62
I4
ssg63
g1597
sg56
(lp1604
S'Mozilla/5.0 (Windows NT 6.1) AppleWebKit/537.11 (KHTML, like Gecko) Chrome/23.0.1271.64 Safari/537.11'
p1605
asbasbasbag49
(g65
g51
NtRp1606
(dp1607
g54
(dp1608
sg63
g1248
sg56
(lp1609
g49
(g70
g51
NtRp1610
(dp1611
g54
(dp1612
g74
g75
ssg63
g1606
sg56
(lp1613
S'is_jython'
p1614
asbag49
(g70
g51
NtRp1615
(dp1616
g54
(dp1617
g81
g82
ssg63
g1606
sg56
(lp1618
S':'
asbag49
(g70
g51
NtRp1619
(dp1620
g54
(dp1621
sg63
g1606
sg56
(lp1622
g49
(g50
g51
NtRp1623
(dp1624
g54
(dp1625
g62
I4
ssg63
g1619
sg56
(lp1626
g92
asbasbasbag49
(g65
g51
NtRp1627
(dp1628
g54
(dp1629
sg63
g1248
sg56
(lp1630
g49
(g70
g51
NtRp1631
(dp1632
g54
(dp1633
g74
g75
ssg63
g1627
sg56
(lp1634
S'is_pypy'
p1635
asbag49
(g70
g51
NtRp1636
(dp1637
g54
(dp1638
g81
g82
ssg63
g1627
sg56
(lp1639
S':'
asbag49
(g70
g51
NtRp1640
(dp1641
g54
(dp1642
sg63
g1627
sg56
(lp1643
g49
(g50
g51
NtRp1644
(dp1645
g54
(dp1646
g62
I4
ssg63
g1640
sg56
(lp1647
g92
asbasbasbag49
(g65
g51
NtRp1648
(dp1649
g54
(dp1650
sg63
g1248
sg56
(lp1651
g49
(g70
g51
NtRp1652
(dp1653
g54
(dp1654
g74
g75
ssg63
g1648
sg56
(lp1655
S'path_info'
p1656
asbag49
(g70
g51
NtRp1657
(dp1658
g54
(dp1659
g81
g82
ssg63
g1648
sg56
(lp1660
S':'
asbag49
(g70
g51
NtRp1661
(dp1662
g54
(dp1663
sg63
g1648
sg56
(lp1664
g49
(g50
g51
NtRp1665
(dp1666
g54
(dp1667
g62
I4
ssg63
g1661
sg56
(lp1668
S'/SlugBarter/default/view_my_listings.html'
p1669
asbasbasbag49
(g65
g51
NtRp1670
(dp1671
g54
(dp1672
sg63
g1248
sg56
(lp1673
g49
(g70
g51
NtRp1674
(dp1675
g54
(dp1676
g74
g75
ssg63
g1670
sg56
(lp1677
S'query_string'
p1678
asbag49
(g70
g51
NtRp1679
(dp1680
g54
(dp1681
g81
g82
ssg63
g1670
sg56
(lp1682
S':'
asbag49
(g70
g51
NtRp1683
(dp1684
g54
(dp1685
sg63
g1670
sg56
(lp1686
g49
(g50
g51
NtRp1687
(dp1688
g54
(dp1689
g62
I4
ssg63
g1683
sg56
(lp1690
S''
asbasbasbag49
(g65
g51
NtRp1691
(dp1692
g54
(dp1693
sg63
g1248
sg56
(lp1694
g49
(g70
g51
NtRp1695
(dp1696
g54
(dp1697
g74
g75
ssg63
g1691
sg56
(lp1698
S'remote_addr'
p1699
asbag49
(g70
g51
NtRp1700
(dp1701
g54
(dp1702
g81
g82
ssg63
g1691
sg56
(lp1703
S':'
asbag49
(g70
g51
NtRp1704
(dp1705
g54
(dp1706
sg63
g1691
sg56
(lp1707
g49
(g50
g51
NtRp1708
(dp1709
g54
(dp1710
g62
I4
ssg63
g1704
sg56
(lp1711
g182
asbasbasbag49
(g65
g51
NtRp1712
(dp1713
g54
(dp1714
sg63
g1248
sg56
(lp1715
g49
(g70
g51
NtRp1716
(dp1717
g54
(dp1718
g74
g75
ssg63
g1712
sg56
(lp1719
S'remote_port'
p1720
asbag49
(g70
g51
NtRp1721
(dp1722
g54
(dp1723
g81
g82
ssg63
g1712
sg56
(lp1724
S':'
asbag49
(g70
g51
NtRp1725
(dp1726
g54
(dp1727
sg63
g1712
sg56
(lp1728
g49
(g50
g51
NtRp1729
(dp1730
g54
(dp1731
g62
I4
ssg63
g1725
sg56
(lp1732
S'50992'
p1733
asbasbasbag49
(g65
g51
NtRp1734
(dp1735
g54
(dp1736
sg63
g1248
sg56
(lp1737
g49
(g70
g51
NtRp1738
(dp1739
g54
(dp1740
g74
g75
ssg63
g1734
sg56
(lp1741
S'request_method'
p1742
asbag49
(g70
g51
NtRp1743
(dp1744
g54
(dp1745
g81
g82
ssg63
g1734
sg56
(lp1746
S':'
asbag49
(g70
g51
NtRp1747
(dp1748
g54
(dp1749
sg63
g1734
sg56
(lp1750
g49
(g50
g51
NtRp1751
(dp1752
g54
(dp1753
g62
I4
ssg63
g1747
sg56
(lp1754
S'GET'
p1755
asbasbasbag49
(g65
g51
NtRp1756
(dp1757
g54
(dp1758
sg63
g1248
sg56
(lp1759
g49
(g70
g51
NtRp1760
(dp1761
g54
(dp1762
g74
g75
ssg63
g1756
sg56
(lp1763
S'script_name'
p1764
asbag49
(g70
g51
NtRp1765
(dp1766
g54
(dp1767
g81
g82
ssg63
g1756
sg56
(lp1768
S':'
asbag49
(g70
g51
NtRp1769
(dp1770
g54
(dp1771
sg63
g1756
sg56
(lp1772
g49
(g50
g51
NtRp1773
(dp1774
g54
(dp1775
g62
I4
ssg63
g1769
sg56
(lp1776
S''
asbasbasbag49
(g65
g51
NtRp1777
(dp1778
g54
(dp1779
sg63
g1248
sg56
(lp1780
g49
(g70
g51
NtRp1781
(dp1782
g54
(dp1783
g74
g75
ssg63
g1777
sg56
(lp1784
S'server_name'
p1785
asbag49
(g70
g51
NtRp1786
(dp1787
g54
(dp1788
g81
g82
ssg63
g1777
sg56
(lp1789
S':'
asbag49
(g70
g51
NtRp1790
(dp1791
g54
(dp1792
sg63
g1777
sg56
(lp1793
g49
(g50
g51
NtRp1794
(dp1795
g54
(dp1796
g62
I4
ssg63
g1790
sg56
(lp1797
S'omkara-PC'
p1798
asbasbasbag49
(g65
g51
NtRp1799
(dp1800
g54
(dp1801
sg63
g1248
sg56
(lp1802
g49
(g70
g51
NtRp1803
(dp1804
g54
(dp1805
g74
g75
ssg63
g1799
sg56
(lp1806
S'server_port'
p1807
asbag49
(g70
g51
NtRp1808
(dp1809
g54
(dp1810
g81
g82
ssg63
g1799
sg56
(lp1811
S':'
asbag49
(g70
g51
NtRp1812
(dp1813
g54
(dp1814
sg63
g1799
sg56
(lp1815
g49
(g50
g51
NtRp1816
(dp1817
g54
(dp1818
g62
I4
ssg63
g1812
sg56
(lp1819
S'8000'
p1820
asbasbasbag49
(g65
g51
NtRp1821
(dp1822
g54
(dp1823
sg63
g1248
sg56
(lp1824
g49
(g70
g51
NtRp1825
(dp1826
g54
(dp1827
g74
g75
ssg63
g1821
sg56
(lp1828
S'server_protocol'
p1829
asbag49
(g70
g51
NtRp1830
(dp1831
g54
(dp1832
g81
g82
ssg63
g1821
sg56
(lp1833
S':'
asbag49
(g70
g51
NtRp1834
(dp1835
g54
(dp1836
sg63
g1821
sg56
(lp1837
g49
(g50
g51
NtRp1838
(dp1839
g54
(dp1840
g62
I4
ssg63
g1834
sg56
(lp1841
S'HTTP/1.1'
p1842
asbasbasbag49
(g65
g51
NtRp1843
(dp1844
g54
(dp1845
sg63
g1248
sg56
(lp1846
g49
(g70
g51
NtRp1847
(dp1848
g54
(dp1849
g74
g75
ssg63
g1843
sg56
(lp1850
S'server_software'
p1851
asbag49
(g70
g51
NtRp1852
(dp1853
g54
(dp1854
g81
g82
ssg63
g1843
sg56
(lp1855
S':'
asbag49
(g70
g51
NtRp1856
(dp1857
g54
(dp1858
sg63
g1843
sg56
(lp1859
g49
(g50
g51
NtRp1860
(dp1861
g54
(dp1862
g62
I4
ssg63
g1856
sg56
(lp1863
S'Rocket 1.2.4'
p1864
asbasbasbag49
(g65
g51
NtRp1865
(dp1866
g54
(dp1867
sg63
g1248
sg56
(lp1868
g49
(g70
g51
NtRp1869
(dp1870
g54
(dp1871
g74
g75
ssg63
g1865
sg56
(lp1872
S'web2py_crontype'
p1873
asbag49
(g70
g51
NtRp1874
(dp1875
g54
(dp1876
g81
g82
ssg63
g1865
sg56
(lp1877
S':'
asbag49
(g70
g51
NtRp1878
(dp1879
g54
(dp1880
sg63
g1865
sg56
(lp1881
g49
(g50
g51
NtRp1882
(dp1883
g54
(dp1884
g62
I4
ssg63
g1878
sg56
(lp1885
S'hard'
p1886
asbasbasbag49
(g65
g51
NtRp1887
(dp1888
g54
(dp1889
sg63
g1248
sg56
(lp1890
g49
(g70
g51
NtRp1891
(dp1892
g54
(dp1893
g74
g75
ssg63
g1887
sg56
(lp1894
S'web2py_path'
p1895
asbag49
(g70
g51
NtRp1896
(dp1897
g54
(dp1898
g81
g82
ssg63
g1887
sg56
(lp1899
S':'
asbag49
(g70
g51
NtRp1900
(dp1901
g54
(dp1902
sg63
g1887
sg56
(lp1903
g49
(g50
g51
NtRp1904
(dp1905
g54
(dp1906
g62
I4
ssg63
g1900
sg56
(lp1907
g1295
asbasbasbag49
(g65
g51
NtRp1908
(dp1909
g54
(dp1910
sg63
g1248
sg56
(lp1911
g49
(g70
g51
NtRp1912
(dp1913
g54
(dp1914
g74
g75
ssg63
g1908
sg56
(lp1915
S'web2py_version'
p1916
asbag49
(g70
g51
NtRp1917
(dp1918
g54
(dp1919
g81
g82
ssg63
g1908
sg56
(lp1920
S':'
asbag49
(g70
g51
NtRp1921
(dp1922
g54
(dp1923
sg63
g1908
sg56
(lp1924
g49
(g50
g51
NtRp1925
(dp1926
g54
(dp1927
g62
I4
ssg63
g1921
sg56
(lp1928
g49
(g58
g51
NtRp1929
(dp1930
g54
(dp1931
g62
I3
ssg63
Nsg56
(lp1932
g49
(g65
g51
NtRp1933
(dp1934
g54
(dp1935
sg63
g1929
sg56
(lp1936
g49
(g70
g51
NtRp1937
(dp1938
g54
(dp1939
sg63
g1933
sg56
(lp1940
g49
(g50
g51
NtRp1941
(dp1942
g54
(dp1943
g62
I3
ssg63
g1937
sg56
(lp1944
S'1'
asbasbasbag49
(g65
g51
NtRp1945
(dp1946
g54
(dp1947
sg63
g1929
sg56
(lp1948
g49
(g70
g51
NtRp1949
(dp1950
g54
(dp1951
sg63
g1945
sg56
(lp1952
g49
(g50
g51
NtRp1953
(dp1954
g54
(dp1955
g62
I3
ssg63
g1949
sg56
(lp1956
S'99'
p1957
asbasbasbag49
(g65
g51
NtRp1958
(dp1959
g54
(dp1960
sg63
g1929
sg56
(lp1961
g49
(g70
g51
NtRp1962
(dp1963
g54
(dp1964
sg63
g1958
sg56
(lp1965
g49
(g50
g51
NtRp1966
(dp1967
g54
(dp1968
g62
I3
ssg63
g1962
sg56
(lp1969
S'7'
asbasbasbag49
(g65
g51
NtRp1970
(dp1971
g54
(dp1972
sg63
g1929
sg56
(lp1973
g49
(g70
g51
NtRp1974
(dp1975
g54
(dp1976
sg63
g1970
sg56
(lp1977
g49
(g50
g51
NtRp1978
(dp1979
g54
(dp1980
g62
I3
ssg63
g1974
sg56
(lp1981
S'datetime.datetime(2012, 3, 4, 22, 12, 8)'
p1982
asbasbasbag49
(g65
g51
NtRp1983
(dp1984
g54
(dp1985
sg63
g1929
sg56
(lp1986
g49
(g70
g51
NtRp1987
(dp1988
g54
(dp1989
sg63
g1983
sg56
(lp1990
g49
(g50
g51
NtRp1991
(dp1992
g54
(dp1993
g62
I3
ssg63
g1987
sg56
(lp1994
S'stable'
p1995
asbasbasbasbasbasbasbag49
(g65
g51
NtRp1996
(dp1997
g54
(dp1998
sg63
g1248
sg56
(lp1999
g49
(g70
g51
NtRp2000
(dp2001
g54
(dp2002
g74
g75
ssg63
g1996
sg56
(lp2003
S'wsgi_errors'
p2004
asbag49
(g70
g51
NtRp2005
(dp2006
g54
(dp2007
g81
g82
ssg63
g1996
sg56
(lp2008
S':'
asbag49
(g70
g51
NtRp2009
(dp2010
g54
(dp2011
sg63
g1996
sg56
(lp2012
g49
(g50
g51
NtRp2013
(dp2014
g54
(dp2015
g62
I4
ssg63
g2009
sg56
(lp2016
S"<open file '<stderr>', mode 'w' at 0x016000B0>"
p2017
asbasbasbag49
(g65
g51
NtRp2018
(dp2019
g54
(dp2020
sg63
g1248
sg56
(lp2021
g49
(g70
g51
NtRp2022
(dp2023
g54
(dp2024
g74
g75
ssg63
g2018
sg56
(lp2025
S'wsgi_file_wrapper'
p2026
asbag49
(g70
g51
NtRp2027
(dp2028
g54
(dp2029
g81
g82
ssg63
g2018
sg56
(lp2030
S':'
asbag49
(g70
g51
NtRp2031
(dp2032
g54
(dp2033
sg63
g2018
sg56
(lp2034
g49
(g50
g51
NtRp2035
(dp2036
g54
(dp2037
g62
I4
ssg63
g2031
sg56
(lp2038
S'<class wsgiref.util.FileWrapper at 0x025361B0>'
p2039
asbasbasbag49
(g65
g51
NtRp2040
(dp2041
g54
(dp2042
sg63
g1248
sg56
(lp2043
g49
(g70
g51
NtRp2044
(dp2045
g54
(dp2046
g74
g75
ssg63
g2040
sg56
(lp2047
S'wsgi_input'
p2048
asbag49
(g70
g51
NtRp2049
(dp2050
g54
(dp2051
g81
g82
ssg63
g2040
sg56
(lp2052
S':'
asbag49
(g70
g51
NtRp2053
(dp2054
g54
(dp2055
sg63
g2040
sg56
(lp2056
g49
(g50
g51
NtRp2057
(dp2058
g54
(dp2059
g62
I4
ssg63
g2053
sg56
(lp2060
S'<socket._fileobject object at 0x066CBC70>'
p2061
asbasbasbag49
(g65
g51
NtRp2062
(dp2063
g54
(dp2064
sg63
g1248
sg56
(lp2065
g49
(g70
g51
NtRp2066
(dp2067
g54
(dp2068
g74
g75
ssg63
g2062
sg56
(lp2069
S'wsgi_multiprocess'
p2070
asbag49
(g70
g51
NtRp2071
(dp2072
g54
(dp2073
g81
g82
ssg63
g2062
sg56
(lp2074
S':'
asbag49
(g70
g51
NtRp2075
(dp2076
g54
(dp2077
sg63
g2062
sg56
(lp2078
g49
(g50
g51
NtRp2079
(dp2080
g54
(dp2081
g62
I4
ssg63
g2075
sg56
(lp2082
g92
asbasbasbag49
(g65
g51
NtRp2083
(dp2084
g54
(dp2085
sg63
g1248
sg56
(lp2086
g49
(g70
g51
NtRp2087
(dp2088
g54
(dp2089
g74
g75
ssg63
g2083
sg56
(lp2090
S'wsgi_multithread'
p2091
asbag49
(g70
g51
NtRp2092
(dp2093
g54
(dp2094
g81
g82
ssg63
g2083
sg56
(lp2095
S':'
asbag49
(g70
g51
NtRp2096
(dp2097
g54
(dp2098
sg63
g2083
sg56
(lp2099
g49
(g50
g51
NtRp2100
(dp2101
g54
(dp2102
g62
I4
ssg63
g2096
sg56
(lp2103
S'True'
p2104
asbasbasbag49
(g65
g51
NtRp2105
(dp2106
g54
(dp2107
sg63
g1248
sg56
(lp2108
g49
(g70
g51
NtRp2109
(dp2110
g54
(dp2111
g74
g75
ssg63
g2105
sg56
(lp2112
S'wsgi_run_once'
p2113
asbag49
(g70
g51
NtRp2114
(dp2115
g54
(dp2116
g81
g82
ssg63
g2105
sg56
(lp2117
S':'
asbag49
(g70
g51
NtRp2118
(dp2119
g54
(dp2120
sg63
g2105
sg56
(lp2121
g49
(g50
g51
NtRp2122
(dp2123
g54
(dp2124
g62
I4
ssg63
g2118
sg56
(lp2125
g92
asbasbasbag49
(g65
g51
NtRp2126
(dp2127
g54
(dp2128
sg63
g1248
sg56
(lp2129
g49
(g70
g51
NtRp2130
(dp2131
g54
(dp2132
g74
g75
ssg63
g2126
sg56
(lp2133
S'wsgi_url_scheme'
p2134
asbag49
(g70
g51
NtRp2135
(dp2136
g54
(dp2137
g81
g82
ssg63
g2126
sg56
(lp2138
S':'
asbag49
(g70
g51
NtRp2139
(dp2140
g54
(dp2141
sg63
g2126
sg56
(lp2142
g49
(g50
g51
NtRp2143
(dp2144
g54
(dp2145
g62
I4
ssg63
g2139
sg56
(lp2146
S'http'
p2147
asbasbasbag49
(g65
g51
NtRp2148
(dp2149
g54
(dp2150
sg63
g1248
sg56
(lp2151
g49
(g70
g51
NtRp2152
(dp2153
g54
(dp2154
g74
g75
ssg63
g2148
sg56
(lp2155
S'wsgi_version'
p2156
asbag49
(g70
g51
NtRp2157
(dp2158
g54
(dp2159
g81
g82
ssg63
g2148
sg56
(lp2160
S':'
asbag49
(g70
g51
NtRp2161
(dp2162
g54
(dp2163
sg63
g2148
sg56
(lp2164
g49
(g50
g51
NtRp2165
(dp2166
g54
(dp2167
g62
I4
ssg63
g2161
sg56
(lp2168
g49
(g58
g51
NtRp2169
(dp2170
g54
(dp2171
g62
I3
ssg63
Nsg56
(lp2172
g49
(g65
g51
NtRp2173
(dp2174
g54
(dp2175
sg63
g2169
sg56
(lp2176
g49
(g70
g51
NtRp2177
(dp2178
g54
(dp2179
sg63
g2173
sg56
(lp2180
g49
(g50
g51
NtRp2181
(dp2182
g54
(dp2183
g62
I3
ssg63
g2177
sg56
(lp2184
S'1'
asbasbasbag49
(g65
g51
NtRp2185
(dp2186
g54
(dp2187
sg63
g2169
sg56
(lp2188
g49
(g70
g51
NtRp2189
(dp2190
g54
(dp2191
sg63
g2185
sg56
(lp2192
g49
(g50
g51
NtRp2193
(dp2194
g54
(dp2195
g62
I3
ssg63
g2189
sg56
(lp2196
S'0'
asbasbasbasbasbasbasbasbasbasbasbag49
(g65
g51
NtRp2197
(dp2198
g54
(dp2199
sg63
g59
sg56
(lp2200
g49
(g70
g51
NtRp2201
(dp2202
g54
(dp2203
g74
g75
ssg63
g2197
sg56
(lp2204
S'extension'
p2205
asbag49
(g70
g51
NtRp2206
(dp2207
g54
(dp2208
g81
g82
ssg63
g2197
sg56
(lp2209
S':'
asbag49
(g70
g51
NtRp2210
(dp2211
g54
(dp2212
sg63
g2197
sg56
(lp2213
g49
(g50
g51
NtRp2214
(dp2215
g54
(dp2216
g62
I5
ssg63
g2210
sg56
(lp2217
S'html'
p2218
asbasbasbag49
(g65
g51
NtRp2219
(dp2220
g54
(dp2221
sg63
g59
sg56
(lp2222
g49
(g70
g51
NtRp2223
(dp2224
g54
(dp2225
g74
g75
ssg63
g2219
sg56
(lp2226
S'folder'
p2227
asbag49
(g70
g51
NtRp2228
(dp2229
g54
(dp2230
g81
g82
ssg63
g2219
sg56
(lp2231
S':'
asbag49
(g70
g51
NtRp2232
(dp2233
g54
(dp2234
sg63
g2219
sg56
(lp2235
g49
(g50
g51
NtRp2236
(dp2237
g54
(dp2238
g62
I5
ssg63
g2232
sg56
(lp2239
S'C:\\Users\\omkara\\Desktop\\web2py\\applications\\SlugBarter\\'
p2240
asbasbasbag49
(g65
g51
NtRp2241
(dp2242
g54
(dp2243
sg63
g59
sg56
(lp2244
g49
(g70
g51
NtRp2245
(dp2246
g54
(dp2247
g74
g75
ssg63
g2241
sg56
(lp2248
S'function'
p2249
asbag49
(g70
g51
NtRp2250
(dp2251
g54
(dp2252
g81
g82
ssg63
g2241
sg56
(lp2253
S':'
asbag49
(g70
g51
NtRp2254
(dp2255
g54
(dp2256
sg63
g2241
sg56
(lp2257
g49
(g50
g51
NtRp2258
(dp2259
g54
(dp2260
g62
I5
ssg63
g2254
sg56
(lp2261
S'view_my_listings'
p2262
asbasbasbag49
(g65
g51
NtRp2263
(dp2264
g54
(dp2265
sg63
g59
sg56
(lp2266
g49
(g70
g51
NtRp2267
(dp2268
g54
(dp2269
g74
g75
ssg63
g2263
sg56
(lp2270
S'get_vars'
p2271
asbag49
(g70
g51
NtRp2272
(dp2273
g54
(dp2274
g81
g82
ssg63
g2263
sg56
(lp2275
S':'
asbag49
(g70
g51
NtRp2276
(dp2277
g54
(dp2278
sg63
g2263
sg56
(lp2279
g49
(g50
g51
NtRp2280
(dp2281
g54
(dp2282
g62
I5
ssg63
g2276
sg56
(lp2283
g49
(g58
g51
NtRp2284
(dp2285
g54
(dp2286
g62
I4
ssg63
Nsg56
(lp2287
sbasbasbasbag49
(g65
g51
NtRp2288
(dp2289
g54
(dp2290
sg63
g59
sg56
(lp2291
g49
(g70
g51
NtRp2292
(dp2293
g54
(dp2294
g74
g75
ssg63
g2288
sg56
(lp2295
S'global_settings'
p2296
asbag49
(g70
g51
NtRp2297
(dp2298
g54
(dp2299
g81
g82
ssg63
g2288
sg56
(lp2300
S':'
asbag49
(g70
g51
NtRp2301
(dp2302
g54
(dp2303
sg63
g2288
sg56
(lp2304
g49
(g50
g51
NtRp2305
(dp2306
g54
(dp2307
g62
I5
ssg63
g2301
sg56
(lp2308
g49
(g58
g51
NtRp2309
(dp2310
g54
(dp2311
g62
I4
ssg63
Nsg56
(lp2312
g49
(g65
g51
NtRp2313
(dp2314
g54
(dp2315
sg63
g2309
sg56
(lp2316
g49
(g70
g51
NtRp2317
(dp2318
g54
(dp2319
g74
g75
ssg63
g2313
sg56
(lp2320
g1260
asbag49
(g70
g51
NtRp2321
(dp2322
g54
(dp2323
g81
g82
ssg63
g2313
sg56
(lp2324
S':'
asbag49
(g70
g51
NtRp2325
(dp2326
g54
(dp2327
sg63
g2313
sg56
(lp2328
g49
(g50
g51
NtRp2329
(dp2330
g54
(dp2331
g62
I4
ssg63
g2325
sg56
(lp2332
S"set(['C:\\\\Users\\\\omkara\\\\Desktop\\\\web2py\\\\applications\\\\newA\\\\', 'C:\\\\Users\\\\omkara\\\\Desktop\\\\web2py\\\\applications\\\\slug_register_page\\\\', 'C:\\\\Users\\\\omkara\\\\Desktop\\\\web2py\\\\applications\\\\admin\\\\', 'C:\\\\Users\\\\omkara\\\\Desktop\\\\web2py\\\\applications\\\\welcome\\\\', 'C:\\\\Users\\\\omkara\\\\Desktop\\\\web2py\\\\applications\\\\slug_register\\\\', 'C:\\\\Users\\\\omkara\\\\Desktop\\\\web2py\\\\applications\\\\OnlineNotes_p1_\\\\', 'C:\\\\Users\\\\omkara\\\\Desktop\\\\web2py\\\\applications\\\\SlugBarter\\\\', 'C:\\\\Users\\\\omkara\\\\Desktop\\\\web2py\\\\applications\\\\testApp\\\\'])"
p2333
asbasbasbag49
(g65
g51
NtRp2334
(dp2335
g54
(dp2336
sg63
g2309
sg56
(lp2337
g49
(g70
g51
NtRp2338
(dp2339
g54
(dp2340
g74
g75
ssg63
g2334
sg56
(lp2341
g1282
asbag49
(g70
g51
NtRp2342
(dp2343
g54
(dp2344
g81
g82
ssg63
g2334
sg56
(lp2345
S':'
asbag49
(g70
g51
NtRp2346
(dp2347
g54
(dp2348
sg63
g2334
sg56
(lp2349
g49
(g50
g51
NtRp2350
(dp2351
g54
(dp2352
g62
I4
ssg63
g2346
sg56
(lp2353
g1295
asbasbasbag49
(g65
g51
NtRp2354
(dp2355
g54
(dp2356
sg63
g2309
sg56
(lp2357
g49
(g70
g51
NtRp2358
(dp2359
g54
(dp2360
g74
g75
ssg63
g2354
sg56
(lp2361
g1304
asbag49
(g70
g51
NtRp2362
(dp2363
g54
(dp2364
g81
g82
ssg63
g2354
sg56
(lp2365
S':'
asbag49
(g70
g51
NtRp2366
(dp2367
g54
(dp2368
sg63
g2354
sg56
(lp2369
g49
(g50
g51
NtRp2370
(dp2371
g54
(dp2372
g62
I4
ssg63
g2366
sg56
(lp2373
g49
(g58
g51
NtRp2374
(dp2375
g54
(dp2376
g62
I3
ssg63
Nsg56
(lp2377
sbasbasbasbag49
(g65
g51
NtRp2378
(dp2379
g54
(dp2380
sg63
g2309
sg56
(lp2381
g49
(g70
g51
NtRp2382
(dp2383
g54
(dp2384
g74
g75
ssg63
g2378
sg56
(lp2385
g1329
asbag49
(g70
g51
NtRp2386
(dp2387
g54
(dp2388
g81
g82
ssg63
g2378
sg56
(lp2389
S':'
asbag49
(g70
g51
NtRp2390
(dp2391
g54
(dp2392
sg63
g2378
sg56
(lp2393
g49
(g50
g51
NtRp2394
(dp2395
g54
(dp2396
g62
I4
ssg63
g2390
sg56
(lp2397
S"<Values at 0x27b1f80: {'verbose': False, 'ip': '127.0.0.1', 'shutdown_timeout': 5, 'taskbar': False, 'nocron': False, 'pid_filename': 'httpserver.pid', 'maxthreads': None, 'softcron': False, 'server_name': 'omkara-PC', 'bpython': False, 'nogui': False, 'port': 8000, 'extcron': False, 'debuglevel': 30, 'test': None, 'folder': 'C:\\\\Users\\\\omkara\\\\Desktop\\\\web2py', 'config': '', 'import_models': False, 'winservice': '', 'shell': None, 'run': '', 'log_filename': 'httpserver.log', 'args': [''], 'socket_timeout': 5, 'ssl_ca_certificate': None, 'scheduler': None, 'profiler_filename': None, 'ssl_private_key': '', 'password': '<ask>', 'request_queue_size': 5, 'ssl_certificate': '', 'cronjob': False, 'numthreads': None, 'quiet': False, 'interfaces': None, 'minthreads': None, 'timeout': 10, 'plain': False, 'nobanner': False}>"
p2398
asbasbasbag49
(g65
g51
NtRp2399
(dp2400
g54
(dp2401
sg63
g2309
sg56
(lp2402
g49
(g70
g51
NtRp2403
(dp2404
g54
(dp2405
g74
g75
ssg63
g2399
sg56
(lp2406
g1351
asbag49
(g70
g51
NtRp2407
(dp2408
g54
(dp2409
g81
g82
ssg63
g2399
sg56
(lp2410
S':'
asbag49
(g70
g51
NtRp2411
(dp2412
g54
(dp2413
sg63
g2399
sg56
(lp2414
g49
(g50
g51
NtRp2415
(dp2416
g54
(dp2417
g62
I4
ssg63
g2411
sg56
(lp2418
S'set([])'
p2419
asbasbasbag49
(g65
g51
NtRp2420
(dp2421
g54
(dp2422
sg63
g2309
sg56
(lp2423
g49
(g70
g51
NtRp2424
(dp2425
g54
(dp2426
g74
g75
ssg63
g2420
sg56
(lp2427
g1373
asbag49
(g70
g51
NtRp2428
(dp2429
g54
(dp2430
g81
g82
ssg63
g2420
sg56
(lp2431
S':'
asbag49
(g70
g51
NtRp2432
(dp2433
g54
(dp2434
sg63
g2420
sg56
(lp2435
g49
(g50
g51
NtRp2436
(dp2437
g54
(dp2438
g62
I4
ssg63
g2432
sg56
(lp2439
g92
asbasbasbag49
(g65
g51
NtRp2440
(dp2441
g54
(dp2442
sg63
g2309
sg56
(lp2443
g49
(g70
g51
NtRp2444
(dp2445
g54
(dp2446
g74
g75
ssg63
g2440
sg56
(lp2447
g1394
asbag49
(g70
g51
NtRp2448
(dp2449
g54
(dp2450
g81
g82
ssg63
g2440
sg56
(lp2451
S':'
asbag49
(g70
g51
NtRp2452
(dp2453
g54
(dp2454
sg63
g2440
sg56
(lp2455
g49
(g50
g51
NtRp2456
(dp2457
g54
(dp2458
g62
I4
ssg63
g2452
sg56
(lp2459
g1407
asbasbasbag49
(g65
g51
NtRp2460
(dp2461
g54
(dp2462
sg63
g2309
sg56
(lp2463
g49
(g70
g51
NtRp2464
(dp2465
g54
(dp2466
g74
g75
ssg63
g2460
sg56
(lp2467
g1614
asbag49
(g70
g51
NtRp2468
(dp2469
g54
(dp2470
g81
g82
ssg63
g2460
sg56
(lp2471
S':'
asbag49
(g70
g51
NtRp2472
(dp2473
g54
(dp2474
sg63
g2460
sg56
(lp2475
g49
(g50
g51
NtRp2476
(dp2477
g54
(dp2478
g62
I4
ssg63
g2472
sg56
(lp2479
g92
asbasbasbag49
(g65
g51
NtRp2480
(dp2481
g54
(dp2482
sg63
g2309
sg56
(lp2483
g49
(g70
g51
NtRp2484
(dp2485
g54
(dp2486
g74
g75
ssg63
g2480
sg56
(lp2487
g1635
asbag49
(g70
g51
NtRp2488
(dp2489
g54
(dp2490
g81
g82
ssg63
g2480
sg56
(lp2491
S':'
asbag49
(g70
g51
NtRp2492
(dp2493
g54
(dp2494
sg63
g2480
sg56
(lp2495
g49
(g50
g51
NtRp2496
(dp2497
g54
(dp2498
g62
I4
ssg63
g2492
sg56
(lp2499
g92
asbasbasbag49
(g65
g51
NtRp2500
(dp2501
g54
(dp2502
sg63
g2309
sg56
(lp2503
g49
(g70
g51
NtRp2504
(dp2505
g54
(dp2506
g74
g75
ssg63
g2500
sg56
(lp2507
g1873
asbag49
(g70
g51
NtRp2508
(dp2509
g54
(dp2510
g81
g82
ssg63
g2500
sg56
(lp2511
S':'
asbag49
(g70
g51
NtRp2512
(dp2513
g54
(dp2514
sg63
g2500
sg56
(lp2515
g49
(g50
g51
NtRp2516
(dp2517
g54
(dp2518
g62
I4
ssg63
g2512
sg56
(lp2519
g1886
asbasbasbag49
(g65
g51
NtRp2520
(dp2521
g54
(dp2522
sg63
g2309
sg56
(lp2523
g49
(g70
g51
NtRp2524
(dp2525
g54
(dp2526
g74
g75
ssg63
g2520
sg56
(lp2527
g1916
asbag49
(g70
g51
NtRp2528
(dp2529
g54
(dp2530
g81
g82
ssg63
g2520
sg56
(lp2531
S':'
asbag49
(g70
g51
NtRp2532
(dp2533
g54
(dp2534
sg63
g2520
sg56
(lp2535
g49
(g50
g51
NtRp2536
(dp2537
g54
(dp2538
g62
I4
ssg63
g2532
sg56
(lp2539
g49
(g58
g51
NtRp2540
(dp2541
g54
(dp2542
g62
I3
ssg63
Nsg56
(lp2543
g49
(g65
g51
NtRp2544
(dp2545
g54
(dp2546
sg63
g2540
sg56
(lp2547
g49
(g70
g51
NtRp2548
(dp2549
g54
(dp2550
sg63
g2544
sg56
(lp2551
g49
(g50
g51
NtRp2552
(dp2553
g54
(dp2554
g62
I3
ssg63
g2548
sg56
(lp2555
S'1'
asbasbasbag49
(g65
g51
NtRp2556
(dp2557
g54
(dp2558
sg63
g2540
sg56
(lp2559
g49
(g70
g51
NtRp2560
(dp2561
g54
(dp2562
sg63
g2556
sg56
(lp2563
g49
(g50
g51
NtRp2564
(dp2565
g54
(dp2566
g62
I3
ssg63
g2560
sg56
(lp2567
S'99'
p2568
asbasbasbag49
(g65
g51
NtRp2569
(dp2570
g54
(dp2571
sg63
g2540
sg56
(lp2572
g49
(g70
g51
NtRp2573
(dp2574
g54
(dp2575
sg63
g2569
sg56
(lp2576
g49
(g50
g51
NtRp2577
(dp2578
g54
(dp2579
g62
I3
ssg63
g2573
sg56
(lp2580
S'7'
asbasbasbag49
(g65
g51
NtRp2581
(dp2582
g54
(dp2583
sg63
g2540
sg56
(lp2584
g49
(g70
g51
NtRp2585
(dp2586
g54
(dp2587
sg63
g2581
sg56
(lp2588
g49
(g50
g51
NtRp2589
(dp2590
g54
(dp2591
g62
I3
ssg63
g2585
sg56
(lp2592
S'datetime.datetime(2012, 3, 4, 22, 12, 8)'
p2593
asbasbasbag49
(g65
g51
NtRp2594
(dp2595
g54
(dp2596
sg63
g2540
sg56
(lp2597
g49
(g70
g51
NtRp2598
(dp2599
g54
(dp2600
sg63
g2594
sg56
(lp2601
g49
(g50
g51
NtRp2602
(dp2603
g54
(dp2604
g62
I3
ssg63
g2598
sg56
(lp2605
g1995
asbasbasbasbasbasbasbasbasbasbasbag49
(g65
g51
NtRp2606
(dp2607
g54
(dp2608
sg63
g59
sg56
(lp2609
g49
(g70
g51
NtRp2610
(dp2611
g54
(dp2612
g74
g75
ssg63
g2606
sg56
(lp2613
S'is_https'
p2614
asbag49
(g70
g51
NtRp2615
(dp2616
g54
(dp2617
g81
g82
ssg63
g2606
sg56
(lp2618
S':'
asbag49
(g70
g51
NtRp2619
(dp2620
g54
(dp2621
sg63
g2606
sg56
(lp2622
g49
(g50
g51
NtRp2623
(dp2624
g54
(dp2625
g62
I5
ssg63
g2619
sg56
(lp2626
g92
asbasbasbag49
(g65
g51
NtRp2627
(dp2628
g54
(dp2629
sg63
g59
sg56
(lp2630
g49
(g70
g51
NtRp2631
(dp2632
g54
(dp2633
g74
g75
ssg63
g2627
sg56
(lp2634
S'is_local'
p2635
asbag49
(g70
g51
NtRp2636
(dp2637
g54
(dp2638
g81
g82
ssg63
g2627
sg56
(lp2639
S':'
asbag49
(g70
g51
NtRp2640
(dp2641
g54
(dp2642
sg63
g2627
sg56
(lp2643
g49
(g50
g51
NtRp2644
(dp2645
g54
(dp2646
g62
I5
ssg63
g2640
sg56
(lp2647
g2104
asbasbasbag49
(g65
g51
NtRp2648
(dp2649
g54
(dp2650
sg63
g59
sg56
(lp2651
g49
(g70
g51
NtRp2652
(dp2653
g54
(dp2654
g74
g75
ssg63
g2648
sg56
(lp2655
S'is_restful'
p2656
asbag49
(g70
g51
NtRp2657
(dp2658
g54
(dp2659
g81
g82
ssg63
g2648
sg56
(lp2660
S':'
asbag49
(g70
g51
NtRp2661
(dp2662
g54
(dp2663
sg63
g2648
sg56
(lp2664
g49
(g50
g51
NtRp2665
(dp2666
g54
(dp2667
g62
I5
ssg63
g2661
sg56
(lp2668
g92
asbasbasbag49
(g65
g51
NtRp2669
(dp2670
g54
(dp2671
sg63
g59
sg56
(lp2672
g49
(g70
g51
NtRp2673
(dp2674
g54
(dp2675
g74
g75
ssg63
g2669
sg56
(lp2676
S'now'
p2677
asbag49
(g70
g51
NtRp2678
(dp2679
g54
(dp2680
g81
g82
ssg63
g2669
sg56
(lp2681
S':'
asbag49
(g70
g51
NtRp2682
(dp2683
g54
(dp2684
sg63
g2669
sg56
(lp2685
g49
(g50
g51
NtRp2686
(dp2687
g54
(dp2688
g62
I5
ssg63
g2682
sg56
(lp2689
S'datetime.datetime(2012, 11, 11, 19, 9, 7, 611000)'
p2690
asbasbasbag49
(g65
g51
NtRp2691
(dp2692
g54
(dp2693
sg63
g59
sg56
(lp2694
g49
(g70
g51
NtRp2695
(dp2696
g54
(dp2697
g74
g75
ssg63
g2691
sg56
(lp2698
S'post_vars'
p2699
asbag49
(g70
g51
NtRp2700
(dp2701
g54
(dp2702
g81
g82
ssg63
g2691
sg56
(lp2703
S':'
asbag49
(g70
g51
NtRp2704
(dp2705
g54
(dp2706
sg63
g2691
sg56
(lp2707
g49
(g50
g51
NtRp2708
(dp2709
g54
(dp2710
g62
I5
ssg63
g2704
sg56
(lp2711
g49
(g58
g51
NtRp2712
(dp2713
g54
(dp2714
g62
I4
ssg63
Nsg56
(lp2715
sbasbasbasbag49
(g65
g51
NtRp2716
(dp2717
g54
(dp2718
sg63
g59
sg56
(lp2719
g49
(g70
g51
NtRp2720
(dp2721
g54
(dp2722
g74
g75
ssg63
g2716
sg56
(lp2723
S'raw_extension'
p2724
asbag49
(g70
g51
NtRp2725
(dp2726
g54
(dp2727
g81
g82
ssg63
g2716
sg56
(lp2728
S':'
asbag49
(g70
g51
NtRp2729
(dp2730
g54
(dp2731
sg63
g2716
sg56
(lp2732
g49
(g50
g51
NtRp2733
(dp2734
g54
(dp2735
g62
I5
ssg63
g2729
sg56
(lp2736
g2218
asbasbasbag49
(g65
g51
NtRp2737
(dp2738
g54
(dp2739
sg63
g59
sg56
(lp2740
g49
(g70
g51
NtRp2741
(dp2742
g54
(dp2743
g74
g75
ssg63
g2737
sg56
(lp2744
S'url'
p2745
asbag49
(g70
g51
NtRp2746
(dp2747
g54
(dp2748
g81
g82
ssg63
g2737
sg56
(lp2749
S':'
asbag49
(g70
g51
NtRp2750
(dp2751
g54
(dp2752
sg63
g2737
sg56
(lp2753
g49
(g50
g51
NtRp2754
(dp2755
g54
(dp2756
g62
I5
ssg63
g2750
sg56
(lp2757
S'/SlugBarter/default/view_my_listings.html'
p2758
asbasbasbag49
(g65
g51
NtRp2759
(dp2760
g54
(dp2761
sg63
g59
sg56
(lp2762
g49
(g70
g51
NtRp2763
(dp2764
g54
(dp2765
g74
g75
ssg63
g2759
sg56
(lp2766
S'utcnow'
p2767
asbag49
(g70
g51
NtRp2768
(dp2769
g54
(dp2770
g81
g82
ssg63
g2759
sg56
(lp2771
S':'
asbag49
(g70
g51
NtRp2772
(dp2773
g54
(dp2774
sg63
g2759
sg56
(lp2775
g49
(g50
g51
NtRp2776
(dp2777
g54
(dp2778
g62
I5
ssg63
g2772
sg56
(lp2779
S'datetime.datetime(2012, 11, 12, 3, 9, 7, 611000)'
p2780
asbasbasbag49
(g65
g51
NtRp2781
(dp2782
g54
(dp2783
sg63
g59
sg56
(lp2784
g49
(g70
g51
NtRp2785
(dp2786
g54
(dp2787
g74
g75
ssg63
g2781
sg56
(lp2788
S'uuid'
p2789
asbag49
(g70
g51
NtRp2790
(dp2791
g54
(dp2792
g81
g82
ssg63
g2781
sg56
(lp2793
S':'
asbag49
(g70
g51
NtRp2794
(dp2795
g54
(dp2796
sg63
g2781
sg56
(lp2797
g49
(g50
g51
NtRp2798
(dp2799
g54
(dp2800
g62
I5
ssg63
g2794
sg56
(lp2801
S'SlugBarter/127.0.0.1.2012-11-11.19-09-07.23cec452-1445-4e2b-bb72-895ec592769e'
p2802
asbasbasbag49
(g65
g51
NtRp2803
(dp2804
g54
(dp2805
sg63
g59
sg56
(lp2806
g49
(g70
g51
NtRp2807
(dp2808
g54
(dp2809
g74
g75
ssg63
g2803
sg56
(lp2810
S'vars'
p2811
asbag49
(g70
g51
NtRp2812
(dp2813
g54
(dp2814
g81
g82
ssg63
g2803
sg56
(lp2815
S':'
asbag49
(g70
g51
NtRp2816
(dp2817
g54
(dp2818
sg63
g2803
sg56
(lp2819
g49
(g50
g51
NtRp2820
(dp2821
g54
(dp2822
g62
I5
ssg63
g2816
sg56
(lp2823
g49
(g58
g51
NtRp2824
(dp2825
g54
(dp2826
g62
I4
ssg63
Nsg56
(lp2827
sbasbasbasbag49
(g65
g51
NtRp2828
(dp2829
g54
(dp2830
sg63
g59
sg56
(lp2831
g49
(g70
g51
NtRp2832
(dp2833
g54
(dp2834
g74
g75
ssg63
g2828
sg56
(lp2835
S'wsgi'
p2836
asbag49
(g70
g51
NtRp2837
(dp2838
g54
(dp2839
g81
g82
ssg63
g2828
sg56
(lp2840
S':'
asbag49
(g70
g51
NtRp2841
(dp2842
g54
(dp2843
sg63
g2828
sg56
(lp2844
g49
(g50
g51
NtRp2845
(dp2846
g54
(dp2847
g62
I5
ssg63
g2841
sg56
(lp2848
g49
(g58
g51
NtRp2849
(dp2850
g54
(dp2851
g62
I4
ssg63
Nsg56
(lp2852
g49
(g65
g51
NtRp2853
(dp2854
g54
(dp2855
sg63
g2849
sg56
(lp2856
g49
(g70
g51
NtRp2857
(dp2858
g54
(dp2859
g74
g75
ssg63
g2853
sg56
(lp2860
S'environ'
p2861
asbag49
(g70
g51
NtRp2862
(dp2863
g54
(dp2864
g81
g82
ssg63
g2853
sg56
(lp2865
S':'
asbag49
(g70
g51
NtRp2866
(dp2867
g54
(dp2868
sg63
g2853
sg56
(lp2869
g49
(g50
g51
NtRp2870
(dp2871
g54
(dp2872
g62
I4
ssg63
g2866
sg56
(lp2873
g49
(g58
g51
NtRp2874
(dp2875
g54
(dp2876
g62
I3
ssg63
Nsg56
(lp2877
g49
(g65
g51
NtRp2878
(dp2879
g54
(dp2880
sg63
g2874
sg56
(lp2881
g49
(g70
g51
NtRp2882
(dp2883
g54
(dp2884
g74
g75
ssg63
g2878
sg56
(lp2885
S'HTTP_ACCEPT'
p2886
asbag49
(g70
g51
NtRp2887
(dp2888
g54
(dp2889
g81
g82
ssg63
g2878
sg56
(lp2890
S':'
asbag49
(g70
g51
NtRp2891
(dp2892
g54
(dp2893
sg63
g2878
sg56
(lp2894
g49
(g50
g51
NtRp2895
(dp2896
g54
(dp2897
g62
I3
ssg63
g2891
sg56
(lp2898
g1429
asbasbasbag49
(g65
g51
NtRp2899
(dp2900
g54
(dp2901
sg63
g2874
sg56
(lp2902
g49
(g70
g51
NtRp2903
(dp2904
g54
(dp2905
g74
g75
ssg63
g2899
sg56
(lp2906
S'HTTP_ACCEPT_CHARSET'
p2907
asbag49
(g70
g51
NtRp2908
(dp2909
g54
(dp2910
g81
g82
ssg63
g2899
sg56
(lp2911
S':'
asbag49
(g70
g51
NtRp2912
(dp2913
g54
(dp2914
sg63
g2899
sg56
(lp2915
g49
(g50
g51
NtRp2916
(dp2917
g54
(dp2918
g62
I3
ssg63
g2912
sg56
(lp2919
g1451
asbasbasbag49
(g65
g51
NtRp2920
(dp2921
g54
(dp2922
sg63
g2874
sg56
(lp2923
g49
(g70
g51
NtRp2924
(dp2925
g54
(dp2926
g74
g75
ssg63
g2920
sg56
(lp2927
S'HTTP_ACCEPT_ENCODING'
p2928
asbag49
(g70
g51
NtRp2929
(dp2930
g54
(dp2931
g81
g82
ssg63
g2920
sg56
(lp2932
S':'
asbag49
(g70
g51
NtRp2933
(dp2934
g54
(dp2935
sg63
g2920
sg56
(lp2936
g49
(g50
g51
NtRp2937
(dp2938
g54
(dp2939
g62
I3
ssg63
g2933
sg56
(lp2940
g1473
asbasbasbag49
(g65
g51
NtRp2941
(dp2942
g54
(dp2943
sg63
g2874
sg56
(lp2944
g49
(g70
g51
NtRp2945
(dp2946
g54
(dp2947
g74
g75
ssg63
g2941
sg56
(lp2948
S'HTTP_ACCEPT_LANGUAGE'
p2949
asbag49
(g70
g51
NtRp2950
(dp2951
g54
(dp2952
g81
g82
ssg63
g2941
sg56
(lp2953
S':'
asbag49
(g70
g51
NtRp2954
(dp2955
g54
(dp2956
sg63
g2941
sg56
(lp2957
g49
(g50
g51
NtRp2958
(dp2959
g54
(dp2960
g62
I3
ssg63
g2954
sg56
(lp2961
g1495
asbasbasbag49
(g65
g51
NtRp2962
(dp2963
g54
(dp2964
sg63
g2874
sg56
(lp2965
g49
(g70
g51
NtRp2966
(dp2967
g54
(dp2968
g74
g75
ssg63
g2962
sg56
(lp2969
S'HTTP_CONNECTION'
p2970
asbag49
(g70
g51
NtRp2971
(dp2972
g54
(dp2973
g81
g82
ssg63
g2962
sg56
(lp2974
S':'
asbag49
(g70
g51
NtRp2975
(dp2976
g54
(dp2977
sg63
g2962
sg56
(lp2978
g49
(g50
g51
NtRp2979
(dp2980
g54
(dp2981
g62
I3
ssg63
g2975
sg56
(lp2982
g1517
asbasbasbag49
(g65
g51
NtRp2983
(dp2984
g54
(dp2985
sg63
g2874
sg56
(lp2986
g49
(g70
g51
NtRp2987
(dp2988
g54
(dp2989
g74
g75
ssg63
g2983
sg56
(lp2990
S'HTTP_COOKIE'
p2991
asbag49
(g70
g51
NtRp2992
(dp2993
g54
(dp2994
g81
g82
ssg63
g2983
sg56
(lp2995
S':'
asbag49
(g70
g51
NtRp2996
(dp2997
g54
(dp2998
sg63
g2983
sg56
(lp2999
g49
(g50
g51
NtRp3000
(dp3001
g54
(dp3002
g62
I3
ssg63
g2996
sg56
(lp3003
g1539
asbasbasbag49
(g65
g51
NtRp3004
(dp3005
g54
(dp3006
sg63
g2874
sg56
(lp3007
g49
(g70
g51
NtRp3008
(dp3009
g54
(dp3010
g74
g75
ssg63
g3004
sg56
(lp3011
S'HTTP_HOST'
p3012
asbag49
(g70
g51
NtRp3013
(dp3014
g54
(dp3015
g81
g82
ssg63
g3004
sg56
(lp3016
S':'
asbag49
(g70
g51
NtRp3017
(dp3018
g54
(dp3019
sg63
g3004
sg56
(lp3020
g49
(g50
g51
NtRp3021
(dp3022
g54
(dp3023
g62
I3
ssg63
g3017
sg56
(lp3024
g1561
asbasbasbag49
(g65
g51
NtRp3025
(dp3026
g54
(dp3027
sg63
g2874
sg56
(lp3028
g49
(g70
g51
NtRp3029
(dp3030
g54
(dp3031
g74
g75
ssg63
g3025
sg56
(lp3032
S'HTTP_REFERER'
p3033
asbag49
(g70
g51
NtRp3034
(dp3035
g54
(dp3036
g81
g82
ssg63
g3025
sg56
(lp3037
S':'
asbag49
(g70
g51
NtRp3038
(dp3039
g54
(dp3040
sg63
g3025
sg56
(lp3041
g49
(g50
g51
NtRp3042
(dp3043
g54
(dp3044
g62
I3
ssg63
g3038
sg56
(lp3045
g1583
asbasbasbag49
(g65
g51
NtRp3046
(dp3047
g54
(dp3048
sg63
g2874
sg56
(lp3049
g49
(g70
g51
NtRp3050
(dp3051
g54
(dp3052
g74
g75
ssg63
g3046
sg56
(lp3053
S'HTTP_USER_AGENT'
p3054
asbag49
(g70
g51
NtRp3055
(dp3056
g54
(dp3057
g81
g82
ssg63
g3046
sg56
(lp3058
S':'
asbag49
(g70
g51
NtRp3059
(dp3060
g54
(dp3061
sg63
g3046
sg56
(lp3062
g49
(g50
g51
NtRp3063
(dp3064
g54
(dp3065
g62
I3
ssg63
g3059
sg56
(lp3066
g1605
asbasbasbag49
(g65
g51
NtRp3067
(dp3068
g54
(dp3069
sg63
g2874
sg56
(lp3070
g49
(g70
g51
NtRp3071
(dp3072
g54
(dp3073
g74
g75
ssg63
g3067
sg56
(lp3074
S'PATH_INFO'
p3075
asbag49
(g70
g51
NtRp3076
(dp3077
g54
(dp3078
g81
g82
ssg63
g3067
sg56
(lp3079
S':'
asbag49
(g70
g51
NtRp3080
(dp3081
g54
(dp3082
sg63
g3067
sg56
(lp3083
g49
(g50
g51
NtRp3084
(dp3085
g54
(dp3086
g62
I3
ssg63
g3080
sg56
(lp3087
g1669
asbasbasbag49
(g65
g51
NtRp3088
(dp3089
g54
(dp3090
sg63
g2874
sg56
(lp3091
g49
(g70
g51
NtRp3092
(dp3093
g54
(dp3094
g74
g75
ssg63
g3088
sg56
(lp3095
S'QUERY_STRING'
p3096
asbag49
(g70
g51
NtRp3097
(dp3098
g54
(dp3099
g81
g82
ssg63
g3088
sg56
(lp3100
S':'
asbag49
(g70
g51
NtRp3101
(dp3102
g54
(dp3103
sg63
g3088
sg56
(lp3104
g49
(g50
g51
NtRp3105
(dp3106
g54
(dp3107
g62
I3
ssg63
g3101
sg56
(lp3108
S''
asbasbasbag49
(g65
g51
NtRp3109
(dp3110
g54
(dp3111
sg63
g2874
sg56
(lp3112
g49
(g70
g51
NtRp3113
(dp3114
g54
(dp3115
g74
g75
ssg63
g3109
sg56
(lp3116
S'REMOTE_ADDR'
p3117
asbag49
(g70
g51
NtRp3118
(dp3119
g54
(dp3120
g81
g82
ssg63
g3109
sg56
(lp3121
S':'
asbag49
(g70
g51
NtRp3122
(dp3123
g54
(dp3124
sg63
g3109
sg56
(lp3125
g49
(g50
g51
NtRp3126
(dp3127
g54
(dp3128
g62
I3
ssg63
g3122
sg56
(lp3129
g182
asbasbasbag49
(g65
g51
NtRp3130
(dp3131
g54
(dp3132
sg63
g2874
sg56
(lp3133
g49
(g70
g51
NtRp3134
(dp3135
g54
(dp3136
g74
g75
ssg63
g3130
sg56
(lp3137
S'REMOTE_PORT'
p3138
asbag49
(g70
g51
NtRp3139
(dp3140
g54
(dp3141
g81
g82
ssg63
g3130
sg56
(lp3142
S':'
asbag49
(g70
g51
NtRp3143
(dp3144
g54
(dp3145
sg63
g3130
sg56
(lp3146
g49
(g50
g51
NtRp3147
(dp3148
g54
(dp3149
g62
I3
ssg63
g3143
sg56
(lp3150
g1733
asbasbasbag49
(g65
g51
NtRp3151
(dp3152
g54
(dp3153
sg63
g2874
sg56
(lp3154
g49
(g70
g51
NtRp3155
(dp3156
g54
(dp3157
g74
g75
ssg63
g3151
sg56
(lp3158
S'REQUEST_METHOD'
p3159
asbag49
(g70
g51
NtRp3160
(dp3161
g54
(dp3162
g81
g82
ssg63
g3151
sg56
(lp3163
S':'
asbag49
(g70
g51
NtRp3164
(dp3165
g54
(dp3166
sg63
g3151
sg56
(lp3167
g49
(g50
g51
NtRp3168
(dp3169
g54
(dp3170
g62
I3
ssg63
g3164
sg56
(lp3171
g1755
asbasbasbag49
(g65
g51
NtRp3172
(dp3173
g54
(dp3174
sg63
g2874
sg56
(lp3175
g49
(g70
g51
NtRp3176
(dp3177
g54
(dp3178
g74
g75
ssg63
g3172
sg56
(lp3179
S'SCRIPT_NAME'
p3180
asbag49
(g70
g51
NtRp3181
(dp3182
g54
(dp3183
g81
g82
ssg63
g3172
sg56
(lp3184
S':'
asbag49
(g70
g51
NtRp3185
(dp3186
g54
(dp3187
sg63
g3172
sg56
(lp3188
g49
(g50
g51
NtRp3189
(dp3190
g54
(dp3191
g62
I3
ssg63
g3185
sg56
(lp3192
S''
asbasbasbag49
(g65
g51
NtRp3193
(dp3194
g54
(dp3195
sg63
g2874
sg56
(lp3196
g49
(g70
g51
NtRp3197
(dp3198
g54
(dp3199
g74
g75
ssg63
g3193
sg56
(lp3200
S'SERVER_NAME'
p3201
asbag49
(g70
g51
NtRp3202
(dp3203
g54
(dp3204
g81
g82
ssg63
g3193
sg56
(lp3205
S':'
asbag49
(g70
g51
NtRp3206
(dp3207
g54
(dp3208
sg63
g3193
sg56
(lp3209
g49
(g50
g51
NtRp3210
(dp3211
g54
(dp3212
g62
I3
ssg63
g3206
sg56
(lp3213
g1798
asbasbasbag49
(g65
g51
NtRp3214
(dp3215
g54
(dp3216
sg63
g2874
sg56
(lp3217
g49
(g70
g51
NtRp3218
(dp3219
g54
(dp3220
g74
g75
ssg63
g3214
sg56
(lp3221
S'SERVER_PORT'
p3222
asbag49
(g70
g51
NtRp3223
(dp3224
g54
(dp3225
g81
g82
ssg63
g3214
sg56
(lp3226
S':'
asbag49
(g70
g51
NtRp3227
(dp3228
g54
(dp3229
sg63
g3214
sg56
(lp3230
g49
(g50
g51
NtRp3231
(dp3232
g54
(dp3233
g62
I3
ssg63
g3227
sg56
(lp3234
g1820
asbasbasbag49
(g65
g51
NtRp3235
(dp3236
g54
(dp3237
sg63
g2874
sg56
(lp3238
g49
(g70
g51
NtRp3239
(dp3240
g54
(dp3241
g74
g75
ssg63
g3235
sg56
(lp3242
S'SERVER_PROTOCOL'
p3243
asbag49
(g70
g51
NtRp3244
(dp3245
g54
(dp3246
g81
g82
ssg63
g3235
sg56
(lp3247
S':'
asbag49
(g70
g51
NtRp3248
(dp3249
g54
(dp3250
sg63
g3235
sg56
(lp3251
g49
(g50
g51
NtRp3252
(dp3253
g54
(dp3254
g62
I3
ssg63
g3248
sg56
(lp3255
g1842
asbasbasbag49
(g65
g51
NtRp3256
(dp3257
g54
(dp3258
sg63
g2874
sg56
(lp3259
g49
(g70
g51
NtRp3260
(dp3261
g54
(dp3262
g74
g75
ssg63
g3256
sg56
(lp3263
S'SERVER_SOFTWARE'
p3264
asbag49
(g70
g51
NtRp3265
(dp3266
g54
(dp3267
g81
g82
ssg63
g3256
sg56
(lp3268
S':'
asbag49
(g70
g51
NtRp3269
(dp3270
g54
(dp3271
sg63
g3256
sg56
(lp3272
g49
(g50
g51
NtRp3273
(dp3274
g54
(dp3275
g62
I3
ssg63
g3269
sg56
(lp3276
g1864
asbasbasbag49
(g65
g51
NtRp3277
(dp3278
g54
(dp3279
sg63
g2874
sg56
(lp3280
g49
(g70
g51
NtRp3281
(dp3282
g54
(dp3283
g74
g75
ssg63
g3277
sg56
(lp3284
S'wsgi.errors'
p3285
asbag49
(g70
g51
NtRp3286
(dp3287
g54
(dp3288
g81
g82
ssg63
g3277
sg56
(lp3289
S':'
asbag49
(g70
g51
NtRp3290
(dp3291
g54
(dp3292
sg63
g3277
sg56
(lp3293
g49
(g50
g51
NtRp3294
(dp3295
g54
(dp3296
g62
I3
ssg63
g3290
sg56
(lp3297
S"<open file '<stderr>', mode 'w' at 0x016000B0>"
p3298
asbasbasbag49
(g65
g51
NtRp3299
(dp3300
g54
(dp3301
sg63
g2874
sg56
(lp3302
g49
(g70
g51
NtRp3303
(dp3304
g54
(dp3305
g74
g75
ssg63
g3299
sg56
(lp3306
S'wsgi.file_wrapper'
p3307
asbag49
(g70
g51
NtRp3308
(dp3309
g54
(dp3310
g81
g82
ssg63
g3299
sg56
(lp3311
S':'
asbag49
(g70
g51
NtRp3312
(dp3313
g54
(dp3314
sg63
g3299
sg56
(lp3315
g49
(g50
g51
NtRp3316
(dp3317
g54
(dp3318
g62
I3
ssg63
g3312
sg56
(lp3319
S'<class wsgiref.util.FileWrapper at 0x025361B0>'
p3320
asbasbasbag49
(g65
g51
NtRp3321
(dp3322
g54
(dp3323
sg63
g2874
sg56
(lp3324
g49
(g70
g51
NtRp3325
(dp3326
g54
(dp3327
g74
g75
ssg63
g3321
sg56
(lp3328
S'wsgi.input'
p3329
asbag49
(g70
g51
NtRp3330
(dp3331
g54
(dp3332
g81
g82
ssg63
g3321
sg56
(lp3333
S':'
asbag49
(g70
g51
NtRp3334
(dp3335
g54
(dp3336
sg63
g3321
sg56
(lp3337
g49
(g50
g51
NtRp3338
(dp3339
g54
(dp3340
g62
I3
ssg63
g3334
sg56
(lp3341
S'<cStringIO.StringO object at 0x06297760>'
p3342
asbasbasbag49
(g65
g51
NtRp3343
(dp3344
g54
(dp3345
sg63
g2874
sg56
(lp3346
g49
(g70
g51
NtRp3347
(dp3348
g54
(dp3349
g74
g75
ssg63
g3343
sg56
(lp3350
S'wsgi.multiprocess'
p3351
asbag49
(g70
g51
NtRp3352
(dp3353
g54
(dp3354
g81
g82
ssg63
g3343
sg56
(lp3355
S':'
asbag49
(g70
g51
NtRp3356
(dp3357
g54
(dp3358
sg63
g3343
sg56
(lp3359
g49
(g50
g51
NtRp3360
(dp3361
g54
(dp3362
g62
I3
ssg63
g3356
sg56
(lp3363
g92
asbasbasbag49
(g65
g51
NtRp3364
(dp3365
g54
(dp3366
sg63
g2874
sg56
(lp3367
g49
(g70
g51
NtRp3368
(dp3369
g54
(dp3370
g74
g75
ssg63
g3364
sg56
(lp3371
S'wsgi.multithread'
p3372
asbag49
(g70
g51
NtRp3373
(dp3374
g54
(dp3375
g81
g82
ssg63
g3364
sg56
(lp3376
S':'
asbag49
(g70
g51
NtRp3377
(dp3378
g54
(dp3379
sg63
g3364
sg56
(lp3380
g49
(g50
g51
NtRp3381
(dp3382
g54
(dp3383
g62
I3
ssg63
g3377
sg56
(lp3384
g2104
asbasbasbag49
(g65
g51
NtRp3385
(dp3386
g54
(dp3387
sg63
g2874
sg56
(lp3388
g49
(g70
g51
NtRp3389
(dp3390
g54
(dp3391
g74
g75
ssg63
g3385
sg56
(lp3392
S'wsgi.run_once'
p3393
asbag49
(g70
g51
NtRp3394
(dp3395
g54
(dp3396
g81
g82
ssg63
g3385
sg56
(lp3397
S':'
asbag49
(g70
g51
NtRp3398
(dp3399
g54
(dp3400
sg63
g3385
sg56
(lp3401
g49
(g50
g51
NtRp3402
(dp3403
g54
(dp3404
g62
I3
ssg63
g3398
sg56
(lp3405
g92
asbasbasbag49
(g65
g51
NtRp3406
(dp3407
g54
(dp3408
sg63
g2874
sg56
(lp3409
g49
(g70
g51
NtRp3410
(dp3411
g54
(dp3412
g74
g75
ssg63
g3406
sg56
(lp3413
S'wsgi.url_scheme'
p3414
asbag49
(g70
g51
NtRp3415
(dp3416
g54
(dp3417
g81
g82
ssg63
g3406
sg56
(lp3418
S':'
asbag49
(g70
g51
NtRp3419
(dp3420
g54
(dp3421
sg63
g3406
sg56
(lp3422
g49
(g50
g51
NtRp3423
(dp3424
g54
(dp3425
g62
I3
ssg63
g3419
sg56
(lp3426
g2147
asbasbasbag49
(g65
g51
NtRp3427
(dp3428
g54
(dp3429
sg63
g2874
sg56
(lp3430
g49
(g70
g51
NtRp3431
(dp3432
g54
(dp3433
g74
g75
ssg63
g3427
sg56
(lp3434
S'wsgi.version'
p3435
asbag49
(g70
g51
NtRp3436
(dp3437
g54
(dp3438
g81
g82
ssg63
g3427
sg56
(lp3439
S':'
asbag49
(g70
g51
NtRp3440
(dp3441
g54
(dp3442
sg63
g3427
sg56
(lp3443
g49
(g50
g51
NtRp3444
(dp3445
g54
(dp3446
g62
I3
ssg63
g3440
sg56
(lp3447
S'1'
asbasbasbasbasbasbasbasbasbasbasbasbasbsS'frames'
p3448
(lp3449
(dp3450
S'file'
p3451
S'C:\\Users\\omkara\\Desktop\\web2py\\gluon\\restricted.py'
p3452
sS'dump'
p3453
(dp3454
sS'lnum'
p3455
I205
sS'lines'
p3456
(dp3457
sS'call'
p3458
S"(code='# -*- coding: utf-8 -*-\\n# this file is released ...esponse._vars=response._caller(view_my_listings)\\n', environment={'A': <class 'gluon.html.A'>, 'Auth': <class 'gluon.tools.Auth'>, 'B': <class 'gluon.html.B'>, 'BEAUTIFY': <class 'gluon.html.BEAUTIFY'>, 'BODY': <class 'gluon.html.BODY'>, 'BR': <class 'gluon.html.BR'>, 'BUTTON': <class 'gluon.html.BUTTON'>, 'CAT': <class 'gluon.html.CAT'>, 'CENTER': <class 'gluon.html.CENTER'>, 'CLEANUP': <class 'gluon.validators.CLEANUP'>, ...}, layer=r'C:\\Users\\omkara\\Desktop\\web2py\\applications\\SlugBarter\\controllers/default.py')"
p3459
sS'func'
p3460
S'restricted'
p3461
sa(dp3462
g3451
S'C:\\Users\\omkara\\Desktop\\web2py\\applications\\SlugBarter\\controllers\\default.py'
p3463
sg3453
(dp3464
sg3455
I101
sg3456
(dp3465
I96
S'    or with the signed load operator'
p3466
sI97
S"      LOAD('default','data.load',args='tables',ajax=True,user_signature=True)"
p3467
sI98
S'    """'
p3468
sI99
S'    return dict(form=crud())'
p3469
sI90
S'    http://..../[app]/default/data/update/[table]/[id]'
p3470
sI91
S'    http://..../[app]/default/data/delete/[table]/[id]'
p3471
sI92
S'    http://..../[app]/default/data/select/[table]'
p3472
sI93
S'    http://..../[app]/default/data/search/[table]'
p3473
sI94
S'    but URLs must be signed, i.e. linked with'
p3474
sI95
S"      A('table',_href=URL('data/tables',user_signature=True))"
p3475
ssg3458
S'()'
p3476
sg3460
S'<module>'
p3477
sa(dp3478
g3451
S'C:\\Users\\omkara\\Desktop\\web2py\\gluon\\globals.py'
p3479
sg3453
(dp3480
sg3455
I173
sg3456
(dp3481
sg3458
S'(f=<function view_my_listings at 0x063928F0>)'
p3482
sg3460
S'<lambda>'
p3483
sa(dp3484
g3451
S'C:\\Users\\omkara\\Desktop\\web2py\\gluon\\tools.py'
p3485
sg3453
(dp3486
sg3455
I2575
sg3456
(dp3487
sg3458
S'(*a=(), **b={})'
p3488
sg3460
S'f'
sa(dp3489
g3451
S'C:\\Users\\omkara\\Desktop\\web2py\\applications\\SlugBarter\\controllers\\default.py'
p3490
sg3453
(dp3491
sg3455
I44
sg3456
(dp3492
I39
S''
sI40
S'    return dict(form = form)'
p3493
sI41
S''
sI42
S'@auth.requires_login()'
p3494
sI43
S'def view_my_listings():'
p3495
sI44
S'    query = (db.listings.user == auth.user_id)'
p3496
sI45
S'    lists = db(query).select(db.listings.ALL)'
p3497
sI46
S'    return dict(lists = lists)'
p3498
sI47
S''
sI48
S''
ssg3458
S'()'
p3499
sg3460
S'view_my_listings'
p3500
sa(dp3501
g3451
S'C:\\Users\\omkara\\Desktop\\web2py\\gluon\\dal.py'
p3502
sg3453
(dp3503
sg3455
I6343
sg3456
(dp3504
sg3458
S"(self=<DAL {'auth_event': <Table {'origin': <gluon.dal..._key': <gluon.dal.Field object at 0x0296FED0>}>}>, key='listings')"
p3505
sg3460
S'__getattr__'
p3506
sa(dp3507
g3451
S'C:\\Users\\omkara\\Desktop\\web2py\\gluon\\dal.py'
p3508
sg3453
(dp3509
sg3455
I6337
sg3456
(dp3510
sg3458
S"(self=<DAL {'auth_event': <Table {'origin': <gluon.dal..._key': <gluon.dal.Field object at 0x0296FED0>}>}>, key='listings')"
p3511
sg3460
g20
sasS'pyver'
p3512
S'Python 2.5.4: C:\\Users\\omkara\\Desktop\\web2py\\web2py.exe'
p3513
sS'session'
p3514
g49
(g50
g51
NtRp3515
(dp3516
g54
(dp3517
sg56
(lp3518
g49
(g58
g51
NtRp3519
(dp3520
g54
(dp3521
g62
I5
ssg63
Nsg56
(lp3522
g49
(g65
g51
NtRp3523
(dp3524
g54
(dp3525
sg63
g3519
sg56
(lp3526
g49
(g70
g51
NtRp3527
(dp3528
g54
(dp3529
g74
g75
ssg63
g3523
sg56
(lp3530
S'auth'
p3531
asbag49
(g70
g51
NtRp3532
(dp3533
g54
(dp3534
g81
g82
ssg63
g3523
sg56
(lp3535
S':'
asbag49
(g70
g51
NtRp3536
(dp3537
g54
(dp3538
sg63
g3523
sg56
(lp3539
g49
(g50
g51
NtRp3540
(dp3541
g54
(dp3542
g62
I5
ssg63
g3536
sg56
(lp3543
g49
(g58
g51
NtRp3544
(dp3545
g54
(dp3546
g62
I4
ssg63
Nsg56
(lp3547
g49
(g65
g51
NtRp3548
(dp3549
g54
(dp3550
sg63
g3544
sg56
(lp3551
g49
(g70
g51
NtRp3552
(dp3553
g54
(dp3554
g74
g75
ssg63
g3548
sg56
(lp3555
S'expiration'
p3556
asbag49
(g70
g51
NtRp3557
(dp3558
g54
(dp3559
g81
g82
ssg63
g3548
sg56
(lp3560
S':'
asbag49
(g70
g51
NtRp3561
(dp3562
g54
(dp3563
sg63
g3548
sg56
(lp3564
g49
(g50
g51
NtRp3565
(dp3566
g54
(dp3567
g62
I4
ssg63
g3561
sg56
(lp3568
S'3600'
p3569
asbasbasbag49
(g65
g51
NtRp3570
(dp3571
g54
(dp3572
sg63
g3544
sg56
(lp3573
g49
(g70
g51
NtRp3574
(dp3575
g54
(dp3576
g74
g75
ssg63
g3570
sg56
(lp3577
S'hmac_key'
p3578
asbag49
(g70
g51
NtRp3579
(dp3580
g54
(dp3581
g81
g82
ssg63
g3570
sg56
(lp3582
S':'
asbag49
(g70
g51
NtRp3583
(dp3584
g54
(dp3585
sg63
g3570
sg56
(lp3586
g49
(g50
g51
NtRp3587
(dp3588
g54
(dp3589
g62
I4
ssg63
g3583
sg56
(lp3590
S'2f84aa8c-40b8-46f5-82a7-1a6c377b0bb3'
p3591
asbasbasbag49
(g65
g51
NtRp3592
(dp3593
g54
(dp3594
sg63
g3544
sg56
(lp3595
g49
(g70
g51
NtRp3596
(dp3597
g54
(dp3598
g74
g75
ssg63
g3592
sg56
(lp3599
S'last_visit'
p3600
asbag49
(g70
g51
NtRp3601
(dp3602
g54
(dp3603
g81
g82
ssg63
g3592
sg56
(lp3604
S':'
asbag49
(g70
g51
NtRp3605
(dp3606
g54
(dp3607
sg63
g3592
sg56
(lp3608
g49
(g50
g51
NtRp3609
(dp3610
g54
(dp3611
g62
I4
ssg63
g3605
sg56
(lp3612
S'datetime.datetime(2012, 11, 11, 19, 9, 5, 611000)'
p3613
asbasbasbag49
(g65
g51
NtRp3614
(dp3615
g54
(dp3616
sg63
g3544
sg56
(lp3617
g49
(g70
g51
NtRp3618
(dp3619
g54
(dp3620
g74
g75
ssg63
g3614
sg56
(lp3621
S'remember'
p3622
asbag49
(g70
g51
NtRp3623
(dp3624
g54
(dp3625
g81
g82
ssg63
g3614
sg56
(lp3626
S':'
asbag49
(g70
g51
NtRp3627
(dp3628
g54
(dp3629
sg63
g3614
sg56
(lp3630
g49
(g50
g51
NtRp3631
(dp3632
g54
(dp3633
g62
I4
ssg63
g3627
sg56
(lp3634
g92
asbasbasbag49
(g65
g51
NtRp3635
(dp3636
g54
(dp3637
sg63
g3544
sg56
(lp3638
g49
(g70
g51
NtRp3639
(dp3640
g54
(dp3641
g74
g75
ssg63
g3635
sg56
(lp3642
S'user'
p3643
asbag49
(g70
g51
NtRp3644
(dp3645
g54
(dp3646
g81
g82
ssg63
g3635
sg56
(lp3647
S':'
asbag49
(g70
g51
NtRp3648
(dp3649
g54
(dp3650
sg63
g3635
sg56
(lp3651
g49
(g50
g51
NtRp3652
(dp3653
g54
(dp3654
g62
I4
ssg63
g3648
sg56
(lp3655
g49
(g58
g51
NtRp3656
(dp3657
g54
(dp3658
g62
I3
ssg63
Nsg56
(lp3659
g49
(g65
g51
NtRp3660
(dp3661
g54
(dp3662
sg63
g3656
sg56
(lp3663
g49
(g70
g51
NtRp3664
(dp3665
g54
(dp3666
g74
g75
ssg63
g3660
sg56
(lp3667
S'dateCreated'
p3668
asbag49
(g70
g51
NtRp3669
(dp3670
g54
(dp3671
g81
g82
ssg63
g3660
sg56
(lp3672
S':'
asbag49
(g70
g51
NtRp3673
(dp3674
g54
(dp3675
sg63
g3660
sg56
(lp3676
g49
(g50
g51
NtRp3677
(dp3678
g54
(dp3679
g62
I3
ssg63
g3673
sg56
(lp3680
S'datetime.datetime(2012, 11, 11, 19, 41, 48)'
p3681
asbasbasbag49
(g65
g51
NtRp3682
(dp3683
g54
(dp3684
sg63
g3656
sg56
(lp3685
g49
(g70
g51
NtRp3686
(dp3687
g54
(dp3688
g74
g75
ssg63
g3682
sg56
(lp3689
S'email'
p3690
asbag49
(g70
g51
NtRp3691
(dp3692
g54
(dp3693
g81
g82
ssg63
g3682
sg56
(lp3694
S':'
asbag49
(g70
g51
NtRp3695
(dp3696
g54
(dp3697
sg63
g3682
sg56
(lp3698
g49
(g50
g51
NtRp3699
(dp3700
g54
(dp3701
g62
I3
ssg63
g3695
sg56
(lp3702
S'sukha620@yahoo.com'
p3703
asbasbasbag49
(g65
g51
NtRp3704
(dp3705
g54
(dp3706
sg63
g3656
sg56
(lp3707
g49
(g70
g51
NtRp3708
(dp3709
g54
(dp3710
g74
g75
ssg63
g3704
sg56
(lp3711
S'first_name'
p3712
asbag49
(g70
g51
NtRp3713
(dp3714
g54
(dp3715
g81
g82
ssg63
g3704
sg56
(lp3716
S':'
asbag49
(g70
g51
NtRp3717
(dp3718
g54
(dp3719
sg63
g3704
sg56
(lp3720
g49
(g50
g51
NtRp3721
(dp3722
g54
(dp3723
g62
I3
ssg63
g3717
sg56
(lp3724
S'Sukhraj'
p3725
asbasbasbag49
(g65
g51
NtRp3726
(dp3727
g54
(dp3728
sg63
g3656
sg56
(lp3729
g49
(g70
g51
NtRp3730
(dp3731
g54
(dp3732
g74
g75
ssg63
g3726
sg56
(lp3733
S'id'
p3734
asbag49
(g70
g51
NtRp3735
(dp3736
g54
(dp3737
g81
g82
ssg63
g3726
sg56
(lp3738
S':'
asbag49
(g70
g51
NtRp3739
(dp3740
g54
(dp3741
sg63
g3726
sg56
(lp3742
g49
(g50
g51
NtRp3743
(dp3744
g54
(dp3745
g62
I3
ssg63
g3739
sg56
(lp3746
S'2'
asbasbasbag49
(g65
g51
NtRp3747
(dp3748
g54
(dp3749
sg63
g3656
sg56
(lp3750
g49
(g70
g51
NtRp3751
(dp3752
g54
(dp3753
g74
g75
ssg63
g3747
sg56
(lp3754
S'last_name'
p3755
asbag49
(g70
g51
NtRp3756
(dp3757
g54
(dp3758
g81
g82
ssg63
g3747
sg56
(lp3759
S':'
asbag49
(g70
g51
NtRp3760
(dp3761
g54
(dp3762
sg63
g3747
sg56
(lp3763
g49
(g50
g51
NtRp3764
(dp3765
g54
(dp3766
g62
I3
ssg63
g3760
sg56
(lp3767
S'Singh'
p3768
asbasbasbag49
(g65
g51
NtRp3769
(dp3770
g54
(dp3771
sg63
g3656
sg56
(lp3772
g49
(g70
g51
NtRp3773
(dp3774
g54
(dp3775
g74
g75
ssg63
g3769
sg56
(lp3776
S'password'
p3777
asbag49
(g70
g51
NtRp3778
(dp3779
g54
(dp3780
g81
g82
ssg63
g3769
sg56
(lp3781
S':'
asbag49
(g70
g51
NtRp3782
(dp3783
g54
(dp3784
sg63
g3769
sg56
(lp3785
g49
(g50
g51
NtRp3786
(dp3787
g54
(dp3788
g62
I3
ssg63
g3782
sg56
(lp3789
S'd82bdd86eff736d398dfae05281ad449'
p3790
asbasbasbag49
(g65
g51
NtRp3791
(dp3792
g54
(dp3793
sg63
g3656
sg56
(lp3794
g49
(g70
g51
NtRp3795
(dp3796
g54
(dp3797
g74
g75
ssg63
g3791
sg56
(lp3798
S'registration_id'
p3799
asbag49
(g70
g51
NtRp3800
(dp3801
g54
(dp3802
g81
g82
ssg63
g3791
sg56
(lp3803
S':'
asbag49
(g70
g51
NtRp3804
(dp3805
g54
(dp3806
sg63
g3791
sg56
(lp3807
g49
(g50
g51
NtRp3808
(dp3809
g54
(dp3810
g62
I3
ssg63
g3804
sg56
(lp3811
S''
asbasbasbag49
(g65
g51
NtRp3812
(dp3813
g54
(dp3814
sg63
g3656
sg56
(lp3815
g49
(g70
g51
NtRp3816
(dp3817
g54
(dp3818
g74
g75
ssg63
g3812
sg56
(lp3819
S'registration_key'
p3820
asbag49
(g70
g51
NtRp3821
(dp3822
g54
(dp3823
g81
g82
ssg63
g3812
sg56
(lp3824
S':'
asbag49
(g70
g51
NtRp3825
(dp3826
g54
(dp3827
sg63
g3812
sg56
(lp3828
g49
(g50
g51
NtRp3829
(dp3830
g54
(dp3831
g62
I3
ssg63
g3825
sg56
(lp3832
S''
asbasbasbag49
(g65
g51
NtRp3833
(dp3834
g54
(dp3835
sg63
g3656
sg56
(lp3836
g49
(g70
g51
NtRp3837
(dp3838
g54
(dp3839
g74
g75
ssg63
g3833
sg56
(lp3840
S'reset_password_key'
p3841
asbag49
(g70
g51
NtRp3842
(dp3843
g54
(dp3844
g81
g82
ssg63
g3833
sg56
(lp3845
S':'
asbag49
(g70
g51
NtRp3846
(dp3847
g54
(dp3848
sg63
g3833
sg56
(lp3849
g49
(g50
g51
NtRp3850
(dp3851
g54
(dp3852
g62
I3
ssg63
g3846
sg56
(lp3853
S''
asbasbasbag49
(g65
g51
NtRp3854
(dp3855
g54
(dp3856
sg63
g3656
sg56
(lp3857
g49
(g70
g51
NtRp3858
(dp3859
g54
(dp3860
g74
g75
ssg63
g3854
sg56
(lp3861
S'username'
p3862
asbag49
(g70
g51
NtRp3863
(dp3864
g54
(dp3865
g81
g82
ssg63
g3854
sg56
(lp3866
S':'
asbag49
(g70
g51
NtRp3867
(dp3868
g54
(dp3869
sg63
g3854
sg56
(lp3870
g49
(g50
g51
NtRp3871
(dp3872
g54
(dp3873
g62
I3
ssg63
g3867
sg56
(lp3874
S'5abi209'
p3875
asbasbasbasbasbasbasbag49
(g65
g51
NtRp3876
(dp3877
g54
(dp3878
sg63
g3544
sg56
(lp3879
g49
(g70
g51
NtRp3880
(dp3881
g54
(dp3882
g74
g75
ssg63
g3876
sg56
(lp3883
S'user_groups'
p3884
asbag49
(g70
g51
NtRp3885
(dp3886
g54
(dp3887
g81
g82
ssg63
g3876
sg56
(lp3888
S':'
asbag49
(g70
g51
NtRp3889
(dp3890
g54
(dp3891
sg63
g3876
sg56
(lp3892
g49
(g50
g51
NtRp3893
(dp3894
g54
(dp3895
g62
I4
ssg63
g3889
sg56
(lp3896
g49
(g58
g51
NtRp3897
(dp3898
g54
(dp3899
g62
I3
ssg63
Nsg56
(lp3900
g49
(g65
g51
NtRp3901
(dp3902
g54
(dp3903
sg63
g3897
sg56
(lp3904
g49
(g70
g51
NtRp3905
(dp3906
g54
(dp3907
g74
g75
ssg63
g3901
sg56
(lp3908
S'1'
asbag49
(g70
g51
NtRp3909
(dp3910
g54
(dp3911
g81
g82
ssg63
g3901
sg56
(lp3912
S':'
asbag49
(g70
g51
NtRp3913
(dp3914
g54
(dp3915
sg63
g3901
sg56
(lp3916
g49
(g50
g51
NtRp3917
(dp3918
g54
(dp3919
g62
I3
ssg63
g3913
sg56
(lp3920
S'user_2'
p3921
asbasbasbasbasbasbasbasbasbasbasbag49
(g65
g51
NtRp3922
(dp3923
g54
(dp3924
sg63
g3519
sg56
(lp3925
g49
(g70
g51
NtRp3926
(dp3927
g54
(dp3928
g74
g75
ssg63
g3922
sg56
(lp3929
S'last_query'
p3930
asbag49
(g70
g51
NtRp3931
(dp3932
g54
(dp3933
g81
g82
ssg63
g3922
sg56
(lp3934
S':'
asbag49
(g70
g51
NtRp3935
(dp3936
g54
(dp3937
sg63
g3922
sg56
(lp3938
g49
(g50
g51
NtRp3939
(dp3940
g54
(dp3941
g62
I5
ssg63
g3935
sg56
(lp3942
S'db.listing.id>0'
p3943
asbasbasbasbasbsS'etype'
p3944
S"<type 'exceptions.KeyError'>"
p3945
sS'date'
p3946
S'Sun Nov 11 19:09:07 2012'
p3947
sS'response'
p3948
g49
(g50
g51
NtRp3949
(dp3950
g54
(dp3951
sg56
(lp3952
g49
(g58
g51
NtRp3953
(dp3954
g54
(dp3955
g62
I5
ssg63
Nsg56
(lp3956
g49
(g65
g51
NtRp3957
(dp3958
g54
(dp3959
sg63
g3953
sg56
(lp3960
g49
(g70
g51
NtRp3961
(dp3962
g54
(dp3963
g74
g75
ssg63
g3957
sg56
(lp3964
g147
asbag49
(g70
g51
NtRp3965
(dp3966
g54
(dp3967
g81
g82
ssg63
g3957
sg56
(lp3968
S':'
asbag49
(g70
g51
NtRp3969
(dp3970
g54
(dp3971
sg63
g3957
sg56
(lp3972
g49
(g50
g51
NtRp3973
(dp3974
g54
(dp3975
g62
I5
ssg63
g3969
sg56
(lp3976
S'<cStringIO.StringO object at 0x06C37DE0>'
p3977
asbasbasbag49
(g65
g51
NtRp3978
(dp3979
g54
(dp3980
sg63
g3953
sg56
(lp3981
g49
(g70
g51
NtRp3982
(dp3983
g54
(dp3984
g74
g75
ssg63
g3978
sg56
(lp3985
g213
asbag49
(g70
g51
NtRp3986
(dp3987
g54
(dp3988
g81
g82
ssg63
g3978
sg56
(lp3989
S':'
asbag49
(g70
g51
NtRp3990
(dp3991
g54
(dp3992
sg63
g3978
sg56
(lp3993
g49
(g50
g51
NtRp3994
(dp3995
g54
(dp3996
g62
I5
ssg63
g3990
sg56
(lp3997
g49
(g58
g51
NtRp3998
(dp3999
g54
(dp4000
g62
I4
ssg63
Nsg56
(lp4001
g49
(g65
g51
NtRp4002
(dp4003
g54
(dp4004
sg63
g3998
sg56
(lp4005
g49
(g70
g51
NtRp4006
(dp4007
g54
(dp4008
g74
g75
ssg63
g4002
sg56
(lp4009
S'session_id_slugbarter'
p4010
asbag49
(g70
g51
NtRp4011
(dp4012
g54
(dp4013
g81
g82
ssg63
g4002
sg56
(lp4014
S':'
asbag49
(g70
g51
NtRp4015
(dp4016
g54
(dp4017
sg63
g4002
sg56
(lp4018
g49
(g50
g51
NtRp4019
(dp4020
g54
(dp4021
g62
I4
ssg63
g4015
sg56
(lp4022
g49
(g58
g51
NtRp4023
(dp4024
g54
(dp4025
g62
I3
ssg63
Nsg56
(lp4026
g49
(g65
g51
NtRp4027
(dp4028
g54
(dp4029
sg63
g4023
sg56
(lp4030
g49
(g70
g51
NtRp4031
(dp4032
g54
(dp4033
g74
g75
ssg63
g4027
sg56
(lp4034
g263
asbag49
(g70
g51
NtRp4035
(dp4036
g54
(dp4037
g81
g82
ssg63
g4027
sg56
(lp4038
S':'
asbag49
(g70
g51
NtRp4039
(dp4040
g54
(dp4041
sg63
g4027
sg56
(lp4042
g49
(g50
g51
NtRp4043
(dp4044
g54
(dp4045
g62
I3
ssg63
g4039
sg56
(lp4046
S''
asbasbasbag49
(g65
g51
NtRp4047
(dp4048
g54
(dp4049
sg63
g4023
sg56
(lp4050
g49
(g70
g51
NtRp4051
(dp4052
g54
(dp4053
g74
g75
ssg63
g4047
sg56
(lp4054
g284
asbag49
(g70
g51
NtRp4055
(dp4056
g54
(dp4057
g81
g82
ssg63
g4047
sg56
(lp4058
S':'
asbag49
(g70
g51
NtRp4059
(dp4060
g54
(dp4061
sg63
g4047
sg56
(lp4062
g49
(g50
g51
NtRp4063
(dp4064
g54
(dp4065
g62
I3
ssg63
g4059
sg56
(lp4066
S''
asbasbasbag49
(g65
g51
NtRp4067
(dp4068
g54
(dp4069
sg63
g4023
sg56
(lp4070
g49
(g70
g51
NtRp4071
(dp4072
g54
(dp4073
g74
g75
ssg63
g4067
sg56
(lp4074
g305
asbag49
(g70
g51
NtRp4075
(dp4076
g54
(dp4077
g81
g82
ssg63
g4067
sg56
(lp4078
S':'
asbag49
(g70
g51
NtRp4079
(dp4080
g54
(dp4081
sg63
g4067
sg56
(lp4082
g49
(g50
g51
NtRp4083
(dp4084
g54
(dp4085
g62
I3
ssg63
g4079
sg56
(lp4086
S''
asbasbasbag49
(g65
g51
NtRp4087
(dp4088
g54
(dp4089
sg63
g4023
sg56
(lp4090
g49
(g70
g51
NtRp4091
(dp4092
g54
(dp4093
g74
g75
ssg63
g4087
sg56
(lp4094
g326
asbag49
(g70
g51
NtRp4095
(dp4096
g54
(dp4097
g81
g82
ssg63
g4087
sg56
(lp4098
S':'
asbag49
(g70
g51
NtRp4099
(dp4100
g54
(dp4101
sg63
g4087
sg56
(lp4102
g49
(g50
g51
NtRp4103
(dp4104
g54
(dp4105
g62
I3
ssg63
g4099
sg56
(lp4106
S''
asbasbasbag49
(g65
g51
NtRp4107
(dp4108
g54
(dp4109
sg63
g4023
sg56
(lp4110
g49
(g70
g51
NtRp4111
(dp4112
g54
(dp4113
g74
g75
ssg63
g4107
sg56
(lp4114
g347
asbag49
(g70
g51
NtRp4115
(dp4116
g54
(dp4117
g81
g82
ssg63
g4107
sg56
(lp4118
S':'
asbag49
(g70
g51
NtRp4119
(dp4120
g54
(dp4121
sg63
g4107
sg56
(lp4122
g49
(g50
g51
NtRp4123
(dp4124
g54
(dp4125
g62
I3
ssg63
g4119
sg56
(lp4126
S'/'
asbasbasbag49
(g65
g51
NtRp4127
(dp4128
g54
(dp4129
sg63
g4023
sg56
(lp4130
g49
(g70
g51
NtRp4131
(dp4132
g54
(dp4133
g74
g75
ssg63
g4127
sg56
(lp4134
g368
asbag49
(g70
g51
NtRp4135
(dp4136
g54
(dp4137
g81
g82
ssg63
g4127
sg56
(lp4138
S':'
asbag49
(g70
g51
NtRp4139
(dp4140
g54
(dp4141
sg63
g4127
sg56
(lp4142
g49
(g50
g51
NtRp4143
(dp4144
g54
(dp4145
g62
I3
ssg63
g4139
sg56
(lp4146
S''
asbasbasbag49
(g65
g51
NtRp4147
(dp4148
g54
(dp4149
sg63
g4023
sg56
(lp4150
g49
(g70
g51
NtRp4151
(dp4152
g54
(dp4153
g74
g75
ssg63
g4147
sg56
(lp4154
g389
asbag49
(g70
g51
NtRp4155
(dp4156
g54
(dp4157
g81
g82
ssg63
g4147
sg56
(lp4158
S':'
asbag49
(g70
g51
NtRp4159
(dp4160
g54
(dp4161
sg63
g4147
sg56
(lp4162
g49
(g50
g51
NtRp4163
(dp4164
g54
(dp4165
g62
I3
ssg63
g4159
sg56
(lp4166
S''
asbasbasbasbasbasbasbasbasbasbasbag49
(g65
g51
NtRp4167
(dp4168
g54
(dp4169
sg63
g3953
sg56
(lp4170
g49
(g70
g51
NtRp4171
(dp4172
g54
(dp4173
g74
g75
ssg63
g4167
sg56
(lp4174
S'delimiters'
p4175
asbag49
(g70
g51
NtRp4176
(dp4177
g54
(dp4178
g81
g82
ssg63
g4167
sg56
(lp4179
S':'
asbag49
(g70
g51
NtRp4180
(dp4181
g54
(dp4182
sg63
g4167
sg56
(lp4183
g49
(g50
g51
NtRp4184
(dp4185
g54
(dp4186
g62
I5
ssg63
g4180
sg56
(lp4187
g49
(g58
g51
NtRp4188
(dp4189
g54
(dp4190
g62
I4
ssg63
Nsg56
(lp4191
g49
(g65
g51
NtRp4192
(dp4193
g54
(dp4194
sg63
g4188
sg56
(lp4195
g49
(g70
g51
NtRp4196
(dp4197
g54
(dp4198
sg63
g4192
sg56
(lp4199
g49
(g50
g51
NtRp4200
(dp4201
g54
(dp4202
g62
I4
ssg63
g4196
sg56
(lp4203
S'{{'
p4204
asbasbasbag49
(g65
g51
NtRp4205
(dp4206
g54
(dp4207
sg63
g4188
sg56
(lp4208
g49
(g70
g51
NtRp4209
(dp4210
g54
(dp4211
sg63
g4205
sg56
(lp4212
g49
(g50
g51
NtRp4213
(dp4214
g54
(dp4215
g62
I4
ssg63
g4209
sg56
(lp4216
S'}}'
p4217
asbasbasbasbasbasbasbag49
(g65
g51
NtRp4218
(dp4219
g54
(dp4220
sg63
g3953
sg56
(lp4221
g49
(g70
g51
NtRp4222
(dp4223
g54
(dp4224
g74
g75
ssg63
g4218
sg56
(lp4225
S'files'
p4226
asbag49
(g70
g51
NtRp4227
(dp4228
g54
(dp4229
g81
g82
ssg63
g4218
sg56
(lp4230
S':'
asbag49
(g70
g51
NtRp4231
(dp4232
g54
(dp4233
sg63
g4218
sg56
(lp4234
g49
(g50
g51
NtRp4235
(dp4236
g54
(dp4237
g62
I5
ssg63
g4231
sg56
(lp4238
g49
(g58
g51
NtRp4239
(dp4240
g54
(dp4241
g62
I4
ssg63
Nsg56
(lp4242
sbasbasbasbag49
(g65
g51
NtRp4243
(dp4244
g54
(dp4245
sg63
g3953
sg56
(lp4246
g49
(g70
g51
NtRp4247
(dp4248
g54
(dp4249
g74
g75
ssg63
g4243
sg56
(lp4250
S'flash'
p4251
asbag49
(g70
g51
NtRp4252
(dp4253
g54
(dp4254
g81
g82
ssg63
g4243
sg56
(lp4255
S':'
asbag49
(g70
g51
NtRp4256
(dp4257
g54
(dp4258
sg63
g4243
sg56
(lp4259
g49
(g50
g51
NtRp4260
(dp4261
g54
(dp4262
g62
I5
ssg63
g4256
sg56
(lp4263
S''
asbasbasbag49
(g65
g51
NtRp4264
(dp4265
g54
(dp4266
sg63
g3953
sg56
(lp4267
g49
(g70
g51
NtRp4268
(dp4269
g54
(dp4270
g74
g75
ssg63
g4264
sg56
(lp4271
S'generic_patterns'
p4272
asbag49
(g70
g51
NtRp4273
(dp4274
g54
(dp4275
g81
g82
ssg63
g4264
sg56
(lp4276
S':'
asbag49
(g70
g51
NtRp4277
(dp4278
g54
(dp4279
sg63
g4264
sg56
(lp4280
g49
(g50
g51
NtRp4281
(dp4282
g54
(dp4283
g62
I5
ssg63
g4277
sg56
(lp4284
g49
(g58
g51
NtRp4285
(dp4286
g54
(dp4287
g62
I4
ssg63
Nsg56
(lp4288
g49
(g65
g51
NtRp4289
(dp4290
g54
(dp4291
sg63
g4285
sg56
(lp4292
g49
(g70
g51
NtRp4293
(dp4294
g54
(dp4295
sg63
g4289
sg56
(lp4296
g49
(g50
g51
NtRp4297
(dp4298
g54
(dp4299
g62
I4
ssg63
g4293
sg56
(lp4300
S'*'
asbasbasbasbasbasbasbag49
(g65
g51
NtRp4301
(dp4302
g54
(dp4303
sg63
g3953
sg56
(lp4304
g49
(g70
g51
NtRp4305
(dp4306
g54
(dp4307
g74
g75
ssg63
g4301
sg56
(lp4308
S'headers'
p4309
asbag49
(g70
g51
NtRp4310
(dp4311
g54
(dp4312
g81
g82
ssg63
g4301
sg56
(lp4313
S':'
asbag49
(g70
g51
NtRp4314
(dp4315
g54
(dp4316
sg63
g4301
sg56
(lp4317
g49
(g50
g51
NtRp4318
(dp4319
g54
(dp4320
g62
I5
ssg63
g4314
sg56
(lp4321
g49
(g58
g51
NtRp4322
(dp4323
g54
(dp4324
g62
I4
ssg63
Nsg56
(lp4325
g49
(g65
g51
NtRp4326
(dp4327
g54
(dp4328
sg63
g4322
sg56
(lp4329
g49
(g70
g51
NtRp4330
(dp4331
g54
(dp4332
g74
g75
ssg63
g4326
sg56
(lp4333
S'Cache-Control'
p4334
asbag49
(g70
g51
NtRp4335
(dp4336
g54
(dp4337
g81
g82
ssg63
g4326
sg56
(lp4338
S':'
asbag49
(g70
g51
NtRp4339
(dp4340
g54
(dp4341
sg63
g4326
sg56
(lp4342
g49
(g50
g51
NtRp4343
(dp4344
g54
(dp4345
g62
I4
ssg63
g4339
sg56
(lp4346
S'no-store, no-cache, must-revalidate, post-check=0, pre-check=0'
p4347
asbasbasbag49
(g65
g51
NtRp4348
(dp4349
g54
(dp4350
sg63
g4322
sg56
(lp4351
g49
(g70
g51
NtRp4352
(dp4353
g54
(dp4354
g74
g75
ssg63
g4348
sg56
(lp4355
S'Content-Type'
p4356
asbag49
(g70
g51
NtRp4357
(dp4358
g54
(dp4359
g81
g82
ssg63
g4348
sg56
(lp4360
S':'
asbag49
(g70
g51
NtRp4361
(dp4362
g54
(dp4363
sg63
g4348
sg56
(lp4364
g49
(g50
g51
NtRp4365
(dp4366
g54
(dp4367
g62
I4
ssg63
g4361
sg56
(lp4368
S'text/html; charset=utf-8'
p4369
asbasbasbag49
(g65
g51
NtRp4370
(dp4371
g54
(dp4372
sg63
g4322
sg56
(lp4373
g49
(g70
g51
NtRp4374
(dp4375
g54
(dp4376
g74
g75
ssg63
g4370
sg56
(lp4377
S'Expires'
p4378
asbag49
(g70
g51
NtRp4379
(dp4380
g54
(dp4381
g81
g82
ssg63
g4370
sg56
(lp4382
S':'
asbag49
(g70
g51
NtRp4383
(dp4384
g54
(dp4385
sg63
g4370
sg56
(lp4386
g49
(g50
g51
NtRp4387
(dp4388
g54
(dp4389
g62
I4
ssg63
g4383
sg56
(lp4390
S'Mon, 12 Nov 2012 03:09:07 GMT'
p4391
asbasbasbag49
(g65
g51
NtRp4392
(dp4393
g54
(dp4394
sg63
g4322
sg56
(lp4395
g49
(g70
g51
NtRp4396
(dp4397
g54
(dp4398
g74
g75
ssg63
g4392
sg56
(lp4399
S'Pragma'
p4400
asbag49
(g70
g51
NtRp4401
(dp4402
g54
(dp4403
g81
g82
ssg63
g4392
sg56
(lp4404
S':'
asbag49
(g70
g51
NtRp4405
(dp4406
g54
(dp4407
sg63
g4392
sg56
(lp4408
g49
(g50
g51
NtRp4409
(dp4410
g54
(dp4411
g62
I4
ssg63
g4405
sg56
(lp4412
S'no-cache'
p4413
asbasbasbag49
(g65
g51
NtRp4414
(dp4415
g54
(dp4416
sg63
g4322
sg56
(lp4417
g49
(g70
g51
NtRp4418
(dp4419
g54
(dp4420
g74
g75
ssg63
g4414
sg56
(lp4421
S'X-Powered-By'
p4422
asbag49
(g70
g51
NtRp4423
(dp4424
g54
(dp4425
g81
g82
ssg63
g4414
sg56
(lp4426
S':'
asbag49
(g70
g51
NtRp4427
(dp4428
g54
(dp4429
sg63
g4414
sg56
(lp4430
g49
(g50
g51
NtRp4431
(dp4432
g54
(dp4433
g62
I4
ssg63
g4427
sg56
(lp4434
S'web2py'
p4435
asbasbasbasbasbasbasbag49
(g65
g51
NtRp4436
(dp4437
g54
(dp4438
sg63
g3953
sg56
(lp4439
g49
(g70
g51
NtRp4440
(dp4441
g54
(dp4442
g74
g75
ssg63
g4436
sg56
(lp4443
S'menu'
p4444
asbag49
(g70
g51
NtRp4445
(dp4446
g54
(dp4447
g81
g82
ssg63
g4436
sg56
(lp4448
S':'
asbag49
(g70
g51
NtRp4449
(dp4450
g54
(dp4451
sg63
g4436
sg56
(lp4452
g49
(g50
g51
NtRp4453
(dp4454
g54
(dp4455
g62
I5
ssg63
g4449
sg56
(lp4456
g49
(g58
g51
NtRp4457
(dp4458
g54
(dp4459
g62
I4
ssg63
Nsg56
(lp4460
g49
(g65
g51
NtRp4461
(dp4462
g54
(dp4463
sg63
g4457
sg56
(lp4464
g49
(g70
g51
NtRp4465
(dp4466
g54
(dp4467
sg63
g4461
sg56
(lp4468
g49
(g50
g51
NtRp4469
(dp4470
g54
(dp4471
g62
I4
ssg63
g4465
sg56
(lp4472
g49
(g58
g51
NtRp4473
(dp4474
g54
(dp4475
g62
I3
ssg63
Nsg56
(lp4476
g49
(g65
g51
NtRp4477
(dp4478
g54
(dp4479
sg63
g4473
sg56
(lp4480
g49
(g70
g51
NtRp4481
(dp4482
g54
(dp4483
sg63
g4477
sg56
(lp4484
g49
(g50
g51
NtRp4485
(dp4486
g54
(dp4487
g62
I3
ssg63
g4481
sg56
(lp4488
cgluon.languages
lazyT_unpickle
p4489
(S's\x04\x00\x00\x00Home'
tRp4490
asbasbasbag49
(g65
g51
NtRp4491
(dp4492
g54
(dp4493
sg63
g4473
sg56
(lp4494
g49
(g70
g51
NtRp4495
(dp4496
g54
(dp4497
sg63
g4491
sg56
(lp4498
g49
(g50
g51
NtRp4499
(dp4500
g54
(dp4501
g62
I3
ssg63
g4495
sg56
(lp4502
g92
asbasbasbag49
(g65
g51
NtRp4503
(dp4504
g54
(dp4505
sg63
g4473
sg56
(lp4506
g49
(g70
g51
NtRp4507
(dp4508
g54
(dp4509
sg63
g4503
sg56
(lp4510
g49
(g50
g51
NtRp4511
(dp4512
g54
(dp4513
g62
I3
ssg63
g4507
sg56
(lp4514
S'/SlugBarter/default/index'
p4515
asbasbasbag49
(g65
g51
NtRp4516
(dp4517
g54
(dp4518
sg63
g4473
sg56
(lp4519
g49
(g70
g51
NtRp4520
(dp4521
g54
(dp4522
sg63
g4516
sg56
(lp4523
g49
(g50
g51
NtRp4524
(dp4525
g54
(dp4526
g62
I3
ssg63
g4520
sg56
(lp4527
g49
(g58
g51
NtRp4528
(dp4529
g54
(dp4530
g62
I2
ssg63
Nsg56
(lp4531
sbasbasbasbasbasbasbasbag49
(g65
g51
NtRp4532
(dp4533
g54
(dp4534
sg63
g4457
sg56
(lp4535
g49
(g70
g51
NtRp4536
(dp4537
g54
(dp4538
sg63
g4532
sg56
(lp4539
g49
(g50
g51
NtRp4540
(dp4541
g54
(dp4542
g62
I4
ssg63
g4536
sg56
(lp4543
g49
(g58
g51
NtRp4544
(dp4545
g54
(dp4546
g62
I3
ssg63
Nsg56
(lp4547
g49
(g65
g51
NtRp4548
(dp4549
g54
(dp4550
sg63
g4544
sg56
(lp4551
g49
(g70
g51
NtRp4552
(dp4553
g54
(dp4554
sg63
g4548
sg56
(lp4555
g49
(g50
g51
NtRp4556
(dp4557
g54
(dp4558
g62
I3
ssg63
g4552
sg56
(lp4559
g49
(cgluon.html
SPAN
p4560
g51
NtRp4561
(dp4562
g54
(dp4563
g74
S'color:yellow'
p4564
ssg63
Nsg56
(lp4565
g4435
asbasbasbasbag49
(g65
g51
NtRp4566
(dp4567
g54
(dp4568
sg63
g4544
sg56
(lp4569
g49
(g70
g51
NtRp4570
(dp4571
g54
(dp4572
sg63
g4566
sg56
(lp4573
g49
(g50
g51
NtRp4574
(dp4575
g54
(dp4576
g62
I3
ssg63
g4570
sg56
(lp4577
g92
asbasbasbag49
(g65
g51
NtRp4578
(dp4579
g54
(dp4580
sg63
g4544
sg56
(lp4581
g49
(g70
g51
NtRp4582
(dp4583
g54
(dp4584
sg63
g4578
sg56
(lp4585
g49
(g50
g51
NtRp4586
(dp4587
g54
(dp4588
g62
I3
ssg63
g4582
sg56
(lp4589
S'None'
p4590
asbasbasbag49
(g65
g51
NtRp4591
(dp4592
g54
(dp4593
sg63
g4544
sg56
(lp4594
g49
(g70
g51
NtRp4595
(dp4596
g54
(dp4597
sg63
g4591
sg56
(lp4598
g49
(g50
g51
NtRp4599
(dp4600
g54
(dp4601
g62
I3
ssg63
g4595
sg56
(lp4602
g49
(g58
g51
NtRp4603
(dp4604
g54
(dp4605
g62
I2
ssg63
Nsg56
(lp4606
g49
(g65
g51
NtRp4607
(dp4608
g54
(dp4609
sg63
g4603
sg56
(lp4610
g49
(g70
g51
NtRp4611
(dp4612
g54
(dp4613
sg63
g4607
sg56
(lp4614
g49
(g50
g51
NtRp4615
(dp4616
g54
(dp4617
g62
I2
ssg63
g4611
sg56
(lp4618
g49
(g58
g51
NtRp4619
(dp4620
g54
(dp4621
g62
I1
ssg63
Nsg56
(lp4622
g49
(g65
g51
NtRp4623
(dp4624
g54
(dp4625
sg63
g4619
sg56
(lp4626
g49
(g70
g51
NtRp4627
(dp4628
g54
(dp4629
sg63
g4623
sg56
(lp4630
g49
(g50
g51
NtRp4631
(dp4632
g54
(dp4633
g62
I1
ssg63
g4627
sg56
(lp4634
g4489
(S's\x08\x00\x00\x00My Sites'
tRp4635
asbasbasbag49
(g65
g51
NtRp4636
(dp4637
g54
(dp4638
sg63
g4619
sg56
(lp4639
g49
(g70
g51
NtRp4640
(dp4641
g54
(dp4642
sg63
g4636
sg56
(lp4643
g49
(g50
g51
NtRp4644
(dp4645
g54
(dp4646
g62
I1
ssg63
g4640
sg56
(lp4647
I00
asbasbasbag49
(g65
g51
NtRp4648
(dp4649
g54
(dp4650
sg63
g4619
sg56
(lp4651
g49
(g70
g51
NtRp4652
(dp4653
g54
(dp4654
sg63
g4648
sg56
(lp4655
g49
(g50
g51
NtRp4656
(dp4657
g54
(dp4658
g62
I1
ssg63
g4652
sg56
(lp4659
S'/admin/default/site'
p4660
asbasbasbasbasbasbasbag49
(g65
g51
NtRp4661
(dp4662
g54
(dp4663
sg63
g4603
sg56
(lp4664
g49
(g70
g51
NtRp4665
(dp4666
g54
(dp4667
sg63
g4661
sg56
(lp4668
g49
(g50
g51
NtRp4669
(dp4670
g54
(dp4671
g62
I2
ssg63
g4665
sg56
(lp4672
g49
(g58
g51
NtRp4673
(dp4674
g54
(dp4675
g62
I1
ssg63
Nsg56
(lp4676
g49
(g65
g51
NtRp4677
(dp4678
g54
(dp4679
sg63
g4673
sg56
(lp4680
g49
(g70
g51
NtRp4681
(dp4682
g54
(dp4683
sg63
g4677
sg56
(lp4684
g49
(g50
g51
NtRp4685
(dp4686
g54
(dp4687
g62
I1
ssg63
g4681
sg56
(lp4688
g4489
(S's\x08\x00\x00\x00This App'
tRp4689
asbasbasbag49
(g65
g51
NtRp4690
(dp4691
g54
(dp4692
sg63
g4673
sg56
(lp4693
g49
(g70
g51
NtRp4694
(dp4695
g54
(dp4696
sg63
g4690
sg56
(lp4697
g49
(g50
g51
NtRp4698
(dp4699
g54
(dp4700
g62
I1
ssg63
g4694
sg56
(lp4701
I00
asbasbasbag49
(g65
g51
NtRp4702
(dp4703
g54
(dp4704
sg63
g4673
sg56
(lp4705
g49
(g70
g51
NtRp4706
(dp4707
g54
(dp4708
sg63
g4702
sg56
(lp4709
g49
(g50
g51
NtRp4710
(dp4711
g54
(dp4712
g62
I1
ssg63
g4706
sg56
(lp4713
S'/admin/default/design/SlugBarter'
p4714
asbasbasbag49
(g65
g51
NtRp4715
(dp4716
g54
(dp4717
sg63
g4673
sg56
(lp4718
g49
(g70
g51
NtRp4719
(dp4720
g54
(dp4721
sg63
g4715
sg56
(lp4722
g49
(g50
g51
NtRp4723
(dp4724
g54
(dp4725
g62
I1
ssg63
g4719
sg56
(lp4726
(lp4727
(g4489
(S's\n\x00\x00\x00Controller'
tRp4728
I00
S'/admin/default/edit/SlugBarter/controllers/default.py'
tp4729
a(g4489
(S's\x04\x00\x00\x00View'
tRp4730
I00
S'/admin/default/edit/SlugBarter/views/default/view_my_listings.html'
tp4731
a(g4489
(S's\x06\x00\x00\x00Layout'
tRp4732
I00
S'/admin/default/edit/SlugBarter/views/layout.html'
tp4733
a(g4489
(S's\n\x00\x00\x00Stylesheet'
tRp4734
I00
S'/admin/default/edit/SlugBarter/static/css/web2py.css'
tp4735
a(g4489
(S's\x08\x00\x00\x00DB Model'
tRp4736
I00
S'/admin/default/edit/SlugBarter/models/db.py'
tp4737
a(g4489
(S's\n\x00\x00\x00Menu Model'
tRp4738
I00
S'/admin/default/edit/SlugBarter/models/menu.py'
tp4739
a(g4489
(S's\x08\x00\x00\x00Database'
tRp4740
I00
S'/SlugBarter/appadmin/index'
tp4741
a(g4489
(S's\x06\x00\x00\x00Errors'
tRp4742
I00
S'/admin/default/errors/SlugBarter'
tp4743
a(g4489
(S's\x05\x00\x00\x00About'
tRp4744
I00
S'/admin/default/about/SlugBarter'
tp4745
aasbasbasbasbasbasbasbag49
(g65
g51
NtRp4746
(dp4747
g54
(dp4748
sg63
g4603
sg56
(lp4749
g49
(g70
g51
NtRp4750
(dp4751
g54
(dp4752
sg63
g4746
sg56
(lp4753
g49
(g50
g51
NtRp4754
(dp4755
g54
(dp4756
g62
I2
ssg63
g4750
sg56
(lp4757
g49
(g58
g51
NtRp4758
(dp4759
g54
(dp4760
g62
I1
ssg63
Nsg56
(lp4761
g49
(g65
g51
NtRp4762
(dp4763
g54
(dp4764
sg63
g4758
sg56
(lp4765
g49
(g70
g51
NtRp4766
(dp4767
g54
(dp4768
sg63
g4762
sg56
(lp4769
g49
(g50
g51
NtRp4770
(dp4771
g54
(dp4772
g62
I1
ssg63
g4766
sg56
(lp4773
S'web2py.com'
p4774
asbasbasbag49
(g65
g51
NtRp4775
(dp4776
g54
(dp4777
sg63
g4758
sg56
(lp4778
g49
(g70
g51
NtRp4779
(dp4780
g54
(dp4781
sg63
g4775
sg56
(lp4782
g49
(g50
g51
NtRp4783
(dp4784
g54
(dp4785
g62
I1
ssg63
g4779
sg56
(lp4786
I00
asbasbasbag49
(g65
g51
NtRp4787
(dp4788
g54
(dp4789
sg63
g4758
sg56
(lp4790
g49
(g70
g51
NtRp4791
(dp4792
g54
(dp4793
sg63
g4787
sg56
(lp4794
g49
(g50
g51
NtRp4795
(dp4796
g54
(dp4797
g62
I1
ssg63
g4791
sg56
(lp4798
S'http://www.web2py.com'
p4799
asbasbasbag49
(g65
g51
NtRp4800
(dp4801
g54
(dp4802
sg63
g4758
sg56
(lp4803
g49
(g70
g51
NtRp4804
(dp4805
g54
(dp4806
sg63
g4800
sg56
(lp4807
g49
(g50
g51
NtRp4808
(dp4809
g54
(dp4810
g62
I1
ssg63
g4804
sg56
(lp4811
(lp4812
(g4489
(S's\x08\x00\x00\x00Download'
tRp4813
I00
S'http://www.web2py.com/examples/default/download'
p4814
tp4815
a(g4489
(S's\x07\x00\x00\x00Support'
tRp4816
I00
S'http://www.web2py.com/examples/default/support'
p4817
tp4818
a(g4489
(S's\x04\x00\x00\x00Demo'
tRp4819
I00
S'http://web2py.com/demo_admin'
p4820
tp4821
a(g4489
(S's\x0e\x00\x00\x00Quick Examples'
tRp4822
I00
S'http://web2py.com/examples/default/examples'
p4823
tp4824
a(g4489
(S's\x03\x00\x00\x00FAQ'
tRp4825
I00
S'http://web2py.com/AlterEgo'
p4826
tp4827
a(g4489
(S's\x06\x00\x00\x00Videos'
tRp4828
I00
S'http://www.web2py.com/examples/default/videos/'
p4829
tp4830
a(g4489
(S's\x11\x00\x00\x00Free Applications'
tRp4831
I00
S'http://web2py.com/appliances'
p4832
tp4833
a(g4489
(S's\x07\x00\x00\x00Plugins'
tRp4834
I00
S'http://web2py.com/plugins'
p4835
tp4836
a(g4489
(S's\x07\x00\x00\x00Layouts'
tRp4837
I00
S'http://web2py.com/layouts'
p4838
tp4839
a(g4489
(S's\x07\x00\x00\x00Recipes'
tRp4840
I00
S'http://web2pyslices.com/'
p4841
tp4842
a(g4489
(S's\x08\x00\x00\x00Semantic'
tRp4843
I00
S'http://web2py.com/semantic'
p4844
tp4845
aasbasbasbasbasbasbasbag49
(g65
g51
NtRp4846
(dp4847
g54
(dp4848
sg63
g4603
sg56
(lp4849
g49
(g70
g51
NtRp4850
(dp4851
g54
(dp4852
sg63
g4846
sg56
(lp4853
g49
(g50
g51
NtRp4854
(dp4855
g54
(dp4856
g62
I2
ssg63
g4850
sg56
(lp4857
g49
(g58
g51
NtRp4858
(dp4859
g54
(dp4860
g62
I1
ssg63
Nsg56
(lp4861
g49
(g65
g51
NtRp4862
(dp4863
g54
(dp4864
sg63
g4858
sg56
(lp4865
g49
(g70
g51
NtRp4866
(dp4867
g54
(dp4868
sg63
g4862
sg56
(lp4869
g49
(g50
g51
NtRp4870
(dp4871
g54
(dp4872
g62
I1
ssg63
g4866
sg56
(lp4873
g4489
(S's\r\x00\x00\x00Documentation'
tRp4874
asbasbasbag49
(g65
g51
NtRp4875
(dp4876
g54
(dp4877
sg63
g4858
sg56
(lp4878
g49
(g70
g51
NtRp4879
(dp4880
g54
(dp4881
sg63
g4875
sg56
(lp4882
g49
(g50
g51
NtRp4883
(dp4884
g54
(dp4885
g62
I1
ssg63
g4879
sg56
(lp4886
I00
asbasbasbag49
(g65
g51
NtRp4887
(dp4888
g54
(dp4889
sg63
g4858
sg56
(lp4890
g49
(g70
g51
NtRp4891
(dp4892
g54
(dp4893
sg63
g4887
sg56
(lp4894
g49
(g50
g51
NtRp4895
(dp4896
g54
(dp4897
g62
I1
ssg63
g4891
sg56
(lp4898
S'http://www.web2py.com/book'
p4899
asbasbasbag49
(g65
g51
NtRp4900
(dp4901
g54
(dp4902
sg63
g4858
sg56
(lp4903
g49
(g70
g51
NtRp4904
(dp4905
g54
(dp4906
sg63
g4900
sg56
(lp4907
g49
(g50
g51
NtRp4908
(dp4909
g54
(dp4910
g62
I1
ssg63
g4904
sg56
(lp4911
(lp4912
(g4489
(S's\x07\x00\x00\x00Preface'
tRp4913
I00
S'http://www.web2py.com/book/default/chapter/00'
p4914
tp4915
a(g4489
(S's\x0c\x00\x00\x00Introduction'
tRp4916
I00
S'http://www.web2py.com/book/default/chapter/01'
p4917
tp4918
a(g4489
(S's\x06\x00\x00\x00Python'
tRp4919
I00
S'http://www.web2py.com/book/default/chapter/02'
p4920
tp4921
a(g4489
(S's\x08\x00\x00\x00Overview'
tRp4922
I00
S'http://www.web2py.com/book/default/chapter/03'
p4923
tp4924
a(g4489
(S's\x08\x00\x00\x00The Core'
tRp4925
I00
S'http://www.web2py.com/book/default/chapter/04'
p4926
tp4927
a(g4489
(S's\t\x00\x00\x00The Views'
tRp4928
I00
S'http://www.web2py.com/book/default/chapter/05'
p4929
tp4930
a(g4489
(S's\x08\x00\x00\x00Database'
tRp4931
I00
S'http://www.web2py.com/book/default/chapter/06'
p4932
tp4933
a(g4489
(S's\x14\x00\x00\x00Forms and Validators'
tRp4934
I00
S'http://www.web2py.com/book/default/chapter/07'
p4935
tp4936
a(g4489
(S's\r\x00\x00\x00Email and SMS'
tRp4937
I00
S'http://www.web2py.com/book/default/chapter/08'
p4938
tp4939
a(g4489
(S's\x0e\x00\x00\x00Access Control'
tRp4940
I00
S'http://www.web2py.com/book/default/chapter/09'
p4941
tp4942
a(g4489
(S's\x08\x00\x00\x00Services'
tRp4943
I00
S'http://www.web2py.com/book/default/chapter/10'
p4944
tp4945
a(g4489
(S's\x0c\x00\x00\x00Ajax Recipes'
tRp4946
I00
S'http://www.web2py.com/book/default/chapter/11'
p4947
tp4948
a(g4489
(S's\x16\x00\x00\x00Components and Plugins'
tRp4949
I00
S'http://www.web2py.com/book/default/chapter/12'
p4950
tp4951
a(g4489
(S's\x12\x00\x00\x00Deployment Recipes'
tRp4952
I00
S'http://www.web2py.com/book/default/chapter/13'
p4953
tp4954
a(g4489
(S's\r\x00\x00\x00Other Recipes'
tRp4955
I00
S'http://www.web2py.com/book/default/chapter/14'
p4956
tp4957
a(g4489
(S's\r\x00\x00\x00Buy this book'
tRp4958
I00
S'http://stores.lulu.com/web2py'
p4959
tp4960
aasbasbasbasbasbasbasbag49
(g65
g51
NtRp4961
(dp4962
g54
(dp4963
sg63
g4603
sg56
(lp4964
g49
(g70
g51
NtRp4965
(dp4966
g54
(dp4967
sg63
g4961
sg56
(lp4968
g49
(g50
g51
NtRp4969
(dp4970
g54
(dp4971
g62
I2
ssg63
g4965
sg56
(lp4972
g49
(g58
g51
NtRp4973
(dp4974
g54
(dp4975
g62
I1
ssg63
Nsg56
(lp4976
g49
(g65
g51
NtRp4977
(dp4978
g54
(dp4979
sg63
g4973
sg56
(lp4980
g49
(g70
g51
NtRp4981
(dp4982
g54
(dp4983
sg63
g4977
sg56
(lp4984
g49
(g50
g51
NtRp4985
(dp4986
g54
(dp4987
g62
I1
ssg63
g4981
sg56
(lp4988
g4489
(S's\t\x00\x00\x00Community'
tRp4989
asbasbasbag49
(g65
g51
NtRp4990
(dp4991
g54
(dp4992
sg63
g4973
sg56
(lp4993
g49
(g70
g51
NtRp4994
(dp4995
g54
(dp4996
sg63
g4990
sg56
(lp4997
g49
(g50
g51
NtRp4998
(dp4999
g54
(dp5000
g62
I1
ssg63
g4994
sg56
(lp5001
I00
asbasbasbag49
(g65
g51
NtRp5002
(dp5003
g54
(dp5004
sg63
g4973
sg56
(lp5005
g49
(g70
g51
NtRp5006
(dp5007
g54
(dp5008
sg63
g5002
sg56
(lp5009
g49
(g50
g51
NtRp5010
(dp5011
g54
(dp5012
g62
I1
ssg63
g5006
sg56
(lp5013
Nasbasbasbag49
(g65
g51
NtRp5014
(dp5015
g54
(dp5016
sg63
g4973
sg56
(lp5017
g49
(g70
g51
NtRp5018
(dp5019
g54
(dp5020
sg63
g5014
sg56
(lp5021
g49
(g50
g51
NtRp5022
(dp5023
g54
(dp5024
g62
I1
ssg63
g5018
sg56
(lp5025
(lp5026
(g4489
(S's\x06\x00\x00\x00Groups'
tRp5027
I00
S'http://www.web2py.com/examples/default/usergroups'
p5028
tp5029
a(g4489
(S's\x07\x00\x00\x00Twitter'
tRp5030
I00
S'http://twitter.com/web2py'
p5031
tp5032
a(g4489
(S's\t\x00\x00\x00Live Chat'
tRp5033
I00
S'http://webchat.freenode.net/?channels=web2py'
p5034
tp5035
aasbasbasbasbasbasbasbag49
(g65
g51
NtRp5036
(dp5037
g54
(dp5038
sg63
g4603
sg56
(lp5039
g49
(g70
g51
NtRp5040
(dp5041
g54
(dp5042
sg63
g5036
sg56
(lp5043
g49
(g50
g51
NtRp5044
(dp5045
g54
(dp5046
g62
I2
ssg63
g5040
sg56
(lp5047
g49
(g58
g51
NtRp5048
(dp5049
g54
(dp5050
g62
I1
ssg63
Nsg56
(lp5051
g49
(g65
g51
NtRp5052
(dp5053
g54
(dp5054
sg63
g5048
sg56
(lp5055
g49
(g70
g51
NtRp5056
(dp5057
g54
(dp5058
sg63
g5052
sg56
(lp5059
g49
(g50
g51
NtRp5060
(dp5061
g54
(dp5062
g62
I1
ssg63
g5056
sg56
(lp5063
g4489
(S's\x07\x00\x00\x00Plugins'
tRp5064
asbasbasbag49
(g65
g51
NtRp5065
(dp5066
g54
(dp5067
sg63
g5048
sg56
(lp5068
g49
(g70
g51
NtRp5069
(dp5070
g54
(dp5071
sg63
g5065
sg56
(lp5072
g49
(g50
g51
NtRp5073
(dp5074
g54
(dp5075
g62
I1
ssg63
g5069
sg56
(lp5076
I00
asbasbasbag49
(g65
g51
NtRp5077
(dp5078
g54
(dp5079
sg63
g5048
sg56
(lp5080
g49
(g70
g51
NtRp5081
(dp5082
g54
(dp5083
sg63
g5077
sg56
(lp5084
g49
(g50
g51
NtRp5085
(dp5086
g54
(dp5087
g62
I1
ssg63
g5081
sg56
(lp5088
Nasbasbasbag49
(g65
g51
NtRp5089
(dp5090
g54
(dp5091
sg63
g5048
sg56
(lp5092
g49
(g70
g51
NtRp5093
(dp5094
g54
(dp5095
sg63
g5089
sg56
(lp5096
g49
(g50
g51
NtRp5097
(dp5098
g54
(dp5099
g62
I1
ssg63
g5093
sg56
(lp5100
(lp5101
(S'plugin_wiki'
p5102
I00
S'http://web2py.com/examples/default/download'
p5103
tp5104
a(g4489
(S's\r\x00\x00\x00Other Plugins'
tRp5105
I00
g4835
tp5106
a(g4489
(S's\x0e\x00\x00\x00Layout Plugins'
tRp5107
I00
g4838
tp5108
aasbasbasbasbasbasbasbasbasbasbasbasbasbasbasbasbasbasbasbag49
(g65
g51
NtRp5109
(dp5110
g54
(dp5111
sg63
g3953
sg56
(lp5112
g49
(g70
g51
NtRp5113
(dp5114
g54
(dp5115
g74
g75
ssg63
g5109
sg56
(lp5116
S'meta'
p5117
asbag49
(g70
g51
NtRp5118
(dp5119
g54
(dp5120
g81
g82
ssg63
g5109
sg56
(lp5121
S':'
asbag49
(g70
g51
NtRp5122
(dp5123
g54
(dp5124
sg63
g5109
sg56
(lp5125
g49
(g50
g51
NtRp5126
(dp5127
g54
(dp5128
g62
I5
ssg63
g5122
sg56
(lp5129
g49
(g58
g51
NtRp5130
(dp5131
g54
(dp5132
g62
I4
ssg63
Nsg56
(lp5133
g49
(g65
g51
NtRp5134
(dp5135
g54
(dp5136
sg63
g5130
sg56
(lp5137
g49
(g70
g51
NtRp5138
(dp5139
g54
(dp5140
g74
g75
ssg63
g5134
sg56
(lp5141
S'author'
p5142
asbag49
(g70
g51
NtRp5143
(dp5144
g54
(dp5145
g81
g82
ssg63
g5134
sg56
(lp5146
S':'
asbag49
(g70
g51
NtRp5147
(dp5148
g54
(dp5149
sg63
g5134
sg56
(lp5150
g49
(g50
g51
NtRp5151
(dp5152
g54
(dp5153
g62
I4
ssg63
g5147
sg56
(lp5154
S'Your Name <you@example.com>'
p5155
asbasbasbag49
(g65
g51
NtRp5156
(dp5157
g54
(dp5158
sg63
g5130
sg56
(lp5159
g49
(g70
g51
NtRp5160
(dp5161
g54
(dp5162
g74
g75
ssg63
g5156
sg56
(lp5163
S'copyright'
p5164
asbag49
(g70
g51
NtRp5165
(dp5166
g54
(dp5167
g81
g82
ssg63
g5156
sg56
(lp5168
S':'
asbag49
(g70
g51
NtRp5169
(dp5170
g54
(dp5171
sg63
g5156
sg56
(lp5172
g49
(g50
g51
NtRp5173
(dp5174
g54
(dp5175
g62
I4
ssg63
g5169
sg56
(lp5176
S'Copyright 2011'
p5177
asbasbasbag49
(g65
g51
NtRp5178
(dp5179
g54
(dp5180
sg63
g5130
sg56
(lp5181
g49
(g70
g51
NtRp5182
(dp5183
g54
(dp5184
g74
g75
ssg63
g5178
sg56
(lp5185
S'description'
p5186
asbag49
(g70
g51
NtRp5187
(dp5188
g54
(dp5189
g81
g82
ssg63
g5178
sg56
(lp5190
S':'
asbag49
(g70
g51
NtRp5191
(dp5192
g54
(dp5193
sg63
g5178
sg56
(lp5194
g49
(g50
g51
NtRp5195
(dp5196
g54
(dp5197
g62
I4
ssg63
g5191
sg56
(lp5198
S'a cool new app'
p5199
asbasbasbag49
(g65
g51
NtRp5200
(dp5201
g54
(dp5202
sg63
g5130
sg56
(lp5203
g49
(g70
g51
NtRp5204
(dp5205
g54
(dp5206
g74
g75
ssg63
g5200
sg56
(lp5207
S'generator'
p5208
asbag49
(g70
g51
NtRp5209
(dp5210
g54
(dp5211
g81
g82
ssg63
g5200
sg56
(lp5212
S':'
asbag49
(g70
g51
NtRp5213
(dp5214
g54
(dp5215
sg63
g5200
sg56
(lp5216
g49
(g50
g51
NtRp5217
(dp5218
g54
(dp5219
g62
I4
ssg63
g5213
sg56
(lp5220
S'Web2py Web Framework'
p5221
asbasbasbag49
(g65
g51
NtRp5222
(dp5223
g54
(dp5224
sg63
g5130
sg56
(lp5225
g49
(g70
g51
NtRp5226
(dp5227
g54
(dp5228
g74
g75
ssg63
g5222
sg56
(lp5229
S'keywords'
p5230
asbag49
(g70
g51
NtRp5231
(dp5232
g54
(dp5233
g81
g82
ssg63
g5222
sg56
(lp5234
S':'
asbag49
(g70
g51
NtRp5235
(dp5236
g54
(dp5237
sg63
g5222
sg56
(lp5238
g49
(g50
g51
NtRp5239
(dp5240
g54
(dp5241
g62
I4
ssg63
g5235
sg56
(lp5242
S'web2py, python, framework'
p5243
asbasbasbasbasbasbasbag49
(g65
g51
NtRp5244
(dp5245
g54
(dp5246
sg63
g3953
sg56
(lp5247
g49
(g70
g51
NtRp5248
(dp5249
g54
(dp5250
g74
g75
ssg63
g5244
sg56
(lp5251
S'postprocessing'
p5252
asbag49
(g70
g51
NtRp5253
(dp5254
g54
(dp5255
g81
g82
ssg63
g5244
sg56
(lp5256
S':'
asbag49
(g70
g51
NtRp5257
(dp5258
g54
(dp5259
sg63
g5244
sg56
(lp5260
g49
(g50
g51
NtRp5261
(dp5262
g54
(dp5263
g62
I5
ssg63
g5257
sg56
(lp5264
g49
(g58
g51
NtRp5265
(dp5266
g54
(dp5267
g62
I4
ssg63
Nsg56
(lp5268
sbasbasbasbag49
(g65
g51
NtRp5269
(dp5270
g54
(dp5271
sg63
g3953
sg56
(lp5272
g49
(g70
g51
NtRp5273
(dp5274
g54
(dp5275
g74
g75
ssg63
g5269
sg56
(lp5276
S'session_file'
p5277
asbag49
(g70
g51
NtRp5278
(dp5279
g54
(dp5280
g81
g82
ssg63
g5269
sg56
(lp5281
S':'
asbag49
(g70
g51
NtRp5282
(dp5283
g54
(dp5284
sg63
g5269
sg56
(lp5285
g49
(g50
g51
NtRp5286
(dp5287
g54
(dp5288
g62
I5
ssg63
g5282
sg56
(lp5289
S"<open file 'C:\\Users\\omkara\\Desktop\\web2py\\applications\\SlugBarter\\sessions\\127.0.0.1-e6ebae72-1bbc-48a5-9458-95dbb65a4e54', mode 'rb+' at 0x0600C410>"
p5290
asbasbasbag49
(g65
g51
NtRp5291
(dp5292
g54
(dp5293
sg63
g3953
sg56
(lp5294
g49
(g70
g51
NtRp5295
(dp5296
g54
(dp5297
g74
g75
ssg63
g5291
sg56
(lp5298
S'session_filename'
p5299
asbag49
(g70
g51
NtRp5300
(dp5301
g54
(dp5302
g81
g82
ssg63
g5291
sg56
(lp5303
S':'
asbag49
(g70
g51
NtRp5304
(dp5305
g54
(dp5306
sg63
g5291
sg56
(lp5307
g49
(g50
g51
NtRp5308
(dp5309
g54
(dp5310
g62
I5
ssg63
g5304
sg56
(lp5311
S'C:\\Users\\omkara\\Desktop\\web2py\\applications\\SlugBarter\\sessions\\127.0.0.1-e6ebae72-1bbc-48a5-9458-95dbb65a4e54'
p5312
asbasbasbag49
(g65
g51
NtRp5313
(dp5314
g54
(dp5315
sg63
g3953
sg56
(lp5316
g49
(g70
g51
NtRp5317
(dp5318
g54
(dp5319
g74
g75
ssg63
g5313
sg56
(lp5320
S'session_id'
p5321
asbag49
(g70
g51
NtRp5322
(dp5323
g54
(dp5324
g81
g82
ssg63
g5313
sg56
(lp5325
S':'
asbag49
(g70
g51
NtRp5326
(dp5327
g54
(dp5328
sg63
g5313
sg56
(lp5329
g49
(g50
g51
NtRp5330
(dp5331
g54
(dp5332
g62
I5
ssg63
g5326
sg56
(lp5333
S'127.0.0.1-e6ebae72-1bbc-48a5-9458-95dbb65a4e54'
p5334
asbasbasbag49
(g65
g51
NtRp5335
(dp5336
g54
(dp5337
sg63
g3953
sg56
(lp5338
g49
(g70
g51
NtRp5339
(dp5340
g54
(dp5341
g74
g75
ssg63
g5335
sg56
(lp5342
S'session_id_name'
p5343
asbag49
(g70
g51
NtRp5344
(dp5345
g54
(dp5346
g81
g82
ssg63
g5335
sg56
(lp5347
S':'
asbag49
(g70
g51
NtRp5348
(dp5349
g54
(dp5350
sg63
g5335
sg56
(lp5351
g49
(g50
g51
NtRp5352
(dp5353
g54
(dp5354
g62
I5
ssg63
g5348
sg56
(lp5355
g4010
asbasbasbag49
(g65
g51
NtRp5356
(dp5357
g54
(dp5358
sg63
g3953
sg56
(lp5359
g49
(g70
g51
NtRp5360
(dp5361
g54
(dp5362
g74
g75
ssg63
g5356
sg56
(lp5363
S'session_locked'
p5364
asbag49
(g70
g51
NtRp5365
(dp5366
g54
(dp5367
g81
g82
ssg63
g5356
sg56
(lp5368
S':'
asbag49
(g70
g51
NtRp5369
(dp5370
g54
(dp5371
sg63
g5356
sg56
(lp5372
g49
(g50
g51
NtRp5373
(dp5374
g54
(dp5375
g62
I5
ssg63
g5369
sg56
(lp5376
g2104
asbasbasbag49
(g65
g51
NtRp5377
(dp5378
g54
(dp5379
sg63
g3953
sg56
(lp5380
g49
(g70
g51
NtRp5381
(dp5382
g54
(dp5383
g74
g75
ssg63
g5377
sg56
(lp5384
S'session_new'
p5385
asbag49
(g70
g51
NtRp5386
(dp5387
g54
(dp5388
g81
g82
ssg63
g5377
sg56
(lp5389
S':'
asbag49
(g70
g51
NtRp5390
(dp5391
g54
(dp5392
sg63
g5377
sg56
(lp5393
g49
(g50
g51
NtRp5394
(dp5395
g54
(dp5396
g62
I5
ssg63
g5390
sg56
(lp5397
g92
asbasbasbag49
(g65
g51
NtRp5398
(dp5399
g54
(dp5400
sg63
g3953
sg56
(lp5401
g49
(g70
g51
NtRp5402
(dp5403
g54
(dp5404
g74
g75
ssg63
g5398
sg56
(lp5405
S'status'
p5406
asbag49
(g70
g51
NtRp5407
(dp5408
g54
(dp5409
g81
g82
ssg63
g5398
sg56
(lp5410
S':'
asbag49
(g70
g51
NtRp5411
(dp5412
g54
(dp5413
sg63
g5398
sg56
(lp5414
g49
(g50
g51
NtRp5415
(dp5416
g54
(dp5417
g62
I5
ssg63
g5411
sg56
(lp5418
S'200'
p5419
asbasbasbag49
(g65
g51
NtRp5420
(dp5421
g54
(dp5422
sg63
g3953
sg56
(lp5423
g49
(g70
g51
NtRp5424
(dp5425
g54
(dp5426
g74
g75
ssg63
g5420
sg56
(lp5427
S'subtitle'
p5428
asbag49
(g70
g51
NtRp5429
(dp5430
g54
(dp5431
g81
g82
ssg63
g5420
sg56
(lp5432
S':'
asbag49
(g70
g51
NtRp5433
(dp5434
g54
(dp5435
sg63
g5420
sg56
(lp5436
g49
(g50
g51
NtRp5437
(dp5438
g54
(dp5439
g62
I5
ssg63
g5433
sg56
(lp5440
g4489
(S's\r\x00\x00\x00customize me!'
tRp5441
asbasbasbag49
(g65
g51
NtRp5442
(dp5443
g54
(dp5444
sg63
g3953
sg56
(lp5445
g49
(g70
g51
NtRp5446
(dp5447
g54
(dp5448
g74
g75
ssg63
g5442
sg56
(lp5449
S'title'
p5450
asbag49
(g70
g51
NtRp5451
(dp5452
g54
(dp5453
g81
g82
ssg63
g5442
sg56
(lp5454
S':'
asbag49
(g70
g51
NtRp5455
(dp5456
g54
(dp5457
sg63
g5442
sg56
(lp5458
g49
(g50
g51
NtRp5459
(dp5460
g54
(dp5461
g62
I5
ssg63
g5455
sg56
(lp5462
S'Slugbarter'
p5463
asbasbasbag49
(g65
g51
NtRp5464
(dp5465
g54
(dp5466
sg63
g3953
sg56
(lp5467
g49
(g70
g51
NtRp5468
(dp5469
g54
(dp5470
g74
g75
ssg63
g5464
sg56
(lp5471
g2789
asbag49
(g70
g51
NtRp5472
(dp5473
g54
(dp5474
g81
g82
ssg63
g5464
sg56
(lp5475
S':'
asbag49
(g70
g51
NtRp5476
(dp5477
g54
(dp5478
sg63
g5464
sg56
(lp5479
g49
(g50
g51
NtRp5480
(dp5481
g54
(dp5482
g62
I5
ssg63
g5476
sg56
(lp5483
g2802
asbasbasbag49
(g65
g51
NtRp5484
(dp5485
g54
(dp5486
sg63
g3953
sg56
(lp5487
g49
(g70
g51
NtRp5488
(dp5489
g54
(dp5490
g74
g75
ssg63
g5484
sg56
(lp5491
S'view'
p5492
asbag49
(g70
g51
NtRp5493
(dp5494
g54
(dp5495
g81
g82
ssg63
g5484
sg56
(lp5496
S':'
asbag49
(g70
g51
NtRp5497
(dp5498
g54
(dp5499
sg63
g5484
sg56
(lp5500
g49
(g50
g51
NtRp5501
(dp5502
g54
(dp5503
g62
I5
ssg63
g5497
sg56
(lp5504
S'default/view_my_listings.html'
p5505
asbasbasbasbasbsS'locals'
p5506
(dp5507
S'self'
p5508
S"<DAL {'auth_event': <Table {'origin': <gluon.dal..._key': <gluon.dal.Field object at 0x0296FED0>}>}>"
p5509
sS'key'
p5510
S"'listings'"
p5511
sssS'traceback'
p5512
S'Traceback (most recent call last):\n  File "gluon/restricted.py", line 205, in restricted\n  File "C:\\Users\\omkara\\Desktop\\web2py\\applications\\SlugBarter\\controllers/default.py", line 101, in <module>\n  File "gluon/globals.py", line 173, in <lambda>\n  File "gluon/tools.py", line 2575, in f\n  File "C:\\Users\\omkara\\Desktop\\web2py\\applications\\SlugBarter\\controllers/default.py", line 44, in view_my_listings\n  File "gluon/dal.py", line 6343, in __getattr__\n  File "gluon/dal.py", line 6337, in __getitem__\nKeyError: \'listings\'\n'
p5513
s.