(dp1
S'output'
p2
S'<type \'exceptions.RuntimeError\'> Failure to connect, tried 5 times:\nTraceback (most recent call last):\n  File "gluon/dal.py", line 5955, in __init__\n  File "gluon/dal.py", line 1886, in __init__\n  File "gluon/dal.py", line 465, in pool_connection\n  File "gluon/dal.py", line 1885, in connect\n  File "gluon/contrib/pymysql/__init__.py", line 93, in Connect\n  File "gluon/contrib/pymysql/connections.py", line 513, in __init__\n  File "gluon/contrib/pymysql/connections.py", line 667, in _connect\n  File "gluon/contrib/pymysql/connections.py", line 720, in _request_authentication\n  File "gluon/contrib/pymysql/connections.py", line 766, in _send_authentication\n  File "gluon/contrib/pymysql/connections.py", line 331, in check_error\n  File "gluon/contrib/pymysql/err.py", line 135, in raise_mysql_exception\n  File "gluon/contrib/pymysql/err.py", line 131, in _check_mysql_exception\nInternalError: (1049, u"Unknown database \'critic\'")\n'
p3
sS'layer'
p4
S'C:\\Users\\omkara\\Desktop\\web2py\\applications\\SlugBarter\\models\\registerForm.py'
p5
sS'code'
p6
S"# coding: utf8\ndb = DAL('mysql://root:@localhost/critic')\nfrom gluon.tools import Auth\nauth = Auth(db)\n\nauth.settings.extra_fields['auth_user']= [\n  Field('address'),\n  Field('city'),\n  Field('zip'),\n  Field('phone')]\n"
p7
sS'snapshot'
p8
(dp9
S'exception'
p10
(dp11
S'__hash__'
p12
S"<method-wrapper '__hash__' of exceptions.RuntimeError object at 0x05985B98>"
p13
sS'__setattr__'
p14
S"<method-wrapper '__setattr__' of exceptions.RuntimeError object at 0x05985B98>"
p15
sS'__reduce_ex__'
p16
S'<built-in method __reduce_ex__ of exceptions.RuntimeError object at 0x05985B98>'
p17
sS'__getslice__'
p18
S"<method-wrapper '__getslice__' of exceptions.RuntimeError object at 0x05985B98>"
p19
sS'__getitem__'
p20
S"<method-wrapper '__getitem__' of exceptions.RuntimeError object at 0x05985B98>"
p21
sS'__setstate__'
p22
S'<built-in method __setstate__ of exceptions.RuntimeError object at 0x05985B98>'
p23
sS'__reduce__'
p24
S'<built-in method __reduce__ of exceptions.RuntimeError object at 0x05985B98>'
p25
sS'__str__'
p26
S"<method-wrapper '__str__' of exceptions.RuntimeError object at 0x05985B98>"
p27
sS'args'
p28
S'(\'Failure to connect, tried 5 times:\\nTraceback (mo...ernalError: (1049, u"Unknown database \\\'critic\\\'")\\n\',)'
p29
sS'__getattribute__'
p30
S"<method-wrapper '__getattribute__' of exceptions.RuntimeError object at 0x05985B98>"
p31
sS'__class__'
p32
S"<type 'exceptions.RuntimeError'>"
p33
sS'__delattr__'
p34
S"<method-wrapper '__delattr__' of exceptions.RuntimeError object at 0x05985B98>"
p35
sS'__repr__'
p36
S"<method-wrapper '__repr__' of exceptions.RuntimeError object at 0x05985B98>"
p37
sS'__dict__'
p38
S'{}'
p39
sS'__doc__'
p40
S"'Unspecified run-time error.'"
p41
sS'__init__'
p42
S"<method-wrapper '__init__' of exceptions.RuntimeError object at 0x05985B98>"
p43
sS'__new__'
p44
S'<built-in method __new__ of type object at 0x1E1CD748>'
p45
ssS'evalue'
p46
S'Failure to connect, tried 5 times:\nTraceback (most recent call last):\n  File "gluon/dal.py", line 5955, in __init__\n  File "gluon/dal.py", line 1886, in __init__\n  File "gluon/dal.py", line 465, in pool_connection\n  File "gluon/dal.py", line 1885, in connect\n  File "gluon/contrib/pymysql/__init__.py", line 93, in Connect\n  File "gluon/contrib/pymysql/connections.py", line 513, in __init__\n  File "gluon/contrib/pymysql/connections.py", line 667, in _connect\n  File "gluon/contrib/pymysql/connections.py", line 720, in _request_authentication\n  File "gluon/contrib/pymysql/connections.py", line 766, in _send_authentication\n  File "gluon/contrib/pymysql/connections.py", line 331, in check_error\n  File "gluon/contrib/pymysql/err.py", line 135, in raise_mysql_exception\n  File "gluon/contrib/pymysql/err.py", line 131, in _check_mysql_exception\nInternalError: (1049, u"Unknown database \'critic\'")\n'
p47
sS'request'
p48
ccopy_reg
_reconstructor
p49
(cgluon.html
BEAUTIFY
p50
c__builtin__
object
p51
NtRp52
(dp53
S'attributes'
p54
(dp55
sS'components'
p56
(lp57
g49
(cgluon.html
TABLE
p58
g51
NtRp59
(dp60
g54
(dp61
S'level'
p62
I5
ssS'parent'
p63
Nsg56
(lp64
g49
(cgluon.html
TR
p65
g51
NtRp66
(dp67
g54
(dp68
sg63
g59
sg56
(lp69
g49
(cgluon.html
TD
p70
g51
NtRp71
(dp72
g54
(dp73
S'_style'
p74
S'font-weight:bold;vertical-align:top'
p75
ssg63
g66
sg56
(lp76
S'ajax'
p77
asbag49
(g70
g51
NtRp78
(dp79
g54
(dp80
S'_valign'
p81
S'top'
p82
ssg63
g66
sg56
(lp83
S':'
asbag49
(g70
g51
NtRp84
(dp85
g54
(dp86
sg63
g66
sg56
(lp87
g49
(g50
g51
NtRp88
(dp89
g54
(dp90
g62
I5
ssg63
g84
sg56
(lp91
S'False'
p92
asbasbasbag49
(g65
g51
NtRp93
(dp94
g54
(dp95
sg63
g59
sg56
(lp96
g49
(g70
g51
NtRp97
(dp98
g54
(dp99
g74
g75
ssg63
g93
sg56
(lp100
S'application'
p101
asbag49
(g70
g51
NtRp102
(dp103
g54
(dp104
g81
g82
ssg63
g93
sg56
(lp105
S':'
asbag49
(g70
g51
NtRp106
(dp107
g54
(dp108
sg63
g93
sg56
(lp109
g49
(g50
g51
NtRp110
(dp111
g54
(dp112
g62
I5
ssg63
g106
sg56
(lp113
S'SlugBarter'
p114
asbasbasbag49
(g65
g51
NtRp115
(dp116
g54
(dp117
sg63
g59
sg56
(lp118
g49
(g70
g51
NtRp119
(dp120
g54
(dp121
g74
g75
ssg63
g115
sg56
(lp122
g28
asbag49
(g70
g51
NtRp123
(dp124
g54
(dp125
g81
g82
ssg63
g115
sg56
(lp126
S':'
asbag49
(g70
g51
NtRp127
(dp128
g54
(dp129
sg63
g115
sg56
(lp130
g49
(g50
g51
NtRp131
(dp132
g54
(dp133
g62
I5
ssg63
g127
sg56
(lp134
g49
(g58
g51
NtRp135
(dp136
g54
(dp137
g62
I4
ssg63
Nsg56
(lp138
sbasbasbasbag49
(g65
g51
NtRp139
(dp140
g54
(dp141
sg63
g59
sg56
(lp142
g49
(g70
g51
NtRp143
(dp144
g54
(dp145
g74
g75
ssg63
g139
sg56
(lp146
S'body'
p147
asbag49
(g70
g51
NtRp148
(dp149
g54
(dp150
g81
g82
ssg63
g139
sg56
(lp151
S':'
asbag49
(g70
g51
NtRp152
(dp153
g54
(dp154
sg63
g139
sg56
(lp155
g49
(g50
g51
NtRp156
(dp157
g54
(dp158
g62
I5
ssg63
g152
sg56
(lp159
S'<cStringIO.StringO object at 0x06671560>'
p160
asbasbasbag49
(g65
g51
NtRp161
(dp162
g54
(dp163
sg63
g59
sg56
(lp164
g49
(g70
g51
NtRp165
(dp166
g54
(dp167
g74
g75
ssg63
g161
sg56
(lp168
S'client'
p169
asbag49
(g70
g51
NtRp170
(dp171
g54
(dp172
g81
g82
ssg63
g161
sg56
(lp173
S':'
asbag49
(g70
g51
NtRp174
(dp175
g54
(dp176
sg63
g161
sg56
(lp177
g49
(g50
g51
NtRp178
(dp179
g54
(dp180
g62
I5
ssg63
g174
sg56
(lp181
S'127.0.0.1'
p182
asbasbasbag49
(g65
g51
NtRp183
(dp184
g54
(dp185
sg63
g59
sg56
(lp186
g49
(g70
g51
NtRp187
(dp188
g54
(dp189
g74
g75
ssg63
g183
sg56
(lp190
S'controller'
p191
asbag49
(g70
g51
NtRp192
(dp193
g54
(dp194
g81
g82
ssg63
g183
sg56
(lp195
S':'
asbag49
(g70
g51
NtRp196
(dp197
g54
(dp198
sg63
g183
sg56
(lp199
g49
(g50
g51
NtRp200
(dp201
g54
(dp202
g62
I5
ssg63
g196
sg56
(lp203
S'default'
p204
asbasbasbag49
(g65
g51
NtRp205
(dp206
g54
(dp207
sg63
g59
sg56
(lp208
g49
(g70
g51
NtRp209
(dp210
g54
(dp211
g74
g75
ssg63
g205
sg56
(lp212
S'cookies'
p213
asbag49
(g70
g51
NtRp214
(dp215
g54
(dp216
g81
g82
ssg63
g205
sg56
(lp217
S':'
asbag49
(g70
g51
NtRp218
(dp219
g54
(dp220
sg63
g205
sg56
(lp221
g49
(g50
g51
NtRp222
(dp223
g54
(dp224
g62
I5
ssg63
g218
sg56
(lp225
g49
(g58
g51
NtRp226
(dp227
g54
(dp228
g62
I4
ssg63
Nsg56
(lp229
g49
(g65
g51
NtRp230
(dp231
g54
(dp232
sg63
g226
sg56
(lp233
g49
(g70
g51
NtRp234
(dp235
g54
(dp236
g74
g75
ssg63
g230
sg56
(lp237
S'session_id_admin'
p238
asbag49
(g70
g51
NtRp239
(dp240
g54
(dp241
g81
g82
ssg63
g230
sg56
(lp242
S':'
asbag49
(g70
g51
NtRp243
(dp244
g54
(dp245
sg63
g230
sg56
(lp246
g49
(g50
g51
NtRp247
(dp248
g54
(dp249
g62
I4
ssg63
g243
sg56
(lp250
g49
(g58
g51
NtRp251
(dp252
g54
(dp253
g62
I3
ssg63
Nsg56
(lp254
g49
(g65
g51
NtRp255
(dp256
g54
(dp257
sg63
g251
sg56
(lp258
g49
(g70
g51
NtRp259
(dp260
g54
(dp261
g74
g75
ssg63
g255
sg56
(lp262
S'comment'
p263
asbag49
(g70
g51
NtRp264
(dp265
g54
(dp266
g81
g82
ssg63
g255
sg56
(lp267
S':'
asbag49
(g70
g51
NtRp268
(dp269
g54
(dp270
sg63
g255
sg56
(lp271
g49
(g50
g51
NtRp272
(dp273
g54
(dp274
g62
I3
ssg63
g268
sg56
(lp275
S''
asbasbasbag49
(g65
g51
NtRp276
(dp277
g54
(dp278
sg63
g251
sg56
(lp279
g49
(g70
g51
NtRp280
(dp281
g54
(dp282
g74
g75
ssg63
g276
sg56
(lp283
S'domain'
p284
asbag49
(g70
g51
NtRp285
(dp286
g54
(dp287
g81
g82
ssg63
g276
sg56
(lp288
S':'
asbag49
(g70
g51
NtRp289
(dp290
g54
(dp291
sg63
g276
sg56
(lp292
g49
(g50
g51
NtRp293
(dp294
g54
(dp295
g62
I3
ssg63
g289
sg56
(lp296
S''
asbasbasbag49
(g65
g51
NtRp297
(dp298
g54
(dp299
sg63
g251
sg56
(lp300
g49
(g70
g51
NtRp301
(dp302
g54
(dp303
g74
g75
ssg63
g297
sg56
(lp304
S'expires'
p305
asbag49
(g70
g51
NtRp306
(dp307
g54
(dp308
g81
g82
ssg63
g297
sg56
(lp309
S':'
asbag49
(g70
g51
NtRp310
(dp311
g54
(dp312
sg63
g297
sg56
(lp313
g49
(g50
g51
NtRp314
(dp315
g54
(dp316
g62
I3
ssg63
g310
sg56
(lp317
S''
asbasbasbag49
(g65
g51
NtRp318
(dp319
g54
(dp320
sg63
g251
sg56
(lp321
g49
(g70
g51
NtRp322
(dp323
g54
(dp324
g74
g75
ssg63
g318
sg56
(lp325
S'max-age'
p326
asbag49
(g70
g51
NtRp327
(dp328
g54
(dp329
g81
g82
ssg63
g318
sg56
(lp330
S':'
asbag49
(g70
g51
NtRp331
(dp332
g54
(dp333
sg63
g318
sg56
(lp334
g49
(g50
g51
NtRp335
(dp336
g54
(dp337
g62
I3
ssg63
g331
sg56
(lp338
S''
asbasbasbag49
(g65
g51
NtRp339
(dp340
g54
(dp341
sg63
g251
sg56
(lp342
g49
(g70
g51
NtRp343
(dp344
g54
(dp345
g74
g75
ssg63
g339
sg56
(lp346
S'path'
p347
asbag49
(g70
g51
NtRp348
(dp349
g54
(dp350
g81
g82
ssg63
g339
sg56
(lp351
S':'
asbag49
(g70
g51
NtRp352
(dp353
g54
(dp354
sg63
g339
sg56
(lp355
g49
(g50
g51
NtRp356
(dp357
g54
(dp358
g62
I3
ssg63
g352
sg56
(lp359
S''
asbasbasbag49
(g65
g51
NtRp360
(dp361
g54
(dp362
sg63
g251
sg56
(lp363
g49
(g70
g51
NtRp364
(dp365
g54
(dp366
g74
g75
ssg63
g360
sg56
(lp367
S'secure'
p368
asbag49
(g70
g51
NtRp369
(dp370
g54
(dp371
g81
g82
ssg63
g360
sg56
(lp372
S':'
asbag49
(g70
g51
NtRp373
(dp374
g54
(dp375
sg63
g360
sg56
(lp376
g49
(g50
g51
NtRp377
(dp378
g54
(dp379
g62
I3
ssg63
g373
sg56
(lp380
S''
asbasbasbag49
(g65
g51
NtRp381
(dp382
g54
(dp383
sg63
g251
sg56
(lp384
g49
(g70
g51
NtRp385
(dp386
g54
(dp387
g74
g75
ssg63
g381
sg56
(lp388
S'version'
p389
asbag49
(g70
g51
NtRp390
(dp391
g54
(dp392
g81
g82
ssg63
g381
sg56
(lp393
S':'
asbag49
(g70
g51
NtRp394
(dp395
g54
(dp396
sg63
g381
sg56
(lp397
g49
(g50
g51
NtRp398
(dp399
g54
(dp400
g62
I3
ssg63
g394
sg56
(lp401
S''
asbasbasbasbasbasbasbag49
(g65
g51
NtRp402
(dp403
g54
(dp404
sg63
g226
sg56
(lp405
g49
(g70
g51
NtRp406
(dp407
g54
(dp408
g74
g75
ssg63
g402
sg56
(lp409
S'session_id_onlinenotes_p1_'
p410
asbag49
(g70
g51
NtRp411
(dp412
g54
(dp413
g81
g82
ssg63
g402
sg56
(lp414
S':'
asbag49
(g70
g51
NtRp415
(dp416
g54
(dp417
sg63
g402
sg56
(lp418
g49
(g50
g51
NtRp419
(dp420
g54
(dp421
g62
I4
ssg63
g415
sg56
(lp422
g49
(g58
g51
NtRp423
(dp424
g54
(dp425
g62
I3
ssg63
Nsg56
(lp426
g49
(g65
g51
NtRp427
(dp428
g54
(dp429
sg63
g423
sg56
(lp430
g49
(g70
g51
NtRp431
(dp432
g54
(dp433
g74
g75
ssg63
g427
sg56
(lp434
g263
asbag49
(g70
g51
NtRp435
(dp436
g54
(dp437
g81
g82
ssg63
g427
sg56
(lp438
S':'
asbag49
(g70
g51
NtRp439
(dp440
g54
(dp441
sg63
g427
sg56
(lp442
g49
(g50
g51
NtRp443
(dp444
g54
(dp445
g62
I3
ssg63
g439
sg56
(lp446
S''
asbasbasbag49
(g65
g51
NtRp447
(dp448
g54
(dp449
sg63
g423
sg56
(lp450
g49
(g70
g51
NtRp451
(dp452
g54
(dp453
g74
g75
ssg63
g447
sg56
(lp454
g284
asbag49
(g70
g51
NtRp455
(dp456
g54
(dp457
g81
g82
ssg63
g447
sg56
(lp458
S':'
asbag49
(g70
g51
NtRp459
(dp460
g54
(dp461
sg63
g447
sg56
(lp462
g49
(g50
g51
NtRp463
(dp464
g54
(dp465
g62
I3
ssg63
g459
sg56
(lp466
S''
asbasbasbag49
(g65
g51
NtRp467
(dp468
g54
(dp469
sg63
g423
sg56
(lp470
g49
(g70
g51
NtRp471
(dp472
g54
(dp473
g74
g75
ssg63
g467
sg56
(lp474
g305
asbag49
(g70
g51
NtRp475
(dp476
g54
(dp477
g81
g82
ssg63
g467
sg56
(lp478
S':'
asbag49
(g70
g51
NtRp479
(dp480
g54
(dp481
sg63
g467
sg56
(lp482
g49
(g50
g51
NtRp483
(dp484
g54
(dp485
g62
I3
ssg63
g479
sg56
(lp486
S''
asbasbasbag49
(g65
g51
NtRp487
(dp488
g54
(dp489
sg63
g423
sg56
(lp490
g49
(g70
g51
NtRp491
(dp492
g54
(dp493
g74
g75
ssg63
g487
sg56
(lp494
g326
asbag49
(g70
g51
NtRp495
(dp496
g54
(dp497
g81
g82
ssg63
g487
sg56
(lp498
S':'
asbag49
(g70
g51
NtRp499
(dp500
g54
(dp501
sg63
g487
sg56
(lp502
g49
(g50
g51
NtRp503
(dp504
g54
(dp505
g62
I3
ssg63
g499
sg56
(lp506
S''
asbasbasbag49
(g65
g51
NtRp507
(dp508
g54
(dp509
sg63
g423
sg56
(lp510
g49
(g70
g51
NtRp511
(dp512
g54
(dp513
g74
g75
ssg63
g507
sg56
(lp514
g347
asbag49
(g70
g51
NtRp515
(dp516
g54
(dp517
g81
g82
ssg63
g507
sg56
(lp518
S':'
asbag49
(g70
g51
NtRp519
(dp520
g54
(dp521
sg63
g507
sg56
(lp522
g49
(g50
g51
NtRp523
(dp524
g54
(dp525
g62
I3
ssg63
g519
sg56
(lp526
S''
asbasbasbag49
(g65
g51
NtRp527
(dp528
g54
(dp529
sg63
g423
sg56
(lp530
g49
(g70
g51
NtRp531
(dp532
g54
(dp533
g74
g75
ssg63
g527
sg56
(lp534
g368
asbag49
(g70
g51
NtRp535
(dp536
g54
(dp537
g81
g82
ssg63
g527
sg56
(lp538
S':'
asbag49
(g70
g51
NtRp539
(dp540
g54
(dp541
sg63
g527
sg56
(lp542
g49
(g50
g51
NtRp543
(dp544
g54
(dp545
g62
I3
ssg63
g539
sg56
(lp546
S''
asbasbasbag49
(g65
g51
NtRp547
(dp548
g54
(dp549
sg63
g423
sg56
(lp550
g49
(g70
g51
NtRp551
(dp552
g54
(dp553
g74
g75
ssg63
g547
sg56
(lp554
g389
asbag49
(g70
g51
NtRp555
(dp556
g54
(dp557
g81
g82
ssg63
g547
sg56
(lp558
S':'
asbag49
(g70
g51
NtRp559
(dp560
g54
(dp561
sg63
g547
sg56
(lp562
g49
(g50
g51
NtRp563
(dp564
g54
(dp565
g62
I3
ssg63
g559
sg56
(lp566
S''
asbasbasbasbasbasbasbag49
(g65
g51
NtRp567
(dp568
g54
(dp569
sg63
g226
sg56
(lp570
g49
(g70
g51
NtRp571
(dp572
g54
(dp573
g74
g75
ssg63
g567
sg56
(lp574
S'session_id_slugbarter'
p575
asbag49
(g70
g51
NtRp576
(dp577
g54
(dp578
g81
g82
ssg63
g567
sg56
(lp579
S':'
asbag49
(g70
g51
NtRp580
(dp581
g54
(dp582
sg63
g567
sg56
(lp583
g49
(g50
g51
NtRp584
(dp585
g54
(dp586
g62
I4
ssg63
g580
sg56
(lp587
g49
(g58
g51
NtRp588
(dp589
g54
(dp590
g62
I3
ssg63
Nsg56
(lp591
g49
(g65
g51
NtRp592
(dp593
g54
(dp594
sg63
g588
sg56
(lp595
g49
(g70
g51
NtRp596
(dp597
g54
(dp598
g74
g75
ssg63
g592
sg56
(lp599
g263
asbag49
(g70
g51
NtRp600
(dp601
g54
(dp602
g81
g82
ssg63
g592
sg56
(lp603
S':'
asbag49
(g70
g51
NtRp604
(dp605
g54
(dp606
sg63
g592
sg56
(lp607
g49
(g50
g51
NtRp608
(dp609
g54
(dp610
g62
I3
ssg63
g604
sg56
(lp611
S''
asbasbasbag49
(g65
g51
NtRp612
(dp613
g54
(dp614
sg63
g588
sg56
(lp615
g49
(g70
g51
NtRp616
(dp617
g54
(dp618
g74
g75
ssg63
g612
sg56
(lp619
g284
asbag49
(g70
g51
NtRp620
(dp621
g54
(dp622
g81
g82
ssg63
g612
sg56
(lp623
S':'
asbag49
(g70
g51
NtRp624
(dp625
g54
(dp626
sg63
g612
sg56
(lp627
g49
(g50
g51
NtRp628
(dp629
g54
(dp630
g62
I3
ssg63
g624
sg56
(lp631
S''
asbasbasbag49
(g65
g51
NtRp632
(dp633
g54
(dp634
sg63
g588
sg56
(lp635
g49
(g70
g51
NtRp636
(dp637
g54
(dp638
g74
g75
ssg63
g632
sg56
(lp639
g305
asbag49
(g70
g51
NtRp640
(dp641
g54
(dp642
g81
g82
ssg63
g632
sg56
(lp643
S':'
asbag49
(g70
g51
NtRp644
(dp645
g54
(dp646
sg63
g632
sg56
(lp647
g49
(g50
g51
NtRp648
(dp649
g54
(dp650
g62
I3
ssg63
g644
sg56
(lp651
S''
asbasbasbag49
(g65
g51
NtRp652
(dp653
g54
(dp654
sg63
g588
sg56
(lp655
g49
(g70
g51
NtRp656
(dp657
g54
(dp658
g74
g75
ssg63
g652
sg56
(lp659
g326
asbag49
(g70
g51
NtRp660
(dp661
g54
(dp662
g81
g82
ssg63
g652
sg56
(lp663
S':'
asbag49
(g70
g51
NtRp664
(dp665
g54
(dp666
sg63
g652
sg56
(lp667
g49
(g50
g51
NtRp668
(dp669
g54
(dp670
g62
I3
ssg63
g664
sg56
(lp671
S''
asbasbasbag49
(g65
g51
NtRp672
(dp673
g54
(dp674
sg63
g588
sg56
(lp675
g49
(g70
g51
NtRp676
(dp677
g54
(dp678
g74
g75
ssg63
g672
sg56
(lp679
g347
asbag49
(g70
g51
NtRp680
(dp681
g54
(dp682
g81
g82
ssg63
g672
sg56
(lp683
S':'
asbag49
(g70
g51
NtRp684
(dp685
g54
(dp686
sg63
g672
sg56
(lp687
g49
(g50
g51
NtRp688
(dp689
g54
(dp690
g62
I3
ssg63
g684
sg56
(lp691
S''
asbasbasbag49
(g65
g51
NtRp692
(dp693
g54
(dp694
sg63
g588
sg56
(lp695
g49
(g70
g51
NtRp696
(dp697
g54
(dp698
g74
g75
ssg63
g692
sg56
(lp699
g368
asbag49
(g70
g51
NtRp700
(dp701
g54
(dp702
g81
g82
ssg63
g692
sg56
(lp703
S':'
asbag49
(g70
g51
NtRp704
(dp705
g54
(dp706
sg63
g692
sg56
(lp707
g49
(g50
g51
NtRp708
(dp709
g54
(dp710
g62
I3
ssg63
g704
sg56
(lp711
S''
asbasbasbag49
(g65
g51
NtRp712
(dp713
g54
(dp714
sg63
g588
sg56
(lp715
g49
(g70
g51
NtRp716
(dp717
g54
(dp718
g74
g75
ssg63
g712
sg56
(lp719
g389
asbag49
(g70
g51
NtRp720
(dp721
g54
(dp722
g81
g82
ssg63
g712
sg56
(lp723
S':'
asbag49
(g70
g51
NtRp724
(dp725
g54
(dp726
sg63
g712
sg56
(lp727
g49
(g50
g51
NtRp728
(dp729
g54
(dp730
g62
I3
ssg63
g724
sg56
(lp731
S''
asbasbasbasbasbasbasbag49
(g65
g51
NtRp732
(dp733
g54
(dp734
sg63
g226
sg56
(lp735
g49
(g70
g51
NtRp736
(dp737
g54
(dp738
g74
g75
ssg63
g732
sg56
(lp739
S'session_id_welcome'
p740
asbag49
(g70
g51
NtRp741
(dp742
g54
(dp743
g81
g82
ssg63
g732
sg56
(lp744
S':'
asbag49
(g70
g51
NtRp745
(dp746
g54
(dp747
sg63
g732
sg56
(lp748
g49
(g50
g51
NtRp749
(dp750
g54
(dp751
g62
I4
ssg63
g745
sg56
(lp752
g49
(g58
g51
NtRp753
(dp754
g54
(dp755
g62
I3
ssg63
Nsg56
(lp756
g49
(g65
g51
NtRp757
(dp758
g54
(dp759
sg63
g753
sg56
(lp760
g49
(g70
g51
NtRp761
(dp762
g54
(dp763
g74
g75
ssg63
g757
sg56
(lp764
g263
asbag49
(g70
g51
NtRp765
(dp766
g54
(dp767
g81
g82
ssg63
g757
sg56
(lp768
S':'
asbag49
(g70
g51
NtRp769
(dp770
g54
(dp771
sg63
g757
sg56
(lp772
g49
(g50
g51
NtRp773
(dp774
g54
(dp775
g62
I3
ssg63
g769
sg56
(lp776
S''
asbasbasbag49
(g65
g51
NtRp777
(dp778
g54
(dp779
sg63
g753
sg56
(lp780
g49
(g70
g51
NtRp781
(dp782
g54
(dp783
g74
g75
ssg63
g777
sg56
(lp784
g284
asbag49
(g70
g51
NtRp785
(dp786
g54
(dp787
g81
g82
ssg63
g777
sg56
(lp788
S':'
asbag49
(g70
g51
NtRp789
(dp790
g54
(dp791
sg63
g777
sg56
(lp792
g49
(g50
g51
NtRp793
(dp794
g54
(dp795
g62
I3
ssg63
g789
sg56
(lp796
S''
asbasbasbag49
(g65
g51
NtRp797
(dp798
g54
(dp799
sg63
g753
sg56
(lp800
g49
(g70
g51
NtRp801
(dp802
g54
(dp803
g74
g75
ssg63
g797
sg56
(lp804
g305
asbag49
(g70
g51
NtRp805
(dp806
g54
(dp807
g81
g82
ssg63
g797
sg56
(lp808
S':'
asbag49
(g70
g51
NtRp809
(dp810
g54
(dp811
sg63
g797
sg56
(lp812
g49
(g50
g51
NtRp813
(dp814
g54
(dp815
g62
I3
ssg63
g809
sg56
(lp816
S''
asbasbasbag49
(g65
g51
NtRp817
(dp818
g54
(dp819
sg63
g753
sg56
(lp820
g49
(g70
g51
NtRp821
(dp822
g54
(dp823
g74
g75
ssg63
g817
sg56
(lp824
g326
asbag49
(g70
g51
NtRp825
(dp826
g54
(dp827
g81
g82
ssg63
g817
sg56
(lp828
S':'
asbag49
(g70
g51
NtRp829
(dp830
g54
(dp831
sg63
g817
sg56
(lp832
g49
(g50
g51
NtRp833
(dp834
g54
(dp835
g62
I3
ssg63
g829
sg56
(lp836
S''
asbasbasbag49
(g65
g51
NtRp837
(dp838
g54
(dp839
sg63
g753
sg56
(lp840
g49
(g70
g51
NtRp841
(dp842
g54
(dp843
g74
g75
ssg63
g837
sg56
(lp844
g347
asbag49
(g70
g51
NtRp845
(dp846
g54
(dp847
g81
g82
ssg63
g837
sg56
(lp848
S':'
asbag49
(g70
g51
NtRp849
(dp850
g54
(dp851
sg63
g837
sg56
(lp852
g49
(g50
g51
NtRp853
(dp854
g54
(dp855
g62
I3
ssg63
g849
sg56
(lp856
S''
asbasbasbag49
(g65
g51
NtRp857
(dp858
g54
(dp859
sg63
g753
sg56
(lp860
g49
(g70
g51
NtRp861
(dp862
g54
(dp863
g74
g75
ssg63
g857
sg56
(lp864
g368
asbag49
(g70
g51
NtRp865
(dp866
g54
(dp867
g81
g82
ssg63
g857
sg56
(lp868
S':'
asbag49
(g70
g51
NtRp869
(dp870
g54
(dp871
sg63
g857
sg56
(lp872
g49
(g50
g51
NtRp873
(dp874
g54
(dp875
g62
I3
ssg63
g869
sg56
(lp876
S''
asbasbasbag49
(g65
g51
NtRp877
(dp878
g54
(dp879
sg63
g753
sg56
(lp880
g49
(g70
g51
NtRp881
(dp882
g54
(dp883
g74
g75
ssg63
g877
sg56
(lp884
g389
asbag49
(g70
g51
NtRp885
(dp886
g54
(dp887
g81
g82
ssg63
g877
sg56
(lp888
S':'
asbag49
(g70
g51
NtRp889
(dp890
g54
(dp891
sg63
g877
sg56
(lp892
g49
(g50
g51
NtRp893
(dp894
g54
(dp895
g62
I3
ssg63
g889
sg56
(lp896
S''
asbasbasbasbasbasbasbasbasbasbasbag49
(g65
g51
NtRp897
(dp898
g54
(dp899
sg63
g59
sg56
(lp900
g49
(g70
g51
NtRp901
(dp902
g54
(dp903
g74
g75
ssg63
g897
sg56
(lp904
S'env'
p905
asbag49
(g70
g51
NtRp906
(dp907
g54
(dp908
g81
g82
ssg63
g897
sg56
(lp909
S':'
asbag49
(g70
g51
NtRp910
(dp911
g54
(dp912
sg63
g897
sg56
(lp913
g49
(g50
g51
NtRp914
(dp915
g54
(dp916
g62
I5
ssg63
g910
sg56
(lp917
g49
(g58
g51
NtRp918
(dp919
g54
(dp920
g62
I4
ssg63
Nsg56
(lp921
g49
(g65
g51
NtRp922
(dp923
g54
(dp924
sg63
g918
sg56
(lp925
g49
(g70
g51
NtRp926
(dp927
g54
(dp928
g74
g75
ssg63
g922
sg56
(lp929
S'app_folders'
p930
asbag49
(g70
g51
NtRp931
(dp932
g54
(dp933
g81
g82
ssg63
g922
sg56
(lp934
S':'
asbag49
(g70
g51
NtRp935
(dp936
g54
(dp937
sg63
g922
sg56
(lp938
g49
(g50
g51
NtRp939
(dp940
g54
(dp941
g62
I4
ssg63
g935
sg56
(lp942
S"set(['C:\\\\Users\\\\omkara\\\\Desktop\\\\web2py\\\\applications\\\\admin\\\\', 'C:\\\\Users\\\\omkara\\\\Desktop\\\\web2py\\\\applications\\\\welcome\\\\', 'C:\\\\Users\\\\omkara\\\\Desktop\\\\web2py\\\\applications\\\\SlugBarter\\\\', 'C:\\\\Users\\\\omkara\\\\Desktop\\\\web2py\\\\applications\\\\OnlineNotes_p1_\\\\'])"
p943
asbasbasbag49
(g65
g51
NtRp944
(dp945
g54
(dp946
sg63
g918
sg56
(lp947
g49
(g70
g51
NtRp948
(dp949
g54
(dp950
g74
g75
ssg63
g944
sg56
(lp951
S'applications_parent'
p952
asbag49
(g70
g51
NtRp953
(dp954
g54
(dp955
g81
g82
ssg63
g944
sg56
(lp956
S':'
asbag49
(g70
g51
NtRp957
(dp958
g54
(dp959
sg63
g944
sg56
(lp960
g49
(g50
g51
NtRp961
(dp962
g54
(dp963
g62
I4
ssg63
g957
sg56
(lp964
S'C:\\Users\\omkara\\Desktop\\web2py'
p965
asbasbasbag49
(g65
g51
NtRp966
(dp967
g54
(dp968
sg63
g918
sg56
(lp969
g49
(g70
g51
NtRp970
(dp971
g54
(dp972
g74
g75
ssg63
g966
sg56
(lp973
S'cmd_args'
p974
asbag49
(g70
g51
NtRp975
(dp976
g54
(dp977
g81
g82
ssg63
g966
sg56
(lp978
S':'
asbag49
(g70
g51
NtRp979
(dp980
g54
(dp981
sg63
g966
sg56
(lp982
g49
(g50
g51
NtRp983
(dp984
g54
(dp985
g62
I4
ssg63
g979
sg56
(lp986
g49
(g58
g51
NtRp987
(dp988
g54
(dp989
g62
I3
ssg63
Nsg56
(lp990
sbasbasbasbag49
(g65
g51
NtRp991
(dp992
g54
(dp993
sg63
g918
sg56
(lp994
g49
(g70
g51
NtRp995
(dp996
g54
(dp997
g74
g75
ssg63
g991
sg56
(lp998
S'cmd_options'
p999
asbag49
(g70
g51
NtRp1000
(dp1001
g54
(dp1002
g81
g82
ssg63
g991
sg56
(lp1003
S':'
asbag49
(g70
g51
NtRp1004
(dp1005
g54
(dp1006
sg63
g991
sg56
(lp1007
g49
(g50
g51
NtRp1008
(dp1009
g54
(dp1010
g62
I4
ssg63
g1004
sg56
(lp1011
S"<Values at 0x27a30f8: {'verbose': False, 'ip': '127.0.0.1', 'shutdown_timeout': 5, 'taskbar': False, 'nocron': False, 'pid_filename': 'httpserver.pid', 'maxthreads': None, 'softcron': False, 'server_name': 'omkara-PC', 'bpython': False, 'nogui': False, 'port': 8000, 'extcron': False, 'debuglevel': 30, 'test': None, 'folder': 'C:\\\\Users\\\\omkara\\\\Desktop\\\\web2py', 'config': '', 'import_models': False, 'winservice': '', 'shell': None, 'run': '', 'log_filename': 'httpserver.log', 'args': [''], 'socket_timeout': 5, 'ssl_ca_certificate': None, 'scheduler': None, 'profiler_filename': None, 'ssl_private_key': '', 'password': '<ask>', 'request_queue_size': 5, 'ssl_certificate': '', 'cronjob': False, 'numthreads': None, 'quiet': False, 'interfaces': None, 'minthreads': None, 'timeout': 10, 'plain': False, 'nobanner': False}>"
p1012
asbasbasbag49
(g65
g51
NtRp1013
(dp1014
g54
(dp1015
sg63
g918
sg56
(lp1016
g49
(g70
g51
NtRp1017
(dp1018
g54
(dp1019
g74
g75
ssg63
g1013
sg56
(lp1020
S'db_sessions'
p1021
asbag49
(g70
g51
NtRp1022
(dp1023
g54
(dp1024
g81
g82
ssg63
g1013
sg56
(lp1025
S':'
asbag49
(g70
g51
NtRp1026
(dp1027
g54
(dp1028
sg63
g1013
sg56
(lp1029
g49
(g50
g51
NtRp1030
(dp1031
g54
(dp1032
g62
I4
ssg63
g1026
sg56
(lp1033
S'set([])'
p1034
asbasbasbag49
(g65
g51
NtRp1035
(dp1036
g54
(dp1037
sg63
g918
sg56
(lp1038
g49
(g70
g51
NtRp1039
(dp1040
g54
(dp1041
g74
g75
ssg63
g1035
sg56
(lp1042
S'debugging'
p1043
asbag49
(g70
g51
NtRp1044
(dp1045
g54
(dp1046
g81
g82
ssg63
g1035
sg56
(lp1047
S':'
asbag49
(g70
g51
NtRp1048
(dp1049
g54
(dp1050
sg63
g1035
sg56
(lp1051
g49
(g50
g51
NtRp1052
(dp1053
g54
(dp1054
g62
I4
ssg63
g1048
sg56
(lp1055
g92
asbasbasbag49
(g65
g51
NtRp1056
(dp1057
g54
(dp1058
sg63
g918
sg56
(lp1059
g49
(g70
g51
NtRp1060
(dp1061
g54
(dp1062
g74
g75
ssg63
g1056
sg56
(lp1063
S'gluon_parent'
p1064
asbag49
(g70
g51
NtRp1065
(dp1066
g54
(dp1067
g81
g82
ssg63
g1056
sg56
(lp1068
S':'
asbag49
(g70
g51
NtRp1069
(dp1070
g54
(dp1071
sg63
g1056
sg56
(lp1072
g49
(g50
g51
NtRp1073
(dp1074
g54
(dp1075
g62
I4
ssg63
g1069
sg56
(lp1076
S'C:\\Users\\omkara\\Desktop\\web2py'
p1077
asbasbasbag49
(g65
g51
NtRp1078
(dp1079
g54
(dp1080
sg63
g918
sg56
(lp1081
g49
(g70
g51
NtRp1082
(dp1083
g54
(dp1084
g74
g75
ssg63
g1078
sg56
(lp1085
S'http_accept'
p1086
asbag49
(g70
g51
NtRp1087
(dp1088
g54
(dp1089
g81
g82
ssg63
g1078
sg56
(lp1090
S':'
asbag49
(g70
g51
NtRp1091
(dp1092
g54
(dp1093
sg63
g1078
sg56
(lp1094
g49
(g50
g51
NtRp1095
(dp1096
g54
(dp1097
g62
I4
ssg63
g1091
sg56
(lp1098
S'text/html,application/xhtml+xml,application/xml;q=0.9,*/*;q=0.8'
p1099
asbasbasbag49
(g65
g51
NtRp1100
(dp1101
g54
(dp1102
sg63
g918
sg56
(lp1103
g49
(g70
g51
NtRp1104
(dp1105
g54
(dp1106
g74
g75
ssg63
g1100
sg56
(lp1107
S'http_accept_charset'
p1108
asbag49
(g70
g51
NtRp1109
(dp1110
g54
(dp1111
g81
g82
ssg63
g1100
sg56
(lp1112
S':'
asbag49
(g70
g51
NtRp1113
(dp1114
g54
(dp1115
sg63
g1100
sg56
(lp1116
g49
(g50
g51
NtRp1117
(dp1118
g54
(dp1119
g62
I4
ssg63
g1113
sg56
(lp1120
S'ISO-8859-1,utf-8;q=0.7,*;q=0.3'
p1121
asbasbasbag49
(g65
g51
NtRp1122
(dp1123
g54
(dp1124
sg63
g918
sg56
(lp1125
g49
(g70
g51
NtRp1126
(dp1127
g54
(dp1128
g74
g75
ssg63
g1122
sg56
(lp1129
S'http_accept_encoding'
p1130
asbag49
(g70
g51
NtRp1131
(dp1132
g54
(dp1133
g81
g82
ssg63
g1122
sg56
(lp1134
S':'
asbag49
(g70
g51
NtRp1135
(dp1136
g54
(dp1137
sg63
g1122
sg56
(lp1138
g49
(g50
g51
NtRp1139
(dp1140
g54
(dp1141
g62
I4
ssg63
g1135
sg56
(lp1142
S'gzip,deflate,sdch'
p1143
asbasbasbag49
(g65
g51
NtRp1144
(dp1145
g54
(dp1146
sg63
g918
sg56
(lp1147
g49
(g70
g51
NtRp1148
(dp1149
g54
(dp1150
g74
g75
ssg63
g1144
sg56
(lp1151
S'http_accept_language'
p1152
asbag49
(g70
g51
NtRp1153
(dp1154
g54
(dp1155
g81
g82
ssg63
g1144
sg56
(lp1156
S':'
asbag49
(g70
g51
NtRp1157
(dp1158
g54
(dp1159
sg63
g1144
sg56
(lp1160
g49
(g50
g51
NtRp1161
(dp1162
g54
(dp1163
g62
I4
ssg63
g1157
sg56
(lp1164
S'en-US,en;q=0.8'
p1165
asbasbasbag49
(g65
g51
NtRp1166
(dp1167
g54
(dp1168
sg63
g918
sg56
(lp1169
g49
(g70
g51
NtRp1170
(dp1171
g54
(dp1172
g74
g75
ssg63
g1166
sg56
(lp1173
S'http_connection'
p1174
asbag49
(g70
g51
NtRp1175
(dp1176
g54
(dp1177
g81
g82
ssg63
g1166
sg56
(lp1178
S':'
asbag49
(g70
g51
NtRp1179
(dp1180
g54
(dp1181
sg63
g1166
sg56
(lp1182
g49
(g50
g51
NtRp1183
(dp1184
g54
(dp1185
g62
I4
ssg63
g1179
sg56
(lp1186
S'keep-alive'
p1187
asbasbasbag49
(g65
g51
NtRp1188
(dp1189
g54
(dp1190
sg63
g918
sg56
(lp1191
g49
(g70
g51
NtRp1192
(dp1193
g54
(dp1194
g74
g75
ssg63
g1188
sg56
(lp1195
S'http_cookie'
p1196
asbag49
(g70
g51
NtRp1197
(dp1198
g54
(dp1199
g81
g82
ssg63
g1188
sg56
(lp1200
S':'
asbag49
(g70
g51
NtRp1201
(dp1202
g54
(dp1203
sg63
g1188
sg56
(lp1204
g49
(g50
g51
NtRp1205
(dp1206
g54
(dp1207
g62
I4
ssg63
g1201
sg56
(lp1208
S'session_id_welcome=127.0.0.1-a1b3016b-66b8-408b-ae8e-37231f35f16e; session_id_onlinenotes_p1_=127.0.0.1-2b1a349f-aa95-4718-93d5-e7df1c85d951; session_id_slugbarter=127.0.0.1-e6ebae72-1bbc-48a5-9458-95dbb65a4e54; session_id_admin=127.0.0.1-3b1553ef-7186-4588-80e8-d2bbbaa88c9f'
p1209
asbasbasbag49
(g65
g51
NtRp1210
(dp1211
g54
(dp1212
sg63
g918
sg56
(lp1213
g49
(g70
g51
NtRp1214
(dp1215
g54
(dp1216
g74
g75
ssg63
g1210
sg56
(lp1217
S'http_host'
p1218
asbag49
(g70
g51
NtRp1219
(dp1220
g54
(dp1221
g81
g82
ssg63
g1210
sg56
(lp1222
S':'
asbag49
(g70
g51
NtRp1223
(dp1224
g54
(dp1225
sg63
g1210
sg56
(lp1226
g49
(g50
g51
NtRp1227
(dp1228
g54
(dp1229
g62
I4
ssg63
g1223
sg56
(lp1230
S'127.0.0.1:8000'
p1231
asbasbasbag49
(g65
g51
NtRp1232
(dp1233
g54
(dp1234
sg63
g918
sg56
(lp1235
g49
(g70
g51
NtRp1236
(dp1237
g54
(dp1238
g74
g75
ssg63
g1232
sg56
(lp1239
S'http_referer'
p1240
asbag49
(g70
g51
NtRp1241
(dp1242
g54
(dp1243
g81
g82
ssg63
g1232
sg56
(lp1244
S':'
asbag49
(g70
g51
NtRp1245
(dp1246
g54
(dp1247
sg63
g1232
sg56
(lp1248
g49
(g50
g51
NtRp1249
(dp1250
g54
(dp1251
g62
I4
ssg63
g1245
sg56
(lp1252
S'http://127.0.0.1:8000/admin/default/design/SlugBarter'
p1253
asbasbasbag49
(g65
g51
NtRp1254
(dp1255
g54
(dp1256
sg63
g918
sg56
(lp1257
g49
(g70
g51
NtRp1258
(dp1259
g54
(dp1260
g74
g75
ssg63
g1254
sg56
(lp1261
S'http_user_agent'
p1262
asbag49
(g70
g51
NtRp1263
(dp1264
g54
(dp1265
g81
g82
ssg63
g1254
sg56
(lp1266
S':'
asbag49
(g70
g51
NtRp1267
(dp1268
g54
(dp1269
sg63
g1254
sg56
(lp1270
g49
(g50
g51
NtRp1271
(dp1272
g54
(dp1273
g62
I4
ssg63
g1267
sg56
(lp1274
S'Mozilla/5.0 (Windows NT 6.1) AppleWebKit/537.11 (KHTML, like Gecko) Chrome/23.0.1271.64 Safari/537.11'
p1275
asbasbasbag49
(g65
g51
NtRp1276
(dp1277
g54
(dp1278
sg63
g918
sg56
(lp1279
g49
(g70
g51
NtRp1280
(dp1281
g54
(dp1282
g74
g75
ssg63
g1276
sg56
(lp1283
S'is_jython'
p1284
asbag49
(g70
g51
NtRp1285
(dp1286
g54
(dp1287
g81
g82
ssg63
g1276
sg56
(lp1288
S':'
asbag49
(g70
g51
NtRp1289
(dp1290
g54
(dp1291
sg63
g1276
sg56
(lp1292
g49
(g50
g51
NtRp1293
(dp1294
g54
(dp1295
g62
I4
ssg63
g1289
sg56
(lp1296
g92
asbasbasbag49
(g65
g51
NtRp1297
(dp1298
g54
(dp1299
sg63
g918
sg56
(lp1300
g49
(g70
g51
NtRp1301
(dp1302
g54
(dp1303
g74
g75
ssg63
g1297
sg56
(lp1304
S'is_pypy'
p1305
asbag49
(g70
g51
NtRp1306
(dp1307
g54
(dp1308
g81
g82
ssg63
g1297
sg56
(lp1309
S':'
asbag49
(g70
g51
NtRp1310
(dp1311
g54
(dp1312
sg63
g1297
sg56
(lp1313
g49
(g50
g51
NtRp1314
(dp1315
g54
(dp1316
g62
I4
ssg63
g1310
sg56
(lp1317
g92
asbasbasbag49
(g65
g51
NtRp1318
(dp1319
g54
(dp1320
sg63
g918
sg56
(lp1321
g49
(g70
g51
NtRp1322
(dp1323
g54
(dp1324
g74
g75
ssg63
g1318
sg56
(lp1325
S'path_info'
p1326
asbag49
(g70
g51
NtRp1327
(dp1328
g54
(dp1329
g81
g82
ssg63
g1318
sg56
(lp1330
S':'
asbag49
(g70
g51
NtRp1331
(dp1332
g54
(dp1333
sg63
g1318
sg56
(lp1334
g49
(g50
g51
NtRp1335
(dp1336
g54
(dp1337
g62
I4
ssg63
g1331
sg56
(lp1338
S'/SlugBarter/default/index'
p1339
asbasbasbag49
(g65
g51
NtRp1340
(dp1341
g54
(dp1342
sg63
g918
sg56
(lp1343
g49
(g70
g51
NtRp1344
(dp1345
g54
(dp1346
g74
g75
ssg63
g1340
sg56
(lp1347
S'query_string'
p1348
asbag49
(g70
g51
NtRp1349
(dp1350
g54
(dp1351
g81
g82
ssg63
g1340
sg56
(lp1352
S':'
asbag49
(g70
g51
NtRp1353
(dp1354
g54
(dp1355
sg63
g1340
sg56
(lp1356
g49
(g50
g51
NtRp1357
(dp1358
g54
(dp1359
g62
I4
ssg63
g1353
sg56
(lp1360
S''
asbasbasbag49
(g65
g51
NtRp1361
(dp1362
g54
(dp1363
sg63
g918
sg56
(lp1364
g49
(g70
g51
NtRp1365
(dp1366
g54
(dp1367
g74
g75
ssg63
g1361
sg56
(lp1368
S'remote_addr'
p1369
asbag49
(g70
g51
NtRp1370
(dp1371
g54
(dp1372
g81
g82
ssg63
g1361
sg56
(lp1373
S':'
asbag49
(g70
g51
NtRp1374
(dp1375
g54
(dp1376
sg63
g1361
sg56
(lp1377
g49
(g50
g51
NtRp1378
(dp1379
g54
(dp1380
g62
I4
ssg63
g1374
sg56
(lp1381
g182
asbasbasbag49
(g65
g51
NtRp1382
(dp1383
g54
(dp1384
sg63
g918
sg56
(lp1385
g49
(g70
g51
NtRp1386
(dp1387
g54
(dp1388
g74
g75
ssg63
g1382
sg56
(lp1389
S'remote_port'
p1390
asbag49
(g70
g51
NtRp1391
(dp1392
g54
(dp1393
g81
g82
ssg63
g1382
sg56
(lp1394
S':'
asbag49
(g70
g51
NtRp1395
(dp1396
g54
(dp1397
sg63
g1382
sg56
(lp1398
g49
(g50
g51
NtRp1399
(dp1400
g54
(dp1401
g62
I4
ssg63
g1395
sg56
(lp1402
S'58099'
p1403
asbasbasbag49
(g65
g51
NtRp1404
(dp1405
g54
(dp1406
sg63
g918
sg56
(lp1407
g49
(g70
g51
NtRp1408
(dp1409
g54
(dp1410
g74
g75
ssg63
g1404
sg56
(lp1411
S'request_method'
p1412
asbag49
(g70
g51
NtRp1413
(dp1414
g54
(dp1415
g81
g82
ssg63
g1404
sg56
(lp1416
S':'
asbag49
(g70
g51
NtRp1417
(dp1418
g54
(dp1419
sg63
g1404
sg56
(lp1420
g49
(g50
g51
NtRp1421
(dp1422
g54
(dp1423
g62
I4
ssg63
g1417
sg56
(lp1424
S'GET'
p1425
asbasbasbag49
(g65
g51
NtRp1426
(dp1427
g54
(dp1428
sg63
g918
sg56
(lp1429
g49
(g70
g51
NtRp1430
(dp1431
g54
(dp1432
g74
g75
ssg63
g1426
sg56
(lp1433
S'script_name'
p1434
asbag49
(g70
g51
NtRp1435
(dp1436
g54
(dp1437
g81
g82
ssg63
g1426
sg56
(lp1438
S':'
asbag49
(g70
g51
NtRp1439
(dp1440
g54
(dp1441
sg63
g1426
sg56
(lp1442
g49
(g50
g51
NtRp1443
(dp1444
g54
(dp1445
g62
I4
ssg63
g1439
sg56
(lp1446
S''
asbasbasbag49
(g65
g51
NtRp1447
(dp1448
g54
(dp1449
sg63
g918
sg56
(lp1450
g49
(g70
g51
NtRp1451
(dp1452
g54
(dp1453
g74
g75
ssg63
g1447
sg56
(lp1454
S'server_name'
p1455
asbag49
(g70
g51
NtRp1456
(dp1457
g54
(dp1458
g81
g82
ssg63
g1447
sg56
(lp1459
S':'
asbag49
(g70
g51
NtRp1460
(dp1461
g54
(dp1462
sg63
g1447
sg56
(lp1463
g49
(g50
g51
NtRp1464
(dp1465
g54
(dp1466
g62
I4
ssg63
g1460
sg56
(lp1467
S'omkara-PC'
p1468
asbasbasbag49
(g65
g51
NtRp1469
(dp1470
g54
(dp1471
sg63
g918
sg56
(lp1472
g49
(g70
g51
NtRp1473
(dp1474
g54
(dp1475
g74
g75
ssg63
g1469
sg56
(lp1476
S'server_port'
p1477
asbag49
(g70
g51
NtRp1478
(dp1479
g54
(dp1480
g81
g82
ssg63
g1469
sg56
(lp1481
S':'
asbag49
(g70
g51
NtRp1482
(dp1483
g54
(dp1484
sg63
g1469
sg56
(lp1485
g49
(g50
g51
NtRp1486
(dp1487
g54
(dp1488
g62
I4
ssg63
g1482
sg56
(lp1489
S'8000'
p1490
asbasbasbag49
(g65
g51
NtRp1491
(dp1492
g54
(dp1493
sg63
g918
sg56
(lp1494
g49
(g70
g51
NtRp1495
(dp1496
g54
(dp1497
g74
g75
ssg63
g1491
sg56
(lp1498
S'server_protocol'
p1499
asbag49
(g70
g51
NtRp1500
(dp1501
g54
(dp1502
g81
g82
ssg63
g1491
sg56
(lp1503
S':'
asbag49
(g70
g51
NtRp1504
(dp1505
g54
(dp1506
sg63
g1491
sg56
(lp1507
g49
(g50
g51
NtRp1508
(dp1509
g54
(dp1510
g62
I4
ssg63
g1504
sg56
(lp1511
S'HTTP/1.1'
p1512
asbasbasbag49
(g65
g51
NtRp1513
(dp1514
g54
(dp1515
sg63
g918
sg56
(lp1516
g49
(g70
g51
NtRp1517
(dp1518
g54
(dp1519
g74
g75
ssg63
g1513
sg56
(lp1520
S'server_software'
p1521
asbag49
(g70
g51
NtRp1522
(dp1523
g54
(dp1524
g81
g82
ssg63
g1513
sg56
(lp1525
S':'
asbag49
(g70
g51
NtRp1526
(dp1527
g54
(dp1528
sg63
g1513
sg56
(lp1529
g49
(g50
g51
NtRp1530
(dp1531
g54
(dp1532
g62
I4
ssg63
g1526
sg56
(lp1533
S'Rocket 1.2.4'
p1534
asbasbasbag49
(g65
g51
NtRp1535
(dp1536
g54
(dp1537
sg63
g918
sg56
(lp1538
g49
(g70
g51
NtRp1539
(dp1540
g54
(dp1541
g74
g75
ssg63
g1535
sg56
(lp1542
S'web2py_crontype'
p1543
asbag49
(g70
g51
NtRp1544
(dp1545
g54
(dp1546
g81
g82
ssg63
g1535
sg56
(lp1547
S':'
asbag49
(g70
g51
NtRp1548
(dp1549
g54
(dp1550
sg63
g1535
sg56
(lp1551
g49
(g50
g51
NtRp1552
(dp1553
g54
(dp1554
g62
I4
ssg63
g1548
sg56
(lp1555
S'hard'
p1556
asbasbasbag49
(g65
g51
NtRp1557
(dp1558
g54
(dp1559
sg63
g918
sg56
(lp1560
g49
(g70
g51
NtRp1561
(dp1562
g54
(dp1563
g74
g75
ssg63
g1557
sg56
(lp1564
S'web2py_path'
p1565
asbag49
(g70
g51
NtRp1566
(dp1567
g54
(dp1568
g81
g82
ssg63
g1557
sg56
(lp1569
S':'
asbag49
(g70
g51
NtRp1570
(dp1571
g54
(dp1572
sg63
g1557
sg56
(lp1573
g49
(g50
g51
NtRp1574
(dp1575
g54
(dp1576
g62
I4
ssg63
g1570
sg56
(lp1577
g965
asbasbasbag49
(g65
g51
NtRp1578
(dp1579
g54
(dp1580
sg63
g918
sg56
(lp1581
g49
(g70
g51
NtRp1582
(dp1583
g54
(dp1584
g74
g75
ssg63
g1578
sg56
(lp1585
S'web2py_version'
p1586
asbag49
(g70
g51
NtRp1587
(dp1588
g54
(dp1589
g81
g82
ssg63
g1578
sg56
(lp1590
S':'
asbag49
(g70
g51
NtRp1591
(dp1592
g54
(dp1593
sg63
g1578
sg56
(lp1594
g49
(g50
g51
NtRp1595
(dp1596
g54
(dp1597
g62
I4
ssg63
g1591
sg56
(lp1598
g49
(g58
g51
NtRp1599
(dp1600
g54
(dp1601
g62
I3
ssg63
Nsg56
(lp1602
g49
(g65
g51
NtRp1603
(dp1604
g54
(dp1605
sg63
g1599
sg56
(lp1606
g49
(g70
g51
NtRp1607
(dp1608
g54
(dp1609
sg63
g1603
sg56
(lp1610
g49
(g50
g51
NtRp1611
(dp1612
g54
(dp1613
g62
I3
ssg63
g1607
sg56
(lp1614
S'1'
asbasbasbag49
(g65
g51
NtRp1615
(dp1616
g54
(dp1617
sg63
g1599
sg56
(lp1618
g49
(g70
g51
NtRp1619
(dp1620
g54
(dp1621
sg63
g1615
sg56
(lp1622
g49
(g50
g51
NtRp1623
(dp1624
g54
(dp1625
g62
I3
ssg63
g1619
sg56
(lp1626
S'99'
p1627
asbasbasbag49
(g65
g51
NtRp1628
(dp1629
g54
(dp1630
sg63
g1599
sg56
(lp1631
g49
(g70
g51
NtRp1632
(dp1633
g54
(dp1634
sg63
g1628
sg56
(lp1635
g49
(g50
g51
NtRp1636
(dp1637
g54
(dp1638
g62
I3
ssg63
g1632
sg56
(lp1639
S'7'
asbasbasbag49
(g65
g51
NtRp1640
(dp1641
g54
(dp1642
sg63
g1599
sg56
(lp1643
g49
(g70
g51
NtRp1644
(dp1645
g54
(dp1646
sg63
g1640
sg56
(lp1647
g49
(g50
g51
NtRp1648
(dp1649
g54
(dp1650
g62
I3
ssg63
g1644
sg56
(lp1651
S'datetime.datetime(2012, 3, 4, 22, 12, 8)'
p1652
asbasbasbag49
(g65
g51
NtRp1653
(dp1654
g54
(dp1655
sg63
g1599
sg56
(lp1656
g49
(g70
g51
NtRp1657
(dp1658
g54
(dp1659
sg63
g1653
sg56
(lp1660
g49
(g50
g51
NtRp1661
(dp1662
g54
(dp1663
g62
I3
ssg63
g1657
sg56
(lp1664
S'stable'
p1665
asbasbasbasbasbasbasbag49
(g65
g51
NtRp1666
(dp1667
g54
(dp1668
sg63
g918
sg56
(lp1669
g49
(g70
g51
NtRp1670
(dp1671
g54
(dp1672
g74
g75
ssg63
g1666
sg56
(lp1673
S'wsgi_errors'
p1674
asbag49
(g70
g51
NtRp1675
(dp1676
g54
(dp1677
g81
g82
ssg63
g1666
sg56
(lp1678
S':'
asbag49
(g70
g51
NtRp1679
(dp1680
g54
(dp1681
sg63
g1666
sg56
(lp1682
g49
(g50
g51
NtRp1683
(dp1684
g54
(dp1685
g62
I4
ssg63
g1679
sg56
(lp1686
S'<__main__.Stderr object at 0x01667670>'
p1687
asbasbasbag49
(g65
g51
NtRp1688
(dp1689
g54
(dp1690
sg63
g918
sg56
(lp1691
g49
(g70
g51
NtRp1692
(dp1693
g54
(dp1694
g74
g75
ssg63
g1688
sg56
(lp1695
S'wsgi_file_wrapper'
p1696
asbag49
(g70
g51
NtRp1697
(dp1698
g54
(dp1699
g81
g82
ssg63
g1688
sg56
(lp1700
S':'
asbag49
(g70
g51
NtRp1701
(dp1702
g54
(dp1703
sg63
g1688
sg56
(lp1704
g49
(g50
g51
NtRp1705
(dp1706
g54
(dp1707
g62
I4
ssg63
g1701
sg56
(lp1708
S'<class wsgiref.util.FileWrapper at 0x02532210>'
p1709
asbasbasbag49
(g65
g51
NtRp1710
(dp1711
g54
(dp1712
sg63
g918
sg56
(lp1713
g49
(g70
g51
NtRp1714
(dp1715
g54
(dp1716
g74
g75
ssg63
g1710
sg56
(lp1717
S'wsgi_input'
p1718
asbag49
(g70
g51
NtRp1719
(dp1720
g54
(dp1721
g81
g82
ssg63
g1710
sg56
(lp1722
S':'
asbag49
(g70
g51
NtRp1723
(dp1724
g54
(dp1725
sg63
g1710
sg56
(lp1726
g49
(g50
g51
NtRp1727
(dp1728
g54
(dp1729
g62
I4
ssg63
g1723
sg56
(lp1730
S'<socket._fileobject object at 0x06460230>'
p1731
asbasbasbag49
(g65
g51
NtRp1732
(dp1733
g54
(dp1734
sg63
g918
sg56
(lp1735
g49
(g70
g51
NtRp1736
(dp1737
g54
(dp1738
g74
g75
ssg63
g1732
sg56
(lp1739
S'wsgi_multiprocess'
p1740
asbag49
(g70
g51
NtRp1741
(dp1742
g54
(dp1743
g81
g82
ssg63
g1732
sg56
(lp1744
S':'
asbag49
(g70
g51
NtRp1745
(dp1746
g54
(dp1747
sg63
g1732
sg56
(lp1748
g49
(g50
g51
NtRp1749
(dp1750
g54
(dp1751
g62
I4
ssg63
g1745
sg56
(lp1752
g92
asbasbasbag49
(g65
g51
NtRp1753
(dp1754
g54
(dp1755
sg63
g918
sg56
(lp1756
g49
(g70
g51
NtRp1757
(dp1758
g54
(dp1759
g74
g75
ssg63
g1753
sg56
(lp1760
S'wsgi_multithread'
p1761
asbag49
(g70
g51
NtRp1762
(dp1763
g54
(dp1764
g81
g82
ssg63
g1753
sg56
(lp1765
S':'
asbag49
(g70
g51
NtRp1766
(dp1767
g54
(dp1768
sg63
g1753
sg56
(lp1769
g49
(g50
g51
NtRp1770
(dp1771
g54
(dp1772
g62
I4
ssg63
g1766
sg56
(lp1773
S'True'
p1774
asbasbasbag49
(g65
g51
NtRp1775
(dp1776
g54
(dp1777
sg63
g918
sg56
(lp1778
g49
(g70
g51
NtRp1779
(dp1780
g54
(dp1781
g74
g75
ssg63
g1775
sg56
(lp1782
S'wsgi_run_once'
p1783
asbag49
(g70
g51
NtRp1784
(dp1785
g54
(dp1786
g81
g82
ssg63
g1775
sg56
(lp1787
S':'
asbag49
(g70
g51
NtRp1788
(dp1789
g54
(dp1790
sg63
g1775
sg56
(lp1791
g49
(g50
g51
NtRp1792
(dp1793
g54
(dp1794
g62
I4
ssg63
g1788
sg56
(lp1795
g92
asbasbasbag49
(g65
g51
NtRp1796
(dp1797
g54
(dp1798
sg63
g918
sg56
(lp1799
g49
(g70
g51
NtRp1800
(dp1801
g54
(dp1802
g74
g75
ssg63
g1796
sg56
(lp1803
S'wsgi_url_scheme'
p1804
asbag49
(g70
g51
NtRp1805
(dp1806
g54
(dp1807
g81
g82
ssg63
g1796
sg56
(lp1808
S':'
asbag49
(g70
g51
NtRp1809
(dp1810
g54
(dp1811
sg63
g1796
sg56
(lp1812
g49
(g50
g51
NtRp1813
(dp1814
g54
(dp1815
g62
I4
ssg63
g1809
sg56
(lp1816
S'http'
p1817
asbasbasbag49
(g65
g51
NtRp1818
(dp1819
g54
(dp1820
sg63
g918
sg56
(lp1821
g49
(g70
g51
NtRp1822
(dp1823
g54
(dp1824
g74
g75
ssg63
g1818
sg56
(lp1825
S'wsgi_version'
p1826
asbag49
(g70
g51
NtRp1827
(dp1828
g54
(dp1829
g81
g82
ssg63
g1818
sg56
(lp1830
S':'
asbag49
(g70
g51
NtRp1831
(dp1832
g54
(dp1833
sg63
g1818
sg56
(lp1834
g49
(g50
g51
NtRp1835
(dp1836
g54
(dp1837
g62
I4
ssg63
g1831
sg56
(lp1838
g49
(g58
g51
NtRp1839
(dp1840
g54
(dp1841
g62
I3
ssg63
Nsg56
(lp1842
g49
(g65
g51
NtRp1843
(dp1844
g54
(dp1845
sg63
g1839
sg56
(lp1846
g49
(g70
g51
NtRp1847
(dp1848
g54
(dp1849
sg63
g1843
sg56
(lp1850
g49
(g50
g51
NtRp1851
(dp1852
g54
(dp1853
g62
I3
ssg63
g1847
sg56
(lp1854
S'1'
asbasbasbag49
(g65
g51
NtRp1855
(dp1856
g54
(dp1857
sg63
g1839
sg56
(lp1858
g49
(g70
g51
NtRp1859
(dp1860
g54
(dp1861
sg63
g1855
sg56
(lp1862
g49
(g50
g51
NtRp1863
(dp1864
g54
(dp1865
g62
I3
ssg63
g1859
sg56
(lp1866
S'0'
asbasbasbasbasbasbasbasbasbasbasbag49
(g65
g51
NtRp1867
(dp1868
g54
(dp1869
sg63
g59
sg56
(lp1870
g49
(g70
g51
NtRp1871
(dp1872
g54
(dp1873
g74
g75
ssg63
g1867
sg56
(lp1874
S'extension'
p1875
asbag49
(g70
g51
NtRp1876
(dp1877
g54
(dp1878
g81
g82
ssg63
g1867
sg56
(lp1879
S':'
asbag49
(g70
g51
NtRp1880
(dp1881
g54
(dp1882
sg63
g1867
sg56
(lp1883
g49
(g50
g51
NtRp1884
(dp1885
g54
(dp1886
g62
I5
ssg63
g1880
sg56
(lp1887
S'html'
p1888
asbasbasbag49
(g65
g51
NtRp1889
(dp1890
g54
(dp1891
sg63
g59
sg56
(lp1892
g49
(g70
g51
NtRp1893
(dp1894
g54
(dp1895
g74
g75
ssg63
g1889
sg56
(lp1896
S'folder'
p1897
asbag49
(g70
g51
NtRp1898
(dp1899
g54
(dp1900
g81
g82
ssg63
g1889
sg56
(lp1901
S':'
asbag49
(g70
g51
NtRp1902
(dp1903
g54
(dp1904
sg63
g1889
sg56
(lp1905
g49
(g50
g51
NtRp1906
(dp1907
g54
(dp1908
g62
I5
ssg63
g1902
sg56
(lp1909
S'C:\\Users\\omkara\\Desktop\\web2py\\applications\\SlugBarter\\'
p1910
asbasbasbag49
(g65
g51
NtRp1911
(dp1912
g54
(dp1913
sg63
g59
sg56
(lp1914
g49
(g70
g51
NtRp1915
(dp1916
g54
(dp1917
g74
g75
ssg63
g1911
sg56
(lp1918
S'function'
p1919
asbag49
(g70
g51
NtRp1920
(dp1921
g54
(dp1922
g81
g82
ssg63
g1911
sg56
(lp1923
S':'
asbag49
(g70
g51
NtRp1924
(dp1925
g54
(dp1926
sg63
g1911
sg56
(lp1927
g49
(g50
g51
NtRp1928
(dp1929
g54
(dp1930
g62
I5
ssg63
g1924
sg56
(lp1931
S'index'
p1932
asbasbasbag49
(g65
g51
NtRp1933
(dp1934
g54
(dp1935
sg63
g59
sg56
(lp1936
g49
(g70
g51
NtRp1937
(dp1938
g54
(dp1939
g74
g75
ssg63
g1933
sg56
(lp1940
S'get_vars'
p1941
asbag49
(g70
g51
NtRp1942
(dp1943
g54
(dp1944
g81
g82
ssg63
g1933
sg56
(lp1945
S':'
asbag49
(g70
g51
NtRp1946
(dp1947
g54
(dp1948
sg63
g1933
sg56
(lp1949
g49
(g50
g51
NtRp1950
(dp1951
g54
(dp1952
g62
I5
ssg63
g1946
sg56
(lp1953
g49
(g58
g51
NtRp1954
(dp1955
g54
(dp1956
g62
I4
ssg63
Nsg56
(lp1957
sbasbasbasbag49
(g65
g51
NtRp1958
(dp1959
g54
(dp1960
sg63
g59
sg56
(lp1961
g49
(g70
g51
NtRp1962
(dp1963
g54
(dp1964
g74
g75
ssg63
g1958
sg56
(lp1965
S'global_settings'
p1966
asbag49
(g70
g51
NtRp1967
(dp1968
g54
(dp1969
g81
g82
ssg63
g1958
sg56
(lp1970
S':'
asbag49
(g70
g51
NtRp1971
(dp1972
g54
(dp1973
sg63
g1958
sg56
(lp1974
g49
(g50
g51
NtRp1975
(dp1976
g54
(dp1977
g62
I5
ssg63
g1971
sg56
(lp1978
g49
(g58
g51
NtRp1979
(dp1980
g54
(dp1981
g62
I4
ssg63
Nsg56
(lp1982
g49
(g65
g51
NtRp1983
(dp1984
g54
(dp1985
sg63
g1979
sg56
(lp1986
g49
(g70
g51
NtRp1987
(dp1988
g54
(dp1989
g74
g75
ssg63
g1983
sg56
(lp1990
g930
asbag49
(g70
g51
NtRp1991
(dp1992
g54
(dp1993
g81
g82
ssg63
g1983
sg56
(lp1994
S':'
asbag49
(g70
g51
NtRp1995
(dp1996
g54
(dp1997
sg63
g1983
sg56
(lp1998
g49
(g50
g51
NtRp1999
(dp2000
g54
(dp2001
g62
I4
ssg63
g1995
sg56
(lp2002
S"set(['C:\\\\Users\\\\omkara\\\\Desktop\\\\web2py\\\\applications\\\\admin\\\\', 'C:\\\\Users\\\\omkara\\\\Desktop\\\\web2py\\\\applications\\\\welcome\\\\', 'C:\\\\Users\\\\omkara\\\\Desktop\\\\web2py\\\\applications\\\\SlugBarter\\\\', 'C:\\\\Users\\\\omkara\\\\Desktop\\\\web2py\\\\applications\\\\OnlineNotes_p1_\\\\'])"
p2003
asbasbasbag49
(g65
g51
NtRp2004
(dp2005
g54
(dp2006
sg63
g1979
sg56
(lp2007
g49
(g70
g51
NtRp2008
(dp2009
g54
(dp2010
g74
g75
ssg63
g2004
sg56
(lp2011
g952
asbag49
(g70
g51
NtRp2012
(dp2013
g54
(dp2014
g81
g82
ssg63
g2004
sg56
(lp2015
S':'
asbag49
(g70
g51
NtRp2016
(dp2017
g54
(dp2018
sg63
g2004
sg56
(lp2019
g49
(g50
g51
NtRp2020
(dp2021
g54
(dp2022
g62
I4
ssg63
g2016
sg56
(lp2023
g965
asbasbasbag49
(g65
g51
NtRp2024
(dp2025
g54
(dp2026
sg63
g1979
sg56
(lp2027
g49
(g70
g51
NtRp2028
(dp2029
g54
(dp2030
g74
g75
ssg63
g2024
sg56
(lp2031
g974
asbag49
(g70
g51
NtRp2032
(dp2033
g54
(dp2034
g81
g82
ssg63
g2024
sg56
(lp2035
S':'
asbag49
(g70
g51
NtRp2036
(dp2037
g54
(dp2038
sg63
g2024
sg56
(lp2039
g49
(g50
g51
NtRp2040
(dp2041
g54
(dp2042
g62
I4
ssg63
g2036
sg56
(lp2043
g49
(g58
g51
NtRp2044
(dp2045
g54
(dp2046
g62
I3
ssg63
Nsg56
(lp2047
sbasbasbasbag49
(g65
g51
NtRp2048
(dp2049
g54
(dp2050
sg63
g1979
sg56
(lp2051
g49
(g70
g51
NtRp2052
(dp2053
g54
(dp2054
g74
g75
ssg63
g2048
sg56
(lp2055
g999
asbag49
(g70
g51
NtRp2056
(dp2057
g54
(dp2058
g81
g82
ssg63
g2048
sg56
(lp2059
S':'
asbag49
(g70
g51
NtRp2060
(dp2061
g54
(dp2062
sg63
g2048
sg56
(lp2063
g49
(g50
g51
NtRp2064
(dp2065
g54
(dp2066
g62
I4
ssg63
g2060
sg56
(lp2067
S"<Values at 0x27a30f8: {'verbose': False, 'ip': '127.0.0.1', 'shutdown_timeout': 5, 'taskbar': False, 'nocron': False, 'pid_filename': 'httpserver.pid', 'maxthreads': None, 'softcron': False, 'server_name': 'omkara-PC', 'bpython': False, 'nogui': False, 'port': 8000, 'extcron': False, 'debuglevel': 30, 'test': None, 'folder': 'C:\\\\Users\\\\omkara\\\\Desktop\\\\web2py', 'config': '', 'import_models': False, 'winservice': '', 'shell': None, 'run': '', 'log_filename': 'httpserver.log', 'args': [''], 'socket_timeout': 5, 'ssl_ca_certificate': None, 'scheduler': None, 'profiler_filename': None, 'ssl_private_key': '', 'password': '<ask>', 'request_queue_size': 5, 'ssl_certificate': '', 'cronjob': False, 'numthreads': None, 'quiet': False, 'interfaces': None, 'minthreads': None, 'timeout': 10, 'plain': False, 'nobanner': False}>"
p2068
asbasbasbag49
(g65
g51
NtRp2069
(dp2070
g54
(dp2071
sg63
g1979
sg56
(lp2072
g49
(g70
g51
NtRp2073
(dp2074
g54
(dp2075
g74
g75
ssg63
g2069
sg56
(lp2076
g1021
asbag49
(g70
g51
NtRp2077
(dp2078
g54
(dp2079
g81
g82
ssg63
g2069
sg56
(lp2080
S':'
asbag49
(g70
g51
NtRp2081
(dp2082
g54
(dp2083
sg63
g2069
sg56
(lp2084
g49
(g50
g51
NtRp2085
(dp2086
g54
(dp2087
g62
I4
ssg63
g2081
sg56
(lp2088
S'set([])'
p2089
asbasbasbag49
(g65
g51
NtRp2090
(dp2091
g54
(dp2092
sg63
g1979
sg56
(lp2093
g49
(g70
g51
NtRp2094
(dp2095
g54
(dp2096
g74
g75
ssg63
g2090
sg56
(lp2097
g1043
asbag49
(g70
g51
NtRp2098
(dp2099
g54
(dp2100
g81
g82
ssg63
g2090
sg56
(lp2101
S':'
asbag49
(g70
g51
NtRp2102
(dp2103
g54
(dp2104
sg63
g2090
sg56
(lp2105
g49
(g50
g51
NtRp2106
(dp2107
g54
(dp2108
g62
I4
ssg63
g2102
sg56
(lp2109
g92
asbasbasbag49
(g65
g51
NtRp2110
(dp2111
g54
(dp2112
sg63
g1979
sg56
(lp2113
g49
(g70
g51
NtRp2114
(dp2115
g54
(dp2116
g74
g75
ssg63
g2110
sg56
(lp2117
g1064
asbag49
(g70
g51
NtRp2118
(dp2119
g54
(dp2120
g81
g82
ssg63
g2110
sg56
(lp2121
S':'
asbag49
(g70
g51
NtRp2122
(dp2123
g54
(dp2124
sg63
g2110
sg56
(lp2125
g49
(g50
g51
NtRp2126
(dp2127
g54
(dp2128
g62
I4
ssg63
g2122
sg56
(lp2129
g1077
asbasbasbag49
(g65
g51
NtRp2130
(dp2131
g54
(dp2132
sg63
g1979
sg56
(lp2133
g49
(g70
g51
NtRp2134
(dp2135
g54
(dp2136
g74
g75
ssg63
g2130
sg56
(lp2137
g1284
asbag49
(g70
g51
NtRp2138
(dp2139
g54
(dp2140
g81
g82
ssg63
g2130
sg56
(lp2141
S':'
asbag49
(g70
g51
NtRp2142
(dp2143
g54
(dp2144
sg63
g2130
sg56
(lp2145
g49
(g50
g51
NtRp2146
(dp2147
g54
(dp2148
g62
I4
ssg63
g2142
sg56
(lp2149
g92
asbasbasbag49
(g65
g51
NtRp2150
(dp2151
g54
(dp2152
sg63
g1979
sg56
(lp2153
g49
(g70
g51
NtRp2154
(dp2155
g54
(dp2156
g74
g75
ssg63
g2150
sg56
(lp2157
g1305
asbag49
(g70
g51
NtRp2158
(dp2159
g54
(dp2160
g81
g82
ssg63
g2150
sg56
(lp2161
S':'
asbag49
(g70
g51
NtRp2162
(dp2163
g54
(dp2164
sg63
g2150
sg56
(lp2165
g49
(g50
g51
NtRp2166
(dp2167
g54
(dp2168
g62
I4
ssg63
g2162
sg56
(lp2169
g92
asbasbasbag49
(g65
g51
NtRp2170
(dp2171
g54
(dp2172
sg63
g1979
sg56
(lp2173
g49
(g70
g51
NtRp2174
(dp2175
g54
(dp2176
g74
g75
ssg63
g2170
sg56
(lp2177
g1543
asbag49
(g70
g51
NtRp2178
(dp2179
g54
(dp2180
g81
g82
ssg63
g2170
sg56
(lp2181
S':'
asbag49
(g70
g51
NtRp2182
(dp2183
g54
(dp2184
sg63
g2170
sg56
(lp2185
g49
(g50
g51
NtRp2186
(dp2187
g54
(dp2188
g62
I4
ssg63
g2182
sg56
(lp2189
g1556
asbasbasbag49
(g65
g51
NtRp2190
(dp2191
g54
(dp2192
sg63
g1979
sg56
(lp2193
g49
(g70
g51
NtRp2194
(dp2195
g54
(dp2196
g74
g75
ssg63
g2190
sg56
(lp2197
g1586
asbag49
(g70
g51
NtRp2198
(dp2199
g54
(dp2200
g81
g82
ssg63
g2190
sg56
(lp2201
S':'
asbag49
(g70
g51
NtRp2202
(dp2203
g54
(dp2204
sg63
g2190
sg56
(lp2205
g49
(g50
g51
NtRp2206
(dp2207
g54
(dp2208
g62
I4
ssg63
g2202
sg56
(lp2209
g49
(g58
g51
NtRp2210
(dp2211
g54
(dp2212
g62
I3
ssg63
Nsg56
(lp2213
g49
(g65
g51
NtRp2214
(dp2215
g54
(dp2216
sg63
g2210
sg56
(lp2217
g49
(g70
g51
NtRp2218
(dp2219
g54
(dp2220
sg63
g2214
sg56
(lp2221
g49
(g50
g51
NtRp2222
(dp2223
g54
(dp2224
g62
I3
ssg63
g2218
sg56
(lp2225
S'1'
asbasbasbag49
(g65
g51
NtRp2226
(dp2227
g54
(dp2228
sg63
g2210
sg56
(lp2229
g49
(g70
g51
NtRp2230
(dp2231
g54
(dp2232
sg63
g2226
sg56
(lp2233
g49
(g50
g51
NtRp2234
(dp2235
g54
(dp2236
g62
I3
ssg63
g2230
sg56
(lp2237
S'99'
p2238
asbasbasbag49
(g65
g51
NtRp2239
(dp2240
g54
(dp2241
sg63
g2210
sg56
(lp2242
g49
(g70
g51
NtRp2243
(dp2244
g54
(dp2245
sg63
g2239
sg56
(lp2246
g49
(g50
g51
NtRp2247
(dp2248
g54
(dp2249
g62
I3
ssg63
g2243
sg56
(lp2250
S'7'
asbasbasbag49
(g65
g51
NtRp2251
(dp2252
g54
(dp2253
sg63
g2210
sg56
(lp2254
g49
(g70
g51
NtRp2255
(dp2256
g54
(dp2257
sg63
g2251
sg56
(lp2258
g49
(g50
g51
NtRp2259
(dp2260
g54
(dp2261
g62
I3
ssg63
g2255
sg56
(lp2262
S'datetime.datetime(2012, 3, 4, 22, 12, 8)'
p2263
asbasbasbag49
(g65
g51
NtRp2264
(dp2265
g54
(dp2266
sg63
g2210
sg56
(lp2267
g49
(g70
g51
NtRp2268
(dp2269
g54
(dp2270
sg63
g2264
sg56
(lp2271
g49
(g50
g51
NtRp2272
(dp2273
g54
(dp2274
g62
I3
ssg63
g2268
sg56
(lp2275
g1665
asbasbasbasbasbasbasbasbasbasbasbag49
(g65
g51
NtRp2276
(dp2277
g54
(dp2278
sg63
g59
sg56
(lp2279
g49
(g70
g51
NtRp2280
(dp2281
g54
(dp2282
g74
g75
ssg63
g2276
sg56
(lp2283
S'is_https'
p2284
asbag49
(g70
g51
NtRp2285
(dp2286
g54
(dp2287
g81
g82
ssg63
g2276
sg56
(lp2288
S':'
asbag49
(g70
g51
NtRp2289
(dp2290
g54
(dp2291
sg63
g2276
sg56
(lp2292
g49
(g50
g51
NtRp2293
(dp2294
g54
(dp2295
g62
I5
ssg63
g2289
sg56
(lp2296
g92
asbasbasbag49
(g65
g51
NtRp2297
(dp2298
g54
(dp2299
sg63
g59
sg56
(lp2300
g49
(g70
g51
NtRp2301
(dp2302
g54
(dp2303
g74
g75
ssg63
g2297
sg56
(lp2304
S'is_local'
p2305
asbag49
(g70
g51
NtRp2306
(dp2307
g54
(dp2308
g81
g82
ssg63
g2297
sg56
(lp2309
S':'
asbag49
(g70
g51
NtRp2310
(dp2311
g54
(dp2312
sg63
g2297
sg56
(lp2313
g49
(g50
g51
NtRp2314
(dp2315
g54
(dp2316
g62
I5
ssg63
g2310
sg56
(lp2317
g1774
asbasbasbag49
(g65
g51
NtRp2318
(dp2319
g54
(dp2320
sg63
g59
sg56
(lp2321
g49
(g70
g51
NtRp2322
(dp2323
g54
(dp2324
g74
g75
ssg63
g2318
sg56
(lp2325
S'is_restful'
p2326
asbag49
(g70
g51
NtRp2327
(dp2328
g54
(dp2329
g81
g82
ssg63
g2318
sg56
(lp2330
S':'
asbag49
(g70
g51
NtRp2331
(dp2332
g54
(dp2333
sg63
g2318
sg56
(lp2334
g49
(g50
g51
NtRp2335
(dp2336
g54
(dp2337
g62
I5
ssg63
g2331
sg56
(lp2338
g92
asbasbasbag49
(g65
g51
NtRp2339
(dp2340
g54
(dp2341
sg63
g59
sg56
(lp2342
g49
(g70
g51
NtRp2343
(dp2344
g54
(dp2345
g74
g75
ssg63
g2339
sg56
(lp2346
S'now'
p2347
asbag49
(g70
g51
NtRp2348
(dp2349
g54
(dp2350
g81
g82
ssg63
g2339
sg56
(lp2351
S':'
asbag49
(g70
g51
NtRp2352
(dp2353
g54
(dp2354
sg63
g2339
sg56
(lp2355
g49
(g50
g51
NtRp2356
(dp2357
g54
(dp2358
g62
I5
ssg63
g2352
sg56
(lp2359
S'datetime.datetime(2012, 11, 10, 11, 28, 17, 950000)'
p2360
asbasbasbag49
(g65
g51
NtRp2361
(dp2362
g54
(dp2363
sg63
g59
sg56
(lp2364
g49
(g70
g51
NtRp2365
(dp2366
g54
(dp2367
g74
g75
ssg63
g2361
sg56
(lp2368
S'post_vars'
p2369
asbag49
(g70
g51
NtRp2370
(dp2371
g54
(dp2372
g81
g82
ssg63
g2361
sg56
(lp2373
S':'
asbag49
(g70
g51
NtRp2374
(dp2375
g54
(dp2376
sg63
g2361
sg56
(lp2377
g49
(g50
g51
NtRp2378
(dp2379
g54
(dp2380
g62
I5
ssg63
g2374
sg56
(lp2381
g49
(g58
g51
NtRp2382
(dp2383
g54
(dp2384
g62
I4
ssg63
Nsg56
(lp2385
sbasbasbasbag49
(g65
g51
NtRp2386
(dp2387
g54
(dp2388
sg63
g59
sg56
(lp2389
g49
(g70
g51
NtRp2390
(dp2391
g54
(dp2392
g74
g75
ssg63
g2386
sg56
(lp2393
S'url'
p2394
asbag49
(g70
g51
NtRp2395
(dp2396
g54
(dp2397
g81
g82
ssg63
g2386
sg56
(lp2398
S':'
asbag49
(g70
g51
NtRp2399
(dp2400
g54
(dp2401
sg63
g2386
sg56
(lp2402
g49
(g50
g51
NtRp2403
(dp2404
g54
(dp2405
g62
I5
ssg63
g2399
sg56
(lp2406
S'/SlugBarter/default/index'
p2407
asbasbasbag49
(g65
g51
NtRp2408
(dp2409
g54
(dp2410
sg63
g59
sg56
(lp2411
g49
(g70
g51
NtRp2412
(dp2413
g54
(dp2414
g74
g75
ssg63
g2408
sg56
(lp2415
S'utcnow'
p2416
asbag49
(g70
g51
NtRp2417
(dp2418
g54
(dp2419
g81
g82
ssg63
g2408
sg56
(lp2420
S':'
asbag49
(g70
g51
NtRp2421
(dp2422
g54
(dp2423
sg63
g2408
sg56
(lp2424
g49
(g50
g51
NtRp2425
(dp2426
g54
(dp2427
g62
I5
ssg63
g2421
sg56
(lp2428
S'datetime.datetime(2012, 11, 10, 19, 28, 17, 950000)'
p2429
asbasbasbag49
(g65
g51
NtRp2430
(dp2431
g54
(dp2432
sg63
g59
sg56
(lp2433
g49
(g70
g51
NtRp2434
(dp2435
g54
(dp2436
g74
g75
ssg63
g2430
sg56
(lp2437
S'uuid'
p2438
asbag49
(g70
g51
NtRp2439
(dp2440
g54
(dp2441
g81
g82
ssg63
g2430
sg56
(lp2442
S':'
asbag49
(g70
g51
NtRp2443
(dp2444
g54
(dp2445
sg63
g2430
sg56
(lp2446
g49
(g50
g51
NtRp2447
(dp2448
g54
(dp2449
g62
I5
ssg63
g2443
sg56
(lp2450
S'SlugBarter/127.0.0.1.2012-11-10.11-28-17.57649cf6-4ee3-44cb-9cb8-3470c0fa9898'
p2451
asbasbasbag49
(g65
g51
NtRp2452
(dp2453
g54
(dp2454
sg63
g59
sg56
(lp2455
g49
(g70
g51
NtRp2456
(dp2457
g54
(dp2458
g74
g75
ssg63
g2452
sg56
(lp2459
S'vars'
p2460
asbag49
(g70
g51
NtRp2461
(dp2462
g54
(dp2463
g81
g82
ssg63
g2452
sg56
(lp2464
S':'
asbag49
(g70
g51
NtRp2465
(dp2466
g54
(dp2467
sg63
g2452
sg56
(lp2468
g49
(g50
g51
NtRp2469
(dp2470
g54
(dp2471
g62
I5
ssg63
g2465
sg56
(lp2472
g49
(g58
g51
NtRp2473
(dp2474
g54
(dp2475
g62
I4
ssg63
Nsg56
(lp2476
sbasbasbasbag49
(g65
g51
NtRp2477
(dp2478
g54
(dp2479
sg63
g59
sg56
(lp2480
g49
(g70
g51
NtRp2481
(dp2482
g54
(dp2483
g74
g75
ssg63
g2477
sg56
(lp2484
S'wsgi'
p2485
asbag49
(g70
g51
NtRp2486
(dp2487
g54
(dp2488
g81
g82
ssg63
g2477
sg56
(lp2489
S':'
asbag49
(g70
g51
NtRp2490
(dp2491
g54
(dp2492
sg63
g2477
sg56
(lp2493
g49
(g50
g51
NtRp2494
(dp2495
g54
(dp2496
g62
I5
ssg63
g2490
sg56
(lp2497
g49
(g58
g51
NtRp2498
(dp2499
g54
(dp2500
g62
I4
ssg63
Nsg56
(lp2501
g49
(g65
g51
NtRp2502
(dp2503
g54
(dp2504
sg63
g2498
sg56
(lp2505
g49
(g70
g51
NtRp2506
(dp2507
g54
(dp2508
g74
g75
ssg63
g2502
sg56
(lp2509
S'environ'
p2510
asbag49
(g70
g51
NtRp2511
(dp2512
g54
(dp2513
g81
g82
ssg63
g2502
sg56
(lp2514
S':'
asbag49
(g70
g51
NtRp2515
(dp2516
g54
(dp2517
sg63
g2502
sg56
(lp2518
g49
(g50
g51
NtRp2519
(dp2520
g54
(dp2521
g62
I4
ssg63
g2515
sg56
(lp2522
g49
(g58
g51
NtRp2523
(dp2524
g54
(dp2525
g62
I3
ssg63
Nsg56
(lp2526
g49
(g65
g51
NtRp2527
(dp2528
g54
(dp2529
sg63
g2523
sg56
(lp2530
g49
(g70
g51
NtRp2531
(dp2532
g54
(dp2533
g74
g75
ssg63
g2527
sg56
(lp2534
S'HTTP_ACCEPT'
p2535
asbag49
(g70
g51
NtRp2536
(dp2537
g54
(dp2538
g81
g82
ssg63
g2527
sg56
(lp2539
S':'
asbag49
(g70
g51
NtRp2540
(dp2541
g54
(dp2542
sg63
g2527
sg56
(lp2543
g49
(g50
g51
NtRp2544
(dp2545
g54
(dp2546
g62
I3
ssg63
g2540
sg56
(lp2547
g1099
asbasbasbag49
(g65
g51
NtRp2548
(dp2549
g54
(dp2550
sg63
g2523
sg56
(lp2551
g49
(g70
g51
NtRp2552
(dp2553
g54
(dp2554
g74
g75
ssg63
g2548
sg56
(lp2555
S'HTTP_ACCEPT_CHARSET'
p2556
asbag49
(g70
g51
NtRp2557
(dp2558
g54
(dp2559
g81
g82
ssg63
g2548
sg56
(lp2560
S':'
asbag49
(g70
g51
NtRp2561
(dp2562
g54
(dp2563
sg63
g2548
sg56
(lp2564
g49
(g50
g51
NtRp2565
(dp2566
g54
(dp2567
g62
I3
ssg63
g2561
sg56
(lp2568
g1121
asbasbasbag49
(g65
g51
NtRp2569
(dp2570
g54
(dp2571
sg63
g2523
sg56
(lp2572
g49
(g70
g51
NtRp2573
(dp2574
g54
(dp2575
g74
g75
ssg63
g2569
sg56
(lp2576
S'HTTP_ACCEPT_ENCODING'
p2577
asbag49
(g70
g51
NtRp2578
(dp2579
g54
(dp2580
g81
g82
ssg63
g2569
sg56
(lp2581
S':'
asbag49
(g70
g51
NtRp2582
(dp2583
g54
(dp2584
sg63
g2569
sg56
(lp2585
g49
(g50
g51
NtRp2586
(dp2587
g54
(dp2588
g62
I3
ssg63
g2582
sg56
(lp2589
g1143
asbasbasbag49
(g65
g51
NtRp2590
(dp2591
g54
(dp2592
sg63
g2523
sg56
(lp2593
g49
(g70
g51
NtRp2594
(dp2595
g54
(dp2596
g74
g75
ssg63
g2590
sg56
(lp2597
S'HTTP_ACCEPT_LANGUAGE'
p2598
asbag49
(g70
g51
NtRp2599
(dp2600
g54
(dp2601
g81
g82
ssg63
g2590
sg56
(lp2602
S':'
asbag49
(g70
g51
NtRp2603
(dp2604
g54
(dp2605
sg63
g2590
sg56
(lp2606
g49
(g50
g51
NtRp2607
(dp2608
g54
(dp2609
g62
I3
ssg63
g2603
sg56
(lp2610
g1165
asbasbasbag49
(g65
g51
NtRp2611
(dp2612
g54
(dp2613
sg63
g2523
sg56
(lp2614
g49
(g70
g51
NtRp2615
(dp2616
g54
(dp2617
g74
g75
ssg63
g2611
sg56
(lp2618
S'HTTP_CONNECTION'
p2619
asbag49
(g70
g51
NtRp2620
(dp2621
g54
(dp2622
g81
g82
ssg63
g2611
sg56
(lp2623
S':'
asbag49
(g70
g51
NtRp2624
(dp2625
g54
(dp2626
sg63
g2611
sg56
(lp2627
g49
(g50
g51
NtRp2628
(dp2629
g54
(dp2630
g62
I3
ssg63
g2624
sg56
(lp2631
g1187
asbasbasbag49
(g65
g51
NtRp2632
(dp2633
g54
(dp2634
sg63
g2523
sg56
(lp2635
g49
(g70
g51
NtRp2636
(dp2637
g54
(dp2638
g74
g75
ssg63
g2632
sg56
(lp2639
S'HTTP_COOKIE'
p2640
asbag49
(g70
g51
NtRp2641
(dp2642
g54
(dp2643
g81
g82
ssg63
g2632
sg56
(lp2644
S':'
asbag49
(g70
g51
NtRp2645
(dp2646
g54
(dp2647
sg63
g2632
sg56
(lp2648
g49
(g50
g51
NtRp2649
(dp2650
g54
(dp2651
g62
I3
ssg63
g2645
sg56
(lp2652
g1209
asbasbasbag49
(g65
g51
NtRp2653
(dp2654
g54
(dp2655
sg63
g2523
sg56
(lp2656
g49
(g70
g51
NtRp2657
(dp2658
g54
(dp2659
g74
g75
ssg63
g2653
sg56
(lp2660
S'HTTP_HOST'
p2661
asbag49
(g70
g51
NtRp2662
(dp2663
g54
(dp2664
g81
g82
ssg63
g2653
sg56
(lp2665
S':'
asbag49
(g70
g51
NtRp2666
(dp2667
g54
(dp2668
sg63
g2653
sg56
(lp2669
g49
(g50
g51
NtRp2670
(dp2671
g54
(dp2672
g62
I3
ssg63
g2666
sg56
(lp2673
g1231
asbasbasbag49
(g65
g51
NtRp2674
(dp2675
g54
(dp2676
sg63
g2523
sg56
(lp2677
g49
(g70
g51
NtRp2678
(dp2679
g54
(dp2680
g74
g75
ssg63
g2674
sg56
(lp2681
S'HTTP_REFERER'
p2682
asbag49
(g70
g51
NtRp2683
(dp2684
g54
(dp2685
g81
g82
ssg63
g2674
sg56
(lp2686
S':'
asbag49
(g70
g51
NtRp2687
(dp2688
g54
(dp2689
sg63
g2674
sg56
(lp2690
g49
(g50
g51
NtRp2691
(dp2692
g54
(dp2693
g62
I3
ssg63
g2687
sg56
(lp2694
g1253
asbasbasbag49
(g65
g51
NtRp2695
(dp2696
g54
(dp2697
sg63
g2523
sg56
(lp2698
g49
(g70
g51
NtRp2699
(dp2700
g54
(dp2701
g74
g75
ssg63
g2695
sg56
(lp2702
S'HTTP_USER_AGENT'
p2703
asbag49
(g70
g51
NtRp2704
(dp2705
g54
(dp2706
g81
g82
ssg63
g2695
sg56
(lp2707
S':'
asbag49
(g70
g51
NtRp2708
(dp2709
g54
(dp2710
sg63
g2695
sg56
(lp2711
g49
(g50
g51
NtRp2712
(dp2713
g54
(dp2714
g62
I3
ssg63
g2708
sg56
(lp2715
g1275
asbasbasbag49
(g65
g51
NtRp2716
(dp2717
g54
(dp2718
sg63
g2523
sg56
(lp2719
g49
(g70
g51
NtRp2720
(dp2721
g54
(dp2722
g74
g75
ssg63
g2716
sg56
(lp2723
S'PATH_INFO'
p2724
asbag49
(g70
g51
NtRp2725
(dp2726
g54
(dp2727
g81
g82
ssg63
g2716
sg56
(lp2728
S':'
asbag49
(g70
g51
NtRp2729
(dp2730
g54
(dp2731
sg63
g2716
sg56
(lp2732
g49
(g50
g51
NtRp2733
(dp2734
g54
(dp2735
g62
I3
ssg63
g2729
sg56
(lp2736
g1339
asbasbasbag49
(g65
g51
NtRp2737
(dp2738
g54
(dp2739
sg63
g2523
sg56
(lp2740
g49
(g70
g51
NtRp2741
(dp2742
g54
(dp2743
g74
g75
ssg63
g2737
sg56
(lp2744
S'QUERY_STRING'
p2745
asbag49
(g70
g51
NtRp2746
(dp2747
g54
(dp2748
g81
g82
ssg63
g2737
sg56
(lp2749
S':'
asbag49
(g70
g51
NtRp2750
(dp2751
g54
(dp2752
sg63
g2737
sg56
(lp2753
g49
(g50
g51
NtRp2754
(dp2755
g54
(dp2756
g62
I3
ssg63
g2750
sg56
(lp2757
S''
asbasbasbag49
(g65
g51
NtRp2758
(dp2759
g54
(dp2760
sg63
g2523
sg56
(lp2761
g49
(g70
g51
NtRp2762
(dp2763
g54
(dp2764
g74
g75
ssg63
g2758
sg56
(lp2765
S'REMOTE_ADDR'
p2766
asbag49
(g70
g51
NtRp2767
(dp2768
g54
(dp2769
g81
g82
ssg63
g2758
sg56
(lp2770
S':'
asbag49
(g70
g51
NtRp2771
(dp2772
g54
(dp2773
sg63
g2758
sg56
(lp2774
g49
(g50
g51
NtRp2775
(dp2776
g54
(dp2777
g62
I3
ssg63
g2771
sg56
(lp2778
g182
asbasbasbag49
(g65
g51
NtRp2779
(dp2780
g54
(dp2781
sg63
g2523
sg56
(lp2782
g49
(g70
g51
NtRp2783
(dp2784
g54
(dp2785
g74
g75
ssg63
g2779
sg56
(lp2786
S'REMOTE_PORT'
p2787
asbag49
(g70
g51
NtRp2788
(dp2789
g54
(dp2790
g81
g82
ssg63
g2779
sg56
(lp2791
S':'
asbag49
(g70
g51
NtRp2792
(dp2793
g54
(dp2794
sg63
g2779
sg56
(lp2795
g49
(g50
g51
NtRp2796
(dp2797
g54
(dp2798
g62
I3
ssg63
g2792
sg56
(lp2799
g1403
asbasbasbag49
(g65
g51
NtRp2800
(dp2801
g54
(dp2802
sg63
g2523
sg56
(lp2803
g49
(g70
g51
NtRp2804
(dp2805
g54
(dp2806
g74
g75
ssg63
g2800
sg56
(lp2807
S'REQUEST_METHOD'
p2808
asbag49
(g70
g51
NtRp2809
(dp2810
g54
(dp2811
g81
g82
ssg63
g2800
sg56
(lp2812
S':'
asbag49
(g70
g51
NtRp2813
(dp2814
g54
(dp2815
sg63
g2800
sg56
(lp2816
g49
(g50
g51
NtRp2817
(dp2818
g54
(dp2819
g62
I3
ssg63
g2813
sg56
(lp2820
g1425
asbasbasbag49
(g65
g51
NtRp2821
(dp2822
g54
(dp2823
sg63
g2523
sg56
(lp2824
g49
(g70
g51
NtRp2825
(dp2826
g54
(dp2827
g74
g75
ssg63
g2821
sg56
(lp2828
S'SCRIPT_NAME'
p2829
asbag49
(g70
g51
NtRp2830
(dp2831
g54
(dp2832
g81
g82
ssg63
g2821
sg56
(lp2833
S':'
asbag49
(g70
g51
NtRp2834
(dp2835
g54
(dp2836
sg63
g2821
sg56
(lp2837
g49
(g50
g51
NtRp2838
(dp2839
g54
(dp2840
g62
I3
ssg63
g2834
sg56
(lp2841
S''
asbasbasbag49
(g65
g51
NtRp2842
(dp2843
g54
(dp2844
sg63
g2523
sg56
(lp2845
g49
(g70
g51
NtRp2846
(dp2847
g54
(dp2848
g74
g75
ssg63
g2842
sg56
(lp2849
S'SERVER_NAME'
p2850
asbag49
(g70
g51
NtRp2851
(dp2852
g54
(dp2853
g81
g82
ssg63
g2842
sg56
(lp2854
S':'
asbag49
(g70
g51
NtRp2855
(dp2856
g54
(dp2857
sg63
g2842
sg56
(lp2858
g49
(g50
g51
NtRp2859
(dp2860
g54
(dp2861
g62
I3
ssg63
g2855
sg56
(lp2862
g1468
asbasbasbag49
(g65
g51
NtRp2863
(dp2864
g54
(dp2865
sg63
g2523
sg56
(lp2866
g49
(g70
g51
NtRp2867
(dp2868
g54
(dp2869
g74
g75
ssg63
g2863
sg56
(lp2870
S'SERVER_PORT'
p2871
asbag49
(g70
g51
NtRp2872
(dp2873
g54
(dp2874
g81
g82
ssg63
g2863
sg56
(lp2875
S':'
asbag49
(g70
g51
NtRp2876
(dp2877
g54
(dp2878
sg63
g2863
sg56
(lp2879
g49
(g50
g51
NtRp2880
(dp2881
g54
(dp2882
g62
I3
ssg63
g2876
sg56
(lp2883
g1490
asbasbasbag49
(g65
g51
NtRp2884
(dp2885
g54
(dp2886
sg63
g2523
sg56
(lp2887
g49
(g70
g51
NtRp2888
(dp2889
g54
(dp2890
g74
g75
ssg63
g2884
sg56
(lp2891
S'SERVER_PROTOCOL'
p2892
asbag49
(g70
g51
NtRp2893
(dp2894
g54
(dp2895
g81
g82
ssg63
g2884
sg56
(lp2896
S':'
asbag49
(g70
g51
NtRp2897
(dp2898
g54
(dp2899
sg63
g2884
sg56
(lp2900
g49
(g50
g51
NtRp2901
(dp2902
g54
(dp2903
g62
I3
ssg63
g2897
sg56
(lp2904
g1512
asbasbasbag49
(g65
g51
NtRp2905
(dp2906
g54
(dp2907
sg63
g2523
sg56
(lp2908
g49
(g70
g51
NtRp2909
(dp2910
g54
(dp2911
g74
g75
ssg63
g2905
sg56
(lp2912
S'SERVER_SOFTWARE'
p2913
asbag49
(g70
g51
NtRp2914
(dp2915
g54
(dp2916
g81
g82
ssg63
g2905
sg56
(lp2917
S':'
asbag49
(g70
g51
NtRp2918
(dp2919
g54
(dp2920
sg63
g2905
sg56
(lp2921
g49
(g50
g51
NtRp2922
(dp2923
g54
(dp2924
g62
I3
ssg63
g2918
sg56
(lp2925
g1534
asbasbasbag49
(g65
g51
NtRp2926
(dp2927
g54
(dp2928
sg63
g2523
sg56
(lp2929
g49
(g70
g51
NtRp2930
(dp2931
g54
(dp2932
g74
g75
ssg63
g2926
sg56
(lp2933
S'wsgi.errors'
p2934
asbag49
(g70
g51
NtRp2935
(dp2936
g54
(dp2937
g81
g82
ssg63
g2926
sg56
(lp2938
S':'
asbag49
(g70
g51
NtRp2939
(dp2940
g54
(dp2941
sg63
g2926
sg56
(lp2942
g49
(g50
g51
NtRp2943
(dp2944
g54
(dp2945
g62
I3
ssg63
g2939
sg56
(lp2946
S'<__main__.Stderr object at 0x01667670>'
p2947
asbasbasbag49
(g65
g51
NtRp2948
(dp2949
g54
(dp2950
sg63
g2523
sg56
(lp2951
g49
(g70
g51
NtRp2952
(dp2953
g54
(dp2954
g74
g75
ssg63
g2948
sg56
(lp2955
S'wsgi.file_wrapper'
p2956
asbag49
(g70
g51
NtRp2957
(dp2958
g54
(dp2959
g81
g82
ssg63
g2948
sg56
(lp2960
S':'
asbag49
(g70
g51
NtRp2961
(dp2962
g54
(dp2963
sg63
g2948
sg56
(lp2964
g49
(g50
g51
NtRp2965
(dp2966
g54
(dp2967
g62
I3
ssg63
g2961
sg56
(lp2968
S'<class wsgiref.util.FileWrapper at 0x02532210>'
p2969
asbasbasbag49
(g65
g51
NtRp2970
(dp2971
g54
(dp2972
sg63
g2523
sg56
(lp2973
g49
(g70
g51
NtRp2974
(dp2975
g54
(dp2976
g74
g75
ssg63
g2970
sg56
(lp2977
S'wsgi.input'
p2978
asbag49
(g70
g51
NtRp2979
(dp2980
g54
(dp2981
g81
g82
ssg63
g2970
sg56
(lp2982
S':'
asbag49
(g70
g51
NtRp2983
(dp2984
g54
(dp2985
sg63
g2970
sg56
(lp2986
g49
(g50
g51
NtRp2987
(dp2988
g54
(dp2989
g62
I3
ssg63
g2983
sg56
(lp2990
S'<cStringIO.StringO object at 0x06671560>'
p2991
asbasbasbag49
(g65
g51
NtRp2992
(dp2993
g54
(dp2994
sg63
g2523
sg56
(lp2995
g49
(g70
g51
NtRp2996
(dp2997
g54
(dp2998
g74
g75
ssg63
g2992
sg56
(lp2999
S'wsgi.multiprocess'
p3000
asbag49
(g70
g51
NtRp3001
(dp3002
g54
(dp3003
g81
g82
ssg63
g2992
sg56
(lp3004
S':'
asbag49
(g70
g51
NtRp3005
(dp3006
g54
(dp3007
sg63
g2992
sg56
(lp3008
g49
(g50
g51
NtRp3009
(dp3010
g54
(dp3011
g62
I3
ssg63
g3005
sg56
(lp3012
g92
asbasbasbag49
(g65
g51
NtRp3013
(dp3014
g54
(dp3015
sg63
g2523
sg56
(lp3016
g49
(g70
g51
NtRp3017
(dp3018
g54
(dp3019
g74
g75
ssg63
g3013
sg56
(lp3020
S'wsgi.multithread'
p3021
asbag49
(g70
g51
NtRp3022
(dp3023
g54
(dp3024
g81
g82
ssg63
g3013
sg56
(lp3025
S':'
asbag49
(g70
g51
NtRp3026
(dp3027
g54
(dp3028
sg63
g3013
sg56
(lp3029
g49
(g50
g51
NtRp3030
(dp3031
g54
(dp3032
g62
I3
ssg63
g3026
sg56
(lp3033
g1774
asbasbasbag49
(g65
g51
NtRp3034
(dp3035
g54
(dp3036
sg63
g2523
sg56
(lp3037
g49
(g70
g51
NtRp3038
(dp3039
g54
(dp3040
g74
g75
ssg63
g3034
sg56
(lp3041
S'wsgi.run_once'
p3042
asbag49
(g70
g51
NtRp3043
(dp3044
g54
(dp3045
g81
g82
ssg63
g3034
sg56
(lp3046
S':'
asbag49
(g70
g51
NtRp3047
(dp3048
g54
(dp3049
sg63
g3034
sg56
(lp3050
g49
(g50
g51
NtRp3051
(dp3052
g54
(dp3053
g62
I3
ssg63
g3047
sg56
(lp3054
g92
asbasbasbag49
(g65
g51
NtRp3055
(dp3056
g54
(dp3057
sg63
g2523
sg56
(lp3058
g49
(g70
g51
NtRp3059
(dp3060
g54
(dp3061
g74
g75
ssg63
g3055
sg56
(lp3062
S'wsgi.url_scheme'
p3063
asbag49
(g70
g51
NtRp3064
(dp3065
g54
(dp3066
g81
g82
ssg63
g3055
sg56
(lp3067
S':'
asbag49
(g70
g51
NtRp3068
(dp3069
g54
(dp3070
sg63
g3055
sg56
(lp3071
g49
(g50
g51
NtRp3072
(dp3073
g54
(dp3074
g62
I3
ssg63
g3068
sg56
(lp3075
g1817
asbasbasbag49
(g65
g51
NtRp3076
(dp3077
g54
(dp3078
sg63
g2523
sg56
(lp3079
g49
(g70
g51
NtRp3080
(dp3081
g54
(dp3082
g74
g75
ssg63
g3076
sg56
(lp3083
S'wsgi.version'
p3084
asbag49
(g70
g51
NtRp3085
(dp3086
g54
(dp3087
g81
g82
ssg63
g3076
sg56
(lp3088
S':'
asbag49
(g70
g51
NtRp3089
(dp3090
g54
(dp3091
sg63
g3076
sg56
(lp3092
g49
(g50
g51
NtRp3093
(dp3094
g54
(dp3095
g62
I3
ssg63
g3089
sg56
(lp3096
S'1'
asbasbasbasbasbasbasbasbasbasbasbasbasbsS'frames'
p3097
(lp3098
(dp3099
S'file'
p3100
S'C:\\Users\\omkara\\Desktop\\web2py\\gluon\\restricted.py'
p3101
sS'dump'
p3102
(dp3103
sS'lnum'
p3104
I205
sS'lines'
p3105
(dp3106
sS'call'
p3107
S'(code="# coding: utf8\\ndb = DAL(\'mysql://root:@localhost...Field(\'city\'),\\n  Field(\'zip\'),\\n  Field(\'phone\')]\\n", environment={\'A\': <class \'gluon.html.A\'>, \'Auth\': <class \'gluon.tools.Auth\'>, \'B\': <class \'gluon.html.B\'>, \'BEAUTIFY\': <class \'gluon.html.BEAUTIFY\'>, \'BODY\': <class \'gluon.html.BODY\'>, \'BR\': <class \'gluon.html.BR\'>, \'BUTTON\': <class \'gluon.html.BUTTON\'>, \'CAT\': <class \'gluon.html.CAT\'>, \'CENTER\': <class \'gluon.html.CENTER\'>, \'CLEANUP\': <class \'gluon.validators.CLEANUP\'>, ...}, layer=r\'C:\\Users\\omkara\\Desktop\\web2py\\applications\\SlugBarter\\models\\registerForm.py\')'
p3108
sS'func'
p3109
S'restricted'
p3110
sa(dp3111
g3100
S'C:\\Users\\omkara\\Desktop\\web2py\\applications\\SlugBarter\\models\\registerForm.py'
p3112
sg3102
(dp3113
sg3104
I2
sg3105
(dp3114
I1
S'# coding: utf8'
p3115
sI2
S"db = DAL('mysql://root:@localhost/critic')"
p3116
sI3
S'from gluon.tools import Auth'
p3117
sI4
S'auth = Auth(db)'
p3118
sI5
S''
sI6
S"auth.settings.extra_fields['auth_user']= ["
p3119
sI7
S"  Field('address'),"
p3120
sI8
S"  Field('city'),"
p3121
sI9
S"  Field('zip'),"
p3122
sI10
S"  Field('phone')]"
p3123
ssg3107
S'()'
p3124
sg3109
S'<module>'
p3125
sa(dp3126
g3100
S'C:\\Users\\omkara\\Desktop\\web2py\\gluon\\dal.py'
p3127
sg3102
(dp3128
sg3104
I5968
sg3105
(dp3129
sg3107
S"(self=<DAL {'_lastsql': '', '_db_codec': 'UTF-8', '_ti...table)s', '_pool_size': 0, '_common_fields': []}>, uri='mysql://root:@localhost/critic', pool_size=0, folder=None, db_codec='UTF-8', check_reserved=None, migrate=True, fake_migrate=False, migrate_enabled=True, fake_migrate_all=False, decode_credentials=False, driver_args=None, adapter_args=None, attempts=5, auto_import=False)"
p3130
sg3109
g42
sasS'pyver'
p3131
S'Python 2.5.4: C:\\Users\\omkara\\Desktop\\web2py\\web2py_no_console.exe'
p3132
sS'session'
p3133
g49
(g50
g51
NtRp3134
(dp3135
g54
(dp3136
sg56
(lp3137
g49
(g58
g51
NtRp3138
(dp3139
g54
(dp3140
g62
I5
ssg63
Nsg56
(lp3141
g49
(g65
g51
NtRp3142
(dp3143
g54
(dp3144
sg63
g3138
sg56
(lp3145
g49
(g70
g51
NtRp3146
(dp3147
g54
(dp3148
g74
g75
ssg63
g3142
sg56
(lp3149
S'last_query'
p3150
asbag49
(g70
g51
NtRp3151
(dp3152
g54
(dp3153
g81
g82
ssg63
g3142
sg56
(lp3154
S':'
asbag49
(g70
g51
NtRp3155
(dp3156
g54
(dp3157
sg63
g3142
sg56
(lp3158
g49
(g50
g51
NtRp3159
(dp3160
g54
(dp3161
g62
I5
ssg63
g3155
sg56
(lp3162
S'db.auth_user.id>0'
p3163
asbasbasbasbasbsS'etype'
p3164
S"<type 'exceptions.RuntimeError'>"
p3165
sS'date'
p3166
S'Sat Nov 10 11:28:23 2012'
p3167
sS'response'
p3168
g49
(g50
g51
NtRp3169
(dp3170
g54
(dp3171
sg56
(lp3172
g49
(g58
g51
NtRp3173
(dp3174
g54
(dp3175
g62
I5
ssg63
Nsg56
(lp3176
g49
(g65
g51
NtRp3177
(dp3178
g54
(dp3179
sg63
g3173
sg56
(lp3180
g49
(g70
g51
NtRp3181
(dp3182
g54
(dp3183
g74
g75
ssg63
g3177
sg56
(lp3184
g147
asbag49
(g70
g51
NtRp3185
(dp3186
g54
(dp3187
g81
g82
ssg63
g3177
sg56
(lp3188
S':'
asbag49
(g70
g51
NtRp3189
(dp3190
g54
(dp3191
sg63
g3177
sg56
(lp3192
g49
(g50
g51
NtRp3193
(dp3194
g54
(dp3195
g62
I5
ssg63
g3189
sg56
(lp3196
S'<cStringIO.StringO object at 0x0295A8E0>'
p3197
asbasbasbag49
(g65
g51
NtRp3198
(dp3199
g54
(dp3200
sg63
g3173
sg56
(lp3201
g49
(g70
g51
NtRp3202
(dp3203
g54
(dp3204
g74
g75
ssg63
g3198
sg56
(lp3205
g213
asbag49
(g70
g51
NtRp3206
(dp3207
g54
(dp3208
g81
g82
ssg63
g3198
sg56
(lp3209
S':'
asbag49
(g70
g51
NtRp3210
(dp3211
g54
(dp3212
sg63
g3198
sg56
(lp3213
g49
(g50
g51
NtRp3214
(dp3215
g54
(dp3216
g62
I5
ssg63
g3210
sg56
(lp3217
g49
(g58
g51
NtRp3218
(dp3219
g54
(dp3220
g62
I4
ssg63
Nsg56
(lp3221
g49
(g65
g51
NtRp3222
(dp3223
g54
(dp3224
sg63
g3218
sg56
(lp3225
g49
(g70
g51
NtRp3226
(dp3227
g54
(dp3228
g74
g75
ssg63
g3222
sg56
(lp3229
S'session_id_slugbarter'
p3230
asbag49
(g70
g51
NtRp3231
(dp3232
g54
(dp3233
g81
g82
ssg63
g3222
sg56
(lp3234
S':'
asbag49
(g70
g51
NtRp3235
(dp3236
g54
(dp3237
sg63
g3222
sg56
(lp3238
g49
(g50
g51
NtRp3239
(dp3240
g54
(dp3241
g62
I4
ssg63
g3235
sg56
(lp3242
g49
(g58
g51
NtRp3243
(dp3244
g54
(dp3245
g62
I3
ssg63
Nsg56
(lp3246
g49
(g65
g51
NtRp3247
(dp3248
g54
(dp3249
sg63
g3243
sg56
(lp3250
g49
(g70
g51
NtRp3251
(dp3252
g54
(dp3253
g74
g75
ssg63
g3247
sg56
(lp3254
g263
asbag49
(g70
g51
NtRp3255
(dp3256
g54
(dp3257
g81
g82
ssg63
g3247
sg56
(lp3258
S':'
asbag49
(g70
g51
NtRp3259
(dp3260
g54
(dp3261
sg63
g3247
sg56
(lp3262
g49
(g50
g51
NtRp3263
(dp3264
g54
(dp3265
g62
I3
ssg63
g3259
sg56
(lp3266
S''
asbasbasbag49
(g65
g51
NtRp3267
(dp3268
g54
(dp3269
sg63
g3243
sg56
(lp3270
g49
(g70
g51
NtRp3271
(dp3272
g54
(dp3273
g74
g75
ssg63
g3267
sg56
(lp3274
g284
asbag49
(g70
g51
NtRp3275
(dp3276
g54
(dp3277
g81
g82
ssg63
g3267
sg56
(lp3278
S':'
asbag49
(g70
g51
NtRp3279
(dp3280
g54
(dp3281
sg63
g3267
sg56
(lp3282
g49
(g50
g51
NtRp3283
(dp3284
g54
(dp3285
g62
I3
ssg63
g3279
sg56
(lp3286
S''
asbasbasbag49
(g65
g51
NtRp3287
(dp3288
g54
(dp3289
sg63
g3243
sg56
(lp3290
g49
(g70
g51
NtRp3291
(dp3292
g54
(dp3293
g74
g75
ssg63
g3287
sg56
(lp3294
g305
asbag49
(g70
g51
NtRp3295
(dp3296
g54
(dp3297
g81
g82
ssg63
g3287
sg56
(lp3298
S':'
asbag49
(g70
g51
NtRp3299
(dp3300
g54
(dp3301
sg63
g3287
sg56
(lp3302
g49
(g50
g51
NtRp3303
(dp3304
g54
(dp3305
g62
I3
ssg63
g3299
sg56
(lp3306
S''
asbasbasbag49
(g65
g51
NtRp3307
(dp3308
g54
(dp3309
sg63
g3243
sg56
(lp3310
g49
(g70
g51
NtRp3311
(dp3312
g54
(dp3313
g74
g75
ssg63
g3307
sg56
(lp3314
g326
asbag49
(g70
g51
NtRp3315
(dp3316
g54
(dp3317
g81
g82
ssg63
g3307
sg56
(lp3318
S':'
asbag49
(g70
g51
NtRp3319
(dp3320
g54
(dp3321
sg63
g3307
sg56
(lp3322
g49
(g50
g51
NtRp3323
(dp3324
g54
(dp3325
g62
I3
ssg63
g3319
sg56
(lp3326
S''
asbasbasbag49
(g65
g51
NtRp3327
(dp3328
g54
(dp3329
sg63
g3243
sg56
(lp3330
g49
(g70
g51
NtRp3331
(dp3332
g54
(dp3333
g74
g75
ssg63
g3327
sg56
(lp3334
g347
asbag49
(g70
g51
NtRp3335
(dp3336
g54
(dp3337
g81
g82
ssg63
g3327
sg56
(lp3338
S':'
asbag49
(g70
g51
NtRp3339
(dp3340
g54
(dp3341
sg63
g3327
sg56
(lp3342
g49
(g50
g51
NtRp3343
(dp3344
g54
(dp3345
g62
I3
ssg63
g3339
sg56
(lp3346
S'/'
asbasbasbag49
(g65
g51
NtRp3347
(dp3348
g54
(dp3349
sg63
g3243
sg56
(lp3350
g49
(g70
g51
NtRp3351
(dp3352
g54
(dp3353
g74
g75
ssg63
g3347
sg56
(lp3354
g368
asbag49
(g70
g51
NtRp3355
(dp3356
g54
(dp3357
g81
g82
ssg63
g3347
sg56
(lp3358
S':'
asbag49
(g70
g51
NtRp3359
(dp3360
g54
(dp3361
sg63
g3347
sg56
(lp3362
g49
(g50
g51
NtRp3363
(dp3364
g54
(dp3365
g62
I3
ssg63
g3359
sg56
(lp3366
S''
asbasbasbag49
(g65
g51
NtRp3367
(dp3368
g54
(dp3369
sg63
g3243
sg56
(lp3370
g49
(g70
g51
NtRp3371
(dp3372
g54
(dp3373
g74
g75
ssg63
g3367
sg56
(lp3374
g389
asbag49
(g70
g51
NtRp3375
(dp3376
g54
(dp3377
g81
g82
ssg63
g3367
sg56
(lp3378
S':'
asbag49
(g70
g51
NtRp3379
(dp3380
g54
(dp3381
sg63
g3367
sg56
(lp3382
g49
(g50
g51
NtRp3383
(dp3384
g54
(dp3385
g62
I3
ssg63
g3379
sg56
(lp3386
S''
asbasbasbasbasbasbasbasbasbasbasbag49
(g65
g51
NtRp3387
(dp3388
g54
(dp3389
sg63
g3173
sg56
(lp3390
g49
(g70
g51
NtRp3391
(dp3392
g54
(dp3393
g74
g75
ssg63
g3387
sg56
(lp3394
S'delimiters'
p3395
asbag49
(g70
g51
NtRp3396
(dp3397
g54
(dp3398
g81
g82
ssg63
g3387
sg56
(lp3399
S':'
asbag49
(g70
g51
NtRp3400
(dp3401
g54
(dp3402
sg63
g3387
sg56
(lp3403
g49
(g50
g51
NtRp3404
(dp3405
g54
(dp3406
g62
I5
ssg63
g3400
sg56
(lp3407
g49
(g58
g51
NtRp3408
(dp3409
g54
(dp3410
g62
I4
ssg63
Nsg56
(lp3411
g49
(g65
g51
NtRp3412
(dp3413
g54
(dp3414
sg63
g3408
sg56
(lp3415
g49
(g70
g51
NtRp3416
(dp3417
g54
(dp3418
sg63
g3412
sg56
(lp3419
g49
(g50
g51
NtRp3420
(dp3421
g54
(dp3422
g62
I4
ssg63
g3416
sg56
(lp3423
S'{{'
p3424
asbasbasbag49
(g65
g51
NtRp3425
(dp3426
g54
(dp3427
sg63
g3408
sg56
(lp3428
g49
(g70
g51
NtRp3429
(dp3430
g54
(dp3431
sg63
g3425
sg56
(lp3432
g49
(g50
g51
NtRp3433
(dp3434
g54
(dp3435
g62
I4
ssg63
g3429
sg56
(lp3436
S'}}'
p3437
asbasbasbasbasbasbasbag49
(g65
g51
NtRp3438
(dp3439
g54
(dp3440
sg63
g3173
sg56
(lp3441
g49
(g70
g51
NtRp3442
(dp3443
g54
(dp3444
g74
g75
ssg63
g3438
sg56
(lp3445
S'files'
p3446
asbag49
(g70
g51
NtRp3447
(dp3448
g54
(dp3449
g81
g82
ssg63
g3438
sg56
(lp3450
S':'
asbag49
(g70
g51
NtRp3451
(dp3452
g54
(dp3453
sg63
g3438
sg56
(lp3454
g49
(g50
g51
NtRp3455
(dp3456
g54
(dp3457
g62
I5
ssg63
g3451
sg56
(lp3458
g49
(g58
g51
NtRp3459
(dp3460
g54
(dp3461
g62
I4
ssg63
Nsg56
(lp3462
sbasbasbasbag49
(g65
g51
NtRp3463
(dp3464
g54
(dp3465
sg63
g3173
sg56
(lp3466
g49
(g70
g51
NtRp3467
(dp3468
g54
(dp3469
g74
g75
ssg63
g3463
sg56
(lp3470
S'flash'
p3471
asbag49
(g70
g51
NtRp3472
(dp3473
g54
(dp3474
g81
g82
ssg63
g3463
sg56
(lp3475
S':'
asbag49
(g70
g51
NtRp3476
(dp3477
g54
(dp3478
sg63
g3463
sg56
(lp3479
g49
(g50
g51
NtRp3480
(dp3481
g54
(dp3482
g62
I5
ssg63
g3476
sg56
(lp3483
S''
asbasbasbag49
(g65
g51
NtRp3484
(dp3485
g54
(dp3486
sg63
g3173
sg56
(lp3487
g49
(g70
g51
NtRp3488
(dp3489
g54
(dp3490
g74
g75
ssg63
g3484
sg56
(lp3491
S'generic_patterns'
p3492
asbag49
(g70
g51
NtRp3493
(dp3494
g54
(dp3495
g81
g82
ssg63
g3484
sg56
(lp3496
S':'
asbag49
(g70
g51
NtRp3497
(dp3498
g54
(dp3499
sg63
g3484
sg56
(lp3500
g49
(g50
g51
NtRp3501
(dp3502
g54
(dp3503
g62
I5
ssg63
g3497
sg56
(lp3504
g49
(g58
g51
NtRp3505
(dp3506
g54
(dp3507
g62
I4
ssg63
Nsg56
(lp3508
g49
(g65
g51
NtRp3509
(dp3510
g54
(dp3511
sg63
g3505
sg56
(lp3512
g49
(g70
g51
NtRp3513
(dp3514
g54
(dp3515
sg63
g3509
sg56
(lp3516
g49
(g50
g51
NtRp3517
(dp3518
g54
(dp3519
g62
I4
ssg63
g3513
sg56
(lp3520
S'*'
asbasbasbasbasbasbasbag49
(g65
g51
NtRp3521
(dp3522
g54
(dp3523
sg63
g3173
sg56
(lp3524
g49
(g70
g51
NtRp3525
(dp3526
g54
(dp3527
g74
g75
ssg63
g3521
sg56
(lp3528
S'headers'
p3529
asbag49
(g70
g51
NtRp3530
(dp3531
g54
(dp3532
g81
g82
ssg63
g3521
sg56
(lp3533
S':'
asbag49
(g70
g51
NtRp3534
(dp3535
g54
(dp3536
sg63
g3521
sg56
(lp3537
g49
(g50
g51
NtRp3538
(dp3539
g54
(dp3540
g62
I5
ssg63
g3534
sg56
(lp3541
g49
(g58
g51
NtRp3542
(dp3543
g54
(dp3544
g62
I4
ssg63
Nsg56
(lp3545
g49
(g65
g51
NtRp3546
(dp3547
g54
(dp3548
sg63
g3542
sg56
(lp3549
g49
(g70
g51
NtRp3550
(dp3551
g54
(dp3552
g74
g75
ssg63
g3546
sg56
(lp3553
S'Cache-Control'
p3554
asbag49
(g70
g51
NtRp3555
(dp3556
g54
(dp3557
g81
g82
ssg63
g3546
sg56
(lp3558
S':'
asbag49
(g70
g51
NtRp3559
(dp3560
g54
(dp3561
sg63
g3546
sg56
(lp3562
g49
(g50
g51
NtRp3563
(dp3564
g54
(dp3565
g62
I4
ssg63
g3559
sg56
(lp3566
S'no-store, no-cache, must-revalidate, post-check=0, pre-check=0'
p3567
asbasbasbag49
(g65
g51
NtRp3568
(dp3569
g54
(dp3570
sg63
g3542
sg56
(lp3571
g49
(g70
g51
NtRp3572
(dp3573
g54
(dp3574
g74
g75
ssg63
g3568
sg56
(lp3575
S'Content-Type'
p3576
asbag49
(g70
g51
NtRp3577
(dp3578
g54
(dp3579
g81
g82
ssg63
g3568
sg56
(lp3580
S':'
asbag49
(g70
g51
NtRp3581
(dp3582
g54
(dp3583
sg63
g3568
sg56
(lp3584
g49
(g50
g51
NtRp3585
(dp3586
g54
(dp3587
g62
I4
ssg63
g3581
sg56
(lp3588
S'text/html; charset=utf-8'
p3589
asbasbasbag49
(g65
g51
NtRp3590
(dp3591
g54
(dp3592
sg63
g3542
sg56
(lp3593
g49
(g70
g51
NtRp3594
(dp3595
g54
(dp3596
g74
g75
ssg63
g3590
sg56
(lp3597
S'Expires'
p3598
asbag49
(g70
g51
NtRp3599
(dp3600
g54
(dp3601
g81
g82
ssg63
g3590
sg56
(lp3602
S':'
asbag49
(g70
g51
NtRp3603
(dp3604
g54
(dp3605
sg63
g3590
sg56
(lp3606
g49
(g50
g51
NtRp3607
(dp3608
g54
(dp3609
g62
I4
ssg63
g3603
sg56
(lp3610
S'Sat, 10 Nov 2012 19:28:17 GMT'
p3611
asbasbasbag49
(g65
g51
NtRp3612
(dp3613
g54
(dp3614
sg63
g3542
sg56
(lp3615
g49
(g70
g51
NtRp3616
(dp3617
g54
(dp3618
g74
g75
ssg63
g3612
sg56
(lp3619
S'Pragma'
p3620
asbag49
(g70
g51
NtRp3621
(dp3622
g54
(dp3623
g81
g82
ssg63
g3612
sg56
(lp3624
S':'
asbag49
(g70
g51
NtRp3625
(dp3626
g54
(dp3627
sg63
g3612
sg56
(lp3628
g49
(g50
g51
NtRp3629
(dp3630
g54
(dp3631
g62
I4
ssg63
g3625
sg56
(lp3632
S'no-cache'
p3633
asbasbasbag49
(g65
g51
NtRp3634
(dp3635
g54
(dp3636
sg63
g3542
sg56
(lp3637
g49
(g70
g51
NtRp3638
(dp3639
g54
(dp3640
g74
g75
ssg63
g3634
sg56
(lp3641
S'X-Powered-By'
p3642
asbag49
(g70
g51
NtRp3643
(dp3644
g54
(dp3645
g81
g82
ssg63
g3634
sg56
(lp3646
S':'
asbag49
(g70
g51
NtRp3647
(dp3648
g54
(dp3649
sg63
g3634
sg56
(lp3650
g49
(g50
g51
NtRp3651
(dp3652
g54
(dp3653
g62
I4
ssg63
g3647
sg56
(lp3654
S'web2py'
p3655
asbasbasbasbasbasbasbag49
(g65
g51
NtRp3656
(dp3657
g54
(dp3658
sg63
g3173
sg56
(lp3659
g49
(g70
g51
NtRp3660
(dp3661
g54
(dp3662
g74
g75
ssg63
g3656
sg56
(lp3663
S'menu'
p3664
asbag49
(g70
g51
NtRp3665
(dp3666
g54
(dp3667
g81
g82
ssg63
g3656
sg56
(lp3668
S':'
asbag49
(g70
g51
NtRp3669
(dp3670
g54
(dp3671
sg63
g3656
sg56
(lp3672
g49
(g50
g51
NtRp3673
(dp3674
g54
(dp3675
g62
I5
ssg63
g3669
sg56
(lp3676
g49
(g58
g51
NtRp3677
(dp3678
g54
(dp3679
g62
I4
ssg63
Nsg56
(lp3680
g49
(g65
g51
NtRp3681
(dp3682
g54
(dp3683
sg63
g3677
sg56
(lp3684
g49
(g70
g51
NtRp3685
(dp3686
g54
(dp3687
sg63
g3681
sg56
(lp3688
g49
(g50
g51
NtRp3689
(dp3690
g54
(dp3691
g62
I4
ssg63
g3685
sg56
(lp3692
g49
(g58
g51
NtRp3693
(dp3694
g54
(dp3695
g62
I3
ssg63
Nsg56
(lp3696
g49
(g65
g51
NtRp3697
(dp3698
g54
(dp3699
sg63
g3693
sg56
(lp3700
g49
(g70
g51
NtRp3701
(dp3702
g54
(dp3703
sg63
g3697
sg56
(lp3704
g49
(g50
g51
NtRp3705
(dp3706
g54
(dp3707
g62
I3
ssg63
g3701
sg56
(lp3708
cgluon.languages
lazyT_unpickle
p3709
(S's\x04\x00\x00\x00Home'
tRp3710
asbasbasbag49
(g65
g51
NtRp3711
(dp3712
g54
(dp3713
sg63
g3693
sg56
(lp3714
g49
(g70
g51
NtRp3715
(dp3716
g54
(dp3717
sg63
g3711
sg56
(lp3718
g49
(g50
g51
NtRp3719
(dp3720
g54
(dp3721
g62
I3
ssg63
g3715
sg56
(lp3722
g92
asbasbasbag49
(g65
g51
NtRp3723
(dp3724
g54
(dp3725
sg63
g3693
sg56
(lp3726
g49
(g70
g51
NtRp3727
(dp3728
g54
(dp3729
sg63
g3723
sg56
(lp3730
g49
(g50
g51
NtRp3731
(dp3732
g54
(dp3733
g62
I3
ssg63
g3727
sg56
(lp3734
S'/SlugBarter/default/index'
p3735
asbasbasbag49
(g65
g51
NtRp3736
(dp3737
g54
(dp3738
sg63
g3693
sg56
(lp3739
g49
(g70
g51
NtRp3740
(dp3741
g54
(dp3742
sg63
g3736
sg56
(lp3743
g49
(g50
g51
NtRp3744
(dp3745
g54
(dp3746
g62
I3
ssg63
g3740
sg56
(lp3747
g49
(g58
g51
NtRp3748
(dp3749
g54
(dp3750
g62
I2
ssg63
Nsg56
(lp3751
sbasbasbasbasbasbasbasbag49
(g65
g51
NtRp3752
(dp3753
g54
(dp3754
sg63
g3677
sg56
(lp3755
g49
(g70
g51
NtRp3756
(dp3757
g54
(dp3758
sg63
g3752
sg56
(lp3759
g49
(g50
g51
NtRp3760
(dp3761
g54
(dp3762
g62
I4
ssg63
g3756
sg56
(lp3763
g49
(g58
g51
NtRp3764
(dp3765
g54
(dp3766
g62
I3
ssg63
Nsg56
(lp3767
g49
(g65
g51
NtRp3768
(dp3769
g54
(dp3770
sg63
g3764
sg56
(lp3771
g49
(g70
g51
NtRp3772
(dp3773
g54
(dp3774
sg63
g3768
sg56
(lp3775
g49
(g50
g51
NtRp3776
(dp3777
g54
(dp3778
g62
I3
ssg63
g3772
sg56
(lp3779
g49
(cgluon.html
SPAN
p3780
g51
NtRp3781
(dp3782
g54
(dp3783
g74
S'color:yellow'
p3784
ssg63
Nsg56
(lp3785
g3655
asbasbasbasbag49
(g65
g51
NtRp3786
(dp3787
g54
(dp3788
sg63
g3764
sg56
(lp3789
g49
(g70
g51
NtRp3790
(dp3791
g54
(dp3792
sg63
g3786
sg56
(lp3793
g49
(g50
g51
NtRp3794
(dp3795
g54
(dp3796
g62
I3
ssg63
g3790
sg56
(lp3797
g92
asbasbasbag49
(g65
g51
NtRp3798
(dp3799
g54
(dp3800
sg63
g3764
sg56
(lp3801
g49
(g70
g51
NtRp3802
(dp3803
g54
(dp3804
sg63
g3798
sg56
(lp3805
g49
(g50
g51
NtRp3806
(dp3807
g54
(dp3808
g62
I3
ssg63
g3802
sg56
(lp3809
S'None'
p3810
asbasbasbag49
(g65
g51
NtRp3811
(dp3812
g54
(dp3813
sg63
g3764
sg56
(lp3814
g49
(g70
g51
NtRp3815
(dp3816
g54
(dp3817
sg63
g3811
sg56
(lp3818
g49
(g50
g51
NtRp3819
(dp3820
g54
(dp3821
g62
I3
ssg63
g3815
sg56
(lp3822
g49
(g58
g51
NtRp3823
(dp3824
g54
(dp3825
g62
I2
ssg63
Nsg56
(lp3826
g49
(g65
g51
NtRp3827
(dp3828
g54
(dp3829
sg63
g3823
sg56
(lp3830
g49
(g70
g51
NtRp3831
(dp3832
g54
(dp3833
sg63
g3827
sg56
(lp3834
g49
(g50
g51
NtRp3835
(dp3836
g54
(dp3837
g62
I2
ssg63
g3831
sg56
(lp3838
g49
(g58
g51
NtRp3839
(dp3840
g54
(dp3841
g62
I1
ssg63
Nsg56
(lp3842
g49
(g65
g51
NtRp3843
(dp3844
g54
(dp3845
sg63
g3839
sg56
(lp3846
g49
(g70
g51
NtRp3847
(dp3848
g54
(dp3849
sg63
g3843
sg56
(lp3850
g49
(g50
g51
NtRp3851
(dp3852
g54
(dp3853
g62
I1
ssg63
g3847
sg56
(lp3854
g3709
(S's\x08\x00\x00\x00My Sites'
tRp3855
asbasbasbag49
(g65
g51
NtRp3856
(dp3857
g54
(dp3858
sg63
g3839
sg56
(lp3859
g49
(g70
g51
NtRp3860
(dp3861
g54
(dp3862
sg63
g3856
sg56
(lp3863
g49
(g50
g51
NtRp3864
(dp3865
g54
(dp3866
g62
I1
ssg63
g3860
sg56
(lp3867
I00
asbasbasbag49
(g65
g51
NtRp3868
(dp3869
g54
(dp3870
sg63
g3839
sg56
(lp3871
g49
(g70
g51
NtRp3872
(dp3873
g54
(dp3874
sg63
g3868
sg56
(lp3875
g49
(g50
g51
NtRp3876
(dp3877
g54
(dp3878
g62
I1
ssg63
g3872
sg56
(lp3879
S'/admin/default/site'
p3880
asbasbasbasbasbasbasbag49
(g65
g51
NtRp3881
(dp3882
g54
(dp3883
sg63
g3823
sg56
(lp3884
g49
(g70
g51
NtRp3885
(dp3886
g54
(dp3887
sg63
g3881
sg56
(lp3888
g49
(g50
g51
NtRp3889
(dp3890
g54
(dp3891
g62
I2
ssg63
g3885
sg56
(lp3892
g49
(g58
g51
NtRp3893
(dp3894
g54
(dp3895
g62
I1
ssg63
Nsg56
(lp3896
g49
(g65
g51
NtRp3897
(dp3898
g54
(dp3899
sg63
g3893
sg56
(lp3900
g49
(g70
g51
NtRp3901
(dp3902
g54
(dp3903
sg63
g3897
sg56
(lp3904
g49
(g50
g51
NtRp3905
(dp3906
g54
(dp3907
g62
I1
ssg63
g3901
sg56
(lp3908
g3709
(S's\x08\x00\x00\x00This App'
tRp3909
asbasbasbag49
(g65
g51
NtRp3910
(dp3911
g54
(dp3912
sg63
g3893
sg56
(lp3913
g49
(g70
g51
NtRp3914
(dp3915
g54
(dp3916
sg63
g3910
sg56
(lp3917
g49
(g50
g51
NtRp3918
(dp3919
g54
(dp3920
g62
I1
ssg63
g3914
sg56
(lp3921
I00
asbasbasbag49
(g65
g51
NtRp3922
(dp3923
g54
(dp3924
sg63
g3893
sg56
(lp3925
g49
(g70
g51
NtRp3926
(dp3927
g54
(dp3928
sg63
g3922
sg56
(lp3929
g49
(g50
g51
NtRp3930
(dp3931
g54
(dp3932
g62
I1
ssg63
g3926
sg56
(lp3933
S'/admin/default/design/SlugBarter'
p3934
asbasbasbag49
(g65
g51
NtRp3935
(dp3936
g54
(dp3937
sg63
g3893
sg56
(lp3938
g49
(g70
g51
NtRp3939
(dp3940
g54
(dp3941
sg63
g3935
sg56
(lp3942
g49
(g50
g51
NtRp3943
(dp3944
g54
(dp3945
g62
I1
ssg63
g3939
sg56
(lp3946
(lp3947
(g3709
(S's\n\x00\x00\x00Controller'
tRp3948
I00
S'/admin/default/edit/SlugBarter/controllers/default.py'
tp3949
a(g3709
(S's\x04\x00\x00\x00View'
tRp3950
I00
S'/admin/default/edit/SlugBarter/views/default/index.html'
tp3951
a(g3709
(S's\x06\x00\x00\x00Layout'
tRp3952
I00
S'/admin/default/edit/SlugBarter/views/layout.html'
tp3953
a(g3709
(S's\n\x00\x00\x00Stylesheet'
tRp3954
I00
S'/admin/default/edit/SlugBarter/static/css/web2py.css'
tp3955
a(g3709
(S's\x08\x00\x00\x00DB Model'
tRp3956
I00
S'/admin/default/edit/SlugBarter/models/db.py'
tp3957
a(g3709
(S's\n\x00\x00\x00Menu Model'
tRp3958
I00
S'/admin/default/edit/SlugBarter/models/menu.py'
tp3959
a(g3709
(S's\x08\x00\x00\x00Database'
tRp3960
I00
S'/SlugBarter/appadmin/index'
tp3961
a(g3709
(S's\x06\x00\x00\x00Errors'
tRp3962
I00
S'/admin/default/errors/SlugBarter'
tp3963
a(g3709
(S's\x05\x00\x00\x00About'
tRp3964
I00
S'/admin/default/about/SlugBarter'
tp3965
aasbasbasbasbasbasbasbag49
(g65
g51
NtRp3966
(dp3967
g54
(dp3968
sg63
g3823
sg56
(lp3969
g49
(g70
g51
NtRp3970
(dp3971
g54
(dp3972
sg63
g3966
sg56
(lp3973
g49
(g50
g51
NtRp3974
(dp3975
g54
(dp3976
g62
I2
ssg63
g3970
sg56
(lp3977
g49
(g58
g51
NtRp3978
(dp3979
g54
(dp3980
g62
I1
ssg63
Nsg56
(lp3981
g49
(g65
g51
NtRp3982
(dp3983
g54
(dp3984
sg63
g3978
sg56
(lp3985
g49
(g70
g51
NtRp3986
(dp3987
g54
(dp3988
sg63
g3982
sg56
(lp3989
g49
(g50
g51
NtRp3990
(dp3991
g54
(dp3992
g62
I1
ssg63
g3986
sg56
(lp3993
S'web2py.com'
p3994
asbasbasbag49
(g65
g51
NtRp3995
(dp3996
g54
(dp3997
sg63
g3978
sg56
(lp3998
g49
(g70
g51
NtRp3999
(dp4000
g54
(dp4001
sg63
g3995
sg56
(lp4002
g49
(g50
g51
NtRp4003
(dp4004
g54
(dp4005
g62
I1
ssg63
g3999
sg56
(lp4006
I00
asbasbasbag49
(g65
g51
NtRp4007
(dp4008
g54
(dp4009
sg63
g3978
sg56
(lp4010
g49
(g70
g51
NtRp4011
(dp4012
g54
(dp4013
sg63
g4007
sg56
(lp4014
g49
(g50
g51
NtRp4015
(dp4016
g54
(dp4017
g62
I1
ssg63
g4011
sg56
(lp4018
S'http://www.web2py.com'
p4019
asbasbasbag49
(g65
g51
NtRp4020
(dp4021
g54
(dp4022
sg63
g3978
sg56
(lp4023
g49
(g70
g51
NtRp4024
(dp4025
g54
(dp4026
sg63
g4020
sg56
(lp4027
g49
(g50
g51
NtRp4028
(dp4029
g54
(dp4030
g62
I1
ssg63
g4024
sg56
(lp4031
(lp4032
(g3709
(S's\x08\x00\x00\x00Download'
tRp4033
I00
S'http://www.web2py.com/examples/default/download'
p4034
tp4035
a(g3709
(S's\x07\x00\x00\x00Support'
tRp4036
I00
S'http://www.web2py.com/examples/default/support'
p4037
tp4038
a(g3709
(S's\x04\x00\x00\x00Demo'
tRp4039
I00
S'http://web2py.com/demo_admin'
p4040
tp4041
a(g3709
(S's\x0e\x00\x00\x00Quick Examples'
tRp4042
I00
S'http://web2py.com/examples/default/examples'
p4043
tp4044
a(g3709
(S's\x03\x00\x00\x00FAQ'
tRp4045
I00
S'http://web2py.com/AlterEgo'
p4046
tp4047
a(g3709
(S's\x06\x00\x00\x00Videos'
tRp4048
I00
S'http://www.web2py.com/examples/default/videos/'
p4049
tp4050
a(g3709
(S's\x11\x00\x00\x00Free Applications'
tRp4051
I00
S'http://web2py.com/appliances'
p4052
tp4053
a(g3709
(S's\x07\x00\x00\x00Plugins'
tRp4054
I00
S'http://web2py.com/plugins'
p4055
tp4056
a(g3709
(S's\x07\x00\x00\x00Layouts'
tRp4057
I00
S'http://web2py.com/layouts'
p4058
tp4059
a(g3709
(S's\x07\x00\x00\x00Recipes'
tRp4060
I00
S'http://web2pyslices.com/'
p4061
tp4062
a(g3709
(S's\x08\x00\x00\x00Semantic'
tRp4063
I00
S'http://web2py.com/semantic'
p4064
tp4065
aasbasbasbasbasbasbasbag49
(g65
g51
NtRp4066
(dp4067
g54
(dp4068
sg63
g3823
sg56
(lp4069
g49
(g70
g51
NtRp4070
(dp4071
g54
(dp4072
sg63
g4066
sg56
(lp4073
g49
(g50
g51
NtRp4074
(dp4075
g54
(dp4076
g62
I2
ssg63
g4070
sg56
(lp4077
g49
(g58
g51
NtRp4078
(dp4079
g54
(dp4080
g62
I1
ssg63
Nsg56
(lp4081
g49
(g65
g51
NtRp4082
(dp4083
g54
(dp4084
sg63
g4078
sg56
(lp4085
g49
(g70
g51
NtRp4086
(dp4087
g54
(dp4088
sg63
g4082
sg56
(lp4089
g49
(g50
g51
NtRp4090
(dp4091
g54
(dp4092
g62
I1
ssg63
g4086
sg56
(lp4093
g3709
(S's\r\x00\x00\x00Documentation'
tRp4094
asbasbasbag49
(g65
g51
NtRp4095
(dp4096
g54
(dp4097
sg63
g4078
sg56
(lp4098
g49
(g70
g51
NtRp4099
(dp4100
g54
(dp4101
sg63
g4095
sg56
(lp4102
g49
(g50
g51
NtRp4103
(dp4104
g54
(dp4105
g62
I1
ssg63
g4099
sg56
(lp4106
I00
asbasbasbag49
(g65
g51
NtRp4107
(dp4108
g54
(dp4109
sg63
g4078
sg56
(lp4110
g49
(g70
g51
NtRp4111
(dp4112
g54
(dp4113
sg63
g4107
sg56
(lp4114
g49
(g50
g51
NtRp4115
(dp4116
g54
(dp4117
g62
I1
ssg63
g4111
sg56
(lp4118
S'http://www.web2py.com/book'
p4119
asbasbasbag49
(g65
g51
NtRp4120
(dp4121
g54
(dp4122
sg63
g4078
sg56
(lp4123
g49
(g70
g51
NtRp4124
(dp4125
g54
(dp4126
sg63
g4120
sg56
(lp4127
g49
(g50
g51
NtRp4128
(dp4129
g54
(dp4130
g62
I1
ssg63
g4124
sg56
(lp4131
(lp4132
(g3709
(S's\x07\x00\x00\x00Preface'
tRp4133
I00
S'http://www.web2py.com/book/default/chapter/00'
p4134
tp4135
a(g3709
(S's\x0c\x00\x00\x00Introduction'
tRp4136
I00
S'http://www.web2py.com/book/default/chapter/01'
p4137
tp4138
a(g3709
(S's\x06\x00\x00\x00Python'
tRp4139
I00
S'http://www.web2py.com/book/default/chapter/02'
p4140
tp4141
a(g3709
(S's\x08\x00\x00\x00Overview'
tRp4142
I00
S'http://www.web2py.com/book/default/chapter/03'
p4143
tp4144
a(g3709
(S's\x08\x00\x00\x00The Core'
tRp4145
I00
S'http://www.web2py.com/book/default/chapter/04'
p4146
tp4147
a(g3709
(S's\t\x00\x00\x00The Views'
tRp4148
I00
S'http://www.web2py.com/book/default/chapter/05'
p4149
tp4150
a(g3709
(S's\x08\x00\x00\x00Database'
tRp4151
I00
S'http://www.web2py.com/book/default/chapter/06'
p4152
tp4153
a(g3709
(S's\x14\x00\x00\x00Forms and Validators'
tRp4154
I00
S'http://www.web2py.com/book/default/chapter/07'
p4155
tp4156
a(g3709
(S's\r\x00\x00\x00Email and SMS'
tRp4157
I00
S'http://www.web2py.com/book/default/chapter/08'
p4158
tp4159
a(g3709
(S's\x0e\x00\x00\x00Access Control'
tRp4160
I00
S'http://www.web2py.com/book/default/chapter/09'
p4161
tp4162
a(g3709
(S's\x08\x00\x00\x00Services'
tRp4163
I00
S'http://www.web2py.com/book/default/chapter/10'
p4164
tp4165
a(g3709
(S's\x0c\x00\x00\x00Ajax Recipes'
tRp4166
I00
S'http://www.web2py.com/book/default/chapter/11'
p4167
tp4168
a(g3709
(S's\x16\x00\x00\x00Components and Plugins'
tRp4169
I00
S'http://www.web2py.com/book/default/chapter/12'
p4170
tp4171
a(g3709
(S's\x12\x00\x00\x00Deployment Recipes'
tRp4172
I00
S'http://www.web2py.com/book/default/chapter/13'
p4173
tp4174
a(g3709
(S's\r\x00\x00\x00Other Recipes'
tRp4175
I00
S'http://www.web2py.com/book/default/chapter/14'
p4176
tp4177
a(g3709
(S's\r\x00\x00\x00Buy this book'
tRp4178
I00
S'http://stores.lulu.com/web2py'
p4179
tp4180
aasbasbasbasbasbasbasbag49
(g65
g51
NtRp4181
(dp4182
g54
(dp4183
sg63
g3823
sg56
(lp4184
g49
(g70
g51
NtRp4185
(dp4186
g54
(dp4187
sg63
g4181
sg56
(lp4188
g49
(g50
g51
NtRp4189
(dp4190
g54
(dp4191
g62
I2
ssg63
g4185
sg56
(lp4192
g49
(g58
g51
NtRp4193
(dp4194
g54
(dp4195
g62
I1
ssg63
Nsg56
(lp4196
g49
(g65
g51
NtRp4197
(dp4198
g54
(dp4199
sg63
g4193
sg56
(lp4200
g49
(g70
g51
NtRp4201
(dp4202
g54
(dp4203
sg63
g4197
sg56
(lp4204
g49
(g50
g51
NtRp4205
(dp4206
g54
(dp4207
g62
I1
ssg63
g4201
sg56
(lp4208
g3709
(S's\t\x00\x00\x00Community'
tRp4209
asbasbasbag49
(g65
g51
NtRp4210
(dp4211
g54
(dp4212
sg63
g4193
sg56
(lp4213
g49
(g70
g51
NtRp4214
(dp4215
g54
(dp4216
sg63
g4210
sg56
(lp4217
g49
(g50
g51
NtRp4218
(dp4219
g54
(dp4220
g62
I1
ssg63
g4214
sg56
(lp4221
I00
asbasbasbag49
(g65
g51
NtRp4222
(dp4223
g54
(dp4224
sg63
g4193
sg56
(lp4225
g49
(g70
g51
NtRp4226
(dp4227
g54
(dp4228
sg63
g4222
sg56
(lp4229
g49
(g50
g51
NtRp4230
(dp4231
g54
(dp4232
g62
I1
ssg63
g4226
sg56
(lp4233
Nasbasbasbag49
(g65
g51
NtRp4234
(dp4235
g54
(dp4236
sg63
g4193
sg56
(lp4237
g49
(g70
g51
NtRp4238
(dp4239
g54
(dp4240
sg63
g4234
sg56
(lp4241
g49
(g50
g51
NtRp4242
(dp4243
g54
(dp4244
g62
I1
ssg63
g4238
sg56
(lp4245
(lp4246
(g3709
(S's\x06\x00\x00\x00Groups'
tRp4247
I00
S'http://www.web2py.com/examples/default/usergroups'
p4248
tp4249
a(g3709
(S's\x07\x00\x00\x00Twitter'
tRp4250
I00
S'http://twitter.com/web2py'
p4251
tp4252
a(g3709
(S's\t\x00\x00\x00Live Chat'
tRp4253
I00
S'http://webchat.freenode.net/?channels=web2py'
p4254
tp4255
aasbasbasbasbasbasbasbag49
(g65
g51
NtRp4256
(dp4257
g54
(dp4258
sg63
g3823
sg56
(lp4259
g49
(g70
g51
NtRp4260
(dp4261
g54
(dp4262
sg63
g4256
sg56
(lp4263
g49
(g50
g51
NtRp4264
(dp4265
g54
(dp4266
g62
I2
ssg63
g4260
sg56
(lp4267
g49
(g58
g51
NtRp4268
(dp4269
g54
(dp4270
g62
I1
ssg63
Nsg56
(lp4271
g49
(g65
g51
NtRp4272
(dp4273
g54
(dp4274
sg63
g4268
sg56
(lp4275
g49
(g70
g51
NtRp4276
(dp4277
g54
(dp4278
sg63
g4272
sg56
(lp4279
g49
(g50
g51
NtRp4280
(dp4281
g54
(dp4282
g62
I1
ssg63
g4276
sg56
(lp4283
g3709
(S's\x07\x00\x00\x00Plugins'
tRp4284
asbasbasbag49
(g65
g51
NtRp4285
(dp4286
g54
(dp4287
sg63
g4268
sg56
(lp4288
g49
(g70
g51
NtRp4289
(dp4290
g54
(dp4291
sg63
g4285
sg56
(lp4292
g49
(g50
g51
NtRp4293
(dp4294
g54
(dp4295
g62
I1
ssg63
g4289
sg56
(lp4296
I00
asbasbasbag49
(g65
g51
NtRp4297
(dp4298
g54
(dp4299
sg63
g4268
sg56
(lp4300
g49
(g70
g51
NtRp4301
(dp4302
g54
(dp4303
sg63
g4297
sg56
(lp4304
g49
(g50
g51
NtRp4305
(dp4306
g54
(dp4307
g62
I1
ssg63
g4301
sg56
(lp4308
Nasbasbasbag49
(g65
g51
NtRp4309
(dp4310
g54
(dp4311
sg63
g4268
sg56
(lp4312
g49
(g70
g51
NtRp4313
(dp4314
g54
(dp4315
sg63
g4309
sg56
(lp4316
g49
(g50
g51
NtRp4317
(dp4318
g54
(dp4319
g62
I1
ssg63
g4313
sg56
(lp4320
(lp4321
(S'plugin_wiki'
p4322
I00
S'http://web2py.com/examples/default/download'
p4323
tp4324
a(g3709
(S's\r\x00\x00\x00Other Plugins'
tRp4325
I00
g4055
tp4326
a(g3709
(S's\x0e\x00\x00\x00Layout Plugins'
tRp4327
I00
g4058
tp4328
aasbasbasbasbasbasbasbasbasbasbasbasbasbasbasbasbasbasbasbag49
(g65
g51
NtRp4329
(dp4330
g54
(dp4331
sg63
g3173
sg56
(lp4332
g49
(g70
g51
NtRp4333
(dp4334
g54
(dp4335
g74
g75
ssg63
g4329
sg56
(lp4336
S'meta'
p4337
asbag49
(g70
g51
NtRp4338
(dp4339
g54
(dp4340
g81
g82
ssg63
g4329
sg56
(lp4341
S':'
asbag49
(g70
g51
NtRp4342
(dp4343
g54
(dp4344
sg63
g4329
sg56
(lp4345
g49
(g50
g51
NtRp4346
(dp4347
g54
(dp4348
g62
I5
ssg63
g4342
sg56
(lp4349
g49
(g58
g51
NtRp4350
(dp4351
g54
(dp4352
g62
I4
ssg63
Nsg56
(lp4353
g49
(g65
g51
NtRp4354
(dp4355
g54
(dp4356
sg63
g4350
sg56
(lp4357
g49
(g70
g51
NtRp4358
(dp4359
g54
(dp4360
g74
g75
ssg63
g4354
sg56
(lp4361
S'author'
p4362
asbag49
(g70
g51
NtRp4363
(dp4364
g54
(dp4365
g81
g82
ssg63
g4354
sg56
(lp4366
S':'
asbag49
(g70
g51
NtRp4367
(dp4368
g54
(dp4369
sg63
g4354
sg56
(lp4370
g49
(g50
g51
NtRp4371
(dp4372
g54
(dp4373
g62
I4
ssg63
g4367
sg56
(lp4374
S'Your Name <you@example.com>'
p4375
asbasbasbag49
(g65
g51
NtRp4376
(dp4377
g54
(dp4378
sg63
g4350
sg56
(lp4379
g49
(g70
g51
NtRp4380
(dp4381
g54
(dp4382
g74
g75
ssg63
g4376
sg56
(lp4383
S'copyright'
p4384
asbag49
(g70
g51
NtRp4385
(dp4386
g54
(dp4387
g81
g82
ssg63
g4376
sg56
(lp4388
S':'
asbag49
(g70
g51
NtRp4389
(dp4390
g54
(dp4391
sg63
g4376
sg56
(lp4392
g49
(g50
g51
NtRp4393
(dp4394
g54
(dp4395
g62
I4
ssg63
g4389
sg56
(lp4396
S'Copyright 2011'
p4397
asbasbasbag49
(g65
g51
NtRp4398
(dp4399
g54
(dp4400
sg63
g4350
sg56
(lp4401
g49
(g70
g51
NtRp4402
(dp4403
g54
(dp4404
g74
g75
ssg63
g4398
sg56
(lp4405
S'description'
p4406
asbag49
(g70
g51
NtRp4407
(dp4408
g54
(dp4409
g81
g82
ssg63
g4398
sg56
(lp4410
S':'
asbag49
(g70
g51
NtRp4411
(dp4412
g54
(dp4413
sg63
g4398
sg56
(lp4414
g49
(g50
g51
NtRp4415
(dp4416
g54
(dp4417
g62
I4
ssg63
g4411
sg56
(lp4418
S'a cool new app'
p4419
asbasbasbag49
(g65
g51
NtRp4420
(dp4421
g54
(dp4422
sg63
g4350
sg56
(lp4423
g49
(g70
g51
NtRp4424
(dp4425
g54
(dp4426
g74
g75
ssg63
g4420
sg56
(lp4427
S'generator'
p4428
asbag49
(g70
g51
NtRp4429
(dp4430
g54
(dp4431
g81
g82
ssg63
g4420
sg56
(lp4432
S':'
asbag49
(g70
g51
NtRp4433
(dp4434
g54
(dp4435
sg63
g4420
sg56
(lp4436
g49
(g50
g51
NtRp4437
(dp4438
g54
(dp4439
g62
I4
ssg63
g4433
sg56
(lp4440
S'Web2py Web Framework'
p4441
asbasbasbag49
(g65
g51
NtRp4442
(dp4443
g54
(dp4444
sg63
g4350
sg56
(lp4445
g49
(g70
g51
NtRp4446
(dp4447
g54
(dp4448
g74
g75
ssg63
g4442
sg56
(lp4449
S'keywords'
p4450
asbag49
(g70
g51
NtRp4451
(dp4452
g54
(dp4453
g81
g82
ssg63
g4442
sg56
(lp4454
S':'
asbag49
(g70
g51
NtRp4455
(dp4456
g54
(dp4457
sg63
g4442
sg56
(lp4458
g49
(g50
g51
NtRp4459
(dp4460
g54
(dp4461
g62
I4
ssg63
g4455
sg56
(lp4462
S'web2py, python, framework'
p4463
asbasbasbasbasbasbasbag49
(g65
g51
NtRp4464
(dp4465
g54
(dp4466
sg63
g3173
sg56
(lp4467
g49
(g70
g51
NtRp4468
(dp4469
g54
(dp4470
g74
g75
ssg63
g4464
sg56
(lp4471
S'postprocessing'
p4472
asbag49
(g70
g51
NtRp4473
(dp4474
g54
(dp4475
g81
g82
ssg63
g4464
sg56
(lp4476
S':'
asbag49
(g70
g51
NtRp4477
(dp4478
g54
(dp4479
sg63
g4464
sg56
(lp4480
g49
(g50
g51
NtRp4481
(dp4482
g54
(dp4483
g62
I5
ssg63
g4477
sg56
(lp4484
g49
(g58
g51
NtRp4485
(dp4486
g54
(dp4487
g62
I4
ssg63
Nsg56
(lp4488
sbasbasbasbag49
(g65
g51
NtRp4489
(dp4490
g54
(dp4491
sg63
g3173
sg56
(lp4492
g49
(g70
g51
NtRp4493
(dp4494
g54
(dp4495
g74
g75
ssg63
g4489
sg56
(lp4496
S'session_file'
p4497
asbag49
(g70
g51
NtRp4498
(dp4499
g54
(dp4500
g81
g82
ssg63
g4489
sg56
(lp4501
S':'
asbag49
(g70
g51
NtRp4502
(dp4503
g54
(dp4504
sg63
g4489
sg56
(lp4505
g49
(g50
g51
NtRp4506
(dp4507
g54
(dp4508
g62
I5
ssg63
g4502
sg56
(lp4509
S"<open file 'C:\\Users\\omkara\\Desktop\\web2py\\applications\\SlugBarter\\sessions\\127.0.0.1-e6ebae72-1bbc-48a5-9458-95dbb65a4e54', mode 'rb+' at 0x059F1410>"
p4510
asbasbasbag49
(g65
g51
NtRp4511
(dp4512
g54
(dp4513
sg63
g3173
sg56
(lp4514
g49
(g70
g51
NtRp4515
(dp4516
g54
(dp4517
g74
g75
ssg63
g4511
sg56
(lp4518
S'session_filename'
p4519
asbag49
(g70
g51
NtRp4520
(dp4521
g54
(dp4522
g81
g82
ssg63
g4511
sg56
(lp4523
S':'
asbag49
(g70
g51
NtRp4524
(dp4525
g54
(dp4526
sg63
g4511
sg56
(lp4527
g49
(g50
g51
NtRp4528
(dp4529
g54
(dp4530
g62
I5
ssg63
g4524
sg56
(lp4531
S'C:\\Users\\omkara\\Desktop\\web2py\\applications\\SlugBarter\\sessions\\127.0.0.1-e6ebae72-1bbc-48a5-9458-95dbb65a4e54'
p4532
asbasbasbag49
(g65
g51
NtRp4533
(dp4534
g54
(dp4535
sg63
g3173
sg56
(lp4536
g49
(g70
g51
NtRp4537
(dp4538
g54
(dp4539
g74
g75
ssg63
g4533
sg56
(lp4540
S'session_id'
p4541
asbag49
(g70
g51
NtRp4542
(dp4543
g54
(dp4544
g81
g82
ssg63
g4533
sg56
(lp4545
S':'
asbag49
(g70
g51
NtRp4546
(dp4547
g54
(dp4548
sg63
g4533
sg56
(lp4549
g49
(g50
g51
NtRp4550
(dp4551
g54
(dp4552
g62
I5
ssg63
g4546
sg56
(lp4553
S'127.0.0.1-e6ebae72-1bbc-48a5-9458-95dbb65a4e54'
p4554
asbasbasbag49
(g65
g51
NtRp4555
(dp4556
g54
(dp4557
sg63
g3173
sg56
(lp4558
g49
(g70
g51
NtRp4559
(dp4560
g54
(dp4561
g74
g75
ssg63
g4555
sg56
(lp4562
S'session_id_name'
p4563
asbag49
(g70
g51
NtRp4564
(dp4565
g54
(dp4566
g81
g82
ssg63
g4555
sg56
(lp4567
S':'
asbag49
(g70
g51
NtRp4568
(dp4569
g54
(dp4570
sg63
g4555
sg56
(lp4571
g49
(g50
g51
NtRp4572
(dp4573
g54
(dp4574
g62
I5
ssg63
g4568
sg56
(lp4575
g3230
asbasbasbag49
(g65
g51
NtRp4576
(dp4577
g54
(dp4578
sg63
g3173
sg56
(lp4579
g49
(g70
g51
NtRp4580
(dp4581
g54
(dp4582
g74
g75
ssg63
g4576
sg56
(lp4583
S'session_locked'
p4584
asbag49
(g70
g51
NtRp4585
(dp4586
g54
(dp4587
g81
g82
ssg63
g4576
sg56
(lp4588
S':'
asbag49
(g70
g51
NtRp4589
(dp4590
g54
(dp4591
sg63
g4576
sg56
(lp4592
g49
(g50
g51
NtRp4593
(dp4594
g54
(dp4595
g62
I5
ssg63
g4589
sg56
(lp4596
g1774
asbasbasbag49
(g65
g51
NtRp4597
(dp4598
g54
(dp4599
sg63
g3173
sg56
(lp4600
g49
(g70
g51
NtRp4601
(dp4602
g54
(dp4603
g74
g75
ssg63
g4597
sg56
(lp4604
S'session_new'
p4605
asbag49
(g70
g51
NtRp4606
(dp4607
g54
(dp4608
g81
g82
ssg63
g4597
sg56
(lp4609
S':'
asbag49
(g70
g51
NtRp4610
(dp4611
g54
(dp4612
sg63
g4597
sg56
(lp4613
g49
(g50
g51
NtRp4614
(dp4615
g54
(dp4616
g62
I5
ssg63
g4610
sg56
(lp4617
g92
asbasbasbag49
(g65
g51
NtRp4618
(dp4619
g54
(dp4620
sg63
g3173
sg56
(lp4621
g49
(g70
g51
NtRp4622
(dp4623
g54
(dp4624
g74
g75
ssg63
g4618
sg56
(lp4625
S'status'
p4626
asbag49
(g70
g51
NtRp4627
(dp4628
g54
(dp4629
g81
g82
ssg63
g4618
sg56
(lp4630
S':'
asbag49
(g70
g51
NtRp4631
(dp4632
g54
(dp4633
sg63
g4618
sg56
(lp4634
g49
(g50
g51
NtRp4635
(dp4636
g54
(dp4637
g62
I5
ssg63
g4631
sg56
(lp4638
S'200'
p4639
asbasbasbag49
(g65
g51
NtRp4640
(dp4641
g54
(dp4642
sg63
g3173
sg56
(lp4643
g49
(g70
g51
NtRp4644
(dp4645
g54
(dp4646
g74
g75
ssg63
g4640
sg56
(lp4647
S'subtitle'
p4648
asbag49
(g70
g51
NtRp4649
(dp4650
g54
(dp4651
g81
g82
ssg63
g4640
sg56
(lp4652
S':'
asbag49
(g70
g51
NtRp4653
(dp4654
g54
(dp4655
sg63
g4640
sg56
(lp4656
g49
(g50
g51
NtRp4657
(dp4658
g54
(dp4659
g62
I5
ssg63
g4653
sg56
(lp4660
g3709
(S's\r\x00\x00\x00customize me!'
tRp4661
asbasbasbag49
(g65
g51
NtRp4662
(dp4663
g54
(dp4664
sg63
g3173
sg56
(lp4665
g49
(g70
g51
NtRp4666
(dp4667
g54
(dp4668
g74
g75
ssg63
g4662
sg56
(lp4669
S'title'
p4670
asbag49
(g70
g51
NtRp4671
(dp4672
g54
(dp4673
g81
g82
ssg63
g4662
sg56
(lp4674
S':'
asbag49
(g70
g51
NtRp4675
(dp4676
g54
(dp4677
sg63
g4662
sg56
(lp4678
g49
(g50
g51
NtRp4679
(dp4680
g54
(dp4681
g62
I5
ssg63
g4675
sg56
(lp4682
S'Slugbarter'
p4683
asbasbasbag49
(g65
g51
NtRp4684
(dp4685
g54
(dp4686
sg63
g3173
sg56
(lp4687
g49
(g70
g51
NtRp4688
(dp4689
g54
(dp4690
g74
g75
ssg63
g4684
sg56
(lp4691
g2438
asbag49
(g70
g51
NtRp4692
(dp4693
g54
(dp4694
g81
g82
ssg63
g4684
sg56
(lp4695
S':'
asbag49
(g70
g51
NtRp4696
(dp4697
g54
(dp4698
sg63
g4684
sg56
(lp4699
g49
(g50
g51
NtRp4700
(dp4701
g54
(dp4702
g62
I5
ssg63
g4696
sg56
(lp4703
g2451
asbasbasbag49
(g65
g51
NtRp4704
(dp4705
g54
(dp4706
sg63
g3173
sg56
(lp4707
g49
(g70
g51
NtRp4708
(dp4709
g54
(dp4710
g74
g75
ssg63
g4704
sg56
(lp4711
S'view'
p4712
asbag49
(g70
g51
NtRp4713
(dp4714
g54
(dp4715
g81
g82
ssg63
g4704
sg56
(lp4716
S':'
asbag49
(g70
g51
NtRp4717
(dp4718
g54
(dp4719
sg63
g4704
sg56
(lp4720
g49
(g50
g51
NtRp4721
(dp4722
g54
(dp4723
g62
I5
ssg63
g4717
sg56
(lp4724
S'default/index.html'
p4725
asbasbasbasbasbsS'locals'
p4726
(dp4727
S'migrate'
p4728
g1774
sS'decode_credentials'
p4729
g92
sS'attempts'
p4730
S'5'
sS'driver_args'
p4731
S'None'
p4732
sS'self'
p4733
S"<DAL {'_lastsql': '', '_db_codec': 'UTF-8', '_ti...table)s', '_pool_size': 0, '_common_fields': []}>"
p4734
sS'auto_import'
p4735
g92
sS'migrate_enabled'
p4736
g1774
sS'check_reserved'
p4737
S'None'
p4738
sg1897
S'None'
p4739
sS'tb'
p4740
S'\'Traceback (most recent call last):\\n  File "gluon...ernalError: (1049, u"Unknown database \\\'critic\\\'")\\n\''
p4741
sS'uris'
p4742
S"['mysql://root:@localhost/critic']"
p4743
sg28
S"(<DAL {'_lastsql': '', '_db_codec': 'UTF-8', '_ti...table)s', '_pool_size': 0, '_common_fields': []}>, 'mysql://root:@localhost/critic', 0, None, 'UTF-8', <function <lambda> at 0x064FBBB0>, {'charset': 'utf8', 'db': 'critic', 'host': 'localhost', 'passwd': '', 'port': 3306, 'user': 'root'}, {})"
p4744
sS'db_codec'
p4745
S"'UTF-8'"
p4746
sS'adapter_args'
p4747
S'None'
p4748
sS'fake_migrate'
p4749
g92
sS'connected'
p4750
g92
sS'credential_decoder'
p4751
S'<function <lambda> at 0x064FBBB0>'
p4752
sS'fake_migrate_all'
p4753
g92
sS'k'
S'4'
sS'uri'
p4754
S"'mysql://root:@localhost/critic'"
p4755
sS'pool_size'
p4756
S'0'
sS'error'
p4757
S'InternalError(1049, u"Unknown database \'critic\'")'
p4758
sssS'traceback'
p4759
S'Traceback (most recent call last):\n  File "gluon/restricted.py", line 205, in restricted\n  File "C:\\Users\\omkara\\Desktop\\web2py\\applications\\SlugBarter\\models\\registerForm.py", line 2, in <module>\n  File "gluon/dal.py", line 5968, in __init__\nRuntimeError: Failure to connect, tried 5 times:\nTraceback (most recent call last):\n  File "gluon/dal.py", line 5955, in __init__\n  File "gluon/dal.py", line 1886, in __init__\n  File "gluon/dal.py", line 465, in pool_connection\n  File "gluon/dal.py", line 1885, in connect\n  File "gluon/contrib/pymysql/__init__.py", line 93, in Connect\n  File "gluon/contrib/pymysql/connections.py", line 513, in __init__\n  File "gluon/contrib/pymysql/connections.py", line 667, in _connect\n  File "gluon/contrib/pymysql/connections.py", line 720, in _request_authentication\n  File "gluon/contrib/pymysql/connections.py", line 766, in _send_authentication\n  File "gluon/contrib/pymysql/connections.py", line 331, in check_error\n  File "gluon/contrib/pymysql/err.py", line 135, in raise_mysql_exception\n  File "gluon/contrib/pymysql/err.py", line 131, in _check_mysql_exception\nInternalError: (1049, u"Unknown database \'critic\'")\n\n'
p4760
s.