(dp1
S'output'
p2
S"<type 'exceptions.KeyError'> 'auth_user'"
p3
sS'layer'
p4
S'C:\\Users\\omkara\\Desktop\\web2py\\applications\\SlugBarter\\models\\registerForm.py'
p5
sS'code'
p6
S"# coding: utf8\ndb = DAL('sqlite://storage.sqlite')\nfrom gluon.tools import Auth\nfrom datetime import datetime\nauth = Auth(db)\nauth.settings.extra_fields['auth_user']= [\n  Field('username', 'string', requires = IS_NOT_EMPTY(error_message = 'Cannot be empty')),\n  Field('dateCreated', 'datetime', default=datetime.utcnow(), readable=False, writable =False )\n  ]\nauth.settings.login_next=URL('mypage') \n\ndb.define_table('listing',\n    Field('user', db.auth_user(), default = auth.user_id),\n    Field('title','string', label = 'Title', requires=IS_NOT_EMPTY(error_message='Must not be empty')),\n    Field('description','text', label = 'Description', requires = IS_NOT_EMPTY(error_message='Must not be empty')),\n    Field('services',label='Services', requires = IS_IN_SET(['Repair Services', 'Entertainment','Books','VideoGames', 'Handyman Services']))\n)\nauth.define_tables()\n"
p7
sS'snapshot'
p8
(dp9
S'exception'
p10
(dp11
S'__hash__'
p12
S"<method-wrapper '__hash__' of exceptions.KeyError object at 0x06AF8058>"
p13
sS'__setattr__'
p14
S"<method-wrapper '__setattr__' of exceptions.KeyError object at 0x06AF8058>"
p15
sS'__reduce_ex__'
p16
S'<built-in method __reduce_ex__ of exceptions.KeyError object at 0x06AF8058>'
p17
sS'__getslice__'
p18
S"<method-wrapper '__getslice__' of exceptions.KeyError object at 0x06AF8058>"
p19
sS'__getitem__'
p20
S"<method-wrapper '__getitem__' of exceptions.KeyError object at 0x06AF8058>"
p21
sS'__setstate__'
p22
S'<built-in method __setstate__ of exceptions.KeyError object at 0x06AF8058>'
p23
sS'__reduce__'
p24
S'<built-in method __reduce__ of exceptions.KeyError object at 0x06AF8058>'
p25
sS'__str__'
p26
S"<method-wrapper '__str__' of exceptions.KeyError object at 0x06AF8058>"
p27
sS'args'
p28
S"('auth_user',)"
p29
sS'__getattribute__'
p30
S"<method-wrapper '__getattribute__' of exceptions.KeyError object at 0x06AF8058>"
p31
sS'__class__'
p32
S"<type 'exceptions.KeyError'>"
p33
sS'__delattr__'
p34
S"<method-wrapper '__delattr__' of exceptions.KeyError object at 0x06AF8058>"
p35
sS'__repr__'
p36
S"<method-wrapper '__repr__' of exceptions.KeyError object at 0x06AF8058>"
p37
sS'__dict__'
p38
S'{}'
p39
sS'__doc__'
p40
S"'Mapping key not found.'"
p41
sS'__init__'
p42
S"<method-wrapper '__init__' of exceptions.KeyError object at 0x06AF8058>"
p43
sS'__new__'
p44
S'<built-in method __new__ of type object at 0x1E1CDFB8>'
p45
ssS'evalue'
p46
S"'auth_user'"
p47
sS'request'
p48
ccopy_reg
_reconstructor
p49
(cgluon.html
BEAUTIFY
p50
c__builtin__
object
p51
NtRp52
(dp53
S'attributes'
p54
(dp55
sS'components'
p56
(lp57
g49
(cgluon.html
TABLE
p58
g51
NtRp59
(dp60
g54
(dp61
S'level'
p62
I5
ssS'parent'
p63
Nsg56
(lp64
g49
(cgluon.html
TR
p65
g51
NtRp66
(dp67
g54
(dp68
sg63
g59
sg56
(lp69
g49
(cgluon.html
TD
p70
g51
NtRp71
(dp72
g54
(dp73
S'_style'
p74
S'font-weight:bold;vertical-align:top'
p75
ssg63
g66
sg56
(lp76
S'ajax'
p77
asbag49
(g70
g51
NtRp78
(dp79
g54
(dp80
S'_valign'
p81
S'top'
p82
ssg63
g66
sg56
(lp83
S':'
asbag49
(g70
g51
NtRp84
(dp85
g54
(dp86
sg63
g66
sg56
(lp87
g49
(g50
g51
NtRp88
(dp89
g54
(dp90
g62
I5
ssg63
g84
sg56
(lp91
S'False'
p92
asbasbasbag49
(g65
g51
NtRp93
(dp94
g54
(dp95
sg63
g59
sg56
(lp96
g49
(g70
g51
NtRp97
(dp98
g54
(dp99
g74
g75
ssg63
g93
sg56
(lp100
S'application'
p101
asbag49
(g70
g51
NtRp102
(dp103
g54
(dp104
g81
g82
ssg63
g93
sg56
(lp105
S':'
asbag49
(g70
g51
NtRp106
(dp107
g54
(dp108
sg63
g93
sg56
(lp109
g49
(g50
g51
NtRp110
(dp111
g54
(dp112
g62
I5
ssg63
g106
sg56
(lp113
S'SlugBarter'
p114
asbasbasbag49
(g65
g51
NtRp115
(dp116
g54
(dp117
sg63
g59
sg56
(lp118
g49
(g70
g51
NtRp119
(dp120
g54
(dp121
g74
g75
ssg63
g115
sg56
(lp122
g28
asbag49
(g70
g51
NtRp123
(dp124
g54
(dp125
g81
g82
ssg63
g115
sg56
(lp126
S':'
asbag49
(g70
g51
NtRp127
(dp128
g54
(dp129
sg63
g115
sg56
(lp130
g49
(g50
g51
NtRp131
(dp132
g54
(dp133
g62
I5
ssg63
g127
sg56
(lp134
g49
(g58
g51
NtRp135
(dp136
g54
(dp137
g62
I4
ssg63
Nsg56
(lp138
sbasbasbasbag49
(g65
g51
NtRp139
(dp140
g54
(dp141
sg63
g59
sg56
(lp142
g49
(g70
g51
NtRp143
(dp144
g54
(dp145
g74
g75
ssg63
g139
sg56
(lp146
S'body'
p147
asbag49
(g70
g51
NtRp148
(dp149
g54
(dp150
g81
g82
ssg63
g139
sg56
(lp151
S':'
asbag49
(g70
g51
NtRp152
(dp153
g54
(dp154
sg63
g139
sg56
(lp155
g49
(g50
g51
NtRp156
(dp157
g54
(dp158
g62
I5
ssg63
g152
sg56
(lp159
S'<cStringIO.StringO object at 0x065EB120>'
p160
asbasbasbag49
(g65
g51
NtRp161
(dp162
g54
(dp163
sg63
g59
sg56
(lp164
g49
(g70
g51
NtRp165
(dp166
g54
(dp167
g74
g75
ssg63
g161
sg56
(lp168
S'client'
p169
asbag49
(g70
g51
NtRp170
(dp171
g54
(dp172
g81
g82
ssg63
g161
sg56
(lp173
S':'
asbag49
(g70
g51
NtRp174
(dp175
g54
(dp176
sg63
g161
sg56
(lp177
g49
(g50
g51
NtRp178
(dp179
g54
(dp180
g62
I5
ssg63
g174
sg56
(lp181
S'127.0.0.1'
p182
asbasbasbag49
(g65
g51
NtRp183
(dp184
g54
(dp185
sg63
g59
sg56
(lp186
g49
(g70
g51
NtRp187
(dp188
g54
(dp189
g74
g75
ssg63
g183
sg56
(lp190
S'controller'
p191
asbag49
(g70
g51
NtRp192
(dp193
g54
(dp194
g81
g82
ssg63
g183
sg56
(lp195
S':'
asbag49
(g70
g51
NtRp196
(dp197
g54
(dp198
sg63
g183
sg56
(lp199
g49
(g50
g51
NtRp200
(dp201
g54
(dp202
g62
I5
ssg63
g196
sg56
(lp203
S'default'
p204
asbasbasbag49
(g65
g51
NtRp205
(dp206
g54
(dp207
sg63
g59
sg56
(lp208
g49
(g70
g51
NtRp209
(dp210
g54
(dp211
g74
g75
ssg63
g205
sg56
(lp212
S'cookies'
p213
asbag49
(g70
g51
NtRp214
(dp215
g54
(dp216
g81
g82
ssg63
g205
sg56
(lp217
S':'
asbag49
(g70
g51
NtRp218
(dp219
g54
(dp220
sg63
g205
sg56
(lp221
g49
(g50
g51
NtRp222
(dp223
g54
(dp224
g62
I5
ssg63
g218
sg56
(lp225
g49
(g58
g51
NtRp226
(dp227
g54
(dp228
g62
I4
ssg63
Nsg56
(lp229
g49
(g65
g51
NtRp230
(dp231
g54
(dp232
sg63
g226
sg56
(lp233
g49
(g70
g51
NtRp234
(dp235
g54
(dp236
g74
g75
ssg63
g230
sg56
(lp237
S'session_id_admin'
p238
asbag49
(g70
g51
NtRp239
(dp240
g54
(dp241
g81
g82
ssg63
g230
sg56
(lp242
S':'
asbag49
(g70
g51
NtRp243
(dp244
g54
(dp245
sg63
g230
sg56
(lp246
g49
(g50
g51
NtRp247
(dp248
g54
(dp249
g62
I4
ssg63
g243
sg56
(lp250
g49
(g58
g51
NtRp251
(dp252
g54
(dp253
g62
I3
ssg63
Nsg56
(lp254
g49
(g65
g51
NtRp255
(dp256
g54
(dp257
sg63
g251
sg56
(lp258
g49
(g70
g51
NtRp259
(dp260
g54
(dp261
g74
g75
ssg63
g255
sg56
(lp262
S'comment'
p263
asbag49
(g70
g51
NtRp264
(dp265
g54
(dp266
g81
g82
ssg63
g255
sg56
(lp267
S':'
asbag49
(g70
g51
NtRp268
(dp269
g54
(dp270
sg63
g255
sg56
(lp271
g49
(g50
g51
NtRp272
(dp273
g54
(dp274
g62
I3
ssg63
g268
sg56
(lp275
S''
asbasbasbag49
(g65
g51
NtRp276
(dp277
g54
(dp278
sg63
g251
sg56
(lp279
g49
(g70
g51
NtRp280
(dp281
g54
(dp282
g74
g75
ssg63
g276
sg56
(lp283
S'domain'
p284
asbag49
(g70
g51
NtRp285
(dp286
g54
(dp287
g81
g82
ssg63
g276
sg56
(lp288
S':'
asbag49
(g70
g51
NtRp289
(dp290
g54
(dp291
sg63
g276
sg56
(lp292
g49
(g50
g51
NtRp293
(dp294
g54
(dp295
g62
I3
ssg63
g289
sg56
(lp296
S''
asbasbasbag49
(g65
g51
NtRp297
(dp298
g54
(dp299
sg63
g251
sg56
(lp300
g49
(g70
g51
NtRp301
(dp302
g54
(dp303
g74
g75
ssg63
g297
sg56
(lp304
S'expires'
p305
asbag49
(g70
g51
NtRp306
(dp307
g54
(dp308
g81
g82
ssg63
g297
sg56
(lp309
S':'
asbag49
(g70
g51
NtRp310
(dp311
g54
(dp312
sg63
g297
sg56
(lp313
g49
(g50
g51
NtRp314
(dp315
g54
(dp316
g62
I3
ssg63
g310
sg56
(lp317
S''
asbasbasbag49
(g65
g51
NtRp318
(dp319
g54
(dp320
sg63
g251
sg56
(lp321
g49
(g70
g51
NtRp322
(dp323
g54
(dp324
g74
g75
ssg63
g318
sg56
(lp325
S'max-age'
p326
asbag49
(g70
g51
NtRp327
(dp328
g54
(dp329
g81
g82
ssg63
g318
sg56
(lp330
S':'
asbag49
(g70
g51
NtRp331
(dp332
g54
(dp333
sg63
g318
sg56
(lp334
g49
(g50
g51
NtRp335
(dp336
g54
(dp337
g62
I3
ssg63
g331
sg56
(lp338
S''
asbasbasbag49
(g65
g51
NtRp339
(dp340
g54
(dp341
sg63
g251
sg56
(lp342
g49
(g70
g51
NtRp343
(dp344
g54
(dp345
g74
g75
ssg63
g339
sg56
(lp346
S'path'
p347
asbag49
(g70
g51
NtRp348
(dp349
g54
(dp350
g81
g82
ssg63
g339
sg56
(lp351
S':'
asbag49
(g70
g51
NtRp352
(dp353
g54
(dp354
sg63
g339
sg56
(lp355
g49
(g50
g51
NtRp356
(dp357
g54
(dp358
g62
I3
ssg63
g352
sg56
(lp359
S''
asbasbasbag49
(g65
g51
NtRp360
(dp361
g54
(dp362
sg63
g251
sg56
(lp363
g49
(g70
g51
NtRp364
(dp365
g54
(dp366
g74
g75
ssg63
g360
sg56
(lp367
S'secure'
p368
asbag49
(g70
g51
NtRp369
(dp370
g54
(dp371
g81
g82
ssg63
g360
sg56
(lp372
S':'
asbag49
(g70
g51
NtRp373
(dp374
g54
(dp375
sg63
g360
sg56
(lp376
g49
(g50
g51
NtRp377
(dp378
g54
(dp379
g62
I3
ssg63
g373
sg56
(lp380
S''
asbasbasbag49
(g65
g51
NtRp381
(dp382
g54
(dp383
sg63
g251
sg56
(lp384
g49
(g70
g51
NtRp385
(dp386
g54
(dp387
g74
g75
ssg63
g381
sg56
(lp388
S'version'
p389
asbag49
(g70
g51
NtRp390
(dp391
g54
(dp392
g81
g82
ssg63
g381
sg56
(lp393
S':'
asbag49
(g70
g51
NtRp394
(dp395
g54
(dp396
sg63
g381
sg56
(lp397
g49
(g50
g51
NtRp398
(dp399
g54
(dp400
g62
I3
ssg63
g394
sg56
(lp401
S''
asbasbasbasbasbasbasbag49
(g65
g51
NtRp402
(dp403
g54
(dp404
sg63
g226
sg56
(lp405
g49
(g70
g51
NtRp406
(dp407
g54
(dp408
g74
g75
ssg63
g402
sg56
(lp409
S'session_id_onlinenotes_p1_'
p410
asbag49
(g70
g51
NtRp411
(dp412
g54
(dp413
g81
g82
ssg63
g402
sg56
(lp414
S':'
asbag49
(g70
g51
NtRp415
(dp416
g54
(dp417
sg63
g402
sg56
(lp418
g49
(g50
g51
NtRp419
(dp420
g54
(dp421
g62
I4
ssg63
g415
sg56
(lp422
g49
(g58
g51
NtRp423
(dp424
g54
(dp425
g62
I3
ssg63
Nsg56
(lp426
g49
(g65
g51
NtRp427
(dp428
g54
(dp429
sg63
g423
sg56
(lp430
g49
(g70
g51
NtRp431
(dp432
g54
(dp433
g74
g75
ssg63
g427
sg56
(lp434
g263
asbag49
(g70
g51
NtRp435
(dp436
g54
(dp437
g81
g82
ssg63
g427
sg56
(lp438
S':'
asbag49
(g70
g51
NtRp439
(dp440
g54
(dp441
sg63
g427
sg56
(lp442
g49
(g50
g51
NtRp443
(dp444
g54
(dp445
g62
I3
ssg63
g439
sg56
(lp446
S''
asbasbasbag49
(g65
g51
NtRp447
(dp448
g54
(dp449
sg63
g423
sg56
(lp450
g49
(g70
g51
NtRp451
(dp452
g54
(dp453
g74
g75
ssg63
g447
sg56
(lp454
g284
asbag49
(g70
g51
NtRp455
(dp456
g54
(dp457
g81
g82
ssg63
g447
sg56
(lp458
S':'
asbag49
(g70
g51
NtRp459
(dp460
g54
(dp461
sg63
g447
sg56
(lp462
g49
(g50
g51
NtRp463
(dp464
g54
(dp465
g62
I3
ssg63
g459
sg56
(lp466
S''
asbasbasbag49
(g65
g51
NtRp467
(dp468
g54
(dp469
sg63
g423
sg56
(lp470
g49
(g70
g51
NtRp471
(dp472
g54
(dp473
g74
g75
ssg63
g467
sg56
(lp474
g305
asbag49
(g70
g51
NtRp475
(dp476
g54
(dp477
g81
g82
ssg63
g467
sg56
(lp478
S':'
asbag49
(g70
g51
NtRp479
(dp480
g54
(dp481
sg63
g467
sg56
(lp482
g49
(g50
g51
NtRp483
(dp484
g54
(dp485
g62
I3
ssg63
g479
sg56
(lp486
S''
asbasbasbag49
(g65
g51
NtRp487
(dp488
g54
(dp489
sg63
g423
sg56
(lp490
g49
(g70
g51
NtRp491
(dp492
g54
(dp493
g74
g75
ssg63
g487
sg56
(lp494
g326
asbag49
(g70
g51
NtRp495
(dp496
g54
(dp497
g81
g82
ssg63
g487
sg56
(lp498
S':'
asbag49
(g70
g51
NtRp499
(dp500
g54
(dp501
sg63
g487
sg56
(lp502
g49
(g50
g51
NtRp503
(dp504
g54
(dp505
g62
I3
ssg63
g499
sg56
(lp506
S''
asbasbasbag49
(g65
g51
NtRp507
(dp508
g54
(dp509
sg63
g423
sg56
(lp510
g49
(g70
g51
NtRp511
(dp512
g54
(dp513
g74
g75
ssg63
g507
sg56
(lp514
g347
asbag49
(g70
g51
NtRp515
(dp516
g54
(dp517
g81
g82
ssg63
g507
sg56
(lp518
S':'
asbag49
(g70
g51
NtRp519
(dp520
g54
(dp521
sg63
g507
sg56
(lp522
g49
(g50
g51
NtRp523
(dp524
g54
(dp525
g62
I3
ssg63
g519
sg56
(lp526
S''
asbasbasbag49
(g65
g51
NtRp527
(dp528
g54
(dp529
sg63
g423
sg56
(lp530
g49
(g70
g51
NtRp531
(dp532
g54
(dp533
g74
g75
ssg63
g527
sg56
(lp534
g368
asbag49
(g70
g51
NtRp535
(dp536
g54
(dp537
g81
g82
ssg63
g527
sg56
(lp538
S':'
asbag49
(g70
g51
NtRp539
(dp540
g54
(dp541
sg63
g527
sg56
(lp542
g49
(g50
g51
NtRp543
(dp544
g54
(dp545
g62
I3
ssg63
g539
sg56
(lp546
S''
asbasbasbag49
(g65
g51
NtRp547
(dp548
g54
(dp549
sg63
g423
sg56
(lp550
g49
(g70
g51
NtRp551
(dp552
g54
(dp553
g74
g75
ssg63
g547
sg56
(lp554
g389
asbag49
(g70
g51
NtRp555
(dp556
g54
(dp557
g81
g82
ssg63
g547
sg56
(lp558
S':'
asbag49
(g70
g51
NtRp559
(dp560
g54
(dp561
sg63
g547
sg56
(lp562
g49
(g50
g51
NtRp563
(dp564
g54
(dp565
g62
I3
ssg63
g559
sg56
(lp566
S''
asbasbasbasbasbasbasbag49
(g65
g51
NtRp567
(dp568
g54
(dp569
sg63
g226
sg56
(lp570
g49
(g70
g51
NtRp571
(dp572
g54
(dp573
g74
g75
ssg63
g567
sg56
(lp574
S'session_id_slug_register_page'
p575
asbag49
(g70
g51
NtRp576
(dp577
g54
(dp578
g81
g82
ssg63
g567
sg56
(lp579
S':'
asbag49
(g70
g51
NtRp580
(dp581
g54
(dp582
sg63
g567
sg56
(lp583
g49
(g50
g51
NtRp584
(dp585
g54
(dp586
g62
I4
ssg63
g580
sg56
(lp587
g49
(g58
g51
NtRp588
(dp589
g54
(dp590
g62
I3
ssg63
Nsg56
(lp591
g49
(g65
g51
NtRp592
(dp593
g54
(dp594
sg63
g588
sg56
(lp595
g49
(g70
g51
NtRp596
(dp597
g54
(dp598
g74
g75
ssg63
g592
sg56
(lp599
g263
asbag49
(g70
g51
NtRp600
(dp601
g54
(dp602
g81
g82
ssg63
g592
sg56
(lp603
S':'
asbag49
(g70
g51
NtRp604
(dp605
g54
(dp606
sg63
g592
sg56
(lp607
g49
(g50
g51
NtRp608
(dp609
g54
(dp610
g62
I3
ssg63
g604
sg56
(lp611
S''
asbasbasbag49
(g65
g51
NtRp612
(dp613
g54
(dp614
sg63
g588
sg56
(lp615
g49
(g70
g51
NtRp616
(dp617
g54
(dp618
g74
g75
ssg63
g612
sg56
(lp619
g284
asbag49
(g70
g51
NtRp620
(dp621
g54
(dp622
g81
g82
ssg63
g612
sg56
(lp623
S':'
asbag49
(g70
g51
NtRp624
(dp625
g54
(dp626
sg63
g612
sg56
(lp627
g49
(g50
g51
NtRp628
(dp629
g54
(dp630
g62
I3
ssg63
g624
sg56
(lp631
S''
asbasbasbag49
(g65
g51
NtRp632
(dp633
g54
(dp634
sg63
g588
sg56
(lp635
g49
(g70
g51
NtRp636
(dp637
g54
(dp638
g74
g75
ssg63
g632
sg56
(lp639
g305
asbag49
(g70
g51
NtRp640
(dp641
g54
(dp642
g81
g82
ssg63
g632
sg56
(lp643
S':'
asbag49
(g70
g51
NtRp644
(dp645
g54
(dp646
sg63
g632
sg56
(lp647
g49
(g50
g51
NtRp648
(dp649
g54
(dp650
g62
I3
ssg63
g644
sg56
(lp651
S''
asbasbasbag49
(g65
g51
NtRp652
(dp653
g54
(dp654
sg63
g588
sg56
(lp655
g49
(g70
g51
NtRp656
(dp657
g54
(dp658
g74
g75
ssg63
g652
sg56
(lp659
g326
asbag49
(g70
g51
NtRp660
(dp661
g54
(dp662
g81
g82
ssg63
g652
sg56
(lp663
S':'
asbag49
(g70
g51
NtRp664
(dp665
g54
(dp666
sg63
g652
sg56
(lp667
g49
(g50
g51
NtRp668
(dp669
g54
(dp670
g62
I3
ssg63
g664
sg56
(lp671
S''
asbasbasbag49
(g65
g51
NtRp672
(dp673
g54
(dp674
sg63
g588
sg56
(lp675
g49
(g70
g51
NtRp676
(dp677
g54
(dp678
g74
g75
ssg63
g672
sg56
(lp679
g347
asbag49
(g70
g51
NtRp680
(dp681
g54
(dp682
g81
g82
ssg63
g672
sg56
(lp683
S':'
asbag49
(g70
g51
NtRp684
(dp685
g54
(dp686
sg63
g672
sg56
(lp687
g49
(g50
g51
NtRp688
(dp689
g54
(dp690
g62
I3
ssg63
g684
sg56
(lp691
S''
asbasbasbag49
(g65
g51
NtRp692
(dp693
g54
(dp694
sg63
g588
sg56
(lp695
g49
(g70
g51
NtRp696
(dp697
g54
(dp698
g74
g75
ssg63
g692
sg56
(lp699
g368
asbag49
(g70
g51
NtRp700
(dp701
g54
(dp702
g81
g82
ssg63
g692
sg56
(lp703
S':'
asbag49
(g70
g51
NtRp704
(dp705
g54
(dp706
sg63
g692
sg56
(lp707
g49
(g50
g51
NtRp708
(dp709
g54
(dp710
g62
I3
ssg63
g704
sg56
(lp711
S''
asbasbasbag49
(g65
g51
NtRp712
(dp713
g54
(dp714
sg63
g588
sg56
(lp715
g49
(g70
g51
NtRp716
(dp717
g54
(dp718
g74
g75
ssg63
g712
sg56
(lp719
g389
asbag49
(g70
g51
NtRp720
(dp721
g54
(dp722
g81
g82
ssg63
g712
sg56
(lp723
S':'
asbag49
(g70
g51
NtRp724
(dp725
g54
(dp726
sg63
g712
sg56
(lp727
g49
(g50
g51
NtRp728
(dp729
g54
(dp730
g62
I3
ssg63
g724
sg56
(lp731
S''
asbasbasbasbasbasbasbag49
(g65
g51
NtRp732
(dp733
g54
(dp734
sg63
g226
sg56
(lp735
g49
(g70
g51
NtRp736
(dp737
g54
(dp738
g74
g75
ssg63
g732
sg56
(lp739
S'session_id_slugbarter'
p740
asbag49
(g70
g51
NtRp741
(dp742
g54
(dp743
g81
g82
ssg63
g732
sg56
(lp744
S':'
asbag49
(g70
g51
NtRp745
(dp746
g54
(dp747
sg63
g732
sg56
(lp748
g49
(g50
g51
NtRp749
(dp750
g54
(dp751
g62
I4
ssg63
g745
sg56
(lp752
g49
(g58
g51
NtRp753
(dp754
g54
(dp755
g62
I3
ssg63
Nsg56
(lp756
g49
(g65
g51
NtRp757
(dp758
g54
(dp759
sg63
g753
sg56
(lp760
g49
(g70
g51
NtRp761
(dp762
g54
(dp763
g74
g75
ssg63
g757
sg56
(lp764
g263
asbag49
(g70
g51
NtRp765
(dp766
g54
(dp767
g81
g82
ssg63
g757
sg56
(lp768
S':'
asbag49
(g70
g51
NtRp769
(dp770
g54
(dp771
sg63
g757
sg56
(lp772
g49
(g50
g51
NtRp773
(dp774
g54
(dp775
g62
I3
ssg63
g769
sg56
(lp776
S''
asbasbasbag49
(g65
g51
NtRp777
(dp778
g54
(dp779
sg63
g753
sg56
(lp780
g49
(g70
g51
NtRp781
(dp782
g54
(dp783
g74
g75
ssg63
g777
sg56
(lp784
g284
asbag49
(g70
g51
NtRp785
(dp786
g54
(dp787
g81
g82
ssg63
g777
sg56
(lp788
S':'
asbag49
(g70
g51
NtRp789
(dp790
g54
(dp791
sg63
g777
sg56
(lp792
g49
(g50
g51
NtRp793
(dp794
g54
(dp795
g62
I3
ssg63
g789
sg56
(lp796
S''
asbasbasbag49
(g65
g51
NtRp797
(dp798
g54
(dp799
sg63
g753
sg56
(lp800
g49
(g70
g51
NtRp801
(dp802
g54
(dp803
g74
g75
ssg63
g797
sg56
(lp804
g305
asbag49
(g70
g51
NtRp805
(dp806
g54
(dp807
g81
g82
ssg63
g797
sg56
(lp808
S':'
asbag49
(g70
g51
NtRp809
(dp810
g54
(dp811
sg63
g797
sg56
(lp812
g49
(g50
g51
NtRp813
(dp814
g54
(dp815
g62
I3
ssg63
g809
sg56
(lp816
S''
asbasbasbag49
(g65
g51
NtRp817
(dp818
g54
(dp819
sg63
g753
sg56
(lp820
g49
(g70
g51
NtRp821
(dp822
g54
(dp823
g74
g75
ssg63
g817
sg56
(lp824
g326
asbag49
(g70
g51
NtRp825
(dp826
g54
(dp827
g81
g82
ssg63
g817
sg56
(lp828
S':'
asbag49
(g70
g51
NtRp829
(dp830
g54
(dp831
sg63
g817
sg56
(lp832
g49
(g50
g51
NtRp833
(dp834
g54
(dp835
g62
I3
ssg63
g829
sg56
(lp836
S''
asbasbasbag49
(g65
g51
NtRp837
(dp838
g54
(dp839
sg63
g753
sg56
(lp840
g49
(g70
g51
NtRp841
(dp842
g54
(dp843
g74
g75
ssg63
g837
sg56
(lp844
g347
asbag49
(g70
g51
NtRp845
(dp846
g54
(dp847
g81
g82
ssg63
g837
sg56
(lp848
S':'
asbag49
(g70
g51
NtRp849
(dp850
g54
(dp851
sg63
g837
sg56
(lp852
g49
(g50
g51
NtRp853
(dp854
g54
(dp855
g62
I3
ssg63
g849
sg56
(lp856
S''
asbasbasbag49
(g65
g51
NtRp857
(dp858
g54
(dp859
sg63
g753
sg56
(lp860
g49
(g70
g51
NtRp861
(dp862
g54
(dp863
g74
g75
ssg63
g857
sg56
(lp864
g368
asbag49
(g70
g51
NtRp865
(dp866
g54
(dp867
g81
g82
ssg63
g857
sg56
(lp868
S':'
asbag49
(g70
g51
NtRp869
(dp870
g54
(dp871
sg63
g857
sg56
(lp872
g49
(g50
g51
NtRp873
(dp874
g54
(dp875
g62
I3
ssg63
g869
sg56
(lp876
S''
asbasbasbag49
(g65
g51
NtRp877
(dp878
g54
(dp879
sg63
g753
sg56
(lp880
g49
(g70
g51
NtRp881
(dp882
g54
(dp883
g74
g75
ssg63
g877
sg56
(lp884
g389
asbag49
(g70
g51
NtRp885
(dp886
g54
(dp887
g81
g82
ssg63
g877
sg56
(lp888
S':'
asbag49
(g70
g51
NtRp889
(dp890
g54
(dp891
sg63
g877
sg56
(lp892
g49
(g50
g51
NtRp893
(dp894
g54
(dp895
g62
I3
ssg63
g889
sg56
(lp896
S''
asbasbasbasbasbasbasbag49
(g65
g51
NtRp897
(dp898
g54
(dp899
sg63
g226
sg56
(lp900
g49
(g70
g51
NtRp901
(dp902
g54
(dp903
g74
g75
ssg63
g897
sg56
(lp904
S'session_id_testapp'
p905
asbag49
(g70
g51
NtRp906
(dp907
g54
(dp908
g81
g82
ssg63
g897
sg56
(lp909
S':'
asbag49
(g70
g51
NtRp910
(dp911
g54
(dp912
sg63
g897
sg56
(lp913
g49
(g50
g51
NtRp914
(dp915
g54
(dp916
g62
I4
ssg63
g910
sg56
(lp917
g49
(g58
g51
NtRp918
(dp919
g54
(dp920
g62
I3
ssg63
Nsg56
(lp921
g49
(g65
g51
NtRp922
(dp923
g54
(dp924
sg63
g918
sg56
(lp925
g49
(g70
g51
NtRp926
(dp927
g54
(dp928
g74
g75
ssg63
g922
sg56
(lp929
g263
asbag49
(g70
g51
NtRp930
(dp931
g54
(dp932
g81
g82
ssg63
g922
sg56
(lp933
S':'
asbag49
(g70
g51
NtRp934
(dp935
g54
(dp936
sg63
g922
sg56
(lp937
g49
(g50
g51
NtRp938
(dp939
g54
(dp940
g62
I3
ssg63
g934
sg56
(lp941
S''
asbasbasbag49
(g65
g51
NtRp942
(dp943
g54
(dp944
sg63
g918
sg56
(lp945
g49
(g70
g51
NtRp946
(dp947
g54
(dp948
g74
g75
ssg63
g942
sg56
(lp949
g284
asbag49
(g70
g51
NtRp950
(dp951
g54
(dp952
g81
g82
ssg63
g942
sg56
(lp953
S':'
asbag49
(g70
g51
NtRp954
(dp955
g54
(dp956
sg63
g942
sg56
(lp957
g49
(g50
g51
NtRp958
(dp959
g54
(dp960
g62
I3
ssg63
g954
sg56
(lp961
S''
asbasbasbag49
(g65
g51
NtRp962
(dp963
g54
(dp964
sg63
g918
sg56
(lp965
g49
(g70
g51
NtRp966
(dp967
g54
(dp968
g74
g75
ssg63
g962
sg56
(lp969
g305
asbag49
(g70
g51
NtRp970
(dp971
g54
(dp972
g81
g82
ssg63
g962
sg56
(lp973
S':'
asbag49
(g70
g51
NtRp974
(dp975
g54
(dp976
sg63
g962
sg56
(lp977
g49
(g50
g51
NtRp978
(dp979
g54
(dp980
g62
I3
ssg63
g974
sg56
(lp981
S''
asbasbasbag49
(g65
g51
NtRp982
(dp983
g54
(dp984
sg63
g918
sg56
(lp985
g49
(g70
g51
NtRp986
(dp987
g54
(dp988
g74
g75
ssg63
g982
sg56
(lp989
g326
asbag49
(g70
g51
NtRp990
(dp991
g54
(dp992
g81
g82
ssg63
g982
sg56
(lp993
S':'
asbag49
(g70
g51
NtRp994
(dp995
g54
(dp996
sg63
g982
sg56
(lp997
g49
(g50
g51
NtRp998
(dp999
g54
(dp1000
g62
I3
ssg63
g994
sg56
(lp1001
S''
asbasbasbag49
(g65
g51
NtRp1002
(dp1003
g54
(dp1004
sg63
g918
sg56
(lp1005
g49
(g70
g51
NtRp1006
(dp1007
g54
(dp1008
g74
g75
ssg63
g1002
sg56
(lp1009
g347
asbag49
(g70
g51
NtRp1010
(dp1011
g54
(dp1012
g81
g82
ssg63
g1002
sg56
(lp1013
S':'
asbag49
(g70
g51
NtRp1014
(dp1015
g54
(dp1016
sg63
g1002
sg56
(lp1017
g49
(g50
g51
NtRp1018
(dp1019
g54
(dp1020
g62
I3
ssg63
g1014
sg56
(lp1021
S''
asbasbasbag49
(g65
g51
NtRp1022
(dp1023
g54
(dp1024
sg63
g918
sg56
(lp1025
g49
(g70
g51
NtRp1026
(dp1027
g54
(dp1028
g74
g75
ssg63
g1022
sg56
(lp1029
g368
asbag49
(g70
g51
NtRp1030
(dp1031
g54
(dp1032
g81
g82
ssg63
g1022
sg56
(lp1033
S':'
asbag49
(g70
g51
NtRp1034
(dp1035
g54
(dp1036
sg63
g1022
sg56
(lp1037
g49
(g50
g51
NtRp1038
(dp1039
g54
(dp1040
g62
I3
ssg63
g1034
sg56
(lp1041
S''
asbasbasbag49
(g65
g51
NtRp1042
(dp1043
g54
(dp1044
sg63
g918
sg56
(lp1045
g49
(g70
g51
NtRp1046
(dp1047
g54
(dp1048
g74
g75
ssg63
g1042
sg56
(lp1049
g389
asbag49
(g70
g51
NtRp1050
(dp1051
g54
(dp1052
g81
g82
ssg63
g1042
sg56
(lp1053
S':'
asbag49
(g70
g51
NtRp1054
(dp1055
g54
(dp1056
sg63
g1042
sg56
(lp1057
g49
(g50
g51
NtRp1058
(dp1059
g54
(dp1060
g62
I3
ssg63
g1054
sg56
(lp1061
S''
asbasbasbasbasbasbasbag49
(g65
g51
NtRp1062
(dp1063
g54
(dp1064
sg63
g226
sg56
(lp1065
g49
(g70
g51
NtRp1066
(dp1067
g54
(dp1068
g74
g75
ssg63
g1062
sg56
(lp1069
S'session_id_welcome'
p1070
asbag49
(g70
g51
NtRp1071
(dp1072
g54
(dp1073
g81
g82
ssg63
g1062
sg56
(lp1074
S':'
asbag49
(g70
g51
NtRp1075
(dp1076
g54
(dp1077
sg63
g1062
sg56
(lp1078
g49
(g50
g51
NtRp1079
(dp1080
g54
(dp1081
g62
I4
ssg63
g1075
sg56
(lp1082
g49
(g58
g51
NtRp1083
(dp1084
g54
(dp1085
g62
I3
ssg63
Nsg56
(lp1086
g49
(g65
g51
NtRp1087
(dp1088
g54
(dp1089
sg63
g1083
sg56
(lp1090
g49
(g70
g51
NtRp1091
(dp1092
g54
(dp1093
g74
g75
ssg63
g1087
sg56
(lp1094
g263
asbag49
(g70
g51
NtRp1095
(dp1096
g54
(dp1097
g81
g82
ssg63
g1087
sg56
(lp1098
S':'
asbag49
(g70
g51
NtRp1099
(dp1100
g54
(dp1101
sg63
g1087
sg56
(lp1102
g49
(g50
g51
NtRp1103
(dp1104
g54
(dp1105
g62
I3
ssg63
g1099
sg56
(lp1106
S''
asbasbasbag49
(g65
g51
NtRp1107
(dp1108
g54
(dp1109
sg63
g1083
sg56
(lp1110
g49
(g70
g51
NtRp1111
(dp1112
g54
(dp1113
g74
g75
ssg63
g1107
sg56
(lp1114
g284
asbag49
(g70
g51
NtRp1115
(dp1116
g54
(dp1117
g81
g82
ssg63
g1107
sg56
(lp1118
S':'
asbag49
(g70
g51
NtRp1119
(dp1120
g54
(dp1121
sg63
g1107
sg56
(lp1122
g49
(g50
g51
NtRp1123
(dp1124
g54
(dp1125
g62
I3
ssg63
g1119
sg56
(lp1126
S''
asbasbasbag49
(g65
g51
NtRp1127
(dp1128
g54
(dp1129
sg63
g1083
sg56
(lp1130
g49
(g70
g51
NtRp1131
(dp1132
g54
(dp1133
g74
g75
ssg63
g1127
sg56
(lp1134
g305
asbag49
(g70
g51
NtRp1135
(dp1136
g54
(dp1137
g81
g82
ssg63
g1127
sg56
(lp1138
S':'
asbag49
(g70
g51
NtRp1139
(dp1140
g54
(dp1141
sg63
g1127
sg56
(lp1142
g49
(g50
g51
NtRp1143
(dp1144
g54
(dp1145
g62
I3
ssg63
g1139
sg56
(lp1146
S''
asbasbasbag49
(g65
g51
NtRp1147
(dp1148
g54
(dp1149
sg63
g1083
sg56
(lp1150
g49
(g70
g51
NtRp1151
(dp1152
g54
(dp1153
g74
g75
ssg63
g1147
sg56
(lp1154
g326
asbag49
(g70
g51
NtRp1155
(dp1156
g54
(dp1157
g81
g82
ssg63
g1147
sg56
(lp1158
S':'
asbag49
(g70
g51
NtRp1159
(dp1160
g54
(dp1161
sg63
g1147
sg56
(lp1162
g49
(g50
g51
NtRp1163
(dp1164
g54
(dp1165
g62
I3
ssg63
g1159
sg56
(lp1166
S''
asbasbasbag49
(g65
g51
NtRp1167
(dp1168
g54
(dp1169
sg63
g1083
sg56
(lp1170
g49
(g70
g51
NtRp1171
(dp1172
g54
(dp1173
g74
g75
ssg63
g1167
sg56
(lp1174
g347
asbag49
(g70
g51
NtRp1175
(dp1176
g54
(dp1177
g81
g82
ssg63
g1167
sg56
(lp1178
S':'
asbag49
(g70
g51
NtRp1179
(dp1180
g54
(dp1181
sg63
g1167
sg56
(lp1182
g49
(g50
g51
NtRp1183
(dp1184
g54
(dp1185
g62
I3
ssg63
g1179
sg56
(lp1186
S''
asbasbasbag49
(g65
g51
NtRp1187
(dp1188
g54
(dp1189
sg63
g1083
sg56
(lp1190
g49
(g70
g51
NtRp1191
(dp1192
g54
(dp1193
g74
g75
ssg63
g1187
sg56
(lp1194
g368
asbag49
(g70
g51
NtRp1195
(dp1196
g54
(dp1197
g81
g82
ssg63
g1187
sg56
(lp1198
S':'
asbag49
(g70
g51
NtRp1199
(dp1200
g54
(dp1201
sg63
g1187
sg56
(lp1202
g49
(g50
g51
NtRp1203
(dp1204
g54
(dp1205
g62
I3
ssg63
g1199
sg56
(lp1206
S''
asbasbasbag49
(g65
g51
NtRp1207
(dp1208
g54
(dp1209
sg63
g1083
sg56
(lp1210
g49
(g70
g51
NtRp1211
(dp1212
g54
(dp1213
g74
g75
ssg63
g1207
sg56
(lp1214
g389
asbag49
(g70
g51
NtRp1215
(dp1216
g54
(dp1217
g81
g82
ssg63
g1207
sg56
(lp1218
S':'
asbag49
(g70
g51
NtRp1219
(dp1220
g54
(dp1221
sg63
g1207
sg56
(lp1222
g49
(g50
g51
NtRp1223
(dp1224
g54
(dp1225
g62
I3
ssg63
g1219
sg56
(lp1226
S''
asbasbasbasbasbasbasbasbasbasbasbag49
(g65
g51
NtRp1227
(dp1228
g54
(dp1229
sg63
g59
sg56
(lp1230
g49
(g70
g51
NtRp1231
(dp1232
g54
(dp1233
g74
g75
ssg63
g1227
sg56
(lp1234
S'env'
p1235
asbag49
(g70
g51
NtRp1236
(dp1237
g54
(dp1238
g81
g82
ssg63
g1227
sg56
(lp1239
S':'
asbag49
(g70
g51
NtRp1240
(dp1241
g54
(dp1242
sg63
g1227
sg56
(lp1243
g49
(g50
g51
NtRp1244
(dp1245
g54
(dp1246
g62
I5
ssg63
g1240
sg56
(lp1247
g49
(g58
g51
NtRp1248
(dp1249
g54
(dp1250
g62
I4
ssg63
Nsg56
(lp1251
g49
(g65
g51
NtRp1252
(dp1253
g54
(dp1254
sg63
g1248
sg56
(lp1255
g49
(g70
g51
NtRp1256
(dp1257
g54
(dp1258
g74
g75
ssg63
g1252
sg56
(lp1259
S'app_folders'
p1260
asbag49
(g70
g51
NtRp1261
(dp1262
g54
(dp1263
g81
g82
ssg63
g1252
sg56
(lp1264
S':'
asbag49
(g70
g51
NtRp1265
(dp1266
g54
(dp1267
sg63
g1252
sg56
(lp1268
g49
(g50
g51
NtRp1269
(dp1270
g54
(dp1271
g62
I4
ssg63
g1265
sg56
(lp1272
S"set(['C:\\\\Users\\\\omkara\\\\Desktop\\\\web2py\\\\applications\\\\newA\\\\', 'C:\\\\Users\\\\omkara\\\\Desktop\\\\web2py\\\\applications\\\\slug_register_page\\\\', 'C:\\\\Users\\\\omkara\\\\Desktop\\\\web2py\\\\applications\\\\admin\\\\', 'C:\\\\Users\\\\omkara\\\\Desktop\\\\web2py\\\\applications\\\\welcome\\\\', 'C:\\\\Users\\\\omkara\\\\Desktop\\\\web2py\\\\applications\\\\slug_register\\\\', 'C:\\\\Users\\\\omkara\\\\Desktop\\\\web2py\\\\applications\\\\SlugBarter\\\\', 'C:\\\\Users\\\\omkara\\\\Desktop\\\\web2py\\\\applications\\\\testApp\\\\'])"
p1273
asbasbasbag49
(g65
g51
NtRp1274
(dp1275
g54
(dp1276
sg63
g1248
sg56
(lp1277
g49
(g70
g51
NtRp1278
(dp1279
g54
(dp1280
g74
g75
ssg63
g1274
sg56
(lp1281
S'applications_parent'
p1282
asbag49
(g70
g51
NtRp1283
(dp1284
g54
(dp1285
g81
g82
ssg63
g1274
sg56
(lp1286
S':'
asbag49
(g70
g51
NtRp1287
(dp1288
g54
(dp1289
sg63
g1274
sg56
(lp1290
g49
(g50
g51
NtRp1291
(dp1292
g54
(dp1293
g62
I4
ssg63
g1287
sg56
(lp1294
S'C:\\Users\\omkara\\Desktop\\web2py'
p1295
asbasbasbag49
(g65
g51
NtRp1296
(dp1297
g54
(dp1298
sg63
g1248
sg56
(lp1299
g49
(g70
g51
NtRp1300
(dp1301
g54
(dp1302
g74
g75
ssg63
g1296
sg56
(lp1303
S'cmd_args'
p1304
asbag49
(g70
g51
NtRp1305
(dp1306
g54
(dp1307
g81
g82
ssg63
g1296
sg56
(lp1308
S':'
asbag49
(g70
g51
NtRp1309
(dp1310
g54
(dp1311
sg63
g1296
sg56
(lp1312
g49
(g50
g51
NtRp1313
(dp1314
g54
(dp1315
g62
I4
ssg63
g1309
sg56
(lp1316
g49
(g58
g51
NtRp1317
(dp1318
g54
(dp1319
g62
I3
ssg63
Nsg56
(lp1320
sbasbasbasbag49
(g65
g51
NtRp1321
(dp1322
g54
(dp1323
sg63
g1248
sg56
(lp1324
g49
(g70
g51
NtRp1325
(dp1326
g54
(dp1327
g74
g75
ssg63
g1321
sg56
(lp1328
S'cmd_options'
p1329
asbag49
(g70
g51
NtRp1330
(dp1331
g54
(dp1332
g81
g82
ssg63
g1321
sg56
(lp1333
S':'
asbag49
(g70
g51
NtRp1334
(dp1335
g54
(dp1336
sg63
g1321
sg56
(lp1337
g49
(g50
g51
NtRp1338
(dp1339
g54
(dp1340
g62
I4
ssg63
g1334
sg56
(lp1341
S"<Values at 0x27b1f80: {'verbose': False, 'ip': '127.0.0.1', 'shutdown_timeout': 5, 'taskbar': False, 'nocron': False, 'pid_filename': 'httpserver.pid', 'maxthreads': None, 'softcron': False, 'server_name': 'omkara-PC', 'bpython': False, 'nogui': False, 'port': 8000, 'extcron': False, 'debuglevel': 30, 'test': None, 'folder': 'C:\\\\Users\\\\omkara\\\\Desktop\\\\web2py', 'config': '', 'import_models': False, 'winservice': '', 'shell': None, 'run': '', 'log_filename': 'httpserver.log', 'args': [''], 'socket_timeout': 5, 'ssl_ca_certificate': None, 'scheduler': None, 'profiler_filename': None, 'ssl_private_key': '', 'password': '<ask>', 'request_queue_size': 5, 'ssl_certificate': '', 'cronjob': False, 'numthreads': None, 'quiet': False, 'interfaces': None, 'minthreads': None, 'timeout': 10, 'plain': False, 'nobanner': False}>"
p1342
asbasbasbag49
(g65
g51
NtRp1343
(dp1344
g54
(dp1345
sg63
g1248
sg56
(lp1346
g49
(g70
g51
NtRp1347
(dp1348
g54
(dp1349
g74
g75
ssg63
g1343
sg56
(lp1350
S'db_sessions'
p1351
asbag49
(g70
g51
NtRp1352
(dp1353
g54
(dp1354
g81
g82
ssg63
g1343
sg56
(lp1355
S':'
asbag49
(g70
g51
NtRp1356
(dp1357
g54
(dp1358
sg63
g1343
sg56
(lp1359
g49
(g50
g51
NtRp1360
(dp1361
g54
(dp1362
g62
I4
ssg63
g1356
sg56
(lp1363
S'set([])'
p1364
asbasbasbag49
(g65
g51
NtRp1365
(dp1366
g54
(dp1367
sg63
g1248
sg56
(lp1368
g49
(g70
g51
NtRp1369
(dp1370
g54
(dp1371
g74
g75
ssg63
g1365
sg56
(lp1372
S'debugging'
p1373
asbag49
(g70
g51
NtRp1374
(dp1375
g54
(dp1376
g81
g82
ssg63
g1365
sg56
(lp1377
S':'
asbag49
(g70
g51
NtRp1378
(dp1379
g54
(dp1380
sg63
g1365
sg56
(lp1381
g49
(g50
g51
NtRp1382
(dp1383
g54
(dp1384
g62
I4
ssg63
g1378
sg56
(lp1385
g92
asbasbasbag49
(g65
g51
NtRp1386
(dp1387
g54
(dp1388
sg63
g1248
sg56
(lp1389
g49
(g70
g51
NtRp1390
(dp1391
g54
(dp1392
g74
g75
ssg63
g1386
sg56
(lp1393
S'gluon_parent'
p1394
asbag49
(g70
g51
NtRp1395
(dp1396
g54
(dp1397
g81
g82
ssg63
g1386
sg56
(lp1398
S':'
asbag49
(g70
g51
NtRp1399
(dp1400
g54
(dp1401
sg63
g1386
sg56
(lp1402
g49
(g50
g51
NtRp1403
(dp1404
g54
(dp1405
g62
I4
ssg63
g1399
sg56
(lp1406
S'C:\\Users\\omkara\\Desktop\\web2py'
p1407
asbasbasbag49
(g65
g51
NtRp1408
(dp1409
g54
(dp1410
sg63
g1248
sg56
(lp1411
g49
(g70
g51
NtRp1412
(dp1413
g54
(dp1414
g74
g75
ssg63
g1408
sg56
(lp1415
S'http_accept'
p1416
asbag49
(g70
g51
NtRp1417
(dp1418
g54
(dp1419
g81
g82
ssg63
g1408
sg56
(lp1420
S':'
asbag49
(g70
g51
NtRp1421
(dp1422
g54
(dp1423
sg63
g1408
sg56
(lp1424
g49
(g50
g51
NtRp1425
(dp1426
g54
(dp1427
g62
I4
ssg63
g1421
sg56
(lp1428
S'text/html,application/xhtml+xml,application/xml;q=0.9,*/*;q=0.8'
p1429
asbasbasbag49
(g65
g51
NtRp1430
(dp1431
g54
(dp1432
sg63
g1248
sg56
(lp1433
g49
(g70
g51
NtRp1434
(dp1435
g54
(dp1436
g74
g75
ssg63
g1430
sg56
(lp1437
S'http_accept_charset'
p1438
asbag49
(g70
g51
NtRp1439
(dp1440
g54
(dp1441
g81
g82
ssg63
g1430
sg56
(lp1442
S':'
asbag49
(g70
g51
NtRp1443
(dp1444
g54
(dp1445
sg63
g1430
sg56
(lp1446
g49
(g50
g51
NtRp1447
(dp1448
g54
(dp1449
g62
I4
ssg63
g1443
sg56
(lp1450
S'ISO-8859-1,utf-8;q=0.7,*;q=0.3'
p1451
asbasbasbag49
(g65
g51
NtRp1452
(dp1453
g54
(dp1454
sg63
g1248
sg56
(lp1455
g49
(g70
g51
NtRp1456
(dp1457
g54
(dp1458
g74
g75
ssg63
g1452
sg56
(lp1459
S'http_accept_encoding'
p1460
asbag49
(g70
g51
NtRp1461
(dp1462
g54
(dp1463
g81
g82
ssg63
g1452
sg56
(lp1464
S':'
asbag49
(g70
g51
NtRp1465
(dp1466
g54
(dp1467
sg63
g1452
sg56
(lp1468
g49
(g50
g51
NtRp1469
(dp1470
g54
(dp1471
g62
I4
ssg63
g1465
sg56
(lp1472
S'gzip,deflate,sdch'
p1473
asbasbasbag49
(g65
g51
NtRp1474
(dp1475
g54
(dp1476
sg63
g1248
sg56
(lp1477
g49
(g70
g51
NtRp1478
(dp1479
g54
(dp1480
g74
g75
ssg63
g1474
sg56
(lp1481
S'http_accept_language'
p1482
asbag49
(g70
g51
NtRp1483
(dp1484
g54
(dp1485
g81
g82
ssg63
g1474
sg56
(lp1486
S':'
asbag49
(g70
g51
NtRp1487
(dp1488
g54
(dp1489
sg63
g1474
sg56
(lp1490
g49
(g50
g51
NtRp1491
(dp1492
g54
(dp1493
g62
I4
ssg63
g1487
sg56
(lp1494
S'en-US,en;q=0.8'
p1495
asbasbasbag49
(g65
g51
NtRp1496
(dp1497
g54
(dp1498
sg63
g1248
sg56
(lp1499
g49
(g70
g51
NtRp1500
(dp1501
g54
(dp1502
g74
g75
ssg63
g1496
sg56
(lp1503
S'http_cache_control'
p1504
asbag49
(g70
g51
NtRp1505
(dp1506
g54
(dp1507
g81
g82
ssg63
g1496
sg56
(lp1508
S':'
asbag49
(g70
g51
NtRp1509
(dp1510
g54
(dp1511
sg63
g1496
sg56
(lp1512
g49
(g50
g51
NtRp1513
(dp1514
g54
(dp1515
g62
I4
ssg63
g1509
sg56
(lp1516
S'max-age=0'
p1517
asbasbasbag49
(g65
g51
NtRp1518
(dp1519
g54
(dp1520
sg63
g1248
sg56
(lp1521
g49
(g70
g51
NtRp1522
(dp1523
g54
(dp1524
g74
g75
ssg63
g1518
sg56
(lp1525
S'http_connection'
p1526
asbag49
(g70
g51
NtRp1527
(dp1528
g54
(dp1529
g81
g82
ssg63
g1518
sg56
(lp1530
S':'
asbag49
(g70
g51
NtRp1531
(dp1532
g54
(dp1533
sg63
g1518
sg56
(lp1534
g49
(g50
g51
NtRp1535
(dp1536
g54
(dp1537
g62
I4
ssg63
g1531
sg56
(lp1538
S'keep-alive'
p1539
asbasbasbag49
(g65
g51
NtRp1540
(dp1541
g54
(dp1542
sg63
g1248
sg56
(lp1543
g49
(g70
g51
NtRp1544
(dp1545
g54
(dp1546
g74
g75
ssg63
g1540
sg56
(lp1547
S'http_cookie'
p1548
asbag49
(g70
g51
NtRp1549
(dp1550
g54
(dp1551
g81
g82
ssg63
g1540
sg56
(lp1552
S':'
asbag49
(g70
g51
NtRp1553
(dp1554
g54
(dp1555
sg63
g1540
sg56
(lp1556
g49
(g50
g51
NtRp1557
(dp1558
g54
(dp1559
g62
I4
ssg63
g1553
sg56
(lp1560
S'session_id_onlinenotes_p1_=127.0.0.1-2b1a349f-aa95-4718-93d5-e7df1c85d951; session_id_slug_register_page=127.0.0.1-c2775933-22a4-419d-80e2-4c993aff45c7; session_id_welcome=127.0.0.1-a1b3016b-66b8-408b-ae8e-37231f35f16e; session_id_testapp=127.0.0.1-07eafbbd-d252-4b2b-84dc-0b0d16c3c06d; session_id_slugbarter=127.0.0.1-e6ebae72-1bbc-48a5-9458-95dbb65a4e54; session_id_admin=127.0.0.1-dcf0163e-0560-4f31-a592-e577714771db'
p1561
asbasbasbag49
(g65
g51
NtRp1562
(dp1563
g54
(dp1564
sg63
g1248
sg56
(lp1565
g49
(g70
g51
NtRp1566
(dp1567
g54
(dp1568
g74
g75
ssg63
g1562
sg56
(lp1569
S'http_host'
p1570
asbag49
(g70
g51
NtRp1571
(dp1572
g54
(dp1573
g81
g82
ssg63
g1562
sg56
(lp1574
S':'
asbag49
(g70
g51
NtRp1575
(dp1576
g54
(dp1577
sg63
g1562
sg56
(lp1578
g49
(g50
g51
NtRp1579
(dp1580
g54
(dp1581
g62
I4
ssg63
g1575
sg56
(lp1582
S'127.0.0.1:8000'
p1583
asbasbasbag49
(g65
g51
NtRp1584
(dp1585
g54
(dp1586
sg63
g1248
sg56
(lp1587
g49
(g70
g51
NtRp1588
(dp1589
g54
(dp1590
g74
g75
ssg63
g1584
sg56
(lp1591
S'http_referer'
p1592
asbag49
(g70
g51
NtRp1593
(dp1594
g54
(dp1595
g81
g82
ssg63
g1584
sg56
(lp1596
S':'
asbag49
(g70
g51
NtRp1597
(dp1598
g54
(dp1599
sg63
g1584
sg56
(lp1600
g49
(g50
g51
NtRp1601
(dp1602
g54
(dp1603
g62
I4
ssg63
g1597
sg56
(lp1604
S'http://127.0.0.1:8000/SlugBarter/default/login'
p1605
asbasbasbag49
(g65
g51
NtRp1606
(dp1607
g54
(dp1608
sg63
g1248
sg56
(lp1609
g49
(g70
g51
NtRp1610
(dp1611
g54
(dp1612
g74
g75
ssg63
g1606
sg56
(lp1613
S'http_user_agent'
p1614
asbag49
(g70
g51
NtRp1615
(dp1616
g54
(dp1617
g81
g82
ssg63
g1606
sg56
(lp1618
S':'
asbag49
(g70
g51
NtRp1619
(dp1620
g54
(dp1621
sg63
g1606
sg56
(lp1622
g49
(g50
g51
NtRp1623
(dp1624
g54
(dp1625
g62
I4
ssg63
g1619
sg56
(lp1626
S'Mozilla/5.0 (Windows NT 6.1) AppleWebKit/537.11 (KHTML, like Gecko) Chrome/23.0.1271.64 Safari/537.11'
p1627
asbasbasbag49
(g65
g51
NtRp1628
(dp1629
g54
(dp1630
sg63
g1248
sg56
(lp1631
g49
(g70
g51
NtRp1632
(dp1633
g54
(dp1634
g74
g75
ssg63
g1628
sg56
(lp1635
S'is_jython'
p1636
asbag49
(g70
g51
NtRp1637
(dp1638
g54
(dp1639
g81
g82
ssg63
g1628
sg56
(lp1640
S':'
asbag49
(g70
g51
NtRp1641
(dp1642
g54
(dp1643
sg63
g1628
sg56
(lp1644
g49
(g50
g51
NtRp1645
(dp1646
g54
(dp1647
g62
I4
ssg63
g1641
sg56
(lp1648
g92
asbasbasbag49
(g65
g51
NtRp1649
(dp1650
g54
(dp1651
sg63
g1248
sg56
(lp1652
g49
(g70
g51
NtRp1653
(dp1654
g54
(dp1655
g74
g75
ssg63
g1649
sg56
(lp1656
S'is_pypy'
p1657
asbag49
(g70
g51
NtRp1658
(dp1659
g54
(dp1660
g81
g82
ssg63
g1649
sg56
(lp1661
S':'
asbag49
(g70
g51
NtRp1662
(dp1663
g54
(dp1664
sg63
g1649
sg56
(lp1665
g49
(g50
g51
NtRp1666
(dp1667
g54
(dp1668
g62
I4
ssg63
g1662
sg56
(lp1669
g92
asbasbasbag49
(g65
g51
NtRp1670
(dp1671
g54
(dp1672
sg63
g1248
sg56
(lp1673
g49
(g70
g51
NtRp1674
(dp1675
g54
(dp1676
g74
g75
ssg63
g1670
sg56
(lp1677
S'path_info'
p1678
asbag49
(g70
g51
NtRp1679
(dp1680
g54
(dp1681
g81
g82
ssg63
g1670
sg56
(lp1682
S':'
asbag49
(g70
g51
NtRp1683
(dp1684
g54
(dp1685
sg63
g1670
sg56
(lp1686
g49
(g50
g51
NtRp1687
(dp1688
g54
(dp1689
g62
I4
ssg63
g1683
sg56
(lp1690
S'/SlugBarter/default/mypage'
p1691
asbasbasbag49
(g65
g51
NtRp1692
(dp1693
g54
(dp1694
sg63
g1248
sg56
(lp1695
g49
(g70
g51
NtRp1696
(dp1697
g54
(dp1698
g74
g75
ssg63
g1692
sg56
(lp1699
S'query_string'
p1700
asbag49
(g70
g51
NtRp1701
(dp1702
g54
(dp1703
g81
g82
ssg63
g1692
sg56
(lp1704
S':'
asbag49
(g70
g51
NtRp1705
(dp1706
g54
(dp1707
sg63
g1692
sg56
(lp1708
g49
(g50
g51
NtRp1709
(dp1710
g54
(dp1711
g62
I4
ssg63
g1705
sg56
(lp1712
S''
asbasbasbag49
(g65
g51
NtRp1713
(dp1714
g54
(dp1715
sg63
g1248
sg56
(lp1716
g49
(g70
g51
NtRp1717
(dp1718
g54
(dp1719
g74
g75
ssg63
g1713
sg56
(lp1720
S'remote_addr'
p1721
asbag49
(g70
g51
NtRp1722
(dp1723
g54
(dp1724
g81
g82
ssg63
g1713
sg56
(lp1725
S':'
asbag49
(g70
g51
NtRp1726
(dp1727
g54
(dp1728
sg63
g1713
sg56
(lp1729
g49
(g50
g51
NtRp1730
(dp1731
g54
(dp1732
g62
I4
ssg63
g1726
sg56
(lp1733
g182
asbasbasbag49
(g65
g51
NtRp1734
(dp1735
g54
(dp1736
sg63
g1248
sg56
(lp1737
g49
(g70
g51
NtRp1738
(dp1739
g54
(dp1740
g74
g75
ssg63
g1734
sg56
(lp1741
S'remote_port'
p1742
asbag49
(g70
g51
NtRp1743
(dp1744
g54
(dp1745
g81
g82
ssg63
g1734
sg56
(lp1746
S':'
asbag49
(g70
g51
NtRp1747
(dp1748
g54
(dp1749
sg63
g1734
sg56
(lp1750
g49
(g50
g51
NtRp1751
(dp1752
g54
(dp1753
g62
I4
ssg63
g1747
sg56
(lp1754
S'64922'
p1755
asbasbasbag49
(g65
g51
NtRp1756
(dp1757
g54
(dp1758
sg63
g1248
sg56
(lp1759
g49
(g70
g51
NtRp1760
(dp1761
g54
(dp1762
g74
g75
ssg63
g1756
sg56
(lp1763
S'request_method'
p1764
asbag49
(g70
g51
NtRp1765
(dp1766
g54
(dp1767
g81
g82
ssg63
g1756
sg56
(lp1768
S':'
asbag49
(g70
g51
NtRp1769
(dp1770
g54
(dp1771
sg63
g1756
sg56
(lp1772
g49
(g50
g51
NtRp1773
(dp1774
g54
(dp1775
g62
I4
ssg63
g1769
sg56
(lp1776
S'GET'
p1777
asbasbasbag49
(g65
g51
NtRp1778
(dp1779
g54
(dp1780
sg63
g1248
sg56
(lp1781
g49
(g70
g51
NtRp1782
(dp1783
g54
(dp1784
g74
g75
ssg63
g1778
sg56
(lp1785
S'script_name'
p1786
asbag49
(g70
g51
NtRp1787
(dp1788
g54
(dp1789
g81
g82
ssg63
g1778
sg56
(lp1790
S':'
asbag49
(g70
g51
NtRp1791
(dp1792
g54
(dp1793
sg63
g1778
sg56
(lp1794
g49
(g50
g51
NtRp1795
(dp1796
g54
(dp1797
g62
I4
ssg63
g1791
sg56
(lp1798
S''
asbasbasbag49
(g65
g51
NtRp1799
(dp1800
g54
(dp1801
sg63
g1248
sg56
(lp1802
g49
(g70
g51
NtRp1803
(dp1804
g54
(dp1805
g74
g75
ssg63
g1799
sg56
(lp1806
S'server_name'
p1807
asbag49
(g70
g51
NtRp1808
(dp1809
g54
(dp1810
g81
g82
ssg63
g1799
sg56
(lp1811
S':'
asbag49
(g70
g51
NtRp1812
(dp1813
g54
(dp1814
sg63
g1799
sg56
(lp1815
g49
(g50
g51
NtRp1816
(dp1817
g54
(dp1818
g62
I4
ssg63
g1812
sg56
(lp1819
S'omkara-PC'
p1820
asbasbasbag49
(g65
g51
NtRp1821
(dp1822
g54
(dp1823
sg63
g1248
sg56
(lp1824
g49
(g70
g51
NtRp1825
(dp1826
g54
(dp1827
g74
g75
ssg63
g1821
sg56
(lp1828
S'server_port'
p1829
asbag49
(g70
g51
NtRp1830
(dp1831
g54
(dp1832
g81
g82
ssg63
g1821
sg56
(lp1833
S':'
asbag49
(g70
g51
NtRp1834
(dp1835
g54
(dp1836
sg63
g1821
sg56
(lp1837
g49
(g50
g51
NtRp1838
(dp1839
g54
(dp1840
g62
I4
ssg63
g1834
sg56
(lp1841
S'8000'
p1842
asbasbasbag49
(g65
g51
NtRp1843
(dp1844
g54
(dp1845
sg63
g1248
sg56
(lp1846
g49
(g70
g51
NtRp1847
(dp1848
g54
(dp1849
g74
g75
ssg63
g1843
sg56
(lp1850
S'server_protocol'
p1851
asbag49
(g70
g51
NtRp1852
(dp1853
g54
(dp1854
g81
g82
ssg63
g1843
sg56
(lp1855
S':'
asbag49
(g70
g51
NtRp1856
(dp1857
g54
(dp1858
sg63
g1843
sg56
(lp1859
g49
(g50
g51
NtRp1860
(dp1861
g54
(dp1862
g62
I4
ssg63
g1856
sg56
(lp1863
S'HTTP/1.1'
p1864
asbasbasbag49
(g65
g51
NtRp1865
(dp1866
g54
(dp1867
sg63
g1248
sg56
(lp1868
g49
(g70
g51
NtRp1869
(dp1870
g54
(dp1871
g74
g75
ssg63
g1865
sg56
(lp1872
S'server_software'
p1873
asbag49
(g70
g51
NtRp1874
(dp1875
g54
(dp1876
g81
g82
ssg63
g1865
sg56
(lp1877
S':'
asbag49
(g70
g51
NtRp1878
(dp1879
g54
(dp1880
sg63
g1865
sg56
(lp1881
g49
(g50
g51
NtRp1882
(dp1883
g54
(dp1884
g62
I4
ssg63
g1878
sg56
(lp1885
S'Rocket 1.2.4'
p1886
asbasbasbag49
(g65
g51
NtRp1887
(dp1888
g54
(dp1889
sg63
g1248
sg56
(lp1890
g49
(g70
g51
NtRp1891
(dp1892
g54
(dp1893
g74
g75
ssg63
g1887
sg56
(lp1894
S'web2py_crontype'
p1895
asbag49
(g70
g51
NtRp1896
(dp1897
g54
(dp1898
g81
g82
ssg63
g1887
sg56
(lp1899
S':'
asbag49
(g70
g51
NtRp1900
(dp1901
g54
(dp1902
sg63
g1887
sg56
(lp1903
g49
(g50
g51
NtRp1904
(dp1905
g54
(dp1906
g62
I4
ssg63
g1900
sg56
(lp1907
S'hard'
p1908
asbasbasbag49
(g65
g51
NtRp1909
(dp1910
g54
(dp1911
sg63
g1248
sg56
(lp1912
g49
(g70
g51
NtRp1913
(dp1914
g54
(dp1915
g74
g75
ssg63
g1909
sg56
(lp1916
S'web2py_path'
p1917
asbag49
(g70
g51
NtRp1918
(dp1919
g54
(dp1920
g81
g82
ssg63
g1909
sg56
(lp1921
S':'
asbag49
(g70
g51
NtRp1922
(dp1923
g54
(dp1924
sg63
g1909
sg56
(lp1925
g49
(g50
g51
NtRp1926
(dp1927
g54
(dp1928
g62
I4
ssg63
g1922
sg56
(lp1929
g1295
asbasbasbag49
(g65
g51
NtRp1930
(dp1931
g54
(dp1932
sg63
g1248
sg56
(lp1933
g49
(g70
g51
NtRp1934
(dp1935
g54
(dp1936
g74
g75
ssg63
g1930
sg56
(lp1937
S'web2py_version'
p1938
asbag49
(g70
g51
NtRp1939
(dp1940
g54
(dp1941
g81
g82
ssg63
g1930
sg56
(lp1942
S':'
asbag49
(g70
g51
NtRp1943
(dp1944
g54
(dp1945
sg63
g1930
sg56
(lp1946
g49
(g50
g51
NtRp1947
(dp1948
g54
(dp1949
g62
I4
ssg63
g1943
sg56
(lp1950
g49
(g58
g51
NtRp1951
(dp1952
g54
(dp1953
g62
I3
ssg63
Nsg56
(lp1954
g49
(g65
g51
NtRp1955
(dp1956
g54
(dp1957
sg63
g1951
sg56
(lp1958
g49
(g70
g51
NtRp1959
(dp1960
g54
(dp1961
sg63
g1955
sg56
(lp1962
g49
(g50
g51
NtRp1963
(dp1964
g54
(dp1965
g62
I3
ssg63
g1959
sg56
(lp1966
S'1'
asbasbasbag49
(g65
g51
NtRp1967
(dp1968
g54
(dp1969
sg63
g1951
sg56
(lp1970
g49
(g70
g51
NtRp1971
(dp1972
g54
(dp1973
sg63
g1967
sg56
(lp1974
g49
(g50
g51
NtRp1975
(dp1976
g54
(dp1977
g62
I3
ssg63
g1971
sg56
(lp1978
S'99'
p1979
asbasbasbag49
(g65
g51
NtRp1980
(dp1981
g54
(dp1982
sg63
g1951
sg56
(lp1983
g49
(g70
g51
NtRp1984
(dp1985
g54
(dp1986
sg63
g1980
sg56
(lp1987
g49
(g50
g51
NtRp1988
(dp1989
g54
(dp1990
g62
I3
ssg63
g1984
sg56
(lp1991
S'7'
asbasbasbag49
(g65
g51
NtRp1992
(dp1993
g54
(dp1994
sg63
g1951
sg56
(lp1995
g49
(g70
g51
NtRp1996
(dp1997
g54
(dp1998
sg63
g1992
sg56
(lp1999
g49
(g50
g51
NtRp2000
(dp2001
g54
(dp2002
g62
I3
ssg63
g1996
sg56
(lp2003
S'datetime.datetime(2012, 3, 4, 22, 12, 8)'
p2004
asbasbasbag49
(g65
g51
NtRp2005
(dp2006
g54
(dp2007
sg63
g1951
sg56
(lp2008
g49
(g70
g51
NtRp2009
(dp2010
g54
(dp2011
sg63
g2005
sg56
(lp2012
g49
(g50
g51
NtRp2013
(dp2014
g54
(dp2015
g62
I3
ssg63
g2009
sg56
(lp2016
S'stable'
p2017
asbasbasbasbasbasbasbag49
(g65
g51
NtRp2018
(dp2019
g54
(dp2020
sg63
g1248
sg56
(lp2021
g49
(g70
g51
NtRp2022
(dp2023
g54
(dp2024
g74
g75
ssg63
g2018
sg56
(lp2025
S'wsgi_errors'
p2026
asbag49
(g70
g51
NtRp2027
(dp2028
g54
(dp2029
g81
g82
ssg63
g2018
sg56
(lp2030
S':'
asbag49
(g70
g51
NtRp2031
(dp2032
g54
(dp2033
sg63
g2018
sg56
(lp2034
g49
(g50
g51
NtRp2035
(dp2036
g54
(dp2037
g62
I4
ssg63
g2031
sg56
(lp2038
S"<open file '<stderr>', mode 'w' at 0x016000B0>"
p2039
asbasbasbag49
(g65
g51
NtRp2040
(dp2041
g54
(dp2042
sg63
g1248
sg56
(lp2043
g49
(g70
g51
NtRp2044
(dp2045
g54
(dp2046
g74
g75
ssg63
g2040
sg56
(lp2047
S'wsgi_file_wrapper'
p2048
asbag49
(g70
g51
NtRp2049
(dp2050
g54
(dp2051
g81
g82
ssg63
g2040
sg56
(lp2052
S':'
asbag49
(g70
g51
NtRp2053
(dp2054
g54
(dp2055
sg63
g2040
sg56
(lp2056
g49
(g50
g51
NtRp2057
(dp2058
g54
(dp2059
g62
I4
ssg63
g2053
sg56
(lp2060
S'<class wsgiref.util.FileWrapper at 0x025361B0>'
p2061
asbasbasbag49
(g65
g51
NtRp2062
(dp2063
g54
(dp2064
sg63
g1248
sg56
(lp2065
g49
(g70
g51
NtRp2066
(dp2067
g54
(dp2068
g74
g75
ssg63
g2062
sg56
(lp2069
S'wsgi_input'
p2070
asbag49
(g70
g51
NtRp2071
(dp2072
g54
(dp2073
g81
g82
ssg63
g2062
sg56
(lp2074
S':'
asbag49
(g70
g51
NtRp2075
(dp2076
g54
(dp2077
sg63
g2062
sg56
(lp2078
g49
(g50
g51
NtRp2079
(dp2080
g54
(dp2081
g62
I4
ssg63
g2075
sg56
(lp2082
S'<socket._fileobject object at 0x06429930>'
p2083
asbasbasbag49
(g65
g51
NtRp2084
(dp2085
g54
(dp2086
sg63
g1248
sg56
(lp2087
g49
(g70
g51
NtRp2088
(dp2089
g54
(dp2090
g74
g75
ssg63
g2084
sg56
(lp2091
S'wsgi_multiprocess'
p2092
asbag49
(g70
g51
NtRp2093
(dp2094
g54
(dp2095
g81
g82
ssg63
g2084
sg56
(lp2096
S':'
asbag49
(g70
g51
NtRp2097
(dp2098
g54
(dp2099
sg63
g2084
sg56
(lp2100
g49
(g50
g51
NtRp2101
(dp2102
g54
(dp2103
g62
I4
ssg63
g2097
sg56
(lp2104
g92
asbasbasbag49
(g65
g51
NtRp2105
(dp2106
g54
(dp2107
sg63
g1248
sg56
(lp2108
g49
(g70
g51
NtRp2109
(dp2110
g54
(dp2111
g74
g75
ssg63
g2105
sg56
(lp2112
S'wsgi_multithread'
p2113
asbag49
(g70
g51
NtRp2114
(dp2115
g54
(dp2116
g81
g82
ssg63
g2105
sg56
(lp2117
S':'
asbag49
(g70
g51
NtRp2118
(dp2119
g54
(dp2120
sg63
g2105
sg56
(lp2121
g49
(g50
g51
NtRp2122
(dp2123
g54
(dp2124
g62
I4
ssg63
g2118
sg56
(lp2125
S'True'
p2126
asbasbasbag49
(g65
g51
NtRp2127
(dp2128
g54
(dp2129
sg63
g1248
sg56
(lp2130
g49
(g70
g51
NtRp2131
(dp2132
g54
(dp2133
g74
g75
ssg63
g2127
sg56
(lp2134
S'wsgi_run_once'
p2135
asbag49
(g70
g51
NtRp2136
(dp2137
g54
(dp2138
g81
g82
ssg63
g2127
sg56
(lp2139
S':'
asbag49
(g70
g51
NtRp2140
(dp2141
g54
(dp2142
sg63
g2127
sg56
(lp2143
g49
(g50
g51
NtRp2144
(dp2145
g54
(dp2146
g62
I4
ssg63
g2140
sg56
(lp2147
g92
asbasbasbag49
(g65
g51
NtRp2148
(dp2149
g54
(dp2150
sg63
g1248
sg56
(lp2151
g49
(g70
g51
NtRp2152
(dp2153
g54
(dp2154
g74
g75
ssg63
g2148
sg56
(lp2155
S'wsgi_url_scheme'
p2156
asbag49
(g70
g51
NtRp2157
(dp2158
g54
(dp2159
g81
g82
ssg63
g2148
sg56
(lp2160
S':'
asbag49
(g70
g51
NtRp2161
(dp2162
g54
(dp2163
sg63
g2148
sg56
(lp2164
g49
(g50
g51
NtRp2165
(dp2166
g54
(dp2167
g62
I4
ssg63
g2161
sg56
(lp2168
S'http'
p2169
asbasbasbag49
(g65
g51
NtRp2170
(dp2171
g54
(dp2172
sg63
g1248
sg56
(lp2173
g49
(g70
g51
NtRp2174
(dp2175
g54
(dp2176
g74
g75
ssg63
g2170
sg56
(lp2177
S'wsgi_version'
p2178
asbag49
(g70
g51
NtRp2179
(dp2180
g54
(dp2181
g81
g82
ssg63
g2170
sg56
(lp2182
S':'
asbag49
(g70
g51
NtRp2183
(dp2184
g54
(dp2185
sg63
g2170
sg56
(lp2186
g49
(g50
g51
NtRp2187
(dp2188
g54
(dp2189
g62
I4
ssg63
g2183
sg56
(lp2190
g49
(g58
g51
NtRp2191
(dp2192
g54
(dp2193
g62
I3
ssg63
Nsg56
(lp2194
g49
(g65
g51
NtRp2195
(dp2196
g54
(dp2197
sg63
g2191
sg56
(lp2198
g49
(g70
g51
NtRp2199
(dp2200
g54
(dp2201
sg63
g2195
sg56
(lp2202
g49
(g50
g51
NtRp2203
(dp2204
g54
(dp2205
g62
I3
ssg63
g2199
sg56
(lp2206
S'1'
asbasbasbag49
(g65
g51
NtRp2207
(dp2208
g54
(dp2209
sg63
g2191
sg56
(lp2210
g49
(g70
g51
NtRp2211
(dp2212
g54
(dp2213
sg63
g2207
sg56
(lp2214
g49
(g50
g51
NtRp2215
(dp2216
g54
(dp2217
g62
I3
ssg63
g2211
sg56
(lp2218
S'0'
asbasbasbasbasbasbasbasbasbasbasbag49
(g65
g51
NtRp2219
(dp2220
g54
(dp2221
sg63
g59
sg56
(lp2222
g49
(g70
g51
NtRp2223
(dp2224
g54
(dp2225
g74
g75
ssg63
g2219
sg56
(lp2226
S'extension'
p2227
asbag49
(g70
g51
NtRp2228
(dp2229
g54
(dp2230
g81
g82
ssg63
g2219
sg56
(lp2231
S':'
asbag49
(g70
g51
NtRp2232
(dp2233
g54
(dp2234
sg63
g2219
sg56
(lp2235
g49
(g50
g51
NtRp2236
(dp2237
g54
(dp2238
g62
I5
ssg63
g2232
sg56
(lp2239
S'html'
p2240
asbasbasbag49
(g65
g51
NtRp2241
(dp2242
g54
(dp2243
sg63
g59
sg56
(lp2244
g49
(g70
g51
NtRp2245
(dp2246
g54
(dp2247
g74
g75
ssg63
g2241
sg56
(lp2248
S'folder'
p2249
asbag49
(g70
g51
NtRp2250
(dp2251
g54
(dp2252
g81
g82
ssg63
g2241
sg56
(lp2253
S':'
asbag49
(g70
g51
NtRp2254
(dp2255
g54
(dp2256
sg63
g2241
sg56
(lp2257
g49
(g50
g51
NtRp2258
(dp2259
g54
(dp2260
g62
I5
ssg63
g2254
sg56
(lp2261
S'C:\\Users\\omkara\\Desktop\\web2py\\applications\\SlugBarter\\'
p2262
asbasbasbag49
(g65
g51
NtRp2263
(dp2264
g54
(dp2265
sg63
g59
sg56
(lp2266
g49
(g70
g51
NtRp2267
(dp2268
g54
(dp2269
g74
g75
ssg63
g2263
sg56
(lp2270
S'function'
p2271
asbag49
(g70
g51
NtRp2272
(dp2273
g54
(dp2274
g81
g82
ssg63
g2263
sg56
(lp2275
S':'
asbag49
(g70
g51
NtRp2276
(dp2277
g54
(dp2278
sg63
g2263
sg56
(lp2279
g49
(g50
g51
NtRp2280
(dp2281
g54
(dp2282
g62
I5
ssg63
g2276
sg56
(lp2283
S'mypage'
p2284
asbasbasbag49
(g65
g51
NtRp2285
(dp2286
g54
(dp2287
sg63
g59
sg56
(lp2288
g49
(g70
g51
NtRp2289
(dp2290
g54
(dp2291
g74
g75
ssg63
g2285
sg56
(lp2292
S'get_vars'
p2293
asbag49
(g70
g51
NtRp2294
(dp2295
g54
(dp2296
g81
g82
ssg63
g2285
sg56
(lp2297
S':'
asbag49
(g70
g51
NtRp2298
(dp2299
g54
(dp2300
sg63
g2285
sg56
(lp2301
g49
(g50
g51
NtRp2302
(dp2303
g54
(dp2304
g62
I5
ssg63
g2298
sg56
(lp2305
g49
(g58
g51
NtRp2306
(dp2307
g54
(dp2308
g62
I4
ssg63
Nsg56
(lp2309
sbasbasbasbag49
(g65
g51
NtRp2310
(dp2311
g54
(dp2312
sg63
g59
sg56
(lp2313
g49
(g70
g51
NtRp2314
(dp2315
g54
(dp2316
g74
g75
ssg63
g2310
sg56
(lp2317
S'global_settings'
p2318
asbag49
(g70
g51
NtRp2319
(dp2320
g54
(dp2321
g81
g82
ssg63
g2310
sg56
(lp2322
S':'
asbag49
(g70
g51
NtRp2323
(dp2324
g54
(dp2325
sg63
g2310
sg56
(lp2326
g49
(g50
g51
NtRp2327
(dp2328
g54
(dp2329
g62
I5
ssg63
g2323
sg56
(lp2330
g49
(g58
g51
NtRp2331
(dp2332
g54
(dp2333
g62
I4
ssg63
Nsg56
(lp2334
g49
(g65
g51
NtRp2335
(dp2336
g54
(dp2337
sg63
g2331
sg56
(lp2338
g49
(g70
g51
NtRp2339
(dp2340
g54
(dp2341
g74
g75
ssg63
g2335
sg56
(lp2342
g1260
asbag49
(g70
g51
NtRp2343
(dp2344
g54
(dp2345
g81
g82
ssg63
g2335
sg56
(lp2346
S':'
asbag49
(g70
g51
NtRp2347
(dp2348
g54
(dp2349
sg63
g2335
sg56
(lp2350
g49
(g50
g51
NtRp2351
(dp2352
g54
(dp2353
g62
I4
ssg63
g2347
sg56
(lp2354
S"set(['C:\\\\Users\\\\omkara\\\\Desktop\\\\web2py\\\\applications\\\\newA\\\\', 'C:\\\\Users\\\\omkara\\\\Desktop\\\\web2py\\\\applications\\\\slug_register_page\\\\', 'C:\\\\Users\\\\omkara\\\\Desktop\\\\web2py\\\\applications\\\\admin\\\\', 'C:\\\\Users\\\\omkara\\\\Desktop\\\\web2py\\\\applications\\\\welcome\\\\', 'C:\\\\Users\\\\omkara\\\\Desktop\\\\web2py\\\\applications\\\\slug_register\\\\', 'C:\\\\Users\\\\omkara\\\\Desktop\\\\web2py\\\\applications\\\\SlugBarter\\\\', 'C:\\\\Users\\\\omkara\\\\Desktop\\\\web2py\\\\applications\\\\testApp\\\\'])"
p2355
asbasbasbag49
(g65
g51
NtRp2356
(dp2357
g54
(dp2358
sg63
g2331
sg56
(lp2359
g49
(g70
g51
NtRp2360
(dp2361
g54
(dp2362
g74
g75
ssg63
g2356
sg56
(lp2363
g1282
asbag49
(g70
g51
NtRp2364
(dp2365
g54
(dp2366
g81
g82
ssg63
g2356
sg56
(lp2367
S':'
asbag49
(g70
g51
NtRp2368
(dp2369
g54
(dp2370
sg63
g2356
sg56
(lp2371
g49
(g50
g51
NtRp2372
(dp2373
g54
(dp2374
g62
I4
ssg63
g2368
sg56
(lp2375
g1295
asbasbasbag49
(g65
g51
NtRp2376
(dp2377
g54
(dp2378
sg63
g2331
sg56
(lp2379
g49
(g70
g51
NtRp2380
(dp2381
g54
(dp2382
g74
g75
ssg63
g2376
sg56
(lp2383
g1304
asbag49
(g70
g51
NtRp2384
(dp2385
g54
(dp2386
g81
g82
ssg63
g2376
sg56
(lp2387
S':'
asbag49
(g70
g51
NtRp2388
(dp2389
g54
(dp2390
sg63
g2376
sg56
(lp2391
g49
(g50
g51
NtRp2392
(dp2393
g54
(dp2394
g62
I4
ssg63
g2388
sg56
(lp2395
g49
(g58
g51
NtRp2396
(dp2397
g54
(dp2398
g62
I3
ssg63
Nsg56
(lp2399
sbasbasbasbag49
(g65
g51
NtRp2400
(dp2401
g54
(dp2402
sg63
g2331
sg56
(lp2403
g49
(g70
g51
NtRp2404
(dp2405
g54
(dp2406
g74
g75
ssg63
g2400
sg56
(lp2407
g1329
asbag49
(g70
g51
NtRp2408
(dp2409
g54
(dp2410
g81
g82
ssg63
g2400
sg56
(lp2411
S':'
asbag49
(g70
g51
NtRp2412
(dp2413
g54
(dp2414
sg63
g2400
sg56
(lp2415
g49
(g50
g51
NtRp2416
(dp2417
g54
(dp2418
g62
I4
ssg63
g2412
sg56
(lp2419
S"<Values at 0x27b1f80: {'verbose': False, 'ip': '127.0.0.1', 'shutdown_timeout': 5, 'taskbar': False, 'nocron': False, 'pid_filename': 'httpserver.pid', 'maxthreads': None, 'softcron': False, 'server_name': 'omkara-PC', 'bpython': False, 'nogui': False, 'port': 8000, 'extcron': False, 'debuglevel': 30, 'test': None, 'folder': 'C:\\\\Users\\\\omkara\\\\Desktop\\\\web2py', 'config': '', 'import_models': False, 'winservice': '', 'shell': None, 'run': '', 'log_filename': 'httpserver.log', 'args': [''], 'socket_timeout': 5, 'ssl_ca_certificate': None, 'scheduler': None, 'profiler_filename': None, 'ssl_private_key': '', 'password': '<ask>', 'request_queue_size': 5, 'ssl_certificate': '', 'cronjob': False, 'numthreads': None, 'quiet': False, 'interfaces': None, 'minthreads': None, 'timeout': 10, 'plain': False, 'nobanner': False}>"
p2420
asbasbasbag49
(g65
g51
NtRp2421
(dp2422
g54
(dp2423
sg63
g2331
sg56
(lp2424
g49
(g70
g51
NtRp2425
(dp2426
g54
(dp2427
g74
g75
ssg63
g2421
sg56
(lp2428
g1351
asbag49
(g70
g51
NtRp2429
(dp2430
g54
(dp2431
g81
g82
ssg63
g2421
sg56
(lp2432
S':'
asbag49
(g70
g51
NtRp2433
(dp2434
g54
(dp2435
sg63
g2421
sg56
(lp2436
g49
(g50
g51
NtRp2437
(dp2438
g54
(dp2439
g62
I4
ssg63
g2433
sg56
(lp2440
S'set([])'
p2441
asbasbasbag49
(g65
g51
NtRp2442
(dp2443
g54
(dp2444
sg63
g2331
sg56
(lp2445
g49
(g70
g51
NtRp2446
(dp2447
g54
(dp2448
g74
g75
ssg63
g2442
sg56
(lp2449
g1373
asbag49
(g70
g51
NtRp2450
(dp2451
g54
(dp2452
g81
g82
ssg63
g2442
sg56
(lp2453
S':'
asbag49
(g70
g51
NtRp2454
(dp2455
g54
(dp2456
sg63
g2442
sg56
(lp2457
g49
(g50
g51
NtRp2458
(dp2459
g54
(dp2460
g62
I4
ssg63
g2454
sg56
(lp2461
g92
asbasbasbag49
(g65
g51
NtRp2462
(dp2463
g54
(dp2464
sg63
g2331
sg56
(lp2465
g49
(g70
g51
NtRp2466
(dp2467
g54
(dp2468
g74
g75
ssg63
g2462
sg56
(lp2469
g1394
asbag49
(g70
g51
NtRp2470
(dp2471
g54
(dp2472
g81
g82
ssg63
g2462
sg56
(lp2473
S':'
asbag49
(g70
g51
NtRp2474
(dp2475
g54
(dp2476
sg63
g2462
sg56
(lp2477
g49
(g50
g51
NtRp2478
(dp2479
g54
(dp2480
g62
I4
ssg63
g2474
sg56
(lp2481
g1407
asbasbasbag49
(g65
g51
NtRp2482
(dp2483
g54
(dp2484
sg63
g2331
sg56
(lp2485
g49
(g70
g51
NtRp2486
(dp2487
g54
(dp2488
g74
g75
ssg63
g2482
sg56
(lp2489
g1636
asbag49
(g70
g51
NtRp2490
(dp2491
g54
(dp2492
g81
g82
ssg63
g2482
sg56
(lp2493
S':'
asbag49
(g70
g51
NtRp2494
(dp2495
g54
(dp2496
sg63
g2482
sg56
(lp2497
g49
(g50
g51
NtRp2498
(dp2499
g54
(dp2500
g62
I4
ssg63
g2494
sg56
(lp2501
g92
asbasbasbag49
(g65
g51
NtRp2502
(dp2503
g54
(dp2504
sg63
g2331
sg56
(lp2505
g49
(g70
g51
NtRp2506
(dp2507
g54
(dp2508
g74
g75
ssg63
g2502
sg56
(lp2509
g1657
asbag49
(g70
g51
NtRp2510
(dp2511
g54
(dp2512
g81
g82
ssg63
g2502
sg56
(lp2513
S':'
asbag49
(g70
g51
NtRp2514
(dp2515
g54
(dp2516
sg63
g2502
sg56
(lp2517
g49
(g50
g51
NtRp2518
(dp2519
g54
(dp2520
g62
I4
ssg63
g2514
sg56
(lp2521
g92
asbasbasbag49
(g65
g51
NtRp2522
(dp2523
g54
(dp2524
sg63
g2331
sg56
(lp2525
g49
(g70
g51
NtRp2526
(dp2527
g54
(dp2528
g74
g75
ssg63
g2522
sg56
(lp2529
g1895
asbag49
(g70
g51
NtRp2530
(dp2531
g54
(dp2532
g81
g82
ssg63
g2522
sg56
(lp2533
S':'
asbag49
(g70
g51
NtRp2534
(dp2535
g54
(dp2536
sg63
g2522
sg56
(lp2537
g49
(g50
g51
NtRp2538
(dp2539
g54
(dp2540
g62
I4
ssg63
g2534
sg56
(lp2541
g1908
asbasbasbag49
(g65
g51
NtRp2542
(dp2543
g54
(dp2544
sg63
g2331
sg56
(lp2545
g49
(g70
g51
NtRp2546
(dp2547
g54
(dp2548
g74
g75
ssg63
g2542
sg56
(lp2549
g1938
asbag49
(g70
g51
NtRp2550
(dp2551
g54
(dp2552
g81
g82
ssg63
g2542
sg56
(lp2553
S':'
asbag49
(g70
g51
NtRp2554
(dp2555
g54
(dp2556
sg63
g2542
sg56
(lp2557
g49
(g50
g51
NtRp2558
(dp2559
g54
(dp2560
g62
I4
ssg63
g2554
sg56
(lp2561
g49
(g58
g51
NtRp2562
(dp2563
g54
(dp2564
g62
I3
ssg63
Nsg56
(lp2565
g49
(g65
g51
NtRp2566
(dp2567
g54
(dp2568
sg63
g2562
sg56
(lp2569
g49
(g70
g51
NtRp2570
(dp2571
g54
(dp2572
sg63
g2566
sg56
(lp2573
g49
(g50
g51
NtRp2574
(dp2575
g54
(dp2576
g62
I3
ssg63
g2570
sg56
(lp2577
S'1'
asbasbasbag49
(g65
g51
NtRp2578
(dp2579
g54
(dp2580
sg63
g2562
sg56
(lp2581
g49
(g70
g51
NtRp2582
(dp2583
g54
(dp2584
sg63
g2578
sg56
(lp2585
g49
(g50
g51
NtRp2586
(dp2587
g54
(dp2588
g62
I3
ssg63
g2582
sg56
(lp2589
S'99'
p2590
asbasbasbag49
(g65
g51
NtRp2591
(dp2592
g54
(dp2593
sg63
g2562
sg56
(lp2594
g49
(g70
g51
NtRp2595
(dp2596
g54
(dp2597
sg63
g2591
sg56
(lp2598
g49
(g50
g51
NtRp2599
(dp2600
g54
(dp2601
g62
I3
ssg63
g2595
sg56
(lp2602
S'7'
asbasbasbag49
(g65
g51
NtRp2603
(dp2604
g54
(dp2605
sg63
g2562
sg56
(lp2606
g49
(g70
g51
NtRp2607
(dp2608
g54
(dp2609
sg63
g2603
sg56
(lp2610
g49
(g50
g51
NtRp2611
(dp2612
g54
(dp2613
g62
I3
ssg63
g2607
sg56
(lp2614
S'datetime.datetime(2012, 3, 4, 22, 12, 8)'
p2615
asbasbasbag49
(g65
g51
NtRp2616
(dp2617
g54
(dp2618
sg63
g2562
sg56
(lp2619
g49
(g70
g51
NtRp2620
(dp2621
g54
(dp2622
sg63
g2616
sg56
(lp2623
g49
(g50
g51
NtRp2624
(dp2625
g54
(dp2626
g62
I3
ssg63
g2620
sg56
(lp2627
g2017
asbasbasbasbasbasbasbasbasbasbasbag49
(g65
g51
NtRp2628
(dp2629
g54
(dp2630
sg63
g59
sg56
(lp2631
g49
(g70
g51
NtRp2632
(dp2633
g54
(dp2634
g74
g75
ssg63
g2628
sg56
(lp2635
S'is_https'
p2636
asbag49
(g70
g51
NtRp2637
(dp2638
g54
(dp2639
g81
g82
ssg63
g2628
sg56
(lp2640
S':'
asbag49
(g70
g51
NtRp2641
(dp2642
g54
(dp2643
sg63
g2628
sg56
(lp2644
g49
(g50
g51
NtRp2645
(dp2646
g54
(dp2647
g62
I5
ssg63
g2641
sg56
(lp2648
g92
asbasbasbag49
(g65
g51
NtRp2649
(dp2650
g54
(dp2651
sg63
g59
sg56
(lp2652
g49
(g70
g51
NtRp2653
(dp2654
g54
(dp2655
g74
g75
ssg63
g2649
sg56
(lp2656
S'is_local'
p2657
asbag49
(g70
g51
NtRp2658
(dp2659
g54
(dp2660
g81
g82
ssg63
g2649
sg56
(lp2661
S':'
asbag49
(g70
g51
NtRp2662
(dp2663
g54
(dp2664
sg63
g2649
sg56
(lp2665
g49
(g50
g51
NtRp2666
(dp2667
g54
(dp2668
g62
I5
ssg63
g2662
sg56
(lp2669
g2126
asbasbasbag49
(g65
g51
NtRp2670
(dp2671
g54
(dp2672
sg63
g59
sg56
(lp2673
g49
(g70
g51
NtRp2674
(dp2675
g54
(dp2676
g74
g75
ssg63
g2670
sg56
(lp2677
S'is_restful'
p2678
asbag49
(g70
g51
NtRp2679
(dp2680
g54
(dp2681
g81
g82
ssg63
g2670
sg56
(lp2682
S':'
asbag49
(g70
g51
NtRp2683
(dp2684
g54
(dp2685
sg63
g2670
sg56
(lp2686
g49
(g50
g51
NtRp2687
(dp2688
g54
(dp2689
g62
I5
ssg63
g2683
sg56
(lp2690
g92
asbasbasbag49
(g65
g51
NtRp2691
(dp2692
g54
(dp2693
sg63
g59
sg56
(lp2694
g49
(g70
g51
NtRp2695
(dp2696
g54
(dp2697
g74
g75
ssg63
g2691
sg56
(lp2698
S'now'
p2699
asbag49
(g70
g51
NtRp2700
(dp2701
g54
(dp2702
g81
g82
ssg63
g2691
sg56
(lp2703
S':'
asbag49
(g70
g51
NtRp2704
(dp2705
g54
(dp2706
sg63
g2691
sg56
(lp2707
g49
(g50
g51
NtRp2708
(dp2709
g54
(dp2710
g62
I5
ssg63
g2704
sg56
(lp2711
S'datetime.datetime(2012, 11, 11, 18, 23, 51, 67000)'
p2712
asbasbasbag49
(g65
g51
NtRp2713
(dp2714
g54
(dp2715
sg63
g59
sg56
(lp2716
g49
(g70
g51
NtRp2717
(dp2718
g54
(dp2719
g74
g75
ssg63
g2713
sg56
(lp2720
S'post_vars'
p2721
asbag49
(g70
g51
NtRp2722
(dp2723
g54
(dp2724
g81
g82
ssg63
g2713
sg56
(lp2725
S':'
asbag49
(g70
g51
NtRp2726
(dp2727
g54
(dp2728
sg63
g2713
sg56
(lp2729
g49
(g50
g51
NtRp2730
(dp2731
g54
(dp2732
g62
I5
ssg63
g2726
sg56
(lp2733
g49
(g58
g51
NtRp2734
(dp2735
g54
(dp2736
g62
I4
ssg63
Nsg56
(lp2737
sbasbasbasbag49
(g65
g51
NtRp2738
(dp2739
g54
(dp2740
sg63
g59
sg56
(lp2741
g49
(g70
g51
NtRp2742
(dp2743
g54
(dp2744
g74
g75
ssg63
g2738
sg56
(lp2745
S'url'
p2746
asbag49
(g70
g51
NtRp2747
(dp2748
g54
(dp2749
g81
g82
ssg63
g2738
sg56
(lp2750
S':'
asbag49
(g70
g51
NtRp2751
(dp2752
g54
(dp2753
sg63
g2738
sg56
(lp2754
g49
(g50
g51
NtRp2755
(dp2756
g54
(dp2757
g62
I5
ssg63
g2751
sg56
(lp2758
S'/SlugBarter/default/mypage'
p2759
asbasbasbag49
(g65
g51
NtRp2760
(dp2761
g54
(dp2762
sg63
g59
sg56
(lp2763
g49
(g70
g51
NtRp2764
(dp2765
g54
(dp2766
g74
g75
ssg63
g2760
sg56
(lp2767
S'utcnow'
p2768
asbag49
(g70
g51
NtRp2769
(dp2770
g54
(dp2771
g81
g82
ssg63
g2760
sg56
(lp2772
S':'
asbag49
(g70
g51
NtRp2773
(dp2774
g54
(dp2775
sg63
g2760
sg56
(lp2776
g49
(g50
g51
NtRp2777
(dp2778
g54
(dp2779
g62
I5
ssg63
g2773
sg56
(lp2780
S'datetime.datetime(2012, 11, 12, 2, 23, 51, 68000)'
p2781
asbasbasbag49
(g65
g51
NtRp2782
(dp2783
g54
(dp2784
sg63
g59
sg56
(lp2785
g49
(g70
g51
NtRp2786
(dp2787
g54
(dp2788
g74
g75
ssg63
g2782
sg56
(lp2789
S'uuid'
p2790
asbag49
(g70
g51
NtRp2791
(dp2792
g54
(dp2793
g81
g82
ssg63
g2782
sg56
(lp2794
S':'
asbag49
(g70
g51
NtRp2795
(dp2796
g54
(dp2797
sg63
g2782
sg56
(lp2798
g49
(g50
g51
NtRp2799
(dp2800
g54
(dp2801
g62
I5
ssg63
g2795
sg56
(lp2802
S'SlugBarter/127.0.0.1.2012-11-11.18-23-51.fe98b7ae-cbcb-4408-8839-e0fa6f325e2b'
p2803
asbasbasbag49
(g65
g51
NtRp2804
(dp2805
g54
(dp2806
sg63
g59
sg56
(lp2807
g49
(g70
g51
NtRp2808
(dp2809
g54
(dp2810
g74
g75
ssg63
g2804
sg56
(lp2811
S'vars'
p2812
asbag49
(g70
g51
NtRp2813
(dp2814
g54
(dp2815
g81
g82
ssg63
g2804
sg56
(lp2816
S':'
asbag49
(g70
g51
NtRp2817
(dp2818
g54
(dp2819
sg63
g2804
sg56
(lp2820
g49
(g50
g51
NtRp2821
(dp2822
g54
(dp2823
g62
I5
ssg63
g2817
sg56
(lp2824
g49
(g58
g51
NtRp2825
(dp2826
g54
(dp2827
g62
I4
ssg63
Nsg56
(lp2828
sbasbasbasbag49
(g65
g51
NtRp2829
(dp2830
g54
(dp2831
sg63
g59
sg56
(lp2832
g49
(g70
g51
NtRp2833
(dp2834
g54
(dp2835
g74
g75
ssg63
g2829
sg56
(lp2836
S'wsgi'
p2837
asbag49
(g70
g51
NtRp2838
(dp2839
g54
(dp2840
g81
g82
ssg63
g2829
sg56
(lp2841
S':'
asbag49
(g70
g51
NtRp2842
(dp2843
g54
(dp2844
sg63
g2829
sg56
(lp2845
g49
(g50
g51
NtRp2846
(dp2847
g54
(dp2848
g62
I5
ssg63
g2842
sg56
(lp2849
g49
(g58
g51
NtRp2850
(dp2851
g54
(dp2852
g62
I4
ssg63
Nsg56
(lp2853
g49
(g65
g51
NtRp2854
(dp2855
g54
(dp2856
sg63
g2850
sg56
(lp2857
g49
(g70
g51
NtRp2858
(dp2859
g54
(dp2860
g74
g75
ssg63
g2854
sg56
(lp2861
S'environ'
p2862
asbag49
(g70
g51
NtRp2863
(dp2864
g54
(dp2865
g81
g82
ssg63
g2854
sg56
(lp2866
S':'
asbag49
(g70
g51
NtRp2867
(dp2868
g54
(dp2869
sg63
g2854
sg56
(lp2870
g49
(g50
g51
NtRp2871
(dp2872
g54
(dp2873
g62
I4
ssg63
g2867
sg56
(lp2874
g49
(g58
g51
NtRp2875
(dp2876
g54
(dp2877
g62
I3
ssg63
Nsg56
(lp2878
g49
(g65
g51
NtRp2879
(dp2880
g54
(dp2881
sg63
g2875
sg56
(lp2882
g49
(g70
g51
NtRp2883
(dp2884
g54
(dp2885
g74
g75
ssg63
g2879
sg56
(lp2886
S'HTTP_ACCEPT'
p2887
asbag49
(g70
g51
NtRp2888
(dp2889
g54
(dp2890
g81
g82
ssg63
g2879
sg56
(lp2891
S':'
asbag49
(g70
g51
NtRp2892
(dp2893
g54
(dp2894
sg63
g2879
sg56
(lp2895
g49
(g50
g51
NtRp2896
(dp2897
g54
(dp2898
g62
I3
ssg63
g2892
sg56
(lp2899
g1429
asbasbasbag49
(g65
g51
NtRp2900
(dp2901
g54
(dp2902
sg63
g2875
sg56
(lp2903
g49
(g70
g51
NtRp2904
(dp2905
g54
(dp2906
g74
g75
ssg63
g2900
sg56
(lp2907
S'HTTP_ACCEPT_CHARSET'
p2908
asbag49
(g70
g51
NtRp2909
(dp2910
g54
(dp2911
g81
g82
ssg63
g2900
sg56
(lp2912
S':'
asbag49
(g70
g51
NtRp2913
(dp2914
g54
(dp2915
sg63
g2900
sg56
(lp2916
g49
(g50
g51
NtRp2917
(dp2918
g54
(dp2919
g62
I3
ssg63
g2913
sg56
(lp2920
g1451
asbasbasbag49
(g65
g51
NtRp2921
(dp2922
g54
(dp2923
sg63
g2875
sg56
(lp2924
g49
(g70
g51
NtRp2925
(dp2926
g54
(dp2927
g74
g75
ssg63
g2921
sg56
(lp2928
S'HTTP_ACCEPT_ENCODING'
p2929
asbag49
(g70
g51
NtRp2930
(dp2931
g54
(dp2932
g81
g82
ssg63
g2921
sg56
(lp2933
S':'
asbag49
(g70
g51
NtRp2934
(dp2935
g54
(dp2936
sg63
g2921
sg56
(lp2937
g49
(g50
g51
NtRp2938
(dp2939
g54
(dp2940
g62
I3
ssg63
g2934
sg56
(lp2941
g1473
asbasbasbag49
(g65
g51
NtRp2942
(dp2943
g54
(dp2944
sg63
g2875
sg56
(lp2945
g49
(g70
g51
NtRp2946
(dp2947
g54
(dp2948
g74
g75
ssg63
g2942
sg56
(lp2949
S'HTTP_ACCEPT_LANGUAGE'
p2950
asbag49
(g70
g51
NtRp2951
(dp2952
g54
(dp2953
g81
g82
ssg63
g2942
sg56
(lp2954
S':'
asbag49
(g70
g51
NtRp2955
(dp2956
g54
(dp2957
sg63
g2942
sg56
(lp2958
g49
(g50
g51
NtRp2959
(dp2960
g54
(dp2961
g62
I3
ssg63
g2955
sg56
(lp2962
g1495
asbasbasbag49
(g65
g51
NtRp2963
(dp2964
g54
(dp2965
sg63
g2875
sg56
(lp2966
g49
(g70
g51
NtRp2967
(dp2968
g54
(dp2969
g74
g75
ssg63
g2963
sg56
(lp2970
S'HTTP_CACHE_CONTROL'
p2971
asbag49
(g70
g51
NtRp2972
(dp2973
g54
(dp2974
g81
g82
ssg63
g2963
sg56
(lp2975
S':'
asbag49
(g70
g51
NtRp2976
(dp2977
g54
(dp2978
sg63
g2963
sg56
(lp2979
g49
(g50
g51
NtRp2980
(dp2981
g54
(dp2982
g62
I3
ssg63
g2976
sg56
(lp2983
g1517
asbasbasbag49
(g65
g51
NtRp2984
(dp2985
g54
(dp2986
sg63
g2875
sg56
(lp2987
g49
(g70
g51
NtRp2988
(dp2989
g54
(dp2990
g74
g75
ssg63
g2984
sg56
(lp2991
S'HTTP_CONNECTION'
p2992
asbag49
(g70
g51
NtRp2993
(dp2994
g54
(dp2995
g81
g82
ssg63
g2984
sg56
(lp2996
S':'
asbag49
(g70
g51
NtRp2997
(dp2998
g54
(dp2999
sg63
g2984
sg56
(lp3000
g49
(g50
g51
NtRp3001
(dp3002
g54
(dp3003
g62
I3
ssg63
g2997
sg56
(lp3004
g1539
asbasbasbag49
(g65
g51
NtRp3005
(dp3006
g54
(dp3007
sg63
g2875
sg56
(lp3008
g49
(g70
g51
NtRp3009
(dp3010
g54
(dp3011
g74
g75
ssg63
g3005
sg56
(lp3012
S'HTTP_COOKIE'
p3013
asbag49
(g70
g51
NtRp3014
(dp3015
g54
(dp3016
g81
g82
ssg63
g3005
sg56
(lp3017
S':'
asbag49
(g70
g51
NtRp3018
(dp3019
g54
(dp3020
sg63
g3005
sg56
(lp3021
g49
(g50
g51
NtRp3022
(dp3023
g54
(dp3024
g62
I3
ssg63
g3018
sg56
(lp3025
g1561
asbasbasbag49
(g65
g51
NtRp3026
(dp3027
g54
(dp3028
sg63
g2875
sg56
(lp3029
g49
(g70
g51
NtRp3030
(dp3031
g54
(dp3032
g74
g75
ssg63
g3026
sg56
(lp3033
S'HTTP_HOST'
p3034
asbag49
(g70
g51
NtRp3035
(dp3036
g54
(dp3037
g81
g82
ssg63
g3026
sg56
(lp3038
S':'
asbag49
(g70
g51
NtRp3039
(dp3040
g54
(dp3041
sg63
g3026
sg56
(lp3042
g49
(g50
g51
NtRp3043
(dp3044
g54
(dp3045
g62
I3
ssg63
g3039
sg56
(lp3046
g1583
asbasbasbag49
(g65
g51
NtRp3047
(dp3048
g54
(dp3049
sg63
g2875
sg56
(lp3050
g49
(g70
g51
NtRp3051
(dp3052
g54
(dp3053
g74
g75
ssg63
g3047
sg56
(lp3054
S'HTTP_REFERER'
p3055
asbag49
(g70
g51
NtRp3056
(dp3057
g54
(dp3058
g81
g82
ssg63
g3047
sg56
(lp3059
S':'
asbag49
(g70
g51
NtRp3060
(dp3061
g54
(dp3062
sg63
g3047
sg56
(lp3063
g49
(g50
g51
NtRp3064
(dp3065
g54
(dp3066
g62
I3
ssg63
g3060
sg56
(lp3067
g1605
asbasbasbag49
(g65
g51
NtRp3068
(dp3069
g54
(dp3070
sg63
g2875
sg56
(lp3071
g49
(g70
g51
NtRp3072
(dp3073
g54
(dp3074
g74
g75
ssg63
g3068
sg56
(lp3075
S'HTTP_USER_AGENT'
p3076
asbag49
(g70
g51
NtRp3077
(dp3078
g54
(dp3079
g81
g82
ssg63
g3068
sg56
(lp3080
S':'
asbag49
(g70
g51
NtRp3081
(dp3082
g54
(dp3083
sg63
g3068
sg56
(lp3084
g49
(g50
g51
NtRp3085
(dp3086
g54
(dp3087
g62
I3
ssg63
g3081
sg56
(lp3088
g1627
asbasbasbag49
(g65
g51
NtRp3089
(dp3090
g54
(dp3091
sg63
g2875
sg56
(lp3092
g49
(g70
g51
NtRp3093
(dp3094
g54
(dp3095
g74
g75
ssg63
g3089
sg56
(lp3096
S'PATH_INFO'
p3097
asbag49
(g70
g51
NtRp3098
(dp3099
g54
(dp3100
g81
g82
ssg63
g3089
sg56
(lp3101
S':'
asbag49
(g70
g51
NtRp3102
(dp3103
g54
(dp3104
sg63
g3089
sg56
(lp3105
g49
(g50
g51
NtRp3106
(dp3107
g54
(dp3108
g62
I3
ssg63
g3102
sg56
(lp3109
g1691
asbasbasbag49
(g65
g51
NtRp3110
(dp3111
g54
(dp3112
sg63
g2875
sg56
(lp3113
g49
(g70
g51
NtRp3114
(dp3115
g54
(dp3116
g74
g75
ssg63
g3110
sg56
(lp3117
S'QUERY_STRING'
p3118
asbag49
(g70
g51
NtRp3119
(dp3120
g54
(dp3121
g81
g82
ssg63
g3110
sg56
(lp3122
S':'
asbag49
(g70
g51
NtRp3123
(dp3124
g54
(dp3125
sg63
g3110
sg56
(lp3126
g49
(g50
g51
NtRp3127
(dp3128
g54
(dp3129
g62
I3
ssg63
g3123
sg56
(lp3130
S''
asbasbasbag49
(g65
g51
NtRp3131
(dp3132
g54
(dp3133
sg63
g2875
sg56
(lp3134
g49
(g70
g51
NtRp3135
(dp3136
g54
(dp3137
g74
g75
ssg63
g3131
sg56
(lp3138
S'REMOTE_ADDR'
p3139
asbag49
(g70
g51
NtRp3140
(dp3141
g54
(dp3142
g81
g82
ssg63
g3131
sg56
(lp3143
S':'
asbag49
(g70
g51
NtRp3144
(dp3145
g54
(dp3146
sg63
g3131
sg56
(lp3147
g49
(g50
g51
NtRp3148
(dp3149
g54
(dp3150
g62
I3
ssg63
g3144
sg56
(lp3151
g182
asbasbasbag49
(g65
g51
NtRp3152
(dp3153
g54
(dp3154
sg63
g2875
sg56
(lp3155
g49
(g70
g51
NtRp3156
(dp3157
g54
(dp3158
g74
g75
ssg63
g3152
sg56
(lp3159
S'REMOTE_PORT'
p3160
asbag49
(g70
g51
NtRp3161
(dp3162
g54
(dp3163
g81
g82
ssg63
g3152
sg56
(lp3164
S':'
asbag49
(g70
g51
NtRp3165
(dp3166
g54
(dp3167
sg63
g3152
sg56
(lp3168
g49
(g50
g51
NtRp3169
(dp3170
g54
(dp3171
g62
I3
ssg63
g3165
sg56
(lp3172
g1755
asbasbasbag49
(g65
g51
NtRp3173
(dp3174
g54
(dp3175
sg63
g2875
sg56
(lp3176
g49
(g70
g51
NtRp3177
(dp3178
g54
(dp3179
g74
g75
ssg63
g3173
sg56
(lp3180
S'REQUEST_METHOD'
p3181
asbag49
(g70
g51
NtRp3182
(dp3183
g54
(dp3184
g81
g82
ssg63
g3173
sg56
(lp3185
S':'
asbag49
(g70
g51
NtRp3186
(dp3187
g54
(dp3188
sg63
g3173
sg56
(lp3189
g49
(g50
g51
NtRp3190
(dp3191
g54
(dp3192
g62
I3
ssg63
g3186
sg56
(lp3193
g1777
asbasbasbag49
(g65
g51
NtRp3194
(dp3195
g54
(dp3196
sg63
g2875
sg56
(lp3197
g49
(g70
g51
NtRp3198
(dp3199
g54
(dp3200
g74
g75
ssg63
g3194
sg56
(lp3201
S'SCRIPT_NAME'
p3202
asbag49
(g70
g51
NtRp3203
(dp3204
g54
(dp3205
g81
g82
ssg63
g3194
sg56
(lp3206
S':'
asbag49
(g70
g51
NtRp3207
(dp3208
g54
(dp3209
sg63
g3194
sg56
(lp3210
g49
(g50
g51
NtRp3211
(dp3212
g54
(dp3213
g62
I3
ssg63
g3207
sg56
(lp3214
S''
asbasbasbag49
(g65
g51
NtRp3215
(dp3216
g54
(dp3217
sg63
g2875
sg56
(lp3218
g49
(g70
g51
NtRp3219
(dp3220
g54
(dp3221
g74
g75
ssg63
g3215
sg56
(lp3222
S'SERVER_NAME'
p3223
asbag49
(g70
g51
NtRp3224
(dp3225
g54
(dp3226
g81
g82
ssg63
g3215
sg56
(lp3227
S':'
asbag49
(g70
g51
NtRp3228
(dp3229
g54
(dp3230
sg63
g3215
sg56
(lp3231
g49
(g50
g51
NtRp3232
(dp3233
g54
(dp3234
g62
I3
ssg63
g3228
sg56
(lp3235
g1820
asbasbasbag49
(g65
g51
NtRp3236
(dp3237
g54
(dp3238
sg63
g2875
sg56
(lp3239
g49
(g70
g51
NtRp3240
(dp3241
g54
(dp3242
g74
g75
ssg63
g3236
sg56
(lp3243
S'SERVER_PORT'
p3244
asbag49
(g70
g51
NtRp3245
(dp3246
g54
(dp3247
g81
g82
ssg63
g3236
sg56
(lp3248
S':'
asbag49
(g70
g51
NtRp3249
(dp3250
g54
(dp3251
sg63
g3236
sg56
(lp3252
g49
(g50
g51
NtRp3253
(dp3254
g54
(dp3255
g62
I3
ssg63
g3249
sg56
(lp3256
g1842
asbasbasbag49
(g65
g51
NtRp3257
(dp3258
g54
(dp3259
sg63
g2875
sg56
(lp3260
g49
(g70
g51
NtRp3261
(dp3262
g54
(dp3263
g74
g75
ssg63
g3257
sg56
(lp3264
S'SERVER_PROTOCOL'
p3265
asbag49
(g70
g51
NtRp3266
(dp3267
g54
(dp3268
g81
g82
ssg63
g3257
sg56
(lp3269
S':'
asbag49
(g70
g51
NtRp3270
(dp3271
g54
(dp3272
sg63
g3257
sg56
(lp3273
g49
(g50
g51
NtRp3274
(dp3275
g54
(dp3276
g62
I3
ssg63
g3270
sg56
(lp3277
g1864
asbasbasbag49
(g65
g51
NtRp3278
(dp3279
g54
(dp3280
sg63
g2875
sg56
(lp3281
g49
(g70
g51
NtRp3282
(dp3283
g54
(dp3284
g74
g75
ssg63
g3278
sg56
(lp3285
S'SERVER_SOFTWARE'
p3286
asbag49
(g70
g51
NtRp3287
(dp3288
g54
(dp3289
g81
g82
ssg63
g3278
sg56
(lp3290
S':'
asbag49
(g70
g51
NtRp3291
(dp3292
g54
(dp3293
sg63
g3278
sg56
(lp3294
g49
(g50
g51
NtRp3295
(dp3296
g54
(dp3297
g62
I3
ssg63
g3291
sg56
(lp3298
g1886
asbasbasbag49
(g65
g51
NtRp3299
(dp3300
g54
(dp3301
sg63
g2875
sg56
(lp3302
g49
(g70
g51
NtRp3303
(dp3304
g54
(dp3305
g74
g75
ssg63
g3299
sg56
(lp3306
S'wsgi.errors'
p3307
asbag49
(g70
g51
NtRp3308
(dp3309
g54
(dp3310
g81
g82
ssg63
g3299
sg56
(lp3311
S':'
asbag49
(g70
g51
NtRp3312
(dp3313
g54
(dp3314
sg63
g3299
sg56
(lp3315
g49
(g50
g51
NtRp3316
(dp3317
g54
(dp3318
g62
I3
ssg63
g3312
sg56
(lp3319
S"<open file '<stderr>', mode 'w' at 0x016000B0>"
p3320
asbasbasbag49
(g65
g51
NtRp3321
(dp3322
g54
(dp3323
sg63
g2875
sg56
(lp3324
g49
(g70
g51
NtRp3325
(dp3326
g54
(dp3327
g74
g75
ssg63
g3321
sg56
(lp3328
S'wsgi.file_wrapper'
p3329
asbag49
(g70
g51
NtRp3330
(dp3331
g54
(dp3332
g81
g82
ssg63
g3321
sg56
(lp3333
S':'
asbag49
(g70
g51
NtRp3334
(dp3335
g54
(dp3336
sg63
g3321
sg56
(lp3337
g49
(g50
g51
NtRp3338
(dp3339
g54
(dp3340
g62
I3
ssg63
g3334
sg56
(lp3341
S'<class wsgiref.util.FileWrapper at 0x025361B0>'
p3342
asbasbasbag49
(g65
g51
NtRp3343
(dp3344
g54
(dp3345
sg63
g2875
sg56
(lp3346
g49
(g70
g51
NtRp3347
(dp3348
g54
(dp3349
g74
g75
ssg63
g3343
sg56
(lp3350
S'wsgi.input'
p3351
asbag49
(g70
g51
NtRp3352
(dp3353
g54
(dp3354
g81
g82
ssg63
g3343
sg56
(lp3355
S':'
asbag49
(g70
g51
NtRp3356
(dp3357
g54
(dp3358
sg63
g3343
sg56
(lp3359
g49
(g50
g51
NtRp3360
(dp3361
g54
(dp3362
g62
I3
ssg63
g3356
sg56
(lp3363
S'<cStringIO.StringO object at 0x065EB120>'
p3364
asbasbasbag49
(g65
g51
NtRp3365
(dp3366
g54
(dp3367
sg63
g2875
sg56
(lp3368
g49
(g70
g51
NtRp3369
(dp3370
g54
(dp3371
g74
g75
ssg63
g3365
sg56
(lp3372
S'wsgi.multiprocess'
p3373
asbag49
(g70
g51
NtRp3374
(dp3375
g54
(dp3376
g81
g82
ssg63
g3365
sg56
(lp3377
S':'
asbag49
(g70
g51
NtRp3378
(dp3379
g54
(dp3380
sg63
g3365
sg56
(lp3381
g49
(g50
g51
NtRp3382
(dp3383
g54
(dp3384
g62
I3
ssg63
g3378
sg56
(lp3385
g92
asbasbasbag49
(g65
g51
NtRp3386
(dp3387
g54
(dp3388
sg63
g2875
sg56
(lp3389
g49
(g70
g51
NtRp3390
(dp3391
g54
(dp3392
g74
g75
ssg63
g3386
sg56
(lp3393
S'wsgi.multithread'
p3394
asbag49
(g70
g51
NtRp3395
(dp3396
g54
(dp3397
g81
g82
ssg63
g3386
sg56
(lp3398
S':'
asbag49
(g70
g51
NtRp3399
(dp3400
g54
(dp3401
sg63
g3386
sg56
(lp3402
g49
(g50
g51
NtRp3403
(dp3404
g54
(dp3405
g62
I3
ssg63
g3399
sg56
(lp3406
g2126
asbasbasbag49
(g65
g51
NtRp3407
(dp3408
g54
(dp3409
sg63
g2875
sg56
(lp3410
g49
(g70
g51
NtRp3411
(dp3412
g54
(dp3413
g74
g75
ssg63
g3407
sg56
(lp3414
S'wsgi.run_once'
p3415
asbag49
(g70
g51
NtRp3416
(dp3417
g54
(dp3418
g81
g82
ssg63
g3407
sg56
(lp3419
S':'
asbag49
(g70
g51
NtRp3420
(dp3421
g54
(dp3422
sg63
g3407
sg56
(lp3423
g49
(g50
g51
NtRp3424
(dp3425
g54
(dp3426
g62
I3
ssg63
g3420
sg56
(lp3427
g92
asbasbasbag49
(g65
g51
NtRp3428
(dp3429
g54
(dp3430
sg63
g2875
sg56
(lp3431
g49
(g70
g51
NtRp3432
(dp3433
g54
(dp3434
g74
g75
ssg63
g3428
sg56
(lp3435
S'wsgi.url_scheme'
p3436
asbag49
(g70
g51
NtRp3437
(dp3438
g54
(dp3439
g81
g82
ssg63
g3428
sg56
(lp3440
S':'
asbag49
(g70
g51
NtRp3441
(dp3442
g54
(dp3443
sg63
g3428
sg56
(lp3444
g49
(g50
g51
NtRp3445
(dp3446
g54
(dp3447
g62
I3
ssg63
g3441
sg56
(lp3448
g2169
asbasbasbag49
(g65
g51
NtRp3449
(dp3450
g54
(dp3451
sg63
g2875
sg56
(lp3452
g49
(g70
g51
NtRp3453
(dp3454
g54
(dp3455
g74
g75
ssg63
g3449
sg56
(lp3456
S'wsgi.version'
p3457
asbag49
(g70
g51
NtRp3458
(dp3459
g54
(dp3460
g81
g82
ssg63
g3449
sg56
(lp3461
S':'
asbag49
(g70
g51
NtRp3462
(dp3463
g54
(dp3464
sg63
g3449
sg56
(lp3465
g49
(g50
g51
NtRp3466
(dp3467
g54
(dp3468
g62
I3
ssg63
g3462
sg56
(lp3469
S'1'
asbasbasbasbasbasbasbasbasbasbasbasbasbsS'frames'
p3470
(lp3471
(dp3472
S'file'
p3473
S'C:\\Users\\omkara\\Desktop\\web2py\\gluon\\restricted.py'
p3474
sS'dump'
p3475
(dp3476
sS'lnum'
p3477
I205
sS'lines'
p3478
(dp3479
sS'call'
p3480
S'(code="# coding: utf8\\ndb = DAL(\'sqlite://storage.sqlite...\', \'Handyman Services\']))\\n)\\nauth.define_tables()\\n", environment={\'A\': <class \'gluon.html.A\'>, \'Auth\': <class \'gluon.tools.Auth\'>, \'B\': <class \'gluon.html.B\'>, \'BEAUTIFY\': <class \'gluon.html.BEAUTIFY\'>, \'BODY\': <class \'gluon.html.BODY\'>, \'BR\': <class \'gluon.html.BR\'>, \'BUTTON\': <class \'gluon.html.BUTTON\'>, \'CAT\': <class \'gluon.html.CAT\'>, \'CENTER\': <class \'gluon.html.CENTER\'>, \'CLEANUP\': <class \'gluon.validators.CLEANUP\'>, ...}, layer=r\'C:\\Users\\omkara\\Desktop\\web2py\\applications\\SlugBarter\\models\\registerForm.py\')'
p3481
sS'func'
p3482
S'restricted'
p3483
sa(dp3484
g3473
S'C:\\Users\\omkara\\Desktop\\web2py\\applications\\SlugBarter\\models\\registerForm.py'
p3485
sg3475
(dp3486
sg3477
I13
sg3478
(dp3487
I8
S"  Field('dateCreated', 'datetime', default=datetime.utcnow(), readable=False, writable =False )"
p3488
sI9
S'  ]'
p3489
sI10
S"auth.settings.login_next=URL('mypage')"
p3490
sI11
S''
sI12
S"db.define_table('listing',"
p3491
sI13
S"    Field('user', db.auth_user(), default = auth.user_id),"
p3492
sI14
S"    Field('title','string', label = 'Title', requires=IS_NOT_EMPTY(error_message='Must not be empty')),"
p3493
sI15
S"    Field('description','text', label = 'Description', requires = IS_NOT_EMPTY(error_message='Must not be empty')),"
p3494
sI16
S"    Field('services',label='Services', requires = IS_IN_SET(['Repair Services', 'Entertainment','Books','VideoGames', 'Handyman Services']))"
p3495
sI17
S')'
ssg3480
S'()'
p3496
sg3482
S'<module>'
p3497
sa(dp3498
g3473
S'C:\\Users\\omkara\\Desktop\\web2py\\gluon\\dal.py'
p3499
sg3475
(dp3500
sg3477
I6343
sg3478
(dp3501
sg3480
S"(self=<DAL {'_migrate_enabled': True, '_lastsql': '', ...'_uri_hash': 'c8b669d15150d7109e5f7ab36744a5b7'}>, key='auth_user')"
p3502
sg3482
S'__getattr__'
p3503
sa(dp3504
g3473
S'C:\\Users\\omkara\\Desktop\\web2py\\gluon\\dal.py'
p3505
sg3475
(dp3506
sg3477
I6337
sg3478
(dp3507
sg3480
S"(self=<DAL {'_migrate_enabled': True, '_lastsql': '', ...'_uri_hash': 'c8b669d15150d7109e5f7ab36744a5b7'}>, key='auth_user')"
p3508
sg3482
g20
sasS'pyver'
p3509
S'Python 2.5.4: C:\\Users\\omkara\\Desktop\\web2py\\web2py.exe'
p3510
sS'session'
p3511
g49
(g50
g51
NtRp3512
(dp3513
g54
(dp3514
sg56
(lp3515
g49
(g58
g51
NtRp3516
(dp3517
g54
(dp3518
g62
I5
ssg63
Nsg56
(lp3519
g49
(g65
g51
NtRp3520
(dp3521
g54
(dp3522
sg63
g3516
sg56
(lp3523
g49
(g70
g51
NtRp3524
(dp3525
g54
(dp3526
g74
g75
ssg63
g3520
sg56
(lp3527
S'last_query'
p3528
asbag49
(g70
g51
NtRp3529
(dp3530
g54
(dp3531
g81
g82
ssg63
g3520
sg56
(lp3532
S':'
asbag49
(g70
g51
NtRp3533
(dp3534
g54
(dp3535
sg63
g3520
sg56
(lp3536
g49
(g50
g51
NtRp3537
(dp3538
g54
(dp3539
g62
I5
ssg63
g3533
sg56
(lp3540
S'db.auth_user.id>0'
p3541
asbasbasbasbasbsS'etype'
p3542
S"<type 'exceptions.KeyError'>"
p3543
sS'date'
p3544
S'Sun Nov 11 18:23:51 2012'
p3545
sS'response'
p3546
g49
(g50
g51
NtRp3547
(dp3548
g54
(dp3549
sg56
(lp3550
g49
(g58
g51
NtRp3551
(dp3552
g54
(dp3553
g62
I5
ssg63
Nsg56
(lp3554
g49
(g65
g51
NtRp3555
(dp3556
g54
(dp3557
sg63
g3551
sg56
(lp3558
g49
(g70
g51
NtRp3559
(dp3560
g54
(dp3561
g74
g75
ssg63
g3555
sg56
(lp3562
g147
asbag49
(g70
g51
NtRp3563
(dp3564
g54
(dp3565
g81
g82
ssg63
g3555
sg56
(lp3566
S':'
asbag49
(g70
g51
NtRp3567
(dp3568
g54
(dp3569
sg63
g3555
sg56
(lp3570
g49
(g50
g51
NtRp3571
(dp3572
g54
(dp3573
g62
I5
ssg63
g3567
sg56
(lp3574
S'<cStringIO.StringO object at 0x061EC980>'
p3575
asbasbasbag49
(g65
g51
NtRp3576
(dp3577
g54
(dp3578
sg63
g3551
sg56
(lp3579
g49
(g70
g51
NtRp3580
(dp3581
g54
(dp3582
g74
g75
ssg63
g3576
sg56
(lp3583
g213
asbag49
(g70
g51
NtRp3584
(dp3585
g54
(dp3586
g81
g82
ssg63
g3576
sg56
(lp3587
S':'
asbag49
(g70
g51
NtRp3588
(dp3589
g54
(dp3590
sg63
g3576
sg56
(lp3591
g49
(g50
g51
NtRp3592
(dp3593
g54
(dp3594
g62
I5
ssg63
g3588
sg56
(lp3595
g49
(g58
g51
NtRp3596
(dp3597
g54
(dp3598
g62
I4
ssg63
Nsg56
(lp3599
g49
(g65
g51
NtRp3600
(dp3601
g54
(dp3602
sg63
g3596
sg56
(lp3603
g49
(g70
g51
NtRp3604
(dp3605
g54
(dp3606
g74
g75
ssg63
g3600
sg56
(lp3607
S'session_id_slugbarter'
p3608
asbag49
(g70
g51
NtRp3609
(dp3610
g54
(dp3611
g81
g82
ssg63
g3600
sg56
(lp3612
S':'
asbag49
(g70
g51
NtRp3613
(dp3614
g54
(dp3615
sg63
g3600
sg56
(lp3616
g49
(g50
g51
NtRp3617
(dp3618
g54
(dp3619
g62
I4
ssg63
g3613
sg56
(lp3620
g49
(g58
g51
NtRp3621
(dp3622
g54
(dp3623
g62
I3
ssg63
Nsg56
(lp3624
g49
(g65
g51
NtRp3625
(dp3626
g54
(dp3627
sg63
g3621
sg56
(lp3628
g49
(g70
g51
NtRp3629
(dp3630
g54
(dp3631
g74
g75
ssg63
g3625
sg56
(lp3632
g263
asbag49
(g70
g51
NtRp3633
(dp3634
g54
(dp3635
g81
g82
ssg63
g3625
sg56
(lp3636
S':'
asbag49
(g70
g51
NtRp3637
(dp3638
g54
(dp3639
sg63
g3625
sg56
(lp3640
g49
(g50
g51
NtRp3641
(dp3642
g54
(dp3643
g62
I3
ssg63
g3637
sg56
(lp3644
S''
asbasbasbag49
(g65
g51
NtRp3645
(dp3646
g54
(dp3647
sg63
g3621
sg56
(lp3648
g49
(g70
g51
NtRp3649
(dp3650
g54
(dp3651
g74
g75
ssg63
g3645
sg56
(lp3652
g284
asbag49
(g70
g51
NtRp3653
(dp3654
g54
(dp3655
g81
g82
ssg63
g3645
sg56
(lp3656
S':'
asbag49
(g70
g51
NtRp3657
(dp3658
g54
(dp3659
sg63
g3645
sg56
(lp3660
g49
(g50
g51
NtRp3661
(dp3662
g54
(dp3663
g62
I3
ssg63
g3657
sg56
(lp3664
S''
asbasbasbag49
(g65
g51
NtRp3665
(dp3666
g54
(dp3667
sg63
g3621
sg56
(lp3668
g49
(g70
g51
NtRp3669
(dp3670
g54
(dp3671
g74
g75
ssg63
g3665
sg56
(lp3672
g305
asbag49
(g70
g51
NtRp3673
(dp3674
g54
(dp3675
g81
g82
ssg63
g3665
sg56
(lp3676
S':'
asbag49
(g70
g51
NtRp3677
(dp3678
g54
(dp3679
sg63
g3665
sg56
(lp3680
g49
(g50
g51
NtRp3681
(dp3682
g54
(dp3683
g62
I3
ssg63
g3677
sg56
(lp3684
S''
asbasbasbag49
(g65
g51
NtRp3685
(dp3686
g54
(dp3687
sg63
g3621
sg56
(lp3688
g49
(g70
g51
NtRp3689
(dp3690
g54
(dp3691
g74
g75
ssg63
g3685
sg56
(lp3692
g326
asbag49
(g70
g51
NtRp3693
(dp3694
g54
(dp3695
g81
g82
ssg63
g3685
sg56
(lp3696
S':'
asbag49
(g70
g51
NtRp3697
(dp3698
g54
(dp3699
sg63
g3685
sg56
(lp3700
g49
(g50
g51
NtRp3701
(dp3702
g54
(dp3703
g62
I3
ssg63
g3697
sg56
(lp3704
S''
asbasbasbag49
(g65
g51
NtRp3705
(dp3706
g54
(dp3707
sg63
g3621
sg56
(lp3708
g49
(g70
g51
NtRp3709
(dp3710
g54
(dp3711
g74
g75
ssg63
g3705
sg56
(lp3712
g347
asbag49
(g70
g51
NtRp3713
(dp3714
g54
(dp3715
g81
g82
ssg63
g3705
sg56
(lp3716
S':'
asbag49
(g70
g51
NtRp3717
(dp3718
g54
(dp3719
sg63
g3705
sg56
(lp3720
g49
(g50
g51
NtRp3721
(dp3722
g54
(dp3723
g62
I3
ssg63
g3717
sg56
(lp3724
S'/'
asbasbasbag49
(g65
g51
NtRp3725
(dp3726
g54
(dp3727
sg63
g3621
sg56
(lp3728
g49
(g70
g51
NtRp3729
(dp3730
g54
(dp3731
g74
g75
ssg63
g3725
sg56
(lp3732
g368
asbag49
(g70
g51
NtRp3733
(dp3734
g54
(dp3735
g81
g82
ssg63
g3725
sg56
(lp3736
S':'
asbag49
(g70
g51
NtRp3737
(dp3738
g54
(dp3739
sg63
g3725
sg56
(lp3740
g49
(g50
g51
NtRp3741
(dp3742
g54
(dp3743
g62
I3
ssg63
g3737
sg56
(lp3744
S''
asbasbasbag49
(g65
g51
NtRp3745
(dp3746
g54
(dp3747
sg63
g3621
sg56
(lp3748
g49
(g70
g51
NtRp3749
(dp3750
g54
(dp3751
g74
g75
ssg63
g3745
sg56
(lp3752
g389
asbag49
(g70
g51
NtRp3753
(dp3754
g54
(dp3755
g81
g82
ssg63
g3745
sg56
(lp3756
S':'
asbag49
(g70
g51
NtRp3757
(dp3758
g54
(dp3759
sg63
g3745
sg56
(lp3760
g49
(g50
g51
NtRp3761
(dp3762
g54
(dp3763
g62
I3
ssg63
g3757
sg56
(lp3764
S''
asbasbasbasbasbasbasbasbasbasbasbag49
(g65
g51
NtRp3765
(dp3766
g54
(dp3767
sg63
g3551
sg56
(lp3768
g49
(g70
g51
NtRp3769
(dp3770
g54
(dp3771
g74
g75
ssg63
g3765
sg56
(lp3772
S'delimiters'
p3773
asbag49
(g70
g51
NtRp3774
(dp3775
g54
(dp3776
g81
g82
ssg63
g3765
sg56
(lp3777
S':'
asbag49
(g70
g51
NtRp3778
(dp3779
g54
(dp3780
sg63
g3765
sg56
(lp3781
g49
(g50
g51
NtRp3782
(dp3783
g54
(dp3784
g62
I5
ssg63
g3778
sg56
(lp3785
g49
(g58
g51
NtRp3786
(dp3787
g54
(dp3788
g62
I4
ssg63
Nsg56
(lp3789
g49
(g65
g51
NtRp3790
(dp3791
g54
(dp3792
sg63
g3786
sg56
(lp3793
g49
(g70
g51
NtRp3794
(dp3795
g54
(dp3796
sg63
g3790
sg56
(lp3797
g49
(g50
g51
NtRp3798
(dp3799
g54
(dp3800
g62
I4
ssg63
g3794
sg56
(lp3801
S'{{'
p3802
asbasbasbag49
(g65
g51
NtRp3803
(dp3804
g54
(dp3805
sg63
g3786
sg56
(lp3806
g49
(g70
g51
NtRp3807
(dp3808
g54
(dp3809
sg63
g3803
sg56
(lp3810
g49
(g50
g51
NtRp3811
(dp3812
g54
(dp3813
g62
I4
ssg63
g3807
sg56
(lp3814
S'}}'
p3815
asbasbasbasbasbasbasbag49
(g65
g51
NtRp3816
(dp3817
g54
(dp3818
sg63
g3551
sg56
(lp3819
g49
(g70
g51
NtRp3820
(dp3821
g54
(dp3822
g74
g75
ssg63
g3816
sg56
(lp3823
S'files'
p3824
asbag49
(g70
g51
NtRp3825
(dp3826
g54
(dp3827
g81
g82
ssg63
g3816
sg56
(lp3828
S':'
asbag49
(g70
g51
NtRp3829
(dp3830
g54
(dp3831
sg63
g3816
sg56
(lp3832
g49
(g50
g51
NtRp3833
(dp3834
g54
(dp3835
g62
I5
ssg63
g3829
sg56
(lp3836
g49
(g58
g51
NtRp3837
(dp3838
g54
(dp3839
g62
I4
ssg63
Nsg56
(lp3840
sbasbasbasbag49
(g65
g51
NtRp3841
(dp3842
g54
(dp3843
sg63
g3551
sg56
(lp3844
g49
(g70
g51
NtRp3845
(dp3846
g54
(dp3847
g74
g75
ssg63
g3841
sg56
(lp3848
S'flash'
p3849
asbag49
(g70
g51
NtRp3850
(dp3851
g54
(dp3852
g81
g82
ssg63
g3841
sg56
(lp3853
S':'
asbag49
(g70
g51
NtRp3854
(dp3855
g54
(dp3856
sg63
g3841
sg56
(lp3857
g49
(g50
g51
NtRp3858
(dp3859
g54
(dp3860
g62
I5
ssg63
g3854
sg56
(lp3861
S''
asbasbasbag49
(g65
g51
NtRp3862
(dp3863
g54
(dp3864
sg63
g3551
sg56
(lp3865
g49
(g70
g51
NtRp3866
(dp3867
g54
(dp3868
g74
g75
ssg63
g3862
sg56
(lp3869
S'generic_patterns'
p3870
asbag49
(g70
g51
NtRp3871
(dp3872
g54
(dp3873
g81
g82
ssg63
g3862
sg56
(lp3874
S':'
asbag49
(g70
g51
NtRp3875
(dp3876
g54
(dp3877
sg63
g3862
sg56
(lp3878
g49
(g50
g51
NtRp3879
(dp3880
g54
(dp3881
g62
I5
ssg63
g3875
sg56
(lp3882
g49
(g58
g51
NtRp3883
(dp3884
g54
(dp3885
g62
I4
ssg63
Nsg56
(lp3886
g49
(g65
g51
NtRp3887
(dp3888
g54
(dp3889
sg63
g3883
sg56
(lp3890
g49
(g70
g51
NtRp3891
(dp3892
g54
(dp3893
sg63
g3887
sg56
(lp3894
g49
(g50
g51
NtRp3895
(dp3896
g54
(dp3897
g62
I4
ssg63
g3891
sg56
(lp3898
S'*'
asbasbasbasbasbasbasbag49
(g65
g51
NtRp3899
(dp3900
g54
(dp3901
sg63
g3551
sg56
(lp3902
g49
(g70
g51
NtRp3903
(dp3904
g54
(dp3905
g74
g75
ssg63
g3899
sg56
(lp3906
S'headers'
p3907
asbag49
(g70
g51
NtRp3908
(dp3909
g54
(dp3910
g81
g82
ssg63
g3899
sg56
(lp3911
S':'
asbag49
(g70
g51
NtRp3912
(dp3913
g54
(dp3914
sg63
g3899
sg56
(lp3915
g49
(g50
g51
NtRp3916
(dp3917
g54
(dp3918
g62
I5
ssg63
g3912
sg56
(lp3919
g49
(g58
g51
NtRp3920
(dp3921
g54
(dp3922
g62
I4
ssg63
Nsg56
(lp3923
g49
(g65
g51
NtRp3924
(dp3925
g54
(dp3926
sg63
g3920
sg56
(lp3927
g49
(g70
g51
NtRp3928
(dp3929
g54
(dp3930
g74
g75
ssg63
g3924
sg56
(lp3931
S'Cache-Control'
p3932
asbag49
(g70
g51
NtRp3933
(dp3934
g54
(dp3935
g81
g82
ssg63
g3924
sg56
(lp3936
S':'
asbag49
(g70
g51
NtRp3937
(dp3938
g54
(dp3939
sg63
g3924
sg56
(lp3940
g49
(g50
g51
NtRp3941
(dp3942
g54
(dp3943
g62
I4
ssg63
g3937
sg56
(lp3944
S'no-store, no-cache, must-revalidate, post-check=0, pre-check=0'
p3945
asbasbasbag49
(g65
g51
NtRp3946
(dp3947
g54
(dp3948
sg63
g3920
sg56
(lp3949
g49
(g70
g51
NtRp3950
(dp3951
g54
(dp3952
g74
g75
ssg63
g3946
sg56
(lp3953
S'Content-Type'
p3954
asbag49
(g70
g51
NtRp3955
(dp3956
g54
(dp3957
g81
g82
ssg63
g3946
sg56
(lp3958
S':'
asbag49
(g70
g51
NtRp3959
(dp3960
g54
(dp3961
sg63
g3946
sg56
(lp3962
g49
(g50
g51
NtRp3963
(dp3964
g54
(dp3965
g62
I4
ssg63
g3959
sg56
(lp3966
S'text/html; charset=utf-8'
p3967
asbasbasbag49
(g65
g51
NtRp3968
(dp3969
g54
(dp3970
sg63
g3920
sg56
(lp3971
g49
(g70
g51
NtRp3972
(dp3973
g54
(dp3974
g74
g75
ssg63
g3968
sg56
(lp3975
S'Expires'
p3976
asbag49
(g70
g51
NtRp3977
(dp3978
g54
(dp3979
g81
g82
ssg63
g3968
sg56
(lp3980
S':'
asbag49
(g70
g51
NtRp3981
(dp3982
g54
(dp3983
sg63
g3968
sg56
(lp3984
g49
(g50
g51
NtRp3985
(dp3986
g54
(dp3987
g62
I4
ssg63
g3981
sg56
(lp3988
S'Mon, 12 Nov 2012 02:23:51 GMT'
p3989
asbasbasbag49
(g65
g51
NtRp3990
(dp3991
g54
(dp3992
sg63
g3920
sg56
(lp3993
g49
(g70
g51
NtRp3994
(dp3995
g54
(dp3996
g74
g75
ssg63
g3990
sg56
(lp3997
S'Pragma'
p3998
asbag49
(g70
g51
NtRp3999
(dp4000
g54
(dp4001
g81
g82
ssg63
g3990
sg56
(lp4002
S':'
asbag49
(g70
g51
NtRp4003
(dp4004
g54
(dp4005
sg63
g3990
sg56
(lp4006
g49
(g50
g51
NtRp4007
(dp4008
g54
(dp4009
g62
I4
ssg63
g4003
sg56
(lp4010
S'no-cache'
p4011
asbasbasbag49
(g65
g51
NtRp4012
(dp4013
g54
(dp4014
sg63
g3920
sg56
(lp4015
g49
(g70
g51
NtRp4016
(dp4017
g54
(dp4018
g74
g75
ssg63
g4012
sg56
(lp4019
S'X-Powered-By'
p4020
asbag49
(g70
g51
NtRp4021
(dp4022
g54
(dp4023
g81
g82
ssg63
g4012
sg56
(lp4024
S':'
asbag49
(g70
g51
NtRp4025
(dp4026
g54
(dp4027
sg63
g4012
sg56
(lp4028
g49
(g50
g51
NtRp4029
(dp4030
g54
(dp4031
g62
I4
ssg63
g4025
sg56
(lp4032
S'web2py'
p4033
asbasbasbasbasbasbasbag49
(g65
g51
NtRp4034
(dp4035
g54
(dp4036
sg63
g3551
sg56
(lp4037
g49
(g70
g51
NtRp4038
(dp4039
g54
(dp4040
g74
g75
ssg63
g4034
sg56
(lp4041
S'menu'
p4042
asbag49
(g70
g51
NtRp4043
(dp4044
g54
(dp4045
g81
g82
ssg63
g4034
sg56
(lp4046
S':'
asbag49
(g70
g51
NtRp4047
(dp4048
g54
(dp4049
sg63
g4034
sg56
(lp4050
g49
(g50
g51
NtRp4051
(dp4052
g54
(dp4053
g62
I5
ssg63
g4047
sg56
(lp4054
g49
(g58
g51
NtRp4055
(dp4056
g54
(dp4057
g62
I4
ssg63
Nsg56
(lp4058
g49
(g65
g51
NtRp4059
(dp4060
g54
(dp4061
sg63
g4055
sg56
(lp4062
g49
(g70
g51
NtRp4063
(dp4064
g54
(dp4065
sg63
g4059
sg56
(lp4066
g49
(g50
g51
NtRp4067
(dp4068
g54
(dp4069
g62
I4
ssg63
g4063
sg56
(lp4070
g49
(g58
g51
NtRp4071
(dp4072
g54
(dp4073
g62
I3
ssg63
Nsg56
(lp4074
g49
(g65
g51
NtRp4075
(dp4076
g54
(dp4077
sg63
g4071
sg56
(lp4078
g49
(g70
g51
NtRp4079
(dp4080
g54
(dp4081
sg63
g4075
sg56
(lp4082
g49
(g50
g51
NtRp4083
(dp4084
g54
(dp4085
g62
I3
ssg63
g4079
sg56
(lp4086
cgluon.languages
lazyT_unpickle
p4087
(S's\x04\x00\x00\x00Home'
tRp4088
asbasbasbag49
(g65
g51
NtRp4089
(dp4090
g54
(dp4091
sg63
g4071
sg56
(lp4092
g49
(g70
g51
NtRp4093
(dp4094
g54
(dp4095
sg63
g4089
sg56
(lp4096
g49
(g50
g51
NtRp4097
(dp4098
g54
(dp4099
g62
I3
ssg63
g4093
sg56
(lp4100
g92
asbasbasbag49
(g65
g51
NtRp4101
(dp4102
g54
(dp4103
sg63
g4071
sg56
(lp4104
g49
(g70
g51
NtRp4105
(dp4106
g54
(dp4107
sg63
g4101
sg56
(lp4108
g49
(g50
g51
NtRp4109
(dp4110
g54
(dp4111
g62
I3
ssg63
g4105
sg56
(lp4112
S'/SlugBarter/default/index'
p4113
asbasbasbag49
(g65
g51
NtRp4114
(dp4115
g54
(dp4116
sg63
g4071
sg56
(lp4117
g49
(g70
g51
NtRp4118
(dp4119
g54
(dp4120
sg63
g4114
sg56
(lp4121
g49
(g50
g51
NtRp4122
(dp4123
g54
(dp4124
g62
I3
ssg63
g4118
sg56
(lp4125
g49
(g58
g51
NtRp4126
(dp4127
g54
(dp4128
g62
I2
ssg63
Nsg56
(lp4129
sbasbasbasbasbasbasbasbag49
(g65
g51
NtRp4130
(dp4131
g54
(dp4132
sg63
g4055
sg56
(lp4133
g49
(g70
g51
NtRp4134
(dp4135
g54
(dp4136
sg63
g4130
sg56
(lp4137
g49
(g50
g51
NtRp4138
(dp4139
g54
(dp4140
g62
I4
ssg63
g4134
sg56
(lp4141
g49
(g58
g51
NtRp4142
(dp4143
g54
(dp4144
g62
I3
ssg63
Nsg56
(lp4145
g49
(g65
g51
NtRp4146
(dp4147
g54
(dp4148
sg63
g4142
sg56
(lp4149
g49
(g70
g51
NtRp4150
(dp4151
g54
(dp4152
sg63
g4146
sg56
(lp4153
g49
(g50
g51
NtRp4154
(dp4155
g54
(dp4156
g62
I3
ssg63
g4150
sg56
(lp4157
g49
(cgluon.html
SPAN
p4158
g51
NtRp4159
(dp4160
g54
(dp4161
g74
S'color:yellow'
p4162
ssg63
Nsg56
(lp4163
g4033
asbasbasbasbag49
(g65
g51
NtRp4164
(dp4165
g54
(dp4166
sg63
g4142
sg56
(lp4167
g49
(g70
g51
NtRp4168
(dp4169
g54
(dp4170
sg63
g4164
sg56
(lp4171
g49
(g50
g51
NtRp4172
(dp4173
g54
(dp4174
g62
I3
ssg63
g4168
sg56
(lp4175
g92
asbasbasbag49
(g65
g51
NtRp4176
(dp4177
g54
(dp4178
sg63
g4142
sg56
(lp4179
g49
(g70
g51
NtRp4180
(dp4181
g54
(dp4182
sg63
g4176
sg56
(lp4183
g49
(g50
g51
NtRp4184
(dp4185
g54
(dp4186
g62
I3
ssg63
g4180
sg56
(lp4187
S'None'
p4188
asbasbasbag49
(g65
g51
NtRp4189
(dp4190
g54
(dp4191
sg63
g4142
sg56
(lp4192
g49
(g70
g51
NtRp4193
(dp4194
g54
(dp4195
sg63
g4189
sg56
(lp4196
g49
(g50
g51
NtRp4197
(dp4198
g54
(dp4199
g62
I3
ssg63
g4193
sg56
(lp4200
g49
(g58
g51
NtRp4201
(dp4202
g54
(dp4203
g62
I2
ssg63
Nsg56
(lp4204
g49
(g65
g51
NtRp4205
(dp4206
g54
(dp4207
sg63
g4201
sg56
(lp4208
g49
(g70
g51
NtRp4209
(dp4210
g54
(dp4211
sg63
g4205
sg56
(lp4212
g49
(g50
g51
NtRp4213
(dp4214
g54
(dp4215
g62
I2
ssg63
g4209
sg56
(lp4216
g49
(g58
g51
NtRp4217
(dp4218
g54
(dp4219
g62
I1
ssg63
Nsg56
(lp4220
g49
(g65
g51
NtRp4221
(dp4222
g54
(dp4223
sg63
g4217
sg56
(lp4224
g49
(g70
g51
NtRp4225
(dp4226
g54
(dp4227
sg63
g4221
sg56
(lp4228
g49
(g50
g51
NtRp4229
(dp4230
g54
(dp4231
g62
I1
ssg63
g4225
sg56
(lp4232
g4087
(S's\x08\x00\x00\x00My Sites'
tRp4233
asbasbasbag49
(g65
g51
NtRp4234
(dp4235
g54
(dp4236
sg63
g4217
sg56
(lp4237
g49
(g70
g51
NtRp4238
(dp4239
g54
(dp4240
sg63
g4234
sg56
(lp4241
g49
(g50
g51
NtRp4242
(dp4243
g54
(dp4244
g62
I1
ssg63
g4238
sg56
(lp4245
I00
asbasbasbag49
(g65
g51
NtRp4246
(dp4247
g54
(dp4248
sg63
g4217
sg56
(lp4249
g49
(g70
g51
NtRp4250
(dp4251
g54
(dp4252
sg63
g4246
sg56
(lp4253
g49
(g50
g51
NtRp4254
(dp4255
g54
(dp4256
g62
I1
ssg63
g4250
sg56
(lp4257
S'/admin/default/site'
p4258
asbasbasbasbasbasbasbag49
(g65
g51
NtRp4259
(dp4260
g54
(dp4261
sg63
g4201
sg56
(lp4262
g49
(g70
g51
NtRp4263
(dp4264
g54
(dp4265
sg63
g4259
sg56
(lp4266
g49
(g50
g51
NtRp4267
(dp4268
g54
(dp4269
g62
I2
ssg63
g4263
sg56
(lp4270
g49
(g58
g51
NtRp4271
(dp4272
g54
(dp4273
g62
I1
ssg63
Nsg56
(lp4274
g49
(g65
g51
NtRp4275
(dp4276
g54
(dp4277
sg63
g4271
sg56
(lp4278
g49
(g70
g51
NtRp4279
(dp4280
g54
(dp4281
sg63
g4275
sg56
(lp4282
g49
(g50
g51
NtRp4283
(dp4284
g54
(dp4285
g62
I1
ssg63
g4279
sg56
(lp4286
g4087
(S's\x08\x00\x00\x00This App'
tRp4287
asbasbasbag49
(g65
g51
NtRp4288
(dp4289
g54
(dp4290
sg63
g4271
sg56
(lp4291
g49
(g70
g51
NtRp4292
(dp4293
g54
(dp4294
sg63
g4288
sg56
(lp4295
g49
(g50
g51
NtRp4296
(dp4297
g54
(dp4298
g62
I1
ssg63
g4292
sg56
(lp4299
I00
asbasbasbag49
(g65
g51
NtRp4300
(dp4301
g54
(dp4302
sg63
g4271
sg56
(lp4303
g49
(g70
g51
NtRp4304
(dp4305
g54
(dp4306
sg63
g4300
sg56
(lp4307
g49
(g50
g51
NtRp4308
(dp4309
g54
(dp4310
g62
I1
ssg63
g4304
sg56
(lp4311
S'/admin/default/design/SlugBarter'
p4312
asbasbasbag49
(g65
g51
NtRp4313
(dp4314
g54
(dp4315
sg63
g4271
sg56
(lp4316
g49
(g70
g51
NtRp4317
(dp4318
g54
(dp4319
sg63
g4313
sg56
(lp4320
g49
(g50
g51
NtRp4321
(dp4322
g54
(dp4323
g62
I1
ssg63
g4317
sg56
(lp4324
(lp4325
(g4087
(S's\n\x00\x00\x00Controller'
tRp4326
I00
S'/admin/default/edit/SlugBarter/controllers/default.py'
tp4327
a(g4087
(S's\x04\x00\x00\x00View'
tRp4328
I00
S'/admin/default/edit/SlugBarter/views/default/mypage.html'
tp4329
a(g4087
(S's\x06\x00\x00\x00Layout'
tRp4330
I00
S'/admin/default/edit/SlugBarter/views/layout.html'
tp4331
a(g4087
(S's\n\x00\x00\x00Stylesheet'
tRp4332
I00
S'/admin/default/edit/SlugBarter/static/css/web2py.css'
tp4333
a(g4087
(S's\x08\x00\x00\x00DB Model'
tRp4334
I00
S'/admin/default/edit/SlugBarter/models/db.py'
tp4335
a(g4087
(S's\n\x00\x00\x00Menu Model'
tRp4336
I00
S'/admin/default/edit/SlugBarter/models/menu.py'
tp4337
a(g4087
(S's\x08\x00\x00\x00Database'
tRp4338
I00
S'/SlugBarter/appadmin/index'
tp4339
a(g4087
(S's\x06\x00\x00\x00Errors'
tRp4340
I00
S'/admin/default/errors/SlugBarter'
tp4341
a(g4087
(S's\x05\x00\x00\x00About'
tRp4342
I00
S'/admin/default/about/SlugBarter'
tp4343
aasbasbasbasbasbasbasbag49
(g65
g51
NtRp4344
(dp4345
g54
(dp4346
sg63
g4201
sg56
(lp4347
g49
(g70
g51
NtRp4348
(dp4349
g54
(dp4350
sg63
g4344
sg56
(lp4351
g49
(g50
g51
NtRp4352
(dp4353
g54
(dp4354
g62
I2
ssg63
g4348
sg56
(lp4355
g49
(g58
g51
NtRp4356
(dp4357
g54
(dp4358
g62
I1
ssg63
Nsg56
(lp4359
g49
(g65
g51
NtRp4360
(dp4361
g54
(dp4362
sg63
g4356
sg56
(lp4363
g49
(g70
g51
NtRp4364
(dp4365
g54
(dp4366
sg63
g4360
sg56
(lp4367
g49
(g50
g51
NtRp4368
(dp4369
g54
(dp4370
g62
I1
ssg63
g4364
sg56
(lp4371
S'web2py.com'
p4372
asbasbasbag49
(g65
g51
NtRp4373
(dp4374
g54
(dp4375
sg63
g4356
sg56
(lp4376
g49
(g70
g51
NtRp4377
(dp4378
g54
(dp4379
sg63
g4373
sg56
(lp4380
g49
(g50
g51
NtRp4381
(dp4382
g54
(dp4383
g62
I1
ssg63
g4377
sg56
(lp4384
I00
asbasbasbag49
(g65
g51
NtRp4385
(dp4386
g54
(dp4387
sg63
g4356
sg56
(lp4388
g49
(g70
g51
NtRp4389
(dp4390
g54
(dp4391
sg63
g4385
sg56
(lp4392
g49
(g50
g51
NtRp4393
(dp4394
g54
(dp4395
g62
I1
ssg63
g4389
sg56
(lp4396
S'http://www.web2py.com'
p4397
asbasbasbag49
(g65
g51
NtRp4398
(dp4399
g54
(dp4400
sg63
g4356
sg56
(lp4401
g49
(g70
g51
NtRp4402
(dp4403
g54
(dp4404
sg63
g4398
sg56
(lp4405
g49
(g50
g51
NtRp4406
(dp4407
g54
(dp4408
g62
I1
ssg63
g4402
sg56
(lp4409
(lp4410
(g4087
(S's\x08\x00\x00\x00Download'
tRp4411
I00
S'http://www.web2py.com/examples/default/download'
p4412
tp4413
a(g4087
(S's\x07\x00\x00\x00Support'
tRp4414
I00
S'http://www.web2py.com/examples/default/support'
p4415
tp4416
a(g4087
(S's\x04\x00\x00\x00Demo'
tRp4417
I00
S'http://web2py.com/demo_admin'
p4418
tp4419
a(g4087
(S's\x0e\x00\x00\x00Quick Examples'
tRp4420
I00
S'http://web2py.com/examples/default/examples'
p4421
tp4422
a(g4087
(S's\x03\x00\x00\x00FAQ'
tRp4423
I00
S'http://web2py.com/AlterEgo'
p4424
tp4425
a(g4087
(S's\x06\x00\x00\x00Videos'
tRp4426
I00
S'http://www.web2py.com/examples/default/videos/'
p4427
tp4428
a(g4087
(S's\x11\x00\x00\x00Free Applications'
tRp4429
I00
S'http://web2py.com/appliances'
p4430
tp4431
a(g4087
(S's\x07\x00\x00\x00Plugins'
tRp4432
I00
S'http://web2py.com/plugins'
p4433
tp4434
a(g4087
(S's\x07\x00\x00\x00Layouts'
tRp4435
I00
S'http://web2py.com/layouts'
p4436
tp4437
a(g4087
(S's\x07\x00\x00\x00Recipes'
tRp4438
I00
S'http://web2pyslices.com/'
p4439
tp4440
a(g4087
(S's\x08\x00\x00\x00Semantic'
tRp4441
I00
S'http://web2py.com/semantic'
p4442
tp4443
aasbasbasbasbasbasbasbag49
(g65
g51
NtRp4444
(dp4445
g54
(dp4446
sg63
g4201
sg56
(lp4447
g49
(g70
g51
NtRp4448
(dp4449
g54
(dp4450
sg63
g4444
sg56
(lp4451
g49
(g50
g51
NtRp4452
(dp4453
g54
(dp4454
g62
I2
ssg63
g4448
sg56
(lp4455
g49
(g58
g51
NtRp4456
(dp4457
g54
(dp4458
g62
I1
ssg63
Nsg56
(lp4459
g49
(g65
g51
NtRp4460
(dp4461
g54
(dp4462
sg63
g4456
sg56
(lp4463
g49
(g70
g51
NtRp4464
(dp4465
g54
(dp4466
sg63
g4460
sg56
(lp4467
g49
(g50
g51
NtRp4468
(dp4469
g54
(dp4470
g62
I1
ssg63
g4464
sg56
(lp4471
g4087
(S's\r\x00\x00\x00Documentation'
tRp4472
asbasbasbag49
(g65
g51
NtRp4473
(dp4474
g54
(dp4475
sg63
g4456
sg56
(lp4476
g49
(g70
g51
NtRp4477
(dp4478
g54
(dp4479
sg63
g4473
sg56
(lp4480
g49
(g50
g51
NtRp4481
(dp4482
g54
(dp4483
g62
I1
ssg63
g4477
sg56
(lp4484
I00
asbasbasbag49
(g65
g51
NtRp4485
(dp4486
g54
(dp4487
sg63
g4456
sg56
(lp4488
g49
(g70
g51
NtRp4489
(dp4490
g54
(dp4491
sg63
g4485
sg56
(lp4492
g49
(g50
g51
NtRp4493
(dp4494
g54
(dp4495
g62
I1
ssg63
g4489
sg56
(lp4496
S'http://www.web2py.com/book'
p4497
asbasbasbag49
(g65
g51
NtRp4498
(dp4499
g54
(dp4500
sg63
g4456
sg56
(lp4501
g49
(g70
g51
NtRp4502
(dp4503
g54
(dp4504
sg63
g4498
sg56
(lp4505
g49
(g50
g51
NtRp4506
(dp4507
g54
(dp4508
g62
I1
ssg63
g4502
sg56
(lp4509
(lp4510
(g4087
(S's\x07\x00\x00\x00Preface'
tRp4511
I00
S'http://www.web2py.com/book/default/chapter/00'
p4512
tp4513
a(g4087
(S's\x0c\x00\x00\x00Introduction'
tRp4514
I00
S'http://www.web2py.com/book/default/chapter/01'
p4515
tp4516
a(g4087
(S's\x06\x00\x00\x00Python'
tRp4517
I00
S'http://www.web2py.com/book/default/chapter/02'
p4518
tp4519
a(g4087
(S's\x08\x00\x00\x00Overview'
tRp4520
I00
S'http://www.web2py.com/book/default/chapter/03'
p4521
tp4522
a(g4087
(S's\x08\x00\x00\x00The Core'
tRp4523
I00
S'http://www.web2py.com/book/default/chapter/04'
p4524
tp4525
a(g4087
(S's\t\x00\x00\x00The Views'
tRp4526
I00
S'http://www.web2py.com/book/default/chapter/05'
p4527
tp4528
a(g4087
(S's\x08\x00\x00\x00Database'
tRp4529
I00
S'http://www.web2py.com/book/default/chapter/06'
p4530
tp4531
a(g4087
(S's\x14\x00\x00\x00Forms and Validators'
tRp4532
I00
S'http://www.web2py.com/book/default/chapter/07'
p4533
tp4534
a(g4087
(S's\r\x00\x00\x00Email and SMS'
tRp4535
I00
S'http://www.web2py.com/book/default/chapter/08'
p4536
tp4537
a(g4087
(S's\x0e\x00\x00\x00Access Control'
tRp4538
I00
S'http://www.web2py.com/book/default/chapter/09'
p4539
tp4540
a(g4087
(S's\x08\x00\x00\x00Services'
tRp4541
I00
S'http://www.web2py.com/book/default/chapter/10'
p4542
tp4543
a(g4087
(S's\x0c\x00\x00\x00Ajax Recipes'
tRp4544
I00
S'http://www.web2py.com/book/default/chapter/11'
p4545
tp4546
a(g4087
(S's\x16\x00\x00\x00Components and Plugins'
tRp4547
I00
S'http://www.web2py.com/book/default/chapter/12'
p4548
tp4549
a(g4087
(S's\x12\x00\x00\x00Deployment Recipes'
tRp4550
I00
S'http://www.web2py.com/book/default/chapter/13'
p4551
tp4552
a(g4087
(S's\r\x00\x00\x00Other Recipes'
tRp4553
I00
S'http://www.web2py.com/book/default/chapter/14'
p4554
tp4555
a(g4087
(S's\r\x00\x00\x00Buy this book'
tRp4556
I00
S'http://stores.lulu.com/web2py'
p4557
tp4558
aasbasbasbasbasbasbasbag49
(g65
g51
NtRp4559
(dp4560
g54
(dp4561
sg63
g4201
sg56
(lp4562
g49
(g70
g51
NtRp4563
(dp4564
g54
(dp4565
sg63
g4559
sg56
(lp4566
g49
(g50
g51
NtRp4567
(dp4568
g54
(dp4569
g62
I2
ssg63
g4563
sg56
(lp4570
g49
(g58
g51
NtRp4571
(dp4572
g54
(dp4573
g62
I1
ssg63
Nsg56
(lp4574
g49
(g65
g51
NtRp4575
(dp4576
g54
(dp4577
sg63
g4571
sg56
(lp4578
g49
(g70
g51
NtRp4579
(dp4580
g54
(dp4581
sg63
g4575
sg56
(lp4582
g49
(g50
g51
NtRp4583
(dp4584
g54
(dp4585
g62
I1
ssg63
g4579
sg56
(lp4586
g4087
(S's\t\x00\x00\x00Community'
tRp4587
asbasbasbag49
(g65
g51
NtRp4588
(dp4589
g54
(dp4590
sg63
g4571
sg56
(lp4591
g49
(g70
g51
NtRp4592
(dp4593
g54
(dp4594
sg63
g4588
sg56
(lp4595
g49
(g50
g51
NtRp4596
(dp4597
g54
(dp4598
g62
I1
ssg63
g4592
sg56
(lp4599
I00
asbasbasbag49
(g65
g51
NtRp4600
(dp4601
g54
(dp4602
sg63
g4571
sg56
(lp4603
g49
(g70
g51
NtRp4604
(dp4605
g54
(dp4606
sg63
g4600
sg56
(lp4607
g49
(g50
g51
NtRp4608
(dp4609
g54
(dp4610
g62
I1
ssg63
g4604
sg56
(lp4611
Nasbasbasbag49
(g65
g51
NtRp4612
(dp4613
g54
(dp4614
sg63
g4571
sg56
(lp4615
g49
(g70
g51
NtRp4616
(dp4617
g54
(dp4618
sg63
g4612
sg56
(lp4619
g49
(g50
g51
NtRp4620
(dp4621
g54
(dp4622
g62
I1
ssg63
g4616
sg56
(lp4623
(lp4624
(g4087
(S's\x06\x00\x00\x00Groups'
tRp4625
I00
S'http://www.web2py.com/examples/default/usergroups'
p4626
tp4627
a(g4087
(S's\x07\x00\x00\x00Twitter'
tRp4628
I00
S'http://twitter.com/web2py'
p4629
tp4630
a(g4087
(S's\t\x00\x00\x00Live Chat'
tRp4631
I00
S'http://webchat.freenode.net/?channels=web2py'
p4632
tp4633
aasbasbasbasbasbasbasbag49
(g65
g51
NtRp4634
(dp4635
g54
(dp4636
sg63
g4201
sg56
(lp4637
g49
(g70
g51
NtRp4638
(dp4639
g54
(dp4640
sg63
g4634
sg56
(lp4641
g49
(g50
g51
NtRp4642
(dp4643
g54
(dp4644
g62
I2
ssg63
g4638
sg56
(lp4645
g49
(g58
g51
NtRp4646
(dp4647
g54
(dp4648
g62
I1
ssg63
Nsg56
(lp4649
g49
(g65
g51
NtRp4650
(dp4651
g54
(dp4652
sg63
g4646
sg56
(lp4653
g49
(g70
g51
NtRp4654
(dp4655
g54
(dp4656
sg63
g4650
sg56
(lp4657
g49
(g50
g51
NtRp4658
(dp4659
g54
(dp4660
g62
I1
ssg63
g4654
sg56
(lp4661
g4087
(S's\x07\x00\x00\x00Plugins'
tRp4662
asbasbasbag49
(g65
g51
NtRp4663
(dp4664
g54
(dp4665
sg63
g4646
sg56
(lp4666
g49
(g70
g51
NtRp4667
(dp4668
g54
(dp4669
sg63
g4663
sg56
(lp4670
g49
(g50
g51
NtRp4671
(dp4672
g54
(dp4673
g62
I1
ssg63
g4667
sg56
(lp4674
I00
asbasbasbag49
(g65
g51
NtRp4675
(dp4676
g54
(dp4677
sg63
g4646
sg56
(lp4678
g49
(g70
g51
NtRp4679
(dp4680
g54
(dp4681
sg63
g4675
sg56
(lp4682
g49
(g50
g51
NtRp4683
(dp4684
g54
(dp4685
g62
I1
ssg63
g4679
sg56
(lp4686
Nasbasbasbag49
(g65
g51
NtRp4687
(dp4688
g54
(dp4689
sg63
g4646
sg56
(lp4690
g49
(g70
g51
NtRp4691
(dp4692
g54
(dp4693
sg63
g4687
sg56
(lp4694
g49
(g50
g51
NtRp4695
(dp4696
g54
(dp4697
g62
I1
ssg63
g4691
sg56
(lp4698
(lp4699
(S'plugin_wiki'
p4700
I00
S'http://web2py.com/examples/default/download'
p4701
tp4702
a(g4087
(S's\r\x00\x00\x00Other Plugins'
tRp4703
I00
g4433
tp4704
a(g4087
(S's\x0e\x00\x00\x00Layout Plugins'
tRp4705
I00
g4436
tp4706
aasbasbasbasbasbasbasbasbasbasbasbasbasbasbasbasbasbasbasbag49
(g65
g51
NtRp4707
(dp4708
g54
(dp4709
sg63
g3551
sg56
(lp4710
g49
(g70
g51
NtRp4711
(dp4712
g54
(dp4713
g74
g75
ssg63
g4707
sg56
(lp4714
S'meta'
p4715
asbag49
(g70
g51
NtRp4716
(dp4717
g54
(dp4718
g81
g82
ssg63
g4707
sg56
(lp4719
S':'
asbag49
(g70
g51
NtRp4720
(dp4721
g54
(dp4722
sg63
g4707
sg56
(lp4723
g49
(g50
g51
NtRp4724
(dp4725
g54
(dp4726
g62
I5
ssg63
g4720
sg56
(lp4727
g49
(g58
g51
NtRp4728
(dp4729
g54
(dp4730
g62
I4
ssg63
Nsg56
(lp4731
g49
(g65
g51
NtRp4732
(dp4733
g54
(dp4734
sg63
g4728
sg56
(lp4735
g49
(g70
g51
NtRp4736
(dp4737
g54
(dp4738
g74
g75
ssg63
g4732
sg56
(lp4739
S'author'
p4740
asbag49
(g70
g51
NtRp4741
(dp4742
g54
(dp4743
g81
g82
ssg63
g4732
sg56
(lp4744
S':'
asbag49
(g70
g51
NtRp4745
(dp4746
g54
(dp4747
sg63
g4732
sg56
(lp4748
g49
(g50
g51
NtRp4749
(dp4750
g54
(dp4751
g62
I4
ssg63
g4745
sg56
(lp4752
S'Your Name <you@example.com>'
p4753
asbasbasbag49
(g65
g51
NtRp4754
(dp4755
g54
(dp4756
sg63
g4728
sg56
(lp4757
g49
(g70
g51
NtRp4758
(dp4759
g54
(dp4760
g74
g75
ssg63
g4754
sg56
(lp4761
S'copyright'
p4762
asbag49
(g70
g51
NtRp4763
(dp4764
g54
(dp4765
g81
g82
ssg63
g4754
sg56
(lp4766
S':'
asbag49
(g70
g51
NtRp4767
(dp4768
g54
(dp4769
sg63
g4754
sg56
(lp4770
g49
(g50
g51
NtRp4771
(dp4772
g54
(dp4773
g62
I4
ssg63
g4767
sg56
(lp4774
S'Copyright 2011'
p4775
asbasbasbag49
(g65
g51
NtRp4776
(dp4777
g54
(dp4778
sg63
g4728
sg56
(lp4779
g49
(g70
g51
NtRp4780
(dp4781
g54
(dp4782
g74
g75
ssg63
g4776
sg56
(lp4783
S'description'
p4784
asbag49
(g70
g51
NtRp4785
(dp4786
g54
(dp4787
g81
g82
ssg63
g4776
sg56
(lp4788
S':'
asbag49
(g70
g51
NtRp4789
(dp4790
g54
(dp4791
sg63
g4776
sg56
(lp4792
g49
(g50
g51
NtRp4793
(dp4794
g54
(dp4795
g62
I4
ssg63
g4789
sg56
(lp4796
S'a cool new app'
p4797
asbasbasbag49
(g65
g51
NtRp4798
(dp4799
g54
(dp4800
sg63
g4728
sg56
(lp4801
g49
(g70
g51
NtRp4802
(dp4803
g54
(dp4804
g74
g75
ssg63
g4798
sg56
(lp4805
S'generator'
p4806
asbag49
(g70
g51
NtRp4807
(dp4808
g54
(dp4809
g81
g82
ssg63
g4798
sg56
(lp4810
S':'
asbag49
(g70
g51
NtRp4811
(dp4812
g54
(dp4813
sg63
g4798
sg56
(lp4814
g49
(g50
g51
NtRp4815
(dp4816
g54
(dp4817
g62
I4
ssg63
g4811
sg56
(lp4818
S'Web2py Web Framework'
p4819
asbasbasbag49
(g65
g51
NtRp4820
(dp4821
g54
(dp4822
sg63
g4728
sg56
(lp4823
g49
(g70
g51
NtRp4824
(dp4825
g54
(dp4826
g74
g75
ssg63
g4820
sg56
(lp4827
S'keywords'
p4828
asbag49
(g70
g51
NtRp4829
(dp4830
g54
(dp4831
g81
g82
ssg63
g4820
sg56
(lp4832
S':'
asbag49
(g70
g51
NtRp4833
(dp4834
g54
(dp4835
sg63
g4820
sg56
(lp4836
g49
(g50
g51
NtRp4837
(dp4838
g54
(dp4839
g62
I4
ssg63
g4833
sg56
(lp4840
S'web2py, python, framework'
p4841
asbasbasbasbasbasbasbag49
(g65
g51
NtRp4842
(dp4843
g54
(dp4844
sg63
g3551
sg56
(lp4845
g49
(g70
g51
NtRp4846
(dp4847
g54
(dp4848
g74
g75
ssg63
g4842
sg56
(lp4849
S'postprocessing'
p4850
asbag49
(g70
g51
NtRp4851
(dp4852
g54
(dp4853
g81
g82
ssg63
g4842
sg56
(lp4854
S':'
asbag49
(g70
g51
NtRp4855
(dp4856
g54
(dp4857
sg63
g4842
sg56
(lp4858
g49
(g50
g51
NtRp4859
(dp4860
g54
(dp4861
g62
I5
ssg63
g4855
sg56
(lp4862
g49
(g58
g51
NtRp4863
(dp4864
g54
(dp4865
g62
I4
ssg63
Nsg56
(lp4866
sbasbasbasbag49
(g65
g51
NtRp4867
(dp4868
g54
(dp4869
sg63
g3551
sg56
(lp4870
g49
(g70
g51
NtRp4871
(dp4872
g54
(dp4873
g74
g75
ssg63
g4867
sg56
(lp4874
S'session_file'
p4875
asbag49
(g70
g51
NtRp4876
(dp4877
g54
(dp4878
g81
g82
ssg63
g4867
sg56
(lp4879
S':'
asbag49
(g70
g51
NtRp4880
(dp4881
g54
(dp4882
sg63
g4867
sg56
(lp4883
g49
(g50
g51
NtRp4884
(dp4885
g54
(dp4886
g62
I5
ssg63
g4880
sg56
(lp4887
S"<open file 'C:\\Users\\omkara\\Desktop\\web2py\\applications\\SlugBarter\\sessions\\127.0.0.1-e6ebae72-1bbc-48a5-9458-95dbb65a4e54', mode 'rb+' at 0x06369F98>"
p4888
asbasbasbag49
(g65
g51
NtRp4889
(dp4890
g54
(dp4891
sg63
g3551
sg56
(lp4892
g49
(g70
g51
NtRp4893
(dp4894
g54
(dp4895
g74
g75
ssg63
g4889
sg56
(lp4896
S'session_filename'
p4897
asbag49
(g70
g51
NtRp4898
(dp4899
g54
(dp4900
g81
g82
ssg63
g4889
sg56
(lp4901
S':'
asbag49
(g70
g51
NtRp4902
(dp4903
g54
(dp4904
sg63
g4889
sg56
(lp4905
g49
(g50
g51
NtRp4906
(dp4907
g54
(dp4908
g62
I5
ssg63
g4902
sg56
(lp4909
S'C:\\Users\\omkara\\Desktop\\web2py\\applications\\SlugBarter\\sessions\\127.0.0.1-e6ebae72-1bbc-48a5-9458-95dbb65a4e54'
p4910
asbasbasbag49
(g65
g51
NtRp4911
(dp4912
g54
(dp4913
sg63
g3551
sg56
(lp4914
g49
(g70
g51
NtRp4915
(dp4916
g54
(dp4917
g74
g75
ssg63
g4911
sg56
(lp4918
S'session_id'
p4919
asbag49
(g70
g51
NtRp4920
(dp4921
g54
(dp4922
g81
g82
ssg63
g4911
sg56
(lp4923
S':'
asbag49
(g70
g51
NtRp4924
(dp4925
g54
(dp4926
sg63
g4911
sg56
(lp4927
g49
(g50
g51
NtRp4928
(dp4929
g54
(dp4930
g62
I5
ssg63
g4924
sg56
(lp4931
S'127.0.0.1-e6ebae72-1bbc-48a5-9458-95dbb65a4e54'
p4932
asbasbasbag49
(g65
g51
NtRp4933
(dp4934
g54
(dp4935
sg63
g3551
sg56
(lp4936
g49
(g70
g51
NtRp4937
(dp4938
g54
(dp4939
g74
g75
ssg63
g4933
sg56
(lp4940
S'session_id_name'
p4941
asbag49
(g70
g51
NtRp4942
(dp4943
g54
(dp4944
g81
g82
ssg63
g4933
sg56
(lp4945
S':'
asbag49
(g70
g51
NtRp4946
(dp4947
g54
(dp4948
sg63
g4933
sg56
(lp4949
g49
(g50
g51
NtRp4950
(dp4951
g54
(dp4952
g62
I5
ssg63
g4946
sg56
(lp4953
g3608
asbasbasbag49
(g65
g51
NtRp4954
(dp4955
g54
(dp4956
sg63
g3551
sg56
(lp4957
g49
(g70
g51
NtRp4958
(dp4959
g54
(dp4960
g74
g75
ssg63
g4954
sg56
(lp4961
S'session_locked'
p4962
asbag49
(g70
g51
NtRp4963
(dp4964
g54
(dp4965
g81
g82
ssg63
g4954
sg56
(lp4966
S':'
asbag49
(g70
g51
NtRp4967
(dp4968
g54
(dp4969
sg63
g4954
sg56
(lp4970
g49
(g50
g51
NtRp4971
(dp4972
g54
(dp4973
g62
I5
ssg63
g4967
sg56
(lp4974
g2126
asbasbasbag49
(g65
g51
NtRp4975
(dp4976
g54
(dp4977
sg63
g3551
sg56
(lp4978
g49
(g70
g51
NtRp4979
(dp4980
g54
(dp4981
g74
g75
ssg63
g4975
sg56
(lp4982
S'session_new'
p4983
asbag49
(g70
g51
NtRp4984
(dp4985
g54
(dp4986
g81
g82
ssg63
g4975
sg56
(lp4987
S':'
asbag49
(g70
g51
NtRp4988
(dp4989
g54
(dp4990
sg63
g4975
sg56
(lp4991
g49
(g50
g51
NtRp4992
(dp4993
g54
(dp4994
g62
I5
ssg63
g4988
sg56
(lp4995
g92
asbasbasbag49
(g65
g51
NtRp4996
(dp4997
g54
(dp4998
sg63
g3551
sg56
(lp4999
g49
(g70
g51
NtRp5000
(dp5001
g54
(dp5002
g74
g75
ssg63
g4996
sg56
(lp5003
S'status'
p5004
asbag49
(g70
g51
NtRp5005
(dp5006
g54
(dp5007
g81
g82
ssg63
g4996
sg56
(lp5008
S':'
asbag49
(g70
g51
NtRp5009
(dp5010
g54
(dp5011
sg63
g4996
sg56
(lp5012
g49
(g50
g51
NtRp5013
(dp5014
g54
(dp5015
g62
I5
ssg63
g5009
sg56
(lp5016
S'200'
p5017
asbasbasbag49
(g65
g51
NtRp5018
(dp5019
g54
(dp5020
sg63
g3551
sg56
(lp5021
g49
(g70
g51
NtRp5022
(dp5023
g54
(dp5024
g74
g75
ssg63
g5018
sg56
(lp5025
S'subtitle'
p5026
asbag49
(g70
g51
NtRp5027
(dp5028
g54
(dp5029
g81
g82
ssg63
g5018
sg56
(lp5030
S':'
asbag49
(g70
g51
NtRp5031
(dp5032
g54
(dp5033
sg63
g5018
sg56
(lp5034
g49
(g50
g51
NtRp5035
(dp5036
g54
(dp5037
g62
I5
ssg63
g5031
sg56
(lp5038
g4087
(S's\r\x00\x00\x00customize me!'
tRp5039
asbasbasbag49
(g65
g51
NtRp5040
(dp5041
g54
(dp5042
sg63
g3551
sg56
(lp5043
g49
(g70
g51
NtRp5044
(dp5045
g54
(dp5046
g74
g75
ssg63
g5040
sg56
(lp5047
S'title'
p5048
asbag49
(g70
g51
NtRp5049
(dp5050
g54
(dp5051
g81
g82
ssg63
g5040
sg56
(lp5052
S':'
asbag49
(g70
g51
NtRp5053
(dp5054
g54
(dp5055
sg63
g5040
sg56
(lp5056
g49
(g50
g51
NtRp5057
(dp5058
g54
(dp5059
g62
I5
ssg63
g5053
sg56
(lp5060
S'Slugbarter'
p5061
asbasbasbag49
(g65
g51
NtRp5062
(dp5063
g54
(dp5064
sg63
g3551
sg56
(lp5065
g49
(g70
g51
NtRp5066
(dp5067
g54
(dp5068
g74
g75
ssg63
g5062
sg56
(lp5069
g2790
asbag49
(g70
g51
NtRp5070
(dp5071
g54
(dp5072
g81
g82
ssg63
g5062
sg56
(lp5073
S':'
asbag49
(g70
g51
NtRp5074
(dp5075
g54
(dp5076
sg63
g5062
sg56
(lp5077
g49
(g50
g51
NtRp5078
(dp5079
g54
(dp5080
g62
I5
ssg63
g5074
sg56
(lp5081
g2803
asbasbasbag49
(g65
g51
NtRp5082
(dp5083
g54
(dp5084
sg63
g3551
sg56
(lp5085
g49
(g70
g51
NtRp5086
(dp5087
g54
(dp5088
g74
g75
ssg63
g5082
sg56
(lp5089
S'view'
p5090
asbag49
(g70
g51
NtRp5091
(dp5092
g54
(dp5093
g81
g82
ssg63
g5082
sg56
(lp5094
S':'
asbag49
(g70
g51
NtRp5095
(dp5096
g54
(dp5097
sg63
g5082
sg56
(lp5098
g49
(g50
g51
NtRp5099
(dp5100
g54
(dp5101
g62
I5
ssg63
g5095
sg56
(lp5102
S'default/mypage.html'
p5103
asbasbasbasbasbsS'locals'
p5104
(dp5105
S'self'
p5106
S"<DAL {'_migrate_enabled': True, '_lastsql': '', ...'_uri_hash': 'c8b669d15150d7109e5f7ab36744a5b7'}>"
p5107
sS'key'
p5108
S"'auth_user'"
p5109
sssS'traceback'
p5110
S'Traceback (most recent call last):\n  File "gluon/restricted.py", line 205, in restricted\n  File "C:\\Users\\omkara\\Desktop\\web2py\\applications\\SlugBarter\\models\\registerForm.py", line 13, in <module>\n  File "gluon/dal.py", line 6343, in __getattr__\n  File "gluon/dal.py", line 6337, in __getitem__\nKeyError: \'auth_user\'\n'
p5111
s.