(dp1
S'output'
p2
S"<type 'exceptions.KeyError'> 'name'"
p3
sS'layer'
p4
S'C:\\Users\\omkara\\Desktop\\web2py\\applications\\SlugBarter\\views\\default/description_mode.html'
p5
sS'code'
p6
S'response.write(\'<!DOCTYPE html>\\n<!-- paulirish.com/2008/conditional-stylesheets-vs-css-hacks-answer-neither/ -->\\n<!--[if lt IE 7]><html class="ie ie6 ie-lte9 ie-lte8 ie-lte7 no-js" lang="\', escape=False)\nresponse.write(T.accepted_language or \'en\')\nresponse.write(\'"> <![endif]-->\\n<!--[if IE 7]><html class="ie ie7 ie-lte9 ie-lte8 ie-lte7 no-js" lang="\', escape=False)\nresponse.write(T.accepted_language or \'en\')\nresponse.write(\'"> <![endif]-->\\n<!--[if IE 8]><html class="ie ie8 ie-lte9 ie-lte8 no-js" lang="\', escape=False)\nresponse.write(T.accepted_language or \'en\')\nresponse.write(\'"> <![endif]-->\\n<!--[if IE 9]><html class="ie9 ie-lte9 no-js" lang="\', escape=False)\nresponse.write(T.accepted_language or \'en\')\nresponse.write(\'"> <![endif]-->\\n<!--[if (gt IE 9)|!(IE)]><!--> <html class="no-js" lang="\', escape=False)\nresponse.write(T.accepted_language or \'en\')\nresponse.write(\'"> <!--<![endif]-->\\n<head>\\n  <meta charset="utf-8" />\\n  <!-- www.phpied.com/conditional-comments-block-downloads/ -->\\n  <!-- Always force latest IE rendering engine\\n\\t   (even in intranet) & Chrome Frame\\n\\t   Remove this if you use the .htaccess -->\\n  <!--[if IE]>\\n    <meta http-equiv="X-UA-Compatible" content="IE=edge\', escape=False)\nresponse.write(not request.is_local and \',chrome=1\' or \'\')\nresponse.write(\'">\\n  <![endif]-->\\n  \\n  <title>\', escape=False)\nresponse.write(response.title or request.application)\nresponse.write(\'</title>\\n  \\n  <!-- http://dev.w3.org/html5/markup/meta.name.html -->\\n  <meta name="application-name" content="\', escape=False)\nresponse.write(request.application)\nresponse.write(\'" />\\n  \\n  <!-- Speaking of Google, don\\\'t forget to set your site up:\\n\\t   http://google.com/webmasters -->\\n  <meta name="google-site-verification" content="" />\\n\\n  <!--  Mobile Viewport Fix\\n\\t  j.mp/mobileviewport & davidbcalhoun.com/2010/viewport-metatag\\n\\t  device-width: Occupy full width of the screen in its current orientation\\n\\t  initial-scale = 1.0 retains dimensions instead of zooming out if page height > device height\\n\\t  user-scalable = yes allows the user to zoom in -->\\n  <meta name="viewport" content="width=device-width, initial-scale=1.0, user-scalable=yes">\\n  \\n  <!-- Place favicon.ico and apple-touch-icon.png in the root of your domain and delete these references -->\\n  <link rel="shortcut icon" href="\', escape=False)\nresponse.write(URL(\'static\',\'favicon.ico\'))\nresponse.write(\'" type="image/x-icon">\\n  <link rel="apple-touch-icon" href="\', escape=False)\nresponse.write(URL(\'static\',\'favicon.png\'))\nresponse.write(\'">\\n\\n  <!-- All JavaScript at the bottom, except for Modernizr which enables \\n\\t   HTML5 elements & feature detects -->\\n  <script src="\', escape=False)\nresponse.write(URL(\'static\',\'js/modernizr.custom.js\'))\nresponse.write(\'"></script>  \\n\\n  <!-- include stylesheets -->\\n  \', escape=False)\nresponse.files.append(URL(\'static\',\'css/skeleton.css\'))\nresponse.files.append(URL(\'static\',\'css/web2py.css\'))\nif response.menu:\n    response.files.append(URL(\'static\',\'css/superfish.css\'))\n    response.files.append(URL(\'static\',\'js/superfish.js\'))\n    pass\nresponse.write(\'\\n\\n  \', escape=False)\nresponse.write(\'<script type="text/javascript"><!--\\n    // These variables are used by the web2py_ajax_init function in web2py_ajax.js (which is loaded below).\\n    var w2p_ajax_confirm_message = "\', escape=False)\nresponse.write(T(\'Are you sure you want to delete this object?\'))\nresponse.write(\'";\\n    var w2p_ajax_date_format = "\', escape=False)\nresponse.write(T(\'%Y-%m-%d\'))\nresponse.write(\'";\\n    var w2p_ajax_datetime_format = "\', escape=False)\nresponse.write(T(\'%Y-%m-%d %H:%M:%S\'))\nresponse.write(\'";\\n    //--></script>\\n\', escape=False)\nresponse.files.insert(0,URL(\'static\',\'js/jquery.js\'))\nresponse.files.insert(1,URL(\'static\',\'css/calendar.css\'))\nresponse.files.insert(2,URL(\'static\',\'js/calendar.js\'))\nresponse.files.insert(3,URL(\'static\',\'js/web2py.js\'))\nresponse.include_meta()\nresponse.include_files()\nresponse.write(\'\\n\', escape=False)\nresponse.write(\'\\n\\n  \', escape=False)\nif response.menu:\n    response.write(\'\\n  <script type="text/javascript">\\n    jQuery(function(){ jQuery(\\\'ul.sf-menu\\\').supersubs({minWidth:12,maxWidth:30,extraWidth:3}).superfish(); });\\n  </script>\\n  \', escape=False)\n    pass\nresponse.write(\'\\n\\n  \', escape=False)\n# using sidebars need to know what sidebar you want to use\nleft_sidebar_enabled = globals().get(\'left_sidebar_enabled\',False)\nright_sidebar_enabled = globals().get(\'right_sidebar_enabled\',False)\nmiddle_columns = {0:\'sixteen\',1:\'twelve\',2:\'eight\'}[\n(left_sidebar_enabled and 1 or 0)+(right_sidebar_enabled and 1 or 0)]\nresponse.write(\'\\n\\n  <!-- uncomment here to load jquery-ui\\n  <link rel="stylesheet" href="http://ajax.googleapis.com/ajax/libs/jqueryui/1.8.16/themes/base/jquery-ui.css" type="text/css" media="all" />\\n  <script src="http://ajax.googleapis.com/ajax/libs/jqueryui/1.8.16/jquery-ui.min.js" type="text/javascript"></script>\\n  uncomment to load jquery-ui //-->\\n</head>\\n<body>\\n  <div class="wrapper"><!-- for sticky footer -->\\n  \\n    <div class="topbar">\\n      <div class="container">    \\n        <div class="sixteen columns">\\n          <div id="navbar">\', escape=False)\nresponse.write(\'auth\' in globals() and auth.navbar(separators=(\' \',\' | \',\'\')))\nresponse.write(\'</div>\\n          \', escape=False)\nis_mobile=request.user_agent().is_mobile\nresponse.write(\'\\n\\t  \', escape=False)\nif response.menu:\n    response.write(\'\\n          <div id="menu">\\n             \', escape=False)\n    response.write(MENU(response.menu, _class=\'mobile-menu\' if is_mobile else \'sf-menu\',mobile=is_mobile))\n    response.write(\'\\n          </div>\\n          \', escape=False)\n    pass\nresponse.write(\'\\n        </div>\\n      </div>\\n    </div><!-- topbar -->\\n    \\n    <div class="flash">\', escape=False)\nresponse.write(response.flash or \'\')\nresponse.write(\'</div>\\n    \\n    <div class="header">\\n      <div class="container">         \\n        <div class="sixteen columns">\\n          <h1 class="remove-bottom" style="margin-top: .5em;">\\n          \', escape=False)\nresponse.write(response.title or request.application)\nresponse.write(\'\\n          </h1>\\n          <h5>\', escape=False)\nresponse.write(response.subtitle or \'\')\nresponse.write(\'</h5>\\n        </div>\\n        <div class="sixteen columns">\\n          <div class="statusbar clearfix">\\n            \', escape=False)\nresponse.write(\'\\n            <div class="breadcrumbs">\', escape=False)\nresponse.write(request.function.replace(\'_\', \' \').title())\nresponse.write(\'</div>\\n            \', escape=False)\nresponse.write(\'\\n            <!-- AddToAny BEGIN -->\\n            <div style="float:right; padding-top: .25em;" class="a2a_kit a2a_default_style">\\n            <a class="a2a_dd" href="http://www.addtoany.com/share_save">Share</a></div>\\n            <script type="text/javascript" src="http://static.addtoany.com/menu/page.js"></script>\\n            <!-- AddToAny END -->\\n          </div>\\n        </div>\\n      </div>\\n    </div>\\n\\n    <div class="main">\\n      <div class="container">                 \\n        \', escape=False)\nif left_sidebar_enabled:\n    response.write(\'\\n        <div class="four columns left-sidebar">\\n          \', escape=False)\n    response.write(\'\\n          <h3>Left Sidebar</h3>\\n          <p></p>\\n          \', escape=False)\n    response.write(\'\\n        </div>\\n        \', escape=False)\n    pass\nresponse.write(\'\\n        \\n        <div class="\', escape=False)\nresponse.write(middle_columns)\nresponse.write(\' columns center">\\n          \', escape=False)\nresponse.write(\'\\n          \', escape=False)\nresponse.write(\'\\r\\n<h3>Description Mode</h3>\\r\\n<b>Title:</b>\\r\\n\', escape=False)\nresponse.write(reads.name)\nresponse.write(\'\\r\\n<br>\\r\\n<br>\\r\\n<b>Description:</b>\\r\\n<p>\', escape=False)\nresponse.write(reads.description)\nresponse.write(\'</p>\\r\\n<b>Category:</b>\\r\\n\', escape=False)\nresponse.write(reads.services)\nresponse.write(\'\\r\\n\', escape=False)\nresponse.write(\'\\n          \', escape=False)\nresponse.write(\'\\n        </div>\\n        \\n        \', escape=False)\nif right_sidebar_enabled:\n    response.write(\'\\n        <div class="four columns">\\n          \', escape=False)\n    response.write(\'\\n          <h3>Right Sidebar</h3>\\n          <p></p>\\n          \', escape=False)\n    response.write(\'\\n        </div>    \\n        \', escape=False)\n    pass\nresponse.write(\'\\n        \\n      </div><!-- container -->\\n    </div><!-- main -->\\n    \\n    <div class="push"></div>\\n  </div><!-- wrapper -->\\n\\n  <div class="footer">\\n    <div class="container">    \\n      <div class="sixteen columns">\\n        \', escape=False)\nresponse.write(\' <!-- this is default footer -->\\n        <div class="footer-content clearfix">\\n          <div class="copyright">\', escape=False)\nresponse.write(T(\'Copyright\'))\nresponse.write(\' &#169; 2011</div>\\n          <div style="float: right;">\\n            <a href="http://www.web2py.com/">\\n            <img style="padding-bottom: 0;" src="\', escape=False)\nresponse.write(URL(\'static\',\'images/poweredby.png\'))\nresponse.write(\'"/>\\n            </a>\\n          </div>\\n        </div>\\n        \', escape=False)\nresponse.write(\'\\t\\n      </div>\\n    </div><!-- container -->\\n  </div><!-- footer -->\\n  \\n  <!--[if lt IE 7 ]>\\n\\t<script src="\', escape=False)\nresponse.write(URL(\'static\',\'js/dd_belatedpng.js\'))\nresponse.write(\'"></script>\\n\\t<script> DD_belatedPNG.fix(\\\'img, .png_bg\\\'); //fix any <img> or .png_bg background-images </script>\\n\\t<![endif]-->\\n  \', escape=False)\nif response.google_analytics_id:\n    response.write(\'<script type="text/javascript"> var _gaq = _gaq || []; _gaq.push([\\\'_setAccount\\\', \\\'\', escape=False)\n    response.write(response.google_analytics_id)\n    response.write("\']); _gaq.push([\'_trackPageview\']); (function() { var ga = document.createElement(\'script\'); ga.type = \'text/javascript\'; ga.async = true; ga.src = (\'https:\' == document.location.protocol ? \'https://ssl\' : \'http://www\') + \'.google-analytics.com/ga.js\'; var s = document.getElementsByTagName(\'script\')[0]; s.parentNode.insertBefore(ga, s); })(); </script> ", escape=False)\n    pass\nresponse.write(\'\\n</body>\\n</html>\\n\', escape=False)'
p7
sS'snapshot'
p8
(dp9
S'exception'
p10
(dp11
S'__hash__'
p12
S"<method-wrapper '__hash__' of exceptions.KeyError object at 0x0641F198>"
p13
sS'__setattr__'
p14
S"<method-wrapper '__setattr__' of exceptions.KeyError object at 0x0641F198>"
p15
sS'__reduce_ex__'
p16
S'<built-in method __reduce_ex__ of exceptions.KeyError object at 0x0641F198>'
p17
sS'__getslice__'
p18
S"<method-wrapper '__getslice__' of exceptions.KeyError object at 0x0641F198>"
p19
sS'__getitem__'
p20
S"<method-wrapper '__getitem__' of exceptions.KeyError object at 0x0641F198>"
p21
sS'__setstate__'
p22
S'<built-in method __setstate__ of exceptions.KeyError object at 0x0641F198>'
p23
sS'__reduce__'
p24
S'<built-in method __reduce__ of exceptions.KeyError object at 0x0641F198>'
p25
sS'__str__'
p26
S"<method-wrapper '__str__' of exceptions.KeyError object at 0x0641F198>"
p27
sS'args'
p28
S"('name',)"
p29
sS'__getattribute__'
p30
S"<method-wrapper '__getattribute__' of exceptions.KeyError object at 0x0641F198>"
p31
sS'__class__'
p32
S"<type 'exceptions.KeyError'>"
p33
sS'__delattr__'
p34
S"<method-wrapper '__delattr__' of exceptions.KeyError object at 0x0641F198>"
p35
sS'__repr__'
p36
S"<method-wrapper '__repr__' of exceptions.KeyError object at 0x0641F198>"
p37
sS'__dict__'
p38
S'{}'
p39
sS'__doc__'
p40
S"'Mapping key not found.'"
p41
sS'__init__'
p42
S"<method-wrapper '__init__' of exceptions.KeyError object at 0x0641F198>"
p43
sS'__new__'
p44
S'<built-in method __new__ of type object at 0x1E1CDFB8>'
p45
ssS'evalue'
p46
S"'name'"
p47
sS'request'
p48
ccopy_reg
_reconstructor
p49
(cgluon.html
BEAUTIFY
p50
c__builtin__
object
p51
NtRp52
(dp53
S'attributes'
p54
(dp55
sS'components'
p56
(lp57
g49
(cgluon.html
TABLE
p58
g51
NtRp59
(dp60
g54
(dp61
S'level'
p62
I5
ssS'parent'
p63
Nsg56
(lp64
g49
(cgluon.html
TR
p65
g51
NtRp66
(dp67
g54
(dp68
sg63
g59
sg56
(lp69
g49
(cgluon.html
TD
p70
g51
NtRp71
(dp72
g54
(dp73
S'_style'
p74
S'font-weight:bold;vertical-align:top'
p75
ssg63
g66
sg56
(lp76
S'ajax'
p77
asbag49
(g70
g51
NtRp78
(dp79
g54
(dp80
S'_valign'
p81
S'top'
p82
ssg63
g66
sg56
(lp83
S':'
asbag49
(g70
g51
NtRp84
(dp85
g54
(dp86
sg63
g66
sg56
(lp87
g49
(g50
g51
NtRp88
(dp89
g54
(dp90
g62
I5
ssg63
g84
sg56
(lp91
S'False'
p92
asbasbasbag49
(g65
g51
NtRp93
(dp94
g54
(dp95
sg63
g59
sg56
(lp96
g49
(g70
g51
NtRp97
(dp98
g54
(dp99
g74
g75
ssg63
g93
sg56
(lp100
S'application'
p101
asbag49
(g70
g51
NtRp102
(dp103
g54
(dp104
g81
g82
ssg63
g93
sg56
(lp105
S':'
asbag49
(g70
g51
NtRp106
(dp107
g54
(dp108
sg63
g93
sg56
(lp109
g49
(g50
g51
NtRp110
(dp111
g54
(dp112
g62
I5
ssg63
g106
sg56
(lp113
S'SlugBarter'
p114
asbasbasbag49
(g65
g51
NtRp115
(dp116
g54
(dp117
sg63
g59
sg56
(lp118
g49
(g70
g51
NtRp119
(dp120
g54
(dp121
g74
g75
ssg63
g115
sg56
(lp122
g28
asbag49
(g70
g51
NtRp123
(dp124
g54
(dp125
g81
g82
ssg63
g115
sg56
(lp126
S':'
asbag49
(g70
g51
NtRp127
(dp128
g54
(dp129
sg63
g115
sg56
(lp130
g49
(g50
g51
NtRp131
(dp132
g54
(dp133
g62
I5
ssg63
g127
sg56
(lp134
g49
(g58
g51
NtRp135
(dp136
g54
(dp137
g62
I4
ssg63
Nsg56
(lp138
g49
(g65
g51
NtRp139
(dp140
g54
(dp141
sg63
g135
sg56
(lp142
g49
(g70
g51
NtRp143
(dp144
g54
(dp145
sg63
g139
sg56
(lp146
g49
(g50
g51
NtRp147
(dp148
g54
(dp149
g62
I4
ssg63
g143
sg56
(lp150
S'6'
asbasbasbasbasbasbasbag49
(g65
g51
NtRp151
(dp152
g54
(dp153
sg63
g59
sg56
(lp154
g49
(g70
g51
NtRp155
(dp156
g54
(dp157
g74
g75
ssg63
g151
sg56
(lp158
S'body'
p159
asbag49
(g70
g51
NtRp160
(dp161
g54
(dp162
g81
g82
ssg63
g151
sg56
(lp163
S':'
asbag49
(g70
g51
NtRp164
(dp165
g54
(dp166
sg63
g151
sg56
(lp167
g49
(g50
g51
NtRp168
(dp169
g54
(dp170
g62
I5
ssg63
g164
sg56
(lp171
S'<cStringIO.StringO object at 0x061D3360>'
p172
asbasbasbag49
(g65
g51
NtRp173
(dp174
g54
(dp175
sg63
g59
sg56
(lp176
g49
(g70
g51
NtRp177
(dp178
g54
(dp179
g74
g75
ssg63
g173
sg56
(lp180
S'client'
p181
asbag49
(g70
g51
NtRp182
(dp183
g54
(dp184
g81
g82
ssg63
g173
sg56
(lp185
S':'
asbag49
(g70
g51
NtRp186
(dp187
g54
(dp188
sg63
g173
sg56
(lp189
g49
(g50
g51
NtRp190
(dp191
g54
(dp192
g62
I5
ssg63
g186
sg56
(lp193
S'127.0.0.1'
p194
asbasbasbag49
(g65
g51
NtRp195
(dp196
g54
(dp197
sg63
g59
sg56
(lp198
g49
(g70
g51
NtRp199
(dp200
g54
(dp201
g74
g75
ssg63
g195
sg56
(lp202
S'controller'
p203
asbag49
(g70
g51
NtRp204
(dp205
g54
(dp206
g81
g82
ssg63
g195
sg56
(lp207
S':'
asbag49
(g70
g51
NtRp208
(dp209
g54
(dp210
sg63
g195
sg56
(lp211
g49
(g50
g51
NtRp212
(dp213
g54
(dp214
g62
I5
ssg63
g208
sg56
(lp215
S'default'
p216
asbasbasbag49
(g65
g51
NtRp217
(dp218
g54
(dp219
sg63
g59
sg56
(lp220
g49
(g70
g51
NtRp221
(dp222
g54
(dp223
g74
g75
ssg63
g217
sg56
(lp224
S'cookies'
p225
asbag49
(g70
g51
NtRp226
(dp227
g54
(dp228
g81
g82
ssg63
g217
sg56
(lp229
S':'
asbag49
(g70
g51
NtRp230
(dp231
g54
(dp232
sg63
g217
sg56
(lp233
g49
(g50
g51
NtRp234
(dp235
g54
(dp236
g62
I5
ssg63
g230
sg56
(lp237
g49
(g58
g51
NtRp238
(dp239
g54
(dp240
g62
I4
ssg63
Nsg56
(lp241
g49
(g65
g51
NtRp242
(dp243
g54
(dp244
sg63
g238
sg56
(lp245
g49
(g70
g51
NtRp246
(dp247
g54
(dp248
g74
g75
ssg63
g242
sg56
(lp249
S'session_id_admin'
p250
asbag49
(g70
g51
NtRp251
(dp252
g54
(dp253
g81
g82
ssg63
g242
sg56
(lp254
S':'
asbag49
(g70
g51
NtRp255
(dp256
g54
(dp257
sg63
g242
sg56
(lp258
g49
(g50
g51
NtRp259
(dp260
g54
(dp261
g62
I4
ssg63
g255
sg56
(lp262
g49
(g58
g51
NtRp263
(dp264
g54
(dp265
g62
I3
ssg63
Nsg56
(lp266
g49
(g65
g51
NtRp267
(dp268
g54
(dp269
sg63
g263
sg56
(lp270
g49
(g70
g51
NtRp271
(dp272
g54
(dp273
g74
g75
ssg63
g267
sg56
(lp274
S'comment'
p275
asbag49
(g70
g51
NtRp276
(dp277
g54
(dp278
g81
g82
ssg63
g267
sg56
(lp279
S':'
asbag49
(g70
g51
NtRp280
(dp281
g54
(dp282
sg63
g267
sg56
(lp283
g49
(g50
g51
NtRp284
(dp285
g54
(dp286
g62
I3
ssg63
g280
sg56
(lp287
S''
asbasbasbag49
(g65
g51
NtRp288
(dp289
g54
(dp290
sg63
g263
sg56
(lp291
g49
(g70
g51
NtRp292
(dp293
g54
(dp294
g74
g75
ssg63
g288
sg56
(lp295
S'domain'
p296
asbag49
(g70
g51
NtRp297
(dp298
g54
(dp299
g81
g82
ssg63
g288
sg56
(lp300
S':'
asbag49
(g70
g51
NtRp301
(dp302
g54
(dp303
sg63
g288
sg56
(lp304
g49
(g50
g51
NtRp305
(dp306
g54
(dp307
g62
I3
ssg63
g301
sg56
(lp308
S''
asbasbasbag49
(g65
g51
NtRp309
(dp310
g54
(dp311
sg63
g263
sg56
(lp312
g49
(g70
g51
NtRp313
(dp314
g54
(dp315
g74
g75
ssg63
g309
sg56
(lp316
S'expires'
p317
asbag49
(g70
g51
NtRp318
(dp319
g54
(dp320
g81
g82
ssg63
g309
sg56
(lp321
S':'
asbag49
(g70
g51
NtRp322
(dp323
g54
(dp324
sg63
g309
sg56
(lp325
g49
(g50
g51
NtRp326
(dp327
g54
(dp328
g62
I3
ssg63
g322
sg56
(lp329
S''
asbasbasbag49
(g65
g51
NtRp330
(dp331
g54
(dp332
sg63
g263
sg56
(lp333
g49
(g70
g51
NtRp334
(dp335
g54
(dp336
g74
g75
ssg63
g330
sg56
(lp337
S'max-age'
p338
asbag49
(g70
g51
NtRp339
(dp340
g54
(dp341
g81
g82
ssg63
g330
sg56
(lp342
S':'
asbag49
(g70
g51
NtRp343
(dp344
g54
(dp345
sg63
g330
sg56
(lp346
g49
(g50
g51
NtRp347
(dp348
g54
(dp349
g62
I3
ssg63
g343
sg56
(lp350
S''
asbasbasbag49
(g65
g51
NtRp351
(dp352
g54
(dp353
sg63
g263
sg56
(lp354
g49
(g70
g51
NtRp355
(dp356
g54
(dp357
g74
g75
ssg63
g351
sg56
(lp358
S'path'
p359
asbag49
(g70
g51
NtRp360
(dp361
g54
(dp362
g81
g82
ssg63
g351
sg56
(lp363
S':'
asbag49
(g70
g51
NtRp364
(dp365
g54
(dp366
sg63
g351
sg56
(lp367
g49
(g50
g51
NtRp368
(dp369
g54
(dp370
g62
I3
ssg63
g364
sg56
(lp371
S''
asbasbasbag49
(g65
g51
NtRp372
(dp373
g54
(dp374
sg63
g263
sg56
(lp375
g49
(g70
g51
NtRp376
(dp377
g54
(dp378
g74
g75
ssg63
g372
sg56
(lp379
S'secure'
p380
asbag49
(g70
g51
NtRp381
(dp382
g54
(dp383
g81
g82
ssg63
g372
sg56
(lp384
S':'
asbag49
(g70
g51
NtRp385
(dp386
g54
(dp387
sg63
g372
sg56
(lp388
g49
(g50
g51
NtRp389
(dp390
g54
(dp391
g62
I3
ssg63
g385
sg56
(lp392
S''
asbasbasbag49
(g65
g51
NtRp393
(dp394
g54
(dp395
sg63
g263
sg56
(lp396
g49
(g70
g51
NtRp397
(dp398
g54
(dp399
g74
g75
ssg63
g393
sg56
(lp400
S'version'
p401
asbag49
(g70
g51
NtRp402
(dp403
g54
(dp404
g81
g82
ssg63
g393
sg56
(lp405
S':'
asbag49
(g70
g51
NtRp406
(dp407
g54
(dp408
sg63
g393
sg56
(lp409
g49
(g50
g51
NtRp410
(dp411
g54
(dp412
g62
I3
ssg63
g406
sg56
(lp413
S''
asbasbasbasbasbasbasbag49
(g65
g51
NtRp414
(dp415
g54
(dp416
sg63
g238
sg56
(lp417
g49
(g70
g51
NtRp418
(dp419
g54
(dp420
g74
g75
ssg63
g414
sg56
(lp421
S'session_id_onlinenotes_p1_'
p422
asbag49
(g70
g51
NtRp423
(dp424
g54
(dp425
g81
g82
ssg63
g414
sg56
(lp426
S':'
asbag49
(g70
g51
NtRp427
(dp428
g54
(dp429
sg63
g414
sg56
(lp430
g49
(g50
g51
NtRp431
(dp432
g54
(dp433
g62
I4
ssg63
g427
sg56
(lp434
g49
(g58
g51
NtRp435
(dp436
g54
(dp437
g62
I3
ssg63
Nsg56
(lp438
g49
(g65
g51
NtRp439
(dp440
g54
(dp441
sg63
g435
sg56
(lp442
g49
(g70
g51
NtRp443
(dp444
g54
(dp445
g74
g75
ssg63
g439
sg56
(lp446
g275
asbag49
(g70
g51
NtRp447
(dp448
g54
(dp449
g81
g82
ssg63
g439
sg56
(lp450
S':'
asbag49
(g70
g51
NtRp451
(dp452
g54
(dp453
sg63
g439
sg56
(lp454
g49
(g50
g51
NtRp455
(dp456
g54
(dp457
g62
I3
ssg63
g451
sg56
(lp458
S''
asbasbasbag49
(g65
g51
NtRp459
(dp460
g54
(dp461
sg63
g435
sg56
(lp462
g49
(g70
g51
NtRp463
(dp464
g54
(dp465
g74
g75
ssg63
g459
sg56
(lp466
g296
asbag49
(g70
g51
NtRp467
(dp468
g54
(dp469
g81
g82
ssg63
g459
sg56
(lp470
S':'
asbag49
(g70
g51
NtRp471
(dp472
g54
(dp473
sg63
g459
sg56
(lp474
g49
(g50
g51
NtRp475
(dp476
g54
(dp477
g62
I3
ssg63
g471
sg56
(lp478
S''
asbasbasbag49
(g65
g51
NtRp479
(dp480
g54
(dp481
sg63
g435
sg56
(lp482
g49
(g70
g51
NtRp483
(dp484
g54
(dp485
g74
g75
ssg63
g479
sg56
(lp486
g317
asbag49
(g70
g51
NtRp487
(dp488
g54
(dp489
g81
g82
ssg63
g479
sg56
(lp490
S':'
asbag49
(g70
g51
NtRp491
(dp492
g54
(dp493
sg63
g479
sg56
(lp494
g49
(g50
g51
NtRp495
(dp496
g54
(dp497
g62
I3
ssg63
g491
sg56
(lp498
S''
asbasbasbag49
(g65
g51
NtRp499
(dp500
g54
(dp501
sg63
g435
sg56
(lp502
g49
(g70
g51
NtRp503
(dp504
g54
(dp505
g74
g75
ssg63
g499
sg56
(lp506
g338
asbag49
(g70
g51
NtRp507
(dp508
g54
(dp509
g81
g82
ssg63
g499
sg56
(lp510
S':'
asbag49
(g70
g51
NtRp511
(dp512
g54
(dp513
sg63
g499
sg56
(lp514
g49
(g50
g51
NtRp515
(dp516
g54
(dp517
g62
I3
ssg63
g511
sg56
(lp518
S''
asbasbasbag49
(g65
g51
NtRp519
(dp520
g54
(dp521
sg63
g435
sg56
(lp522
g49
(g70
g51
NtRp523
(dp524
g54
(dp525
g74
g75
ssg63
g519
sg56
(lp526
g359
asbag49
(g70
g51
NtRp527
(dp528
g54
(dp529
g81
g82
ssg63
g519
sg56
(lp530
S':'
asbag49
(g70
g51
NtRp531
(dp532
g54
(dp533
sg63
g519
sg56
(lp534
g49
(g50
g51
NtRp535
(dp536
g54
(dp537
g62
I3
ssg63
g531
sg56
(lp538
S''
asbasbasbag49
(g65
g51
NtRp539
(dp540
g54
(dp541
sg63
g435
sg56
(lp542
g49
(g70
g51
NtRp543
(dp544
g54
(dp545
g74
g75
ssg63
g539
sg56
(lp546
g380
asbag49
(g70
g51
NtRp547
(dp548
g54
(dp549
g81
g82
ssg63
g539
sg56
(lp550
S':'
asbag49
(g70
g51
NtRp551
(dp552
g54
(dp553
sg63
g539
sg56
(lp554
g49
(g50
g51
NtRp555
(dp556
g54
(dp557
g62
I3
ssg63
g551
sg56
(lp558
S''
asbasbasbag49
(g65
g51
NtRp559
(dp560
g54
(dp561
sg63
g435
sg56
(lp562
g49
(g70
g51
NtRp563
(dp564
g54
(dp565
g74
g75
ssg63
g559
sg56
(lp566
g401
asbag49
(g70
g51
NtRp567
(dp568
g54
(dp569
g81
g82
ssg63
g559
sg56
(lp570
S':'
asbag49
(g70
g51
NtRp571
(dp572
g54
(dp573
sg63
g559
sg56
(lp574
g49
(g50
g51
NtRp575
(dp576
g54
(dp577
g62
I3
ssg63
g571
sg56
(lp578
S''
asbasbasbasbasbasbasbag49
(g65
g51
NtRp579
(dp580
g54
(dp581
sg63
g238
sg56
(lp582
g49
(g70
g51
NtRp583
(dp584
g54
(dp585
g74
g75
ssg63
g579
sg56
(lp586
S'session_id_slug_register_page'
p587
asbag49
(g70
g51
NtRp588
(dp589
g54
(dp590
g81
g82
ssg63
g579
sg56
(lp591
S':'
asbag49
(g70
g51
NtRp592
(dp593
g54
(dp594
sg63
g579
sg56
(lp595
g49
(g50
g51
NtRp596
(dp597
g54
(dp598
g62
I4
ssg63
g592
sg56
(lp599
g49
(g58
g51
NtRp600
(dp601
g54
(dp602
g62
I3
ssg63
Nsg56
(lp603
g49
(g65
g51
NtRp604
(dp605
g54
(dp606
sg63
g600
sg56
(lp607
g49
(g70
g51
NtRp608
(dp609
g54
(dp610
g74
g75
ssg63
g604
sg56
(lp611
g275
asbag49
(g70
g51
NtRp612
(dp613
g54
(dp614
g81
g82
ssg63
g604
sg56
(lp615
S':'
asbag49
(g70
g51
NtRp616
(dp617
g54
(dp618
sg63
g604
sg56
(lp619
g49
(g50
g51
NtRp620
(dp621
g54
(dp622
g62
I3
ssg63
g616
sg56
(lp623
S''
asbasbasbag49
(g65
g51
NtRp624
(dp625
g54
(dp626
sg63
g600
sg56
(lp627
g49
(g70
g51
NtRp628
(dp629
g54
(dp630
g74
g75
ssg63
g624
sg56
(lp631
g296
asbag49
(g70
g51
NtRp632
(dp633
g54
(dp634
g81
g82
ssg63
g624
sg56
(lp635
S':'
asbag49
(g70
g51
NtRp636
(dp637
g54
(dp638
sg63
g624
sg56
(lp639
g49
(g50
g51
NtRp640
(dp641
g54
(dp642
g62
I3
ssg63
g636
sg56
(lp643
S''
asbasbasbag49
(g65
g51
NtRp644
(dp645
g54
(dp646
sg63
g600
sg56
(lp647
g49
(g70
g51
NtRp648
(dp649
g54
(dp650
g74
g75
ssg63
g644
sg56
(lp651
g317
asbag49
(g70
g51
NtRp652
(dp653
g54
(dp654
g81
g82
ssg63
g644
sg56
(lp655
S':'
asbag49
(g70
g51
NtRp656
(dp657
g54
(dp658
sg63
g644
sg56
(lp659
g49
(g50
g51
NtRp660
(dp661
g54
(dp662
g62
I3
ssg63
g656
sg56
(lp663
S''
asbasbasbag49
(g65
g51
NtRp664
(dp665
g54
(dp666
sg63
g600
sg56
(lp667
g49
(g70
g51
NtRp668
(dp669
g54
(dp670
g74
g75
ssg63
g664
sg56
(lp671
g338
asbag49
(g70
g51
NtRp672
(dp673
g54
(dp674
g81
g82
ssg63
g664
sg56
(lp675
S':'
asbag49
(g70
g51
NtRp676
(dp677
g54
(dp678
sg63
g664
sg56
(lp679
g49
(g50
g51
NtRp680
(dp681
g54
(dp682
g62
I3
ssg63
g676
sg56
(lp683
S''
asbasbasbag49
(g65
g51
NtRp684
(dp685
g54
(dp686
sg63
g600
sg56
(lp687
g49
(g70
g51
NtRp688
(dp689
g54
(dp690
g74
g75
ssg63
g684
sg56
(lp691
g359
asbag49
(g70
g51
NtRp692
(dp693
g54
(dp694
g81
g82
ssg63
g684
sg56
(lp695
S':'
asbag49
(g70
g51
NtRp696
(dp697
g54
(dp698
sg63
g684
sg56
(lp699
g49
(g50
g51
NtRp700
(dp701
g54
(dp702
g62
I3
ssg63
g696
sg56
(lp703
S''
asbasbasbag49
(g65
g51
NtRp704
(dp705
g54
(dp706
sg63
g600
sg56
(lp707
g49
(g70
g51
NtRp708
(dp709
g54
(dp710
g74
g75
ssg63
g704
sg56
(lp711
g380
asbag49
(g70
g51
NtRp712
(dp713
g54
(dp714
g81
g82
ssg63
g704
sg56
(lp715
S':'
asbag49
(g70
g51
NtRp716
(dp717
g54
(dp718
sg63
g704
sg56
(lp719
g49
(g50
g51
NtRp720
(dp721
g54
(dp722
g62
I3
ssg63
g716
sg56
(lp723
S''
asbasbasbag49
(g65
g51
NtRp724
(dp725
g54
(dp726
sg63
g600
sg56
(lp727
g49
(g70
g51
NtRp728
(dp729
g54
(dp730
g74
g75
ssg63
g724
sg56
(lp731
g401
asbag49
(g70
g51
NtRp732
(dp733
g54
(dp734
g81
g82
ssg63
g724
sg56
(lp735
S':'
asbag49
(g70
g51
NtRp736
(dp737
g54
(dp738
sg63
g724
sg56
(lp739
g49
(g50
g51
NtRp740
(dp741
g54
(dp742
g62
I3
ssg63
g736
sg56
(lp743
S''
asbasbasbasbasbasbasbag49
(g65
g51
NtRp744
(dp745
g54
(dp746
sg63
g238
sg56
(lp747
g49
(g70
g51
NtRp748
(dp749
g54
(dp750
g74
g75
ssg63
g744
sg56
(lp751
S'session_id_slugbarter'
p752
asbag49
(g70
g51
NtRp753
(dp754
g54
(dp755
g81
g82
ssg63
g744
sg56
(lp756
S':'
asbag49
(g70
g51
NtRp757
(dp758
g54
(dp759
sg63
g744
sg56
(lp760
g49
(g50
g51
NtRp761
(dp762
g54
(dp763
g62
I4
ssg63
g757
sg56
(lp764
g49
(g58
g51
NtRp765
(dp766
g54
(dp767
g62
I3
ssg63
Nsg56
(lp768
g49
(g65
g51
NtRp769
(dp770
g54
(dp771
sg63
g765
sg56
(lp772
g49
(g70
g51
NtRp773
(dp774
g54
(dp775
g74
g75
ssg63
g769
sg56
(lp776
g275
asbag49
(g70
g51
NtRp777
(dp778
g54
(dp779
g81
g82
ssg63
g769
sg56
(lp780
S':'
asbag49
(g70
g51
NtRp781
(dp782
g54
(dp783
sg63
g769
sg56
(lp784
g49
(g50
g51
NtRp785
(dp786
g54
(dp787
g62
I3
ssg63
g781
sg56
(lp788
S''
asbasbasbag49
(g65
g51
NtRp789
(dp790
g54
(dp791
sg63
g765
sg56
(lp792
g49
(g70
g51
NtRp793
(dp794
g54
(dp795
g74
g75
ssg63
g789
sg56
(lp796
g296
asbag49
(g70
g51
NtRp797
(dp798
g54
(dp799
g81
g82
ssg63
g789
sg56
(lp800
S':'
asbag49
(g70
g51
NtRp801
(dp802
g54
(dp803
sg63
g789
sg56
(lp804
g49
(g50
g51
NtRp805
(dp806
g54
(dp807
g62
I3
ssg63
g801
sg56
(lp808
S''
asbasbasbag49
(g65
g51
NtRp809
(dp810
g54
(dp811
sg63
g765
sg56
(lp812
g49
(g70
g51
NtRp813
(dp814
g54
(dp815
g74
g75
ssg63
g809
sg56
(lp816
g317
asbag49
(g70
g51
NtRp817
(dp818
g54
(dp819
g81
g82
ssg63
g809
sg56
(lp820
S':'
asbag49
(g70
g51
NtRp821
(dp822
g54
(dp823
sg63
g809
sg56
(lp824
g49
(g50
g51
NtRp825
(dp826
g54
(dp827
g62
I3
ssg63
g821
sg56
(lp828
S''
asbasbasbag49
(g65
g51
NtRp829
(dp830
g54
(dp831
sg63
g765
sg56
(lp832
g49
(g70
g51
NtRp833
(dp834
g54
(dp835
g74
g75
ssg63
g829
sg56
(lp836
g338
asbag49
(g70
g51
NtRp837
(dp838
g54
(dp839
g81
g82
ssg63
g829
sg56
(lp840
S':'
asbag49
(g70
g51
NtRp841
(dp842
g54
(dp843
sg63
g829
sg56
(lp844
g49
(g50
g51
NtRp845
(dp846
g54
(dp847
g62
I3
ssg63
g841
sg56
(lp848
S''
asbasbasbag49
(g65
g51
NtRp849
(dp850
g54
(dp851
sg63
g765
sg56
(lp852
g49
(g70
g51
NtRp853
(dp854
g54
(dp855
g74
g75
ssg63
g849
sg56
(lp856
g359
asbag49
(g70
g51
NtRp857
(dp858
g54
(dp859
g81
g82
ssg63
g849
sg56
(lp860
S':'
asbag49
(g70
g51
NtRp861
(dp862
g54
(dp863
sg63
g849
sg56
(lp864
g49
(g50
g51
NtRp865
(dp866
g54
(dp867
g62
I3
ssg63
g861
sg56
(lp868
S''
asbasbasbag49
(g65
g51
NtRp869
(dp870
g54
(dp871
sg63
g765
sg56
(lp872
g49
(g70
g51
NtRp873
(dp874
g54
(dp875
g74
g75
ssg63
g869
sg56
(lp876
g380
asbag49
(g70
g51
NtRp877
(dp878
g54
(dp879
g81
g82
ssg63
g869
sg56
(lp880
S':'
asbag49
(g70
g51
NtRp881
(dp882
g54
(dp883
sg63
g869
sg56
(lp884
g49
(g50
g51
NtRp885
(dp886
g54
(dp887
g62
I3
ssg63
g881
sg56
(lp888
S''
asbasbasbag49
(g65
g51
NtRp889
(dp890
g54
(dp891
sg63
g765
sg56
(lp892
g49
(g70
g51
NtRp893
(dp894
g54
(dp895
g74
g75
ssg63
g889
sg56
(lp896
g401
asbag49
(g70
g51
NtRp897
(dp898
g54
(dp899
g81
g82
ssg63
g889
sg56
(lp900
S':'
asbag49
(g70
g51
NtRp901
(dp902
g54
(dp903
sg63
g889
sg56
(lp904
g49
(g50
g51
NtRp905
(dp906
g54
(dp907
g62
I3
ssg63
g901
sg56
(lp908
S''
asbasbasbasbasbasbasbag49
(g65
g51
NtRp909
(dp910
g54
(dp911
sg63
g238
sg56
(lp912
g49
(g70
g51
NtRp913
(dp914
g54
(dp915
g74
g75
ssg63
g909
sg56
(lp916
S'session_id_testapp'
p917
asbag49
(g70
g51
NtRp918
(dp919
g54
(dp920
g81
g82
ssg63
g909
sg56
(lp921
S':'
asbag49
(g70
g51
NtRp922
(dp923
g54
(dp924
sg63
g909
sg56
(lp925
g49
(g50
g51
NtRp926
(dp927
g54
(dp928
g62
I4
ssg63
g922
sg56
(lp929
g49
(g58
g51
NtRp930
(dp931
g54
(dp932
g62
I3
ssg63
Nsg56
(lp933
g49
(g65
g51
NtRp934
(dp935
g54
(dp936
sg63
g930
sg56
(lp937
g49
(g70
g51
NtRp938
(dp939
g54
(dp940
g74
g75
ssg63
g934
sg56
(lp941
g275
asbag49
(g70
g51
NtRp942
(dp943
g54
(dp944
g81
g82
ssg63
g934
sg56
(lp945
S':'
asbag49
(g70
g51
NtRp946
(dp947
g54
(dp948
sg63
g934
sg56
(lp949
g49
(g50
g51
NtRp950
(dp951
g54
(dp952
g62
I3
ssg63
g946
sg56
(lp953
S''
asbasbasbag49
(g65
g51
NtRp954
(dp955
g54
(dp956
sg63
g930
sg56
(lp957
g49
(g70
g51
NtRp958
(dp959
g54
(dp960
g74
g75
ssg63
g954
sg56
(lp961
g296
asbag49
(g70
g51
NtRp962
(dp963
g54
(dp964
g81
g82
ssg63
g954
sg56
(lp965
S':'
asbag49
(g70
g51
NtRp966
(dp967
g54
(dp968
sg63
g954
sg56
(lp969
g49
(g50
g51
NtRp970
(dp971
g54
(dp972
g62
I3
ssg63
g966
sg56
(lp973
S''
asbasbasbag49
(g65
g51
NtRp974
(dp975
g54
(dp976
sg63
g930
sg56
(lp977
g49
(g70
g51
NtRp978
(dp979
g54
(dp980
g74
g75
ssg63
g974
sg56
(lp981
g317
asbag49
(g70
g51
NtRp982
(dp983
g54
(dp984
g81
g82
ssg63
g974
sg56
(lp985
S':'
asbag49
(g70
g51
NtRp986
(dp987
g54
(dp988
sg63
g974
sg56
(lp989
g49
(g50
g51
NtRp990
(dp991
g54
(dp992
g62
I3
ssg63
g986
sg56
(lp993
S''
asbasbasbag49
(g65
g51
NtRp994
(dp995
g54
(dp996
sg63
g930
sg56
(lp997
g49
(g70
g51
NtRp998
(dp999
g54
(dp1000
g74
g75
ssg63
g994
sg56
(lp1001
g338
asbag49
(g70
g51
NtRp1002
(dp1003
g54
(dp1004
g81
g82
ssg63
g994
sg56
(lp1005
S':'
asbag49
(g70
g51
NtRp1006
(dp1007
g54
(dp1008
sg63
g994
sg56
(lp1009
g49
(g50
g51
NtRp1010
(dp1011
g54
(dp1012
g62
I3
ssg63
g1006
sg56
(lp1013
S''
asbasbasbag49
(g65
g51
NtRp1014
(dp1015
g54
(dp1016
sg63
g930
sg56
(lp1017
g49
(g70
g51
NtRp1018
(dp1019
g54
(dp1020
g74
g75
ssg63
g1014
sg56
(lp1021
g359
asbag49
(g70
g51
NtRp1022
(dp1023
g54
(dp1024
g81
g82
ssg63
g1014
sg56
(lp1025
S':'
asbag49
(g70
g51
NtRp1026
(dp1027
g54
(dp1028
sg63
g1014
sg56
(lp1029
g49
(g50
g51
NtRp1030
(dp1031
g54
(dp1032
g62
I3
ssg63
g1026
sg56
(lp1033
S''
asbasbasbag49
(g65
g51
NtRp1034
(dp1035
g54
(dp1036
sg63
g930
sg56
(lp1037
g49
(g70
g51
NtRp1038
(dp1039
g54
(dp1040
g74
g75
ssg63
g1034
sg56
(lp1041
g380
asbag49
(g70
g51
NtRp1042
(dp1043
g54
(dp1044
g81
g82
ssg63
g1034
sg56
(lp1045
S':'
asbag49
(g70
g51
NtRp1046
(dp1047
g54
(dp1048
sg63
g1034
sg56
(lp1049
g49
(g50
g51
NtRp1050
(dp1051
g54
(dp1052
g62
I3
ssg63
g1046
sg56
(lp1053
S''
asbasbasbag49
(g65
g51
NtRp1054
(dp1055
g54
(dp1056
sg63
g930
sg56
(lp1057
g49
(g70
g51
NtRp1058
(dp1059
g54
(dp1060
g74
g75
ssg63
g1054
sg56
(lp1061
g401
asbag49
(g70
g51
NtRp1062
(dp1063
g54
(dp1064
g81
g82
ssg63
g1054
sg56
(lp1065
S':'
asbag49
(g70
g51
NtRp1066
(dp1067
g54
(dp1068
sg63
g1054
sg56
(lp1069
g49
(g50
g51
NtRp1070
(dp1071
g54
(dp1072
g62
I3
ssg63
g1066
sg56
(lp1073
S''
asbasbasbasbasbasbasbag49
(g65
g51
NtRp1074
(dp1075
g54
(dp1076
sg63
g238
sg56
(lp1077
g49
(g70
g51
NtRp1078
(dp1079
g54
(dp1080
g74
g75
ssg63
g1074
sg56
(lp1081
S'session_id_welcome'
p1082
asbag49
(g70
g51
NtRp1083
(dp1084
g54
(dp1085
g81
g82
ssg63
g1074
sg56
(lp1086
S':'
asbag49
(g70
g51
NtRp1087
(dp1088
g54
(dp1089
sg63
g1074
sg56
(lp1090
g49
(g50
g51
NtRp1091
(dp1092
g54
(dp1093
g62
I4
ssg63
g1087
sg56
(lp1094
g49
(g58
g51
NtRp1095
(dp1096
g54
(dp1097
g62
I3
ssg63
Nsg56
(lp1098
g49
(g65
g51
NtRp1099
(dp1100
g54
(dp1101
sg63
g1095
sg56
(lp1102
g49
(g70
g51
NtRp1103
(dp1104
g54
(dp1105
g74
g75
ssg63
g1099
sg56
(lp1106
g275
asbag49
(g70
g51
NtRp1107
(dp1108
g54
(dp1109
g81
g82
ssg63
g1099
sg56
(lp1110
S':'
asbag49
(g70
g51
NtRp1111
(dp1112
g54
(dp1113
sg63
g1099
sg56
(lp1114
g49
(g50
g51
NtRp1115
(dp1116
g54
(dp1117
g62
I3
ssg63
g1111
sg56
(lp1118
S''
asbasbasbag49
(g65
g51
NtRp1119
(dp1120
g54
(dp1121
sg63
g1095
sg56
(lp1122
g49
(g70
g51
NtRp1123
(dp1124
g54
(dp1125
g74
g75
ssg63
g1119
sg56
(lp1126
g296
asbag49
(g70
g51
NtRp1127
(dp1128
g54
(dp1129
g81
g82
ssg63
g1119
sg56
(lp1130
S':'
asbag49
(g70
g51
NtRp1131
(dp1132
g54
(dp1133
sg63
g1119
sg56
(lp1134
g49
(g50
g51
NtRp1135
(dp1136
g54
(dp1137
g62
I3
ssg63
g1131
sg56
(lp1138
S''
asbasbasbag49
(g65
g51
NtRp1139
(dp1140
g54
(dp1141
sg63
g1095
sg56
(lp1142
g49
(g70
g51
NtRp1143
(dp1144
g54
(dp1145
g74
g75
ssg63
g1139
sg56
(lp1146
g317
asbag49
(g70
g51
NtRp1147
(dp1148
g54
(dp1149
g81
g82
ssg63
g1139
sg56
(lp1150
S':'
asbag49
(g70
g51
NtRp1151
(dp1152
g54
(dp1153
sg63
g1139
sg56
(lp1154
g49
(g50
g51
NtRp1155
(dp1156
g54
(dp1157
g62
I3
ssg63
g1151
sg56
(lp1158
S''
asbasbasbag49
(g65
g51
NtRp1159
(dp1160
g54
(dp1161
sg63
g1095
sg56
(lp1162
g49
(g70
g51
NtRp1163
(dp1164
g54
(dp1165
g74
g75
ssg63
g1159
sg56
(lp1166
g338
asbag49
(g70
g51
NtRp1167
(dp1168
g54
(dp1169
g81
g82
ssg63
g1159
sg56
(lp1170
S':'
asbag49
(g70
g51
NtRp1171
(dp1172
g54
(dp1173
sg63
g1159
sg56
(lp1174
g49
(g50
g51
NtRp1175
(dp1176
g54
(dp1177
g62
I3
ssg63
g1171
sg56
(lp1178
S''
asbasbasbag49
(g65
g51
NtRp1179
(dp1180
g54
(dp1181
sg63
g1095
sg56
(lp1182
g49
(g70
g51
NtRp1183
(dp1184
g54
(dp1185
g74
g75
ssg63
g1179
sg56
(lp1186
g359
asbag49
(g70
g51
NtRp1187
(dp1188
g54
(dp1189
g81
g82
ssg63
g1179
sg56
(lp1190
S':'
asbag49
(g70
g51
NtRp1191
(dp1192
g54
(dp1193
sg63
g1179
sg56
(lp1194
g49
(g50
g51
NtRp1195
(dp1196
g54
(dp1197
g62
I3
ssg63
g1191
sg56
(lp1198
S''
asbasbasbag49
(g65
g51
NtRp1199
(dp1200
g54
(dp1201
sg63
g1095
sg56
(lp1202
g49
(g70
g51
NtRp1203
(dp1204
g54
(dp1205
g74
g75
ssg63
g1199
sg56
(lp1206
g380
asbag49
(g70
g51
NtRp1207
(dp1208
g54
(dp1209
g81
g82
ssg63
g1199
sg56
(lp1210
S':'
asbag49
(g70
g51
NtRp1211
(dp1212
g54
(dp1213
sg63
g1199
sg56
(lp1214
g49
(g50
g51
NtRp1215
(dp1216
g54
(dp1217
g62
I3
ssg63
g1211
sg56
(lp1218
S''
asbasbasbag49
(g65
g51
NtRp1219
(dp1220
g54
(dp1221
sg63
g1095
sg56
(lp1222
g49
(g70
g51
NtRp1223
(dp1224
g54
(dp1225
g74
g75
ssg63
g1219
sg56
(lp1226
g401
asbag49
(g70
g51
NtRp1227
(dp1228
g54
(dp1229
g81
g82
ssg63
g1219
sg56
(lp1230
S':'
asbag49
(g70
g51
NtRp1231
(dp1232
g54
(dp1233
sg63
g1219
sg56
(lp1234
g49
(g50
g51
NtRp1235
(dp1236
g54
(dp1237
g62
I3
ssg63
g1231
sg56
(lp1238
S''
asbasbasbasbasbasbasbasbasbasbasbag49
(g65
g51
NtRp1239
(dp1240
g54
(dp1241
sg63
g59
sg56
(lp1242
g49
(g70
g51
NtRp1243
(dp1244
g54
(dp1245
g74
g75
ssg63
g1239
sg56
(lp1246
S'env'
p1247
asbag49
(g70
g51
NtRp1248
(dp1249
g54
(dp1250
g81
g82
ssg63
g1239
sg56
(lp1251
S':'
asbag49
(g70
g51
NtRp1252
(dp1253
g54
(dp1254
sg63
g1239
sg56
(lp1255
g49
(g50
g51
NtRp1256
(dp1257
g54
(dp1258
g62
I5
ssg63
g1252
sg56
(lp1259
g49
(g58
g51
NtRp1260
(dp1261
g54
(dp1262
g62
I4
ssg63
Nsg56
(lp1263
g49
(g65
g51
NtRp1264
(dp1265
g54
(dp1266
sg63
g1260
sg56
(lp1267
g49
(g70
g51
NtRp1268
(dp1269
g54
(dp1270
g74
g75
ssg63
g1264
sg56
(lp1271
S'app_folders'
p1272
asbag49
(g70
g51
NtRp1273
(dp1274
g54
(dp1275
g81
g82
ssg63
g1264
sg56
(lp1276
S':'
asbag49
(g70
g51
NtRp1277
(dp1278
g54
(dp1279
sg63
g1264
sg56
(lp1280
g49
(g50
g51
NtRp1281
(dp1282
g54
(dp1283
g62
I4
ssg63
g1277
sg56
(lp1284
S"set(['C:\\\\Users\\\\omkara\\\\Desktop\\\\web2py\\\\applications\\\\newA\\\\', 'C:\\\\Users\\\\omkara\\\\Desktop\\\\web2py\\\\applications\\\\slug_register_page\\\\', 'C:\\\\Users\\\\omkara\\\\Desktop\\\\web2py\\\\applications\\\\admin\\\\', 'C:\\\\Users\\\\omkara\\\\Desktop\\\\web2py\\\\applications\\\\welcome\\\\', 'C:\\\\Users\\\\omkara\\\\Desktop\\\\web2py\\\\applications\\\\slug_register\\\\', 'C:\\\\Users\\\\omkara\\\\Desktop\\\\web2py\\\\applications\\\\OnlineNotes_p1_\\\\', 'C:\\\\Users\\\\omkara\\\\Desktop\\\\web2py\\\\applications\\\\SlugBarter\\\\', 'C:\\\\Users\\\\omkara\\\\Desktop\\\\web2py\\\\applications\\\\testApp\\\\'])"
p1285
asbasbasbag49
(g65
g51
NtRp1286
(dp1287
g54
(dp1288
sg63
g1260
sg56
(lp1289
g49
(g70
g51
NtRp1290
(dp1291
g54
(dp1292
g74
g75
ssg63
g1286
sg56
(lp1293
S'applications_parent'
p1294
asbag49
(g70
g51
NtRp1295
(dp1296
g54
(dp1297
g81
g82
ssg63
g1286
sg56
(lp1298
S':'
asbag49
(g70
g51
NtRp1299
(dp1300
g54
(dp1301
sg63
g1286
sg56
(lp1302
g49
(g50
g51
NtRp1303
(dp1304
g54
(dp1305
g62
I4
ssg63
g1299
sg56
(lp1306
S'C:\\Users\\omkara\\Desktop\\web2py'
p1307
asbasbasbag49
(g65
g51
NtRp1308
(dp1309
g54
(dp1310
sg63
g1260
sg56
(lp1311
g49
(g70
g51
NtRp1312
(dp1313
g54
(dp1314
g74
g75
ssg63
g1308
sg56
(lp1315
S'cmd_args'
p1316
asbag49
(g70
g51
NtRp1317
(dp1318
g54
(dp1319
g81
g82
ssg63
g1308
sg56
(lp1320
S':'
asbag49
(g70
g51
NtRp1321
(dp1322
g54
(dp1323
sg63
g1308
sg56
(lp1324
g49
(g50
g51
NtRp1325
(dp1326
g54
(dp1327
g62
I4
ssg63
g1321
sg56
(lp1328
g49
(g58
g51
NtRp1329
(dp1330
g54
(dp1331
g62
I3
ssg63
Nsg56
(lp1332
sbasbasbasbag49
(g65
g51
NtRp1333
(dp1334
g54
(dp1335
sg63
g1260
sg56
(lp1336
g49
(g70
g51
NtRp1337
(dp1338
g54
(dp1339
g74
g75
ssg63
g1333
sg56
(lp1340
S'cmd_options'
p1341
asbag49
(g70
g51
NtRp1342
(dp1343
g54
(dp1344
g81
g82
ssg63
g1333
sg56
(lp1345
S':'
asbag49
(g70
g51
NtRp1346
(dp1347
g54
(dp1348
sg63
g1333
sg56
(lp1349
g49
(g50
g51
NtRp1350
(dp1351
g54
(dp1352
g62
I4
ssg63
g1346
sg56
(lp1353
S"<Values at 0x27b1f80: {'verbose': False, 'ip': '127.0.0.1', 'shutdown_timeout': 5, 'taskbar': False, 'nocron': False, 'pid_filename': 'httpserver.pid', 'maxthreads': None, 'softcron': False, 'server_name': 'omkara-PC', 'bpython': False, 'nogui': False, 'port': 8000, 'extcron': False, 'debuglevel': 30, 'test': None, 'folder': 'C:\\\\Users\\\\omkara\\\\Desktop\\\\web2py', 'config': '', 'import_models': False, 'winservice': '', 'shell': None, 'run': '', 'log_filename': 'httpserver.log', 'args': [''], 'socket_timeout': 5, 'ssl_ca_certificate': None, 'scheduler': None, 'profiler_filename': None, 'ssl_private_key': '', 'password': '<ask>', 'request_queue_size': 5, 'ssl_certificate': '', 'cronjob': False, 'numthreads': None, 'quiet': False, 'interfaces': None, 'minthreads': None, 'timeout': 10, 'plain': False, 'nobanner': False}>"
p1354
asbasbasbag49
(g65
g51
NtRp1355
(dp1356
g54
(dp1357
sg63
g1260
sg56
(lp1358
g49
(g70
g51
NtRp1359
(dp1360
g54
(dp1361
g74
g75
ssg63
g1355
sg56
(lp1362
S'db_sessions'
p1363
asbag49
(g70
g51
NtRp1364
(dp1365
g54
(dp1366
g81
g82
ssg63
g1355
sg56
(lp1367
S':'
asbag49
(g70
g51
NtRp1368
(dp1369
g54
(dp1370
sg63
g1355
sg56
(lp1371
g49
(g50
g51
NtRp1372
(dp1373
g54
(dp1374
g62
I4
ssg63
g1368
sg56
(lp1375
S'set([])'
p1376
asbasbasbag49
(g65
g51
NtRp1377
(dp1378
g54
(dp1379
sg63
g1260
sg56
(lp1380
g49
(g70
g51
NtRp1381
(dp1382
g54
(dp1383
g74
g75
ssg63
g1377
sg56
(lp1384
S'debugging'
p1385
asbag49
(g70
g51
NtRp1386
(dp1387
g54
(dp1388
g81
g82
ssg63
g1377
sg56
(lp1389
S':'
asbag49
(g70
g51
NtRp1390
(dp1391
g54
(dp1392
sg63
g1377
sg56
(lp1393
g49
(g50
g51
NtRp1394
(dp1395
g54
(dp1396
g62
I4
ssg63
g1390
sg56
(lp1397
g92
asbasbasbag49
(g65
g51
NtRp1398
(dp1399
g54
(dp1400
sg63
g1260
sg56
(lp1401
g49
(g70
g51
NtRp1402
(dp1403
g54
(dp1404
g74
g75
ssg63
g1398
sg56
(lp1405
S'gluon_parent'
p1406
asbag49
(g70
g51
NtRp1407
(dp1408
g54
(dp1409
g81
g82
ssg63
g1398
sg56
(lp1410
S':'
asbag49
(g70
g51
NtRp1411
(dp1412
g54
(dp1413
sg63
g1398
sg56
(lp1414
g49
(g50
g51
NtRp1415
(dp1416
g54
(dp1417
g62
I4
ssg63
g1411
sg56
(lp1418
S'C:\\Users\\omkara\\Desktop\\web2py'
p1419
asbasbasbag49
(g65
g51
NtRp1420
(dp1421
g54
(dp1422
sg63
g1260
sg56
(lp1423
g49
(g70
g51
NtRp1424
(dp1425
g54
(dp1426
g74
g75
ssg63
g1420
sg56
(lp1427
S'http_accept'
p1428
asbag49
(g70
g51
NtRp1429
(dp1430
g54
(dp1431
g81
g82
ssg63
g1420
sg56
(lp1432
S':'
asbag49
(g70
g51
NtRp1433
(dp1434
g54
(dp1435
sg63
g1420
sg56
(lp1436
g49
(g50
g51
NtRp1437
(dp1438
g54
(dp1439
g62
I4
ssg63
g1433
sg56
(lp1440
S'text/html,application/xhtml+xml,application/xml;q=0.9,*/*;q=0.8'
p1441
asbasbasbag49
(g65
g51
NtRp1442
(dp1443
g54
(dp1444
sg63
g1260
sg56
(lp1445
g49
(g70
g51
NtRp1446
(dp1447
g54
(dp1448
g74
g75
ssg63
g1442
sg56
(lp1449
S'http_accept_charset'
p1450
asbag49
(g70
g51
NtRp1451
(dp1452
g54
(dp1453
g81
g82
ssg63
g1442
sg56
(lp1454
S':'
asbag49
(g70
g51
NtRp1455
(dp1456
g54
(dp1457
sg63
g1442
sg56
(lp1458
g49
(g50
g51
NtRp1459
(dp1460
g54
(dp1461
g62
I4
ssg63
g1455
sg56
(lp1462
S'ISO-8859-1,utf-8;q=0.7,*;q=0.3'
p1463
asbasbasbag49
(g65
g51
NtRp1464
(dp1465
g54
(dp1466
sg63
g1260
sg56
(lp1467
g49
(g70
g51
NtRp1468
(dp1469
g54
(dp1470
g74
g75
ssg63
g1464
sg56
(lp1471
S'http_accept_encoding'
p1472
asbag49
(g70
g51
NtRp1473
(dp1474
g54
(dp1475
g81
g82
ssg63
g1464
sg56
(lp1476
S':'
asbag49
(g70
g51
NtRp1477
(dp1478
g54
(dp1479
sg63
g1464
sg56
(lp1480
g49
(g50
g51
NtRp1481
(dp1482
g54
(dp1483
g62
I4
ssg63
g1477
sg56
(lp1484
S'gzip,deflate,sdch'
p1485
asbasbasbag49
(g65
g51
NtRp1486
(dp1487
g54
(dp1488
sg63
g1260
sg56
(lp1489
g49
(g70
g51
NtRp1490
(dp1491
g54
(dp1492
g74
g75
ssg63
g1486
sg56
(lp1493
S'http_accept_language'
p1494
asbag49
(g70
g51
NtRp1495
(dp1496
g54
(dp1497
g81
g82
ssg63
g1486
sg56
(lp1498
S':'
asbag49
(g70
g51
NtRp1499
(dp1500
g54
(dp1501
sg63
g1486
sg56
(lp1502
g49
(g50
g51
NtRp1503
(dp1504
g54
(dp1505
g62
I4
ssg63
g1499
sg56
(lp1506
S'en-US,en;q=0.8'
p1507
asbasbasbag49
(g65
g51
NtRp1508
(dp1509
g54
(dp1510
sg63
g1260
sg56
(lp1511
g49
(g70
g51
NtRp1512
(dp1513
g54
(dp1514
g74
g75
ssg63
g1508
sg56
(lp1515
S'http_connection'
p1516
asbag49
(g70
g51
NtRp1517
(dp1518
g54
(dp1519
g81
g82
ssg63
g1508
sg56
(lp1520
S':'
asbag49
(g70
g51
NtRp1521
(dp1522
g54
(dp1523
sg63
g1508
sg56
(lp1524
g49
(g50
g51
NtRp1525
(dp1526
g54
(dp1527
g62
I4
ssg63
g1521
sg56
(lp1528
S'keep-alive'
p1529
asbasbasbag49
(g65
g51
NtRp1530
(dp1531
g54
(dp1532
sg63
g1260
sg56
(lp1533
g49
(g70
g51
NtRp1534
(dp1535
g54
(dp1536
g74
g75
ssg63
g1530
sg56
(lp1537
S'http_cookie'
p1538
asbag49
(g70
g51
NtRp1539
(dp1540
g54
(dp1541
g81
g82
ssg63
g1530
sg56
(lp1542
S':'
asbag49
(g70
g51
NtRp1543
(dp1544
g54
(dp1545
sg63
g1530
sg56
(lp1546
g49
(g50
g51
NtRp1547
(dp1548
g54
(dp1549
g62
I4
ssg63
g1543
sg56
(lp1550
S'session_id_slug_register_page=127.0.0.1-c2775933-22a4-419d-80e2-4c993aff45c7; session_id_welcome=127.0.0.1-a1b3016b-66b8-408b-ae8e-37231f35f16e; session_id_testapp=127.0.0.1-07eafbbd-d252-4b2b-84dc-0b0d16c3c06d; session_id_onlinenotes_p1_=127.0.0.1-2b1a349f-aa95-4718-93d5-e7df1c85d951; session_id_admin=127.0.0.1-dcf0163e-0560-4f31-a592-e577714771db; session_id_slugbarter=127.0.0.1-e6ebae72-1bbc-48a5-9458-95dbb65a4e54'
p1551
asbasbasbag49
(g65
g51
NtRp1552
(dp1553
g54
(dp1554
sg63
g1260
sg56
(lp1555
g49
(g70
g51
NtRp1556
(dp1557
g54
(dp1558
g74
g75
ssg63
g1552
sg56
(lp1559
S'http_host'
p1560
asbag49
(g70
g51
NtRp1561
(dp1562
g54
(dp1563
g81
g82
ssg63
g1552
sg56
(lp1564
S':'
asbag49
(g70
g51
NtRp1565
(dp1566
g54
(dp1567
sg63
g1552
sg56
(lp1568
g49
(g50
g51
NtRp1569
(dp1570
g54
(dp1571
g62
I4
ssg63
g1565
sg56
(lp1572
S'127.0.0.1:8000'
p1573
asbasbasbag49
(g65
g51
NtRp1574
(dp1575
g54
(dp1576
sg63
g1260
sg56
(lp1577
g49
(g70
g51
NtRp1578
(dp1579
g54
(dp1580
g74
g75
ssg63
g1574
sg56
(lp1581
S'http_referer'
p1582
asbag49
(g70
g51
NtRp1583
(dp1584
g54
(dp1585
g81
g82
ssg63
g1574
sg56
(lp1586
S':'
asbag49
(g70
g51
NtRp1587
(dp1588
g54
(dp1589
sg63
g1574
sg56
(lp1590
g49
(g50
g51
NtRp1591
(dp1592
g54
(dp1593
g62
I4
ssg63
g1587
sg56
(lp1594
S'http://127.0.0.1:8000/SlugBarter/default/view_my_listings.html'
p1595
asbasbasbag49
(g65
g51
NtRp1596
(dp1597
g54
(dp1598
sg63
g1260
sg56
(lp1599
g49
(g70
g51
NtRp1600
(dp1601
g54
(dp1602
g74
g75
ssg63
g1596
sg56
(lp1603
S'http_user_agent'
p1604
asbag49
(g70
g51
NtRp1605
(dp1606
g54
(dp1607
g81
g82
ssg63
g1596
sg56
(lp1608
S':'
asbag49
(g70
g51
NtRp1609
(dp1610
g54
(dp1611
sg63
g1596
sg56
(lp1612
g49
(g50
g51
NtRp1613
(dp1614
g54
(dp1615
g62
I4
ssg63
g1609
sg56
(lp1616
S'Mozilla/5.0 (Windows NT 6.1) AppleWebKit/537.11 (KHTML, like Gecko) Chrome/23.0.1271.64 Safari/537.11'
p1617
asbasbasbag49
(g65
g51
NtRp1618
(dp1619
g54
(dp1620
sg63
g1260
sg56
(lp1621
g49
(g70
g51
NtRp1622
(dp1623
g54
(dp1624
g74
g75
ssg63
g1618
sg56
(lp1625
S'is_jython'
p1626
asbag49
(g70
g51
NtRp1627
(dp1628
g54
(dp1629
g81
g82
ssg63
g1618
sg56
(lp1630
S':'
asbag49
(g70
g51
NtRp1631
(dp1632
g54
(dp1633
sg63
g1618
sg56
(lp1634
g49
(g50
g51
NtRp1635
(dp1636
g54
(dp1637
g62
I4
ssg63
g1631
sg56
(lp1638
g92
asbasbasbag49
(g65
g51
NtRp1639
(dp1640
g54
(dp1641
sg63
g1260
sg56
(lp1642
g49
(g70
g51
NtRp1643
(dp1644
g54
(dp1645
g74
g75
ssg63
g1639
sg56
(lp1646
S'is_pypy'
p1647
asbag49
(g70
g51
NtRp1648
(dp1649
g54
(dp1650
g81
g82
ssg63
g1639
sg56
(lp1651
S':'
asbag49
(g70
g51
NtRp1652
(dp1653
g54
(dp1654
sg63
g1639
sg56
(lp1655
g49
(g50
g51
NtRp1656
(dp1657
g54
(dp1658
g62
I4
ssg63
g1652
sg56
(lp1659
g92
asbasbasbag49
(g65
g51
NtRp1660
(dp1661
g54
(dp1662
sg63
g1260
sg56
(lp1663
g49
(g70
g51
NtRp1664
(dp1665
g54
(dp1666
g74
g75
ssg63
g1660
sg56
(lp1667
S'path_info'
p1668
asbag49
(g70
g51
NtRp1669
(dp1670
g54
(dp1671
g81
g82
ssg63
g1660
sg56
(lp1672
S':'
asbag49
(g70
g51
NtRp1673
(dp1674
g54
(dp1675
sg63
g1660
sg56
(lp1676
g49
(g50
g51
NtRp1677
(dp1678
g54
(dp1679
g62
I4
ssg63
g1673
sg56
(lp1680
S'/SlugBarter/default/description_mode/6'
p1681
asbasbasbag49
(g65
g51
NtRp1682
(dp1683
g54
(dp1684
sg63
g1260
sg56
(lp1685
g49
(g70
g51
NtRp1686
(dp1687
g54
(dp1688
g74
g75
ssg63
g1682
sg56
(lp1689
S'query_string'
p1690
asbag49
(g70
g51
NtRp1691
(dp1692
g54
(dp1693
g81
g82
ssg63
g1682
sg56
(lp1694
S':'
asbag49
(g70
g51
NtRp1695
(dp1696
g54
(dp1697
sg63
g1682
sg56
(lp1698
g49
(g50
g51
NtRp1699
(dp1700
g54
(dp1701
g62
I4
ssg63
g1695
sg56
(lp1702
S''
asbasbasbag49
(g65
g51
NtRp1703
(dp1704
g54
(dp1705
sg63
g1260
sg56
(lp1706
g49
(g70
g51
NtRp1707
(dp1708
g54
(dp1709
g74
g75
ssg63
g1703
sg56
(lp1710
S'remote_addr'
p1711
asbag49
(g70
g51
NtRp1712
(dp1713
g54
(dp1714
g81
g82
ssg63
g1703
sg56
(lp1715
S':'
asbag49
(g70
g51
NtRp1716
(dp1717
g54
(dp1718
sg63
g1703
sg56
(lp1719
g49
(g50
g51
NtRp1720
(dp1721
g54
(dp1722
g62
I4
ssg63
g1716
sg56
(lp1723
g194
asbasbasbag49
(g65
g51
NtRp1724
(dp1725
g54
(dp1726
sg63
g1260
sg56
(lp1727
g49
(g70
g51
NtRp1728
(dp1729
g54
(dp1730
g74
g75
ssg63
g1724
sg56
(lp1731
S'remote_port'
p1732
asbag49
(g70
g51
NtRp1733
(dp1734
g54
(dp1735
g81
g82
ssg63
g1724
sg56
(lp1736
S':'
asbag49
(g70
g51
NtRp1737
(dp1738
g54
(dp1739
sg63
g1724
sg56
(lp1740
g49
(g50
g51
NtRp1741
(dp1742
g54
(dp1743
g62
I4
ssg63
g1737
sg56
(lp1744
S'51772'
p1745
asbasbasbag49
(g65
g51
NtRp1746
(dp1747
g54
(dp1748
sg63
g1260
sg56
(lp1749
g49
(g70
g51
NtRp1750
(dp1751
g54
(dp1752
g74
g75
ssg63
g1746
sg56
(lp1753
S'request_method'
p1754
asbag49
(g70
g51
NtRp1755
(dp1756
g54
(dp1757
g81
g82
ssg63
g1746
sg56
(lp1758
S':'
asbag49
(g70
g51
NtRp1759
(dp1760
g54
(dp1761
sg63
g1746
sg56
(lp1762
g49
(g50
g51
NtRp1763
(dp1764
g54
(dp1765
g62
I4
ssg63
g1759
sg56
(lp1766
S'GET'
p1767
asbasbasbag49
(g65
g51
NtRp1768
(dp1769
g54
(dp1770
sg63
g1260
sg56
(lp1771
g49
(g70
g51
NtRp1772
(dp1773
g54
(dp1774
g74
g75
ssg63
g1768
sg56
(lp1775
S'script_name'
p1776
asbag49
(g70
g51
NtRp1777
(dp1778
g54
(dp1779
g81
g82
ssg63
g1768
sg56
(lp1780
S':'
asbag49
(g70
g51
NtRp1781
(dp1782
g54
(dp1783
sg63
g1768
sg56
(lp1784
g49
(g50
g51
NtRp1785
(dp1786
g54
(dp1787
g62
I4
ssg63
g1781
sg56
(lp1788
S''
asbasbasbag49
(g65
g51
NtRp1789
(dp1790
g54
(dp1791
sg63
g1260
sg56
(lp1792
g49
(g70
g51
NtRp1793
(dp1794
g54
(dp1795
g74
g75
ssg63
g1789
sg56
(lp1796
S'server_name'
p1797
asbag49
(g70
g51
NtRp1798
(dp1799
g54
(dp1800
g81
g82
ssg63
g1789
sg56
(lp1801
S':'
asbag49
(g70
g51
NtRp1802
(dp1803
g54
(dp1804
sg63
g1789
sg56
(lp1805
g49
(g50
g51
NtRp1806
(dp1807
g54
(dp1808
g62
I4
ssg63
g1802
sg56
(lp1809
S'omkara-PC'
p1810
asbasbasbag49
(g65
g51
NtRp1811
(dp1812
g54
(dp1813
sg63
g1260
sg56
(lp1814
g49
(g70
g51
NtRp1815
(dp1816
g54
(dp1817
g74
g75
ssg63
g1811
sg56
(lp1818
S'server_port'
p1819
asbag49
(g70
g51
NtRp1820
(dp1821
g54
(dp1822
g81
g82
ssg63
g1811
sg56
(lp1823
S':'
asbag49
(g70
g51
NtRp1824
(dp1825
g54
(dp1826
sg63
g1811
sg56
(lp1827
g49
(g50
g51
NtRp1828
(dp1829
g54
(dp1830
g62
I4
ssg63
g1824
sg56
(lp1831
S'8000'
p1832
asbasbasbag49
(g65
g51
NtRp1833
(dp1834
g54
(dp1835
sg63
g1260
sg56
(lp1836
g49
(g70
g51
NtRp1837
(dp1838
g54
(dp1839
g74
g75
ssg63
g1833
sg56
(lp1840
S'server_protocol'
p1841
asbag49
(g70
g51
NtRp1842
(dp1843
g54
(dp1844
g81
g82
ssg63
g1833
sg56
(lp1845
S':'
asbag49
(g70
g51
NtRp1846
(dp1847
g54
(dp1848
sg63
g1833
sg56
(lp1849
g49
(g50
g51
NtRp1850
(dp1851
g54
(dp1852
g62
I4
ssg63
g1846
sg56
(lp1853
S'HTTP/1.1'
p1854
asbasbasbag49
(g65
g51
NtRp1855
(dp1856
g54
(dp1857
sg63
g1260
sg56
(lp1858
g49
(g70
g51
NtRp1859
(dp1860
g54
(dp1861
g74
g75
ssg63
g1855
sg56
(lp1862
S'server_software'
p1863
asbag49
(g70
g51
NtRp1864
(dp1865
g54
(dp1866
g81
g82
ssg63
g1855
sg56
(lp1867
S':'
asbag49
(g70
g51
NtRp1868
(dp1869
g54
(dp1870
sg63
g1855
sg56
(lp1871
g49
(g50
g51
NtRp1872
(dp1873
g54
(dp1874
g62
I4
ssg63
g1868
sg56
(lp1875
S'Rocket 1.2.4'
p1876
asbasbasbag49
(g65
g51
NtRp1877
(dp1878
g54
(dp1879
sg63
g1260
sg56
(lp1880
g49
(g70
g51
NtRp1881
(dp1882
g54
(dp1883
g74
g75
ssg63
g1877
sg56
(lp1884
S'web2py_crontype'
p1885
asbag49
(g70
g51
NtRp1886
(dp1887
g54
(dp1888
g81
g82
ssg63
g1877
sg56
(lp1889
S':'
asbag49
(g70
g51
NtRp1890
(dp1891
g54
(dp1892
sg63
g1877
sg56
(lp1893
g49
(g50
g51
NtRp1894
(dp1895
g54
(dp1896
g62
I4
ssg63
g1890
sg56
(lp1897
S'hard'
p1898
asbasbasbag49
(g65
g51
NtRp1899
(dp1900
g54
(dp1901
sg63
g1260
sg56
(lp1902
g49
(g70
g51
NtRp1903
(dp1904
g54
(dp1905
g74
g75
ssg63
g1899
sg56
(lp1906
S'web2py_path'
p1907
asbag49
(g70
g51
NtRp1908
(dp1909
g54
(dp1910
g81
g82
ssg63
g1899
sg56
(lp1911
S':'
asbag49
(g70
g51
NtRp1912
(dp1913
g54
(dp1914
sg63
g1899
sg56
(lp1915
g49
(g50
g51
NtRp1916
(dp1917
g54
(dp1918
g62
I4
ssg63
g1912
sg56
(lp1919
g1307
asbasbasbag49
(g65
g51
NtRp1920
(dp1921
g54
(dp1922
sg63
g1260
sg56
(lp1923
g49
(g70
g51
NtRp1924
(dp1925
g54
(dp1926
g74
g75
ssg63
g1920
sg56
(lp1927
S'web2py_version'
p1928
asbag49
(g70
g51
NtRp1929
(dp1930
g54
(dp1931
g81
g82
ssg63
g1920
sg56
(lp1932
S':'
asbag49
(g70
g51
NtRp1933
(dp1934
g54
(dp1935
sg63
g1920
sg56
(lp1936
g49
(g50
g51
NtRp1937
(dp1938
g54
(dp1939
g62
I4
ssg63
g1933
sg56
(lp1940
g49
(g58
g51
NtRp1941
(dp1942
g54
(dp1943
g62
I3
ssg63
Nsg56
(lp1944
g49
(g65
g51
NtRp1945
(dp1946
g54
(dp1947
sg63
g1941
sg56
(lp1948
g49
(g70
g51
NtRp1949
(dp1950
g54
(dp1951
sg63
g1945
sg56
(lp1952
g49
(g50
g51
NtRp1953
(dp1954
g54
(dp1955
g62
I3
ssg63
g1949
sg56
(lp1956
S'1'
asbasbasbag49
(g65
g51
NtRp1957
(dp1958
g54
(dp1959
sg63
g1941
sg56
(lp1960
g49
(g70
g51
NtRp1961
(dp1962
g54
(dp1963
sg63
g1957
sg56
(lp1964
g49
(g50
g51
NtRp1965
(dp1966
g54
(dp1967
g62
I3
ssg63
g1961
sg56
(lp1968
S'99'
p1969
asbasbasbag49
(g65
g51
NtRp1970
(dp1971
g54
(dp1972
sg63
g1941
sg56
(lp1973
g49
(g70
g51
NtRp1974
(dp1975
g54
(dp1976
sg63
g1970
sg56
(lp1977
g49
(g50
g51
NtRp1978
(dp1979
g54
(dp1980
g62
I3
ssg63
g1974
sg56
(lp1981
S'7'
asbasbasbag49
(g65
g51
NtRp1982
(dp1983
g54
(dp1984
sg63
g1941
sg56
(lp1985
g49
(g70
g51
NtRp1986
(dp1987
g54
(dp1988
sg63
g1982
sg56
(lp1989
g49
(g50
g51
NtRp1990
(dp1991
g54
(dp1992
g62
I3
ssg63
g1986
sg56
(lp1993
S'datetime.datetime(2012, 3, 4, 22, 12, 8)'
p1994
asbasbasbag49
(g65
g51
NtRp1995
(dp1996
g54
(dp1997
sg63
g1941
sg56
(lp1998
g49
(g70
g51
NtRp1999
(dp2000
g54
(dp2001
sg63
g1995
sg56
(lp2002
g49
(g50
g51
NtRp2003
(dp2004
g54
(dp2005
g62
I3
ssg63
g1999
sg56
(lp2006
S'stable'
p2007
asbasbasbasbasbasbasbag49
(g65
g51
NtRp2008
(dp2009
g54
(dp2010
sg63
g1260
sg56
(lp2011
g49
(g70
g51
NtRp2012
(dp2013
g54
(dp2014
g74
g75
ssg63
g2008
sg56
(lp2015
S'wsgi_errors'
p2016
asbag49
(g70
g51
NtRp2017
(dp2018
g54
(dp2019
g81
g82
ssg63
g2008
sg56
(lp2020
S':'
asbag49
(g70
g51
NtRp2021
(dp2022
g54
(dp2023
sg63
g2008
sg56
(lp2024
g49
(g50
g51
NtRp2025
(dp2026
g54
(dp2027
g62
I4
ssg63
g2021
sg56
(lp2028
S"<open file '<stderr>', mode 'w' at 0x016000B0>"
p2029
asbasbasbag49
(g65
g51
NtRp2030
(dp2031
g54
(dp2032
sg63
g1260
sg56
(lp2033
g49
(g70
g51
NtRp2034
(dp2035
g54
(dp2036
g74
g75
ssg63
g2030
sg56
(lp2037
S'wsgi_file_wrapper'
p2038
asbag49
(g70
g51
NtRp2039
(dp2040
g54
(dp2041
g81
g82
ssg63
g2030
sg56
(lp2042
S':'
asbag49
(g70
g51
NtRp2043
(dp2044
g54
(dp2045
sg63
g2030
sg56
(lp2046
g49
(g50
g51
NtRp2047
(dp2048
g54
(dp2049
g62
I4
ssg63
g2043
sg56
(lp2050
S'<class wsgiref.util.FileWrapper at 0x025361B0>'
p2051
asbasbasbag49
(g65
g51
NtRp2052
(dp2053
g54
(dp2054
sg63
g1260
sg56
(lp2055
g49
(g70
g51
NtRp2056
(dp2057
g54
(dp2058
g74
g75
ssg63
g2052
sg56
(lp2059
S'wsgi_input'
p2060
asbag49
(g70
g51
NtRp2061
(dp2062
g54
(dp2063
g81
g82
ssg63
g2052
sg56
(lp2064
S':'
asbag49
(g70
g51
NtRp2065
(dp2066
g54
(dp2067
sg63
g2052
sg56
(lp2068
g49
(g50
g51
NtRp2069
(dp2070
g54
(dp2071
g62
I4
ssg63
g2065
sg56
(lp2072
S'<socket._fileobject object at 0x06438430>'
p2073
asbasbasbag49
(g65
g51
NtRp2074
(dp2075
g54
(dp2076
sg63
g1260
sg56
(lp2077
g49
(g70
g51
NtRp2078
(dp2079
g54
(dp2080
g74
g75
ssg63
g2074
sg56
(lp2081
S'wsgi_multiprocess'
p2082
asbag49
(g70
g51
NtRp2083
(dp2084
g54
(dp2085
g81
g82
ssg63
g2074
sg56
(lp2086
S':'
asbag49
(g70
g51
NtRp2087
(dp2088
g54
(dp2089
sg63
g2074
sg56
(lp2090
g49
(g50
g51
NtRp2091
(dp2092
g54
(dp2093
g62
I4
ssg63
g2087
sg56
(lp2094
g92
asbasbasbag49
(g65
g51
NtRp2095
(dp2096
g54
(dp2097
sg63
g1260
sg56
(lp2098
g49
(g70
g51
NtRp2099
(dp2100
g54
(dp2101
g74
g75
ssg63
g2095
sg56
(lp2102
S'wsgi_multithread'
p2103
asbag49
(g70
g51
NtRp2104
(dp2105
g54
(dp2106
g81
g82
ssg63
g2095
sg56
(lp2107
S':'
asbag49
(g70
g51
NtRp2108
(dp2109
g54
(dp2110
sg63
g2095
sg56
(lp2111
g49
(g50
g51
NtRp2112
(dp2113
g54
(dp2114
g62
I4
ssg63
g2108
sg56
(lp2115
S'True'
p2116
asbasbasbag49
(g65
g51
NtRp2117
(dp2118
g54
(dp2119
sg63
g1260
sg56
(lp2120
g49
(g70
g51
NtRp2121
(dp2122
g54
(dp2123
g74
g75
ssg63
g2117
sg56
(lp2124
S'wsgi_run_once'
p2125
asbag49
(g70
g51
NtRp2126
(dp2127
g54
(dp2128
g81
g82
ssg63
g2117
sg56
(lp2129
S':'
asbag49
(g70
g51
NtRp2130
(dp2131
g54
(dp2132
sg63
g2117
sg56
(lp2133
g49
(g50
g51
NtRp2134
(dp2135
g54
(dp2136
g62
I4
ssg63
g2130
sg56
(lp2137
g92
asbasbasbag49
(g65
g51
NtRp2138
(dp2139
g54
(dp2140
sg63
g1260
sg56
(lp2141
g49
(g70
g51
NtRp2142
(dp2143
g54
(dp2144
g74
g75
ssg63
g2138
sg56
(lp2145
S'wsgi_url_scheme'
p2146
asbag49
(g70
g51
NtRp2147
(dp2148
g54
(dp2149
g81
g82
ssg63
g2138
sg56
(lp2150
S':'
asbag49
(g70
g51
NtRp2151
(dp2152
g54
(dp2153
sg63
g2138
sg56
(lp2154
g49
(g50
g51
NtRp2155
(dp2156
g54
(dp2157
g62
I4
ssg63
g2151
sg56
(lp2158
S'http'
p2159
asbasbasbag49
(g65
g51
NtRp2160
(dp2161
g54
(dp2162
sg63
g1260
sg56
(lp2163
g49
(g70
g51
NtRp2164
(dp2165
g54
(dp2166
g74
g75
ssg63
g2160
sg56
(lp2167
S'wsgi_version'
p2168
asbag49
(g70
g51
NtRp2169
(dp2170
g54
(dp2171
g81
g82
ssg63
g2160
sg56
(lp2172
S':'
asbag49
(g70
g51
NtRp2173
(dp2174
g54
(dp2175
sg63
g2160
sg56
(lp2176
g49
(g50
g51
NtRp2177
(dp2178
g54
(dp2179
g62
I4
ssg63
g2173
sg56
(lp2180
g49
(g58
g51
NtRp2181
(dp2182
g54
(dp2183
g62
I3
ssg63
Nsg56
(lp2184
g49
(g65
g51
NtRp2185
(dp2186
g54
(dp2187
sg63
g2181
sg56
(lp2188
g49
(g70
g51
NtRp2189
(dp2190
g54
(dp2191
sg63
g2185
sg56
(lp2192
g49
(g50
g51
NtRp2193
(dp2194
g54
(dp2195
g62
I3
ssg63
g2189
sg56
(lp2196
S'1'
asbasbasbag49
(g65
g51
NtRp2197
(dp2198
g54
(dp2199
sg63
g2181
sg56
(lp2200
g49
(g70
g51
NtRp2201
(dp2202
g54
(dp2203
sg63
g2197
sg56
(lp2204
g49
(g50
g51
NtRp2205
(dp2206
g54
(dp2207
g62
I3
ssg63
g2201
sg56
(lp2208
S'0'
asbasbasbasbasbasbasbasbasbasbasbag49
(g65
g51
NtRp2209
(dp2210
g54
(dp2211
sg63
g59
sg56
(lp2212
g49
(g70
g51
NtRp2213
(dp2214
g54
(dp2215
g74
g75
ssg63
g2209
sg56
(lp2216
S'extension'
p2217
asbag49
(g70
g51
NtRp2218
(dp2219
g54
(dp2220
g81
g82
ssg63
g2209
sg56
(lp2221
S':'
asbag49
(g70
g51
NtRp2222
(dp2223
g54
(dp2224
sg63
g2209
sg56
(lp2225
g49
(g50
g51
NtRp2226
(dp2227
g54
(dp2228
g62
I5
ssg63
g2222
sg56
(lp2229
S'html'
p2230
asbasbasbag49
(g65
g51
NtRp2231
(dp2232
g54
(dp2233
sg63
g59
sg56
(lp2234
g49
(g70
g51
NtRp2235
(dp2236
g54
(dp2237
g74
g75
ssg63
g2231
sg56
(lp2238
S'folder'
p2239
asbag49
(g70
g51
NtRp2240
(dp2241
g54
(dp2242
g81
g82
ssg63
g2231
sg56
(lp2243
S':'
asbag49
(g70
g51
NtRp2244
(dp2245
g54
(dp2246
sg63
g2231
sg56
(lp2247
g49
(g50
g51
NtRp2248
(dp2249
g54
(dp2250
g62
I5
ssg63
g2244
sg56
(lp2251
S'C:\\Users\\omkara\\Desktop\\web2py\\applications\\SlugBarter\\'
p2252
asbasbasbag49
(g65
g51
NtRp2253
(dp2254
g54
(dp2255
sg63
g59
sg56
(lp2256
g49
(g70
g51
NtRp2257
(dp2258
g54
(dp2259
g74
g75
ssg63
g2253
sg56
(lp2260
S'function'
p2261
asbag49
(g70
g51
NtRp2262
(dp2263
g54
(dp2264
g81
g82
ssg63
g2253
sg56
(lp2265
S':'
asbag49
(g70
g51
NtRp2266
(dp2267
g54
(dp2268
sg63
g2253
sg56
(lp2269
g49
(g50
g51
NtRp2270
(dp2271
g54
(dp2272
g62
I5
ssg63
g2266
sg56
(lp2273
S'description_mode'
p2274
asbasbasbag49
(g65
g51
NtRp2275
(dp2276
g54
(dp2277
sg63
g59
sg56
(lp2278
g49
(g70
g51
NtRp2279
(dp2280
g54
(dp2281
g74
g75
ssg63
g2275
sg56
(lp2282
S'get_vars'
p2283
asbag49
(g70
g51
NtRp2284
(dp2285
g54
(dp2286
g81
g82
ssg63
g2275
sg56
(lp2287
S':'
asbag49
(g70
g51
NtRp2288
(dp2289
g54
(dp2290
sg63
g2275
sg56
(lp2291
g49
(g50
g51
NtRp2292
(dp2293
g54
(dp2294
g62
I5
ssg63
g2288
sg56
(lp2295
g49
(g58
g51
NtRp2296
(dp2297
g54
(dp2298
g62
I4
ssg63
Nsg56
(lp2299
sbasbasbasbag49
(g65
g51
NtRp2300
(dp2301
g54
(dp2302
sg63
g59
sg56
(lp2303
g49
(g70
g51
NtRp2304
(dp2305
g54
(dp2306
g74
g75
ssg63
g2300
sg56
(lp2307
S'global_settings'
p2308
asbag49
(g70
g51
NtRp2309
(dp2310
g54
(dp2311
g81
g82
ssg63
g2300
sg56
(lp2312
S':'
asbag49
(g70
g51
NtRp2313
(dp2314
g54
(dp2315
sg63
g2300
sg56
(lp2316
g49
(g50
g51
NtRp2317
(dp2318
g54
(dp2319
g62
I5
ssg63
g2313
sg56
(lp2320
g49
(g58
g51
NtRp2321
(dp2322
g54
(dp2323
g62
I4
ssg63
Nsg56
(lp2324
g49
(g65
g51
NtRp2325
(dp2326
g54
(dp2327
sg63
g2321
sg56
(lp2328
g49
(g70
g51
NtRp2329
(dp2330
g54
(dp2331
g74
g75
ssg63
g2325
sg56
(lp2332
g1272
asbag49
(g70
g51
NtRp2333
(dp2334
g54
(dp2335
g81
g82
ssg63
g2325
sg56
(lp2336
S':'
asbag49
(g70
g51
NtRp2337
(dp2338
g54
(dp2339
sg63
g2325
sg56
(lp2340
g49
(g50
g51
NtRp2341
(dp2342
g54
(dp2343
g62
I4
ssg63
g2337
sg56
(lp2344
S"set(['C:\\\\Users\\\\omkara\\\\Desktop\\\\web2py\\\\applications\\\\newA\\\\', 'C:\\\\Users\\\\omkara\\\\Desktop\\\\web2py\\\\applications\\\\slug_register_page\\\\', 'C:\\\\Users\\\\omkara\\\\Desktop\\\\web2py\\\\applications\\\\admin\\\\', 'C:\\\\Users\\\\omkara\\\\Desktop\\\\web2py\\\\applications\\\\welcome\\\\', 'C:\\\\Users\\\\omkara\\\\Desktop\\\\web2py\\\\applications\\\\slug_register\\\\', 'C:\\\\Users\\\\omkara\\\\Desktop\\\\web2py\\\\applications\\\\OnlineNotes_p1_\\\\', 'C:\\\\Users\\\\omkara\\\\Desktop\\\\web2py\\\\applications\\\\SlugBarter\\\\', 'C:\\\\Users\\\\omkara\\\\Desktop\\\\web2py\\\\applications\\\\testApp\\\\'])"
p2345
asbasbasbag49
(g65
g51
NtRp2346
(dp2347
g54
(dp2348
sg63
g2321
sg56
(lp2349
g49
(g70
g51
NtRp2350
(dp2351
g54
(dp2352
g74
g75
ssg63
g2346
sg56
(lp2353
g1294
asbag49
(g70
g51
NtRp2354
(dp2355
g54
(dp2356
g81
g82
ssg63
g2346
sg56
(lp2357
S':'
asbag49
(g70
g51
NtRp2358
(dp2359
g54
(dp2360
sg63
g2346
sg56
(lp2361
g49
(g50
g51
NtRp2362
(dp2363
g54
(dp2364
g62
I4
ssg63
g2358
sg56
(lp2365
g1307
asbasbasbag49
(g65
g51
NtRp2366
(dp2367
g54
(dp2368
sg63
g2321
sg56
(lp2369
g49
(g70
g51
NtRp2370
(dp2371
g54
(dp2372
g74
g75
ssg63
g2366
sg56
(lp2373
g1316
asbag49
(g70
g51
NtRp2374
(dp2375
g54
(dp2376
g81
g82
ssg63
g2366
sg56
(lp2377
S':'
asbag49
(g70
g51
NtRp2378
(dp2379
g54
(dp2380
sg63
g2366
sg56
(lp2381
g49
(g50
g51
NtRp2382
(dp2383
g54
(dp2384
g62
I4
ssg63
g2378
sg56
(lp2385
g49
(g58
g51
NtRp2386
(dp2387
g54
(dp2388
g62
I3
ssg63
Nsg56
(lp2389
sbasbasbasbag49
(g65
g51
NtRp2390
(dp2391
g54
(dp2392
sg63
g2321
sg56
(lp2393
g49
(g70
g51
NtRp2394
(dp2395
g54
(dp2396
g74
g75
ssg63
g2390
sg56
(lp2397
g1341
asbag49
(g70
g51
NtRp2398
(dp2399
g54
(dp2400
g81
g82
ssg63
g2390
sg56
(lp2401
S':'
asbag49
(g70
g51
NtRp2402
(dp2403
g54
(dp2404
sg63
g2390
sg56
(lp2405
g49
(g50
g51
NtRp2406
(dp2407
g54
(dp2408
g62
I4
ssg63
g2402
sg56
(lp2409
S"<Values at 0x27b1f80: {'verbose': False, 'ip': '127.0.0.1', 'shutdown_timeout': 5, 'taskbar': False, 'nocron': False, 'pid_filename': 'httpserver.pid', 'maxthreads': None, 'softcron': False, 'server_name': 'omkara-PC', 'bpython': False, 'nogui': False, 'port': 8000, 'extcron': False, 'debuglevel': 30, 'test': None, 'folder': 'C:\\\\Users\\\\omkara\\\\Desktop\\\\web2py', 'config': '', 'import_models': False, 'winservice': '', 'shell': None, 'run': '', 'log_filename': 'httpserver.log', 'args': [''], 'socket_timeout': 5, 'ssl_ca_certificate': None, 'scheduler': None, 'profiler_filename': None, 'ssl_private_key': '', 'password': '<ask>', 'request_queue_size': 5, 'ssl_certificate': '', 'cronjob': False, 'numthreads': None, 'quiet': False, 'interfaces': None, 'minthreads': None, 'timeout': 10, 'plain': False, 'nobanner': False}>"
p2410
asbasbasbag49
(g65
g51
NtRp2411
(dp2412
g54
(dp2413
sg63
g2321
sg56
(lp2414
g49
(g70
g51
NtRp2415
(dp2416
g54
(dp2417
g74
g75
ssg63
g2411
sg56
(lp2418
g1363
asbag49
(g70
g51
NtRp2419
(dp2420
g54
(dp2421
g81
g82
ssg63
g2411
sg56
(lp2422
S':'
asbag49
(g70
g51
NtRp2423
(dp2424
g54
(dp2425
sg63
g2411
sg56
(lp2426
g49
(g50
g51
NtRp2427
(dp2428
g54
(dp2429
g62
I4
ssg63
g2423
sg56
(lp2430
S'set([])'
p2431
asbasbasbag49
(g65
g51
NtRp2432
(dp2433
g54
(dp2434
sg63
g2321
sg56
(lp2435
g49
(g70
g51
NtRp2436
(dp2437
g54
(dp2438
g74
g75
ssg63
g2432
sg56
(lp2439
g1385
asbag49
(g70
g51
NtRp2440
(dp2441
g54
(dp2442
g81
g82
ssg63
g2432
sg56
(lp2443
S':'
asbag49
(g70
g51
NtRp2444
(dp2445
g54
(dp2446
sg63
g2432
sg56
(lp2447
g49
(g50
g51
NtRp2448
(dp2449
g54
(dp2450
g62
I4
ssg63
g2444
sg56
(lp2451
g92
asbasbasbag49
(g65
g51
NtRp2452
(dp2453
g54
(dp2454
sg63
g2321
sg56
(lp2455
g49
(g70
g51
NtRp2456
(dp2457
g54
(dp2458
g74
g75
ssg63
g2452
sg56
(lp2459
g1406
asbag49
(g70
g51
NtRp2460
(dp2461
g54
(dp2462
g81
g82
ssg63
g2452
sg56
(lp2463
S':'
asbag49
(g70
g51
NtRp2464
(dp2465
g54
(dp2466
sg63
g2452
sg56
(lp2467
g49
(g50
g51
NtRp2468
(dp2469
g54
(dp2470
g62
I4
ssg63
g2464
sg56
(lp2471
g1419
asbasbasbag49
(g65
g51
NtRp2472
(dp2473
g54
(dp2474
sg63
g2321
sg56
(lp2475
g49
(g70
g51
NtRp2476
(dp2477
g54
(dp2478
g74
g75
ssg63
g2472
sg56
(lp2479
g1626
asbag49
(g70
g51
NtRp2480
(dp2481
g54
(dp2482
g81
g82
ssg63
g2472
sg56
(lp2483
S':'
asbag49
(g70
g51
NtRp2484
(dp2485
g54
(dp2486
sg63
g2472
sg56
(lp2487
g49
(g50
g51
NtRp2488
(dp2489
g54
(dp2490
g62
I4
ssg63
g2484
sg56
(lp2491
g92
asbasbasbag49
(g65
g51
NtRp2492
(dp2493
g54
(dp2494
sg63
g2321
sg56
(lp2495
g49
(g70
g51
NtRp2496
(dp2497
g54
(dp2498
g74
g75
ssg63
g2492
sg56
(lp2499
g1647
asbag49
(g70
g51
NtRp2500
(dp2501
g54
(dp2502
g81
g82
ssg63
g2492
sg56
(lp2503
S':'
asbag49
(g70
g51
NtRp2504
(dp2505
g54
(dp2506
sg63
g2492
sg56
(lp2507
g49
(g50
g51
NtRp2508
(dp2509
g54
(dp2510
g62
I4
ssg63
g2504
sg56
(lp2511
g92
asbasbasbag49
(g65
g51
NtRp2512
(dp2513
g54
(dp2514
sg63
g2321
sg56
(lp2515
g49
(g70
g51
NtRp2516
(dp2517
g54
(dp2518
g74
g75
ssg63
g2512
sg56
(lp2519
g1885
asbag49
(g70
g51
NtRp2520
(dp2521
g54
(dp2522
g81
g82
ssg63
g2512
sg56
(lp2523
S':'
asbag49
(g70
g51
NtRp2524
(dp2525
g54
(dp2526
sg63
g2512
sg56
(lp2527
g49
(g50
g51
NtRp2528
(dp2529
g54
(dp2530
g62
I4
ssg63
g2524
sg56
(lp2531
g1898
asbasbasbag49
(g65
g51
NtRp2532
(dp2533
g54
(dp2534
sg63
g2321
sg56
(lp2535
g49
(g70
g51
NtRp2536
(dp2537
g54
(dp2538
g74
g75
ssg63
g2532
sg56
(lp2539
g1928
asbag49
(g70
g51
NtRp2540
(dp2541
g54
(dp2542
g81
g82
ssg63
g2532
sg56
(lp2543
S':'
asbag49
(g70
g51
NtRp2544
(dp2545
g54
(dp2546
sg63
g2532
sg56
(lp2547
g49
(g50
g51
NtRp2548
(dp2549
g54
(dp2550
g62
I4
ssg63
g2544
sg56
(lp2551
g49
(g58
g51
NtRp2552
(dp2553
g54
(dp2554
g62
I3
ssg63
Nsg56
(lp2555
g49
(g65
g51
NtRp2556
(dp2557
g54
(dp2558
sg63
g2552
sg56
(lp2559
g49
(g70
g51
NtRp2560
(dp2561
g54
(dp2562
sg63
g2556
sg56
(lp2563
g49
(g50
g51
NtRp2564
(dp2565
g54
(dp2566
g62
I3
ssg63
g2560
sg56
(lp2567
S'1'
asbasbasbag49
(g65
g51
NtRp2568
(dp2569
g54
(dp2570
sg63
g2552
sg56
(lp2571
g49
(g70
g51
NtRp2572
(dp2573
g54
(dp2574
sg63
g2568
sg56
(lp2575
g49
(g50
g51
NtRp2576
(dp2577
g54
(dp2578
g62
I3
ssg63
g2572
sg56
(lp2579
S'99'
p2580
asbasbasbag49
(g65
g51
NtRp2581
(dp2582
g54
(dp2583
sg63
g2552
sg56
(lp2584
g49
(g70
g51
NtRp2585
(dp2586
g54
(dp2587
sg63
g2581
sg56
(lp2588
g49
(g50
g51
NtRp2589
(dp2590
g54
(dp2591
g62
I3
ssg63
g2585
sg56
(lp2592
S'7'
asbasbasbag49
(g65
g51
NtRp2593
(dp2594
g54
(dp2595
sg63
g2552
sg56
(lp2596
g49
(g70
g51
NtRp2597
(dp2598
g54
(dp2599
sg63
g2593
sg56
(lp2600
g49
(g50
g51
NtRp2601
(dp2602
g54
(dp2603
g62
I3
ssg63
g2597
sg56
(lp2604
S'datetime.datetime(2012, 3, 4, 22, 12, 8)'
p2605
asbasbasbag49
(g65
g51
NtRp2606
(dp2607
g54
(dp2608
sg63
g2552
sg56
(lp2609
g49
(g70
g51
NtRp2610
(dp2611
g54
(dp2612
sg63
g2606
sg56
(lp2613
g49
(g50
g51
NtRp2614
(dp2615
g54
(dp2616
g62
I3
ssg63
g2610
sg56
(lp2617
g2007
asbasbasbasbasbasbasbasbasbasbasbag49
(g65
g51
NtRp2618
(dp2619
g54
(dp2620
sg63
g59
sg56
(lp2621
g49
(g70
g51
NtRp2622
(dp2623
g54
(dp2624
g74
g75
ssg63
g2618
sg56
(lp2625
S'is_https'
p2626
asbag49
(g70
g51
NtRp2627
(dp2628
g54
(dp2629
g81
g82
ssg63
g2618
sg56
(lp2630
S':'
asbag49
(g70
g51
NtRp2631
(dp2632
g54
(dp2633
sg63
g2618
sg56
(lp2634
g49
(g50
g51
NtRp2635
(dp2636
g54
(dp2637
g62
I5
ssg63
g2631
sg56
(lp2638
g92
asbasbasbag49
(g65
g51
NtRp2639
(dp2640
g54
(dp2641
sg63
g59
sg56
(lp2642
g49
(g70
g51
NtRp2643
(dp2644
g54
(dp2645
g74
g75
ssg63
g2639
sg56
(lp2646
S'is_local'
p2647
asbag49
(g70
g51
NtRp2648
(dp2649
g54
(dp2650
g81
g82
ssg63
g2639
sg56
(lp2651
S':'
asbag49
(g70
g51
NtRp2652
(dp2653
g54
(dp2654
sg63
g2639
sg56
(lp2655
g49
(g50
g51
NtRp2656
(dp2657
g54
(dp2658
g62
I5
ssg63
g2652
sg56
(lp2659
g2116
asbasbasbag49
(g65
g51
NtRp2660
(dp2661
g54
(dp2662
sg63
g59
sg56
(lp2663
g49
(g70
g51
NtRp2664
(dp2665
g54
(dp2666
g74
g75
ssg63
g2660
sg56
(lp2667
S'is_restful'
p2668
asbag49
(g70
g51
NtRp2669
(dp2670
g54
(dp2671
g81
g82
ssg63
g2660
sg56
(lp2672
S':'
asbag49
(g70
g51
NtRp2673
(dp2674
g54
(dp2675
sg63
g2660
sg56
(lp2676
g49
(g50
g51
NtRp2677
(dp2678
g54
(dp2679
g62
I5
ssg63
g2673
sg56
(lp2680
g92
asbasbasbag49
(g65
g51
NtRp2681
(dp2682
g54
(dp2683
sg63
g59
sg56
(lp2684
g49
(g70
g51
NtRp2685
(dp2686
g54
(dp2687
g74
g75
ssg63
g2681
sg56
(lp2688
S'now'
p2689
asbag49
(g70
g51
NtRp2690
(dp2691
g54
(dp2692
g81
g82
ssg63
g2681
sg56
(lp2693
S':'
asbag49
(g70
g51
NtRp2694
(dp2695
g54
(dp2696
sg63
g2681
sg56
(lp2697
g49
(g50
g51
NtRp2698
(dp2699
g54
(dp2700
g62
I5
ssg63
g2694
sg56
(lp2701
S'datetime.datetime(2012, 11, 11, 19, 23, 55, 96000)'
p2702
asbasbasbag49
(g65
g51
NtRp2703
(dp2704
g54
(dp2705
sg63
g59
sg56
(lp2706
g49
(g70
g51
NtRp2707
(dp2708
g54
(dp2709
g74
g75
ssg63
g2703
sg56
(lp2710
S'post_vars'
p2711
asbag49
(g70
g51
NtRp2712
(dp2713
g54
(dp2714
g81
g82
ssg63
g2703
sg56
(lp2715
S':'
asbag49
(g70
g51
NtRp2716
(dp2717
g54
(dp2718
sg63
g2703
sg56
(lp2719
g49
(g50
g51
NtRp2720
(dp2721
g54
(dp2722
g62
I5
ssg63
g2716
sg56
(lp2723
g49
(g58
g51
NtRp2724
(dp2725
g54
(dp2726
g62
I4
ssg63
Nsg56
(lp2727
sbasbasbasbag49
(g65
g51
NtRp2728
(dp2729
g54
(dp2730
sg63
g59
sg56
(lp2731
g49
(g70
g51
NtRp2732
(dp2733
g54
(dp2734
g74
g75
ssg63
g2728
sg56
(lp2735
S'raw_args'
p2736
asbag49
(g70
g51
NtRp2737
(dp2738
g54
(dp2739
g81
g82
ssg63
g2728
sg56
(lp2740
S':'
asbag49
(g70
g51
NtRp2741
(dp2742
g54
(dp2743
sg63
g2728
sg56
(lp2744
g49
(g50
g51
NtRp2745
(dp2746
g54
(dp2747
g62
I5
ssg63
g2741
sg56
(lp2748
S'6'
asbasbasbag49
(g65
g51
NtRp2749
(dp2750
g54
(dp2751
sg63
g59
sg56
(lp2752
g49
(g70
g51
NtRp2753
(dp2754
g54
(dp2755
g74
g75
ssg63
g2749
sg56
(lp2756
S'url'
p2757
asbag49
(g70
g51
NtRp2758
(dp2759
g54
(dp2760
g81
g82
ssg63
g2749
sg56
(lp2761
S':'
asbag49
(g70
g51
NtRp2762
(dp2763
g54
(dp2764
sg63
g2749
sg56
(lp2765
g49
(g50
g51
NtRp2766
(dp2767
g54
(dp2768
g62
I5
ssg63
g2762
sg56
(lp2769
S'/SlugBarter/default/description_mode/6'
p2770
asbasbasbag49
(g65
g51
NtRp2771
(dp2772
g54
(dp2773
sg63
g59
sg56
(lp2774
g49
(g70
g51
NtRp2775
(dp2776
g54
(dp2777
g74
g75
ssg63
g2771
sg56
(lp2778
S'utcnow'
p2779
asbag49
(g70
g51
NtRp2780
(dp2781
g54
(dp2782
g81
g82
ssg63
g2771
sg56
(lp2783
S':'
asbag49
(g70
g51
NtRp2784
(dp2785
g54
(dp2786
sg63
g2771
sg56
(lp2787
g49
(g50
g51
NtRp2788
(dp2789
g54
(dp2790
g62
I5
ssg63
g2784
sg56
(lp2791
S'datetime.datetime(2012, 11, 12, 3, 23, 55, 96000)'
p2792
asbasbasbag49
(g65
g51
NtRp2793
(dp2794
g54
(dp2795
sg63
g59
sg56
(lp2796
g49
(g70
g51
NtRp2797
(dp2798
g54
(dp2799
g74
g75
ssg63
g2793
sg56
(lp2800
S'uuid'
p2801
asbag49
(g70
g51
NtRp2802
(dp2803
g54
(dp2804
g81
g82
ssg63
g2793
sg56
(lp2805
S':'
asbag49
(g70
g51
NtRp2806
(dp2807
g54
(dp2808
sg63
g2793
sg56
(lp2809
g49
(g50
g51
NtRp2810
(dp2811
g54
(dp2812
g62
I5
ssg63
g2806
sg56
(lp2813
S'SlugBarter/127.0.0.1.2012-11-11.19-23-55.6e08d7b8-7001-4ef8-8d0a-eb9598df0b00'
p2814
asbasbasbag49
(g65
g51
NtRp2815
(dp2816
g54
(dp2817
sg63
g59
sg56
(lp2818
g49
(g70
g51
NtRp2819
(dp2820
g54
(dp2821
g74
g75
ssg63
g2815
sg56
(lp2822
S'vars'
p2823
asbag49
(g70
g51
NtRp2824
(dp2825
g54
(dp2826
g81
g82
ssg63
g2815
sg56
(lp2827
S':'
asbag49
(g70
g51
NtRp2828
(dp2829
g54
(dp2830
sg63
g2815
sg56
(lp2831
g49
(g50
g51
NtRp2832
(dp2833
g54
(dp2834
g62
I5
ssg63
g2828
sg56
(lp2835
g49
(g58
g51
NtRp2836
(dp2837
g54
(dp2838
g62
I4
ssg63
Nsg56
(lp2839
sbasbasbasbag49
(g65
g51
NtRp2840
(dp2841
g54
(dp2842
sg63
g59
sg56
(lp2843
g49
(g70
g51
NtRp2844
(dp2845
g54
(dp2846
g74
g75
ssg63
g2840
sg56
(lp2847
S'wsgi'
p2848
asbag49
(g70
g51
NtRp2849
(dp2850
g54
(dp2851
g81
g82
ssg63
g2840
sg56
(lp2852
S':'
asbag49
(g70
g51
NtRp2853
(dp2854
g54
(dp2855
sg63
g2840
sg56
(lp2856
g49
(g50
g51
NtRp2857
(dp2858
g54
(dp2859
g62
I5
ssg63
g2853
sg56
(lp2860
g49
(g58
g51
NtRp2861
(dp2862
g54
(dp2863
g62
I4
ssg63
Nsg56
(lp2864
g49
(g65
g51
NtRp2865
(dp2866
g54
(dp2867
sg63
g2861
sg56
(lp2868
g49
(g70
g51
NtRp2869
(dp2870
g54
(dp2871
g74
g75
ssg63
g2865
sg56
(lp2872
S'environ'
p2873
asbag49
(g70
g51
NtRp2874
(dp2875
g54
(dp2876
g81
g82
ssg63
g2865
sg56
(lp2877
S':'
asbag49
(g70
g51
NtRp2878
(dp2879
g54
(dp2880
sg63
g2865
sg56
(lp2881
g49
(g50
g51
NtRp2882
(dp2883
g54
(dp2884
g62
I4
ssg63
g2878
sg56
(lp2885
g49
(g58
g51
NtRp2886
(dp2887
g54
(dp2888
g62
I3
ssg63
Nsg56
(lp2889
g49
(g65
g51
NtRp2890
(dp2891
g54
(dp2892
sg63
g2886
sg56
(lp2893
g49
(g70
g51
NtRp2894
(dp2895
g54
(dp2896
g74
g75
ssg63
g2890
sg56
(lp2897
S'HTTP_ACCEPT'
p2898
asbag49
(g70
g51
NtRp2899
(dp2900
g54
(dp2901
g81
g82
ssg63
g2890
sg56
(lp2902
S':'
asbag49
(g70
g51
NtRp2903
(dp2904
g54
(dp2905
sg63
g2890
sg56
(lp2906
g49
(g50
g51
NtRp2907
(dp2908
g54
(dp2909
g62
I3
ssg63
g2903
sg56
(lp2910
g1441
asbasbasbag49
(g65
g51
NtRp2911
(dp2912
g54
(dp2913
sg63
g2886
sg56
(lp2914
g49
(g70
g51
NtRp2915
(dp2916
g54
(dp2917
g74
g75
ssg63
g2911
sg56
(lp2918
S'HTTP_ACCEPT_CHARSET'
p2919
asbag49
(g70
g51
NtRp2920
(dp2921
g54
(dp2922
g81
g82
ssg63
g2911
sg56
(lp2923
S':'
asbag49
(g70
g51
NtRp2924
(dp2925
g54
(dp2926
sg63
g2911
sg56
(lp2927
g49
(g50
g51
NtRp2928
(dp2929
g54
(dp2930
g62
I3
ssg63
g2924
sg56
(lp2931
g1463
asbasbasbag49
(g65
g51
NtRp2932
(dp2933
g54
(dp2934
sg63
g2886
sg56
(lp2935
g49
(g70
g51
NtRp2936
(dp2937
g54
(dp2938
g74
g75
ssg63
g2932
sg56
(lp2939
S'HTTP_ACCEPT_ENCODING'
p2940
asbag49
(g70
g51
NtRp2941
(dp2942
g54
(dp2943
g81
g82
ssg63
g2932
sg56
(lp2944
S':'
asbag49
(g70
g51
NtRp2945
(dp2946
g54
(dp2947
sg63
g2932
sg56
(lp2948
g49
(g50
g51
NtRp2949
(dp2950
g54
(dp2951
g62
I3
ssg63
g2945
sg56
(lp2952
g1485
asbasbasbag49
(g65
g51
NtRp2953
(dp2954
g54
(dp2955
sg63
g2886
sg56
(lp2956
g49
(g70
g51
NtRp2957
(dp2958
g54
(dp2959
g74
g75
ssg63
g2953
sg56
(lp2960
S'HTTP_ACCEPT_LANGUAGE'
p2961
asbag49
(g70
g51
NtRp2962
(dp2963
g54
(dp2964
g81
g82
ssg63
g2953
sg56
(lp2965
S':'
asbag49
(g70
g51
NtRp2966
(dp2967
g54
(dp2968
sg63
g2953
sg56
(lp2969
g49
(g50
g51
NtRp2970
(dp2971
g54
(dp2972
g62
I3
ssg63
g2966
sg56
(lp2973
g1507
asbasbasbag49
(g65
g51
NtRp2974
(dp2975
g54
(dp2976
sg63
g2886
sg56
(lp2977
g49
(g70
g51
NtRp2978
(dp2979
g54
(dp2980
g74
g75
ssg63
g2974
sg56
(lp2981
S'HTTP_CONNECTION'
p2982
asbag49
(g70
g51
NtRp2983
(dp2984
g54
(dp2985
g81
g82
ssg63
g2974
sg56
(lp2986
S':'
asbag49
(g70
g51
NtRp2987
(dp2988
g54
(dp2989
sg63
g2974
sg56
(lp2990
g49
(g50
g51
NtRp2991
(dp2992
g54
(dp2993
g62
I3
ssg63
g2987
sg56
(lp2994
g1529
asbasbasbag49
(g65
g51
NtRp2995
(dp2996
g54
(dp2997
sg63
g2886
sg56
(lp2998
g49
(g70
g51
NtRp2999
(dp3000
g54
(dp3001
g74
g75
ssg63
g2995
sg56
(lp3002
S'HTTP_COOKIE'
p3003
asbag49
(g70
g51
NtRp3004
(dp3005
g54
(dp3006
g81
g82
ssg63
g2995
sg56
(lp3007
S':'
asbag49
(g70
g51
NtRp3008
(dp3009
g54
(dp3010
sg63
g2995
sg56
(lp3011
g49
(g50
g51
NtRp3012
(dp3013
g54
(dp3014
g62
I3
ssg63
g3008
sg56
(lp3015
g1551
asbasbasbag49
(g65
g51
NtRp3016
(dp3017
g54
(dp3018
sg63
g2886
sg56
(lp3019
g49
(g70
g51
NtRp3020
(dp3021
g54
(dp3022
g74
g75
ssg63
g3016
sg56
(lp3023
S'HTTP_HOST'
p3024
asbag49
(g70
g51
NtRp3025
(dp3026
g54
(dp3027
g81
g82
ssg63
g3016
sg56
(lp3028
S':'
asbag49
(g70
g51
NtRp3029
(dp3030
g54
(dp3031
sg63
g3016
sg56
(lp3032
g49
(g50
g51
NtRp3033
(dp3034
g54
(dp3035
g62
I3
ssg63
g3029
sg56
(lp3036
g1573
asbasbasbag49
(g65
g51
NtRp3037
(dp3038
g54
(dp3039
sg63
g2886
sg56
(lp3040
g49
(g70
g51
NtRp3041
(dp3042
g54
(dp3043
g74
g75
ssg63
g3037
sg56
(lp3044
S'HTTP_REFERER'
p3045
asbag49
(g70
g51
NtRp3046
(dp3047
g54
(dp3048
g81
g82
ssg63
g3037
sg56
(lp3049
S':'
asbag49
(g70
g51
NtRp3050
(dp3051
g54
(dp3052
sg63
g3037
sg56
(lp3053
g49
(g50
g51
NtRp3054
(dp3055
g54
(dp3056
g62
I3
ssg63
g3050
sg56
(lp3057
g1595
asbasbasbag49
(g65
g51
NtRp3058
(dp3059
g54
(dp3060
sg63
g2886
sg56
(lp3061
g49
(g70
g51
NtRp3062
(dp3063
g54
(dp3064
g74
g75
ssg63
g3058
sg56
(lp3065
S'HTTP_USER_AGENT'
p3066
asbag49
(g70
g51
NtRp3067
(dp3068
g54
(dp3069
g81
g82
ssg63
g3058
sg56
(lp3070
S':'
asbag49
(g70
g51
NtRp3071
(dp3072
g54
(dp3073
sg63
g3058
sg56
(lp3074
g49
(g50
g51
NtRp3075
(dp3076
g54
(dp3077
g62
I3
ssg63
g3071
sg56
(lp3078
g1617
asbasbasbag49
(g65
g51
NtRp3079
(dp3080
g54
(dp3081
sg63
g2886
sg56
(lp3082
g49
(g70
g51
NtRp3083
(dp3084
g54
(dp3085
g74
g75
ssg63
g3079
sg56
(lp3086
S'PATH_INFO'
p3087
asbag49
(g70
g51
NtRp3088
(dp3089
g54
(dp3090
g81
g82
ssg63
g3079
sg56
(lp3091
S':'
asbag49
(g70
g51
NtRp3092
(dp3093
g54
(dp3094
sg63
g3079
sg56
(lp3095
g49
(g50
g51
NtRp3096
(dp3097
g54
(dp3098
g62
I3
ssg63
g3092
sg56
(lp3099
g1681
asbasbasbag49
(g65
g51
NtRp3100
(dp3101
g54
(dp3102
sg63
g2886
sg56
(lp3103
g49
(g70
g51
NtRp3104
(dp3105
g54
(dp3106
g74
g75
ssg63
g3100
sg56
(lp3107
S'QUERY_STRING'
p3108
asbag49
(g70
g51
NtRp3109
(dp3110
g54
(dp3111
g81
g82
ssg63
g3100
sg56
(lp3112
S':'
asbag49
(g70
g51
NtRp3113
(dp3114
g54
(dp3115
sg63
g3100
sg56
(lp3116
g49
(g50
g51
NtRp3117
(dp3118
g54
(dp3119
g62
I3
ssg63
g3113
sg56
(lp3120
S''
asbasbasbag49
(g65
g51
NtRp3121
(dp3122
g54
(dp3123
sg63
g2886
sg56
(lp3124
g49
(g70
g51
NtRp3125
(dp3126
g54
(dp3127
g74
g75
ssg63
g3121
sg56
(lp3128
S'REMOTE_ADDR'
p3129
asbag49
(g70
g51
NtRp3130
(dp3131
g54
(dp3132
g81
g82
ssg63
g3121
sg56
(lp3133
S':'
asbag49
(g70
g51
NtRp3134
(dp3135
g54
(dp3136
sg63
g3121
sg56
(lp3137
g49
(g50
g51
NtRp3138
(dp3139
g54
(dp3140
g62
I3
ssg63
g3134
sg56
(lp3141
g194
asbasbasbag49
(g65
g51
NtRp3142
(dp3143
g54
(dp3144
sg63
g2886
sg56
(lp3145
g49
(g70
g51
NtRp3146
(dp3147
g54
(dp3148
g74
g75
ssg63
g3142
sg56
(lp3149
S'REMOTE_PORT'
p3150
asbag49
(g70
g51
NtRp3151
(dp3152
g54
(dp3153
g81
g82
ssg63
g3142
sg56
(lp3154
S':'
asbag49
(g70
g51
NtRp3155
(dp3156
g54
(dp3157
sg63
g3142
sg56
(lp3158
g49
(g50
g51
NtRp3159
(dp3160
g54
(dp3161
g62
I3
ssg63
g3155
sg56
(lp3162
g1745
asbasbasbag49
(g65
g51
NtRp3163
(dp3164
g54
(dp3165
sg63
g2886
sg56
(lp3166
g49
(g70
g51
NtRp3167
(dp3168
g54
(dp3169
g74
g75
ssg63
g3163
sg56
(lp3170
S'REQUEST_METHOD'
p3171
asbag49
(g70
g51
NtRp3172
(dp3173
g54
(dp3174
g81
g82
ssg63
g3163
sg56
(lp3175
S':'
asbag49
(g70
g51
NtRp3176
(dp3177
g54
(dp3178
sg63
g3163
sg56
(lp3179
g49
(g50
g51
NtRp3180
(dp3181
g54
(dp3182
g62
I3
ssg63
g3176
sg56
(lp3183
g1767
asbasbasbag49
(g65
g51
NtRp3184
(dp3185
g54
(dp3186
sg63
g2886
sg56
(lp3187
g49
(g70
g51
NtRp3188
(dp3189
g54
(dp3190
g74
g75
ssg63
g3184
sg56
(lp3191
S'SCRIPT_NAME'
p3192
asbag49
(g70
g51
NtRp3193
(dp3194
g54
(dp3195
g81
g82
ssg63
g3184
sg56
(lp3196
S':'
asbag49
(g70
g51
NtRp3197
(dp3198
g54
(dp3199
sg63
g3184
sg56
(lp3200
g49
(g50
g51
NtRp3201
(dp3202
g54
(dp3203
g62
I3
ssg63
g3197
sg56
(lp3204
S''
asbasbasbag49
(g65
g51
NtRp3205
(dp3206
g54
(dp3207
sg63
g2886
sg56
(lp3208
g49
(g70
g51
NtRp3209
(dp3210
g54
(dp3211
g74
g75
ssg63
g3205
sg56
(lp3212
S'SERVER_NAME'
p3213
asbag49
(g70
g51
NtRp3214
(dp3215
g54
(dp3216
g81
g82
ssg63
g3205
sg56
(lp3217
S':'
asbag49
(g70
g51
NtRp3218
(dp3219
g54
(dp3220
sg63
g3205
sg56
(lp3221
g49
(g50
g51
NtRp3222
(dp3223
g54
(dp3224
g62
I3
ssg63
g3218
sg56
(lp3225
g1810
asbasbasbag49
(g65
g51
NtRp3226
(dp3227
g54
(dp3228
sg63
g2886
sg56
(lp3229
g49
(g70
g51
NtRp3230
(dp3231
g54
(dp3232
g74
g75
ssg63
g3226
sg56
(lp3233
S'SERVER_PORT'
p3234
asbag49
(g70
g51
NtRp3235
(dp3236
g54
(dp3237
g81
g82
ssg63
g3226
sg56
(lp3238
S':'
asbag49
(g70
g51
NtRp3239
(dp3240
g54
(dp3241
sg63
g3226
sg56
(lp3242
g49
(g50
g51
NtRp3243
(dp3244
g54
(dp3245
g62
I3
ssg63
g3239
sg56
(lp3246
g1832
asbasbasbag49
(g65
g51
NtRp3247
(dp3248
g54
(dp3249
sg63
g2886
sg56
(lp3250
g49
(g70
g51
NtRp3251
(dp3252
g54
(dp3253
g74
g75
ssg63
g3247
sg56
(lp3254
S'SERVER_PROTOCOL'
p3255
asbag49
(g70
g51
NtRp3256
(dp3257
g54
(dp3258
g81
g82
ssg63
g3247
sg56
(lp3259
S':'
asbag49
(g70
g51
NtRp3260
(dp3261
g54
(dp3262
sg63
g3247
sg56
(lp3263
g49
(g50
g51
NtRp3264
(dp3265
g54
(dp3266
g62
I3
ssg63
g3260
sg56
(lp3267
g1854
asbasbasbag49
(g65
g51
NtRp3268
(dp3269
g54
(dp3270
sg63
g2886
sg56
(lp3271
g49
(g70
g51
NtRp3272
(dp3273
g54
(dp3274
g74
g75
ssg63
g3268
sg56
(lp3275
S'SERVER_SOFTWARE'
p3276
asbag49
(g70
g51
NtRp3277
(dp3278
g54
(dp3279
g81
g82
ssg63
g3268
sg56
(lp3280
S':'
asbag49
(g70
g51
NtRp3281
(dp3282
g54
(dp3283
sg63
g3268
sg56
(lp3284
g49
(g50
g51
NtRp3285
(dp3286
g54
(dp3287
g62
I3
ssg63
g3281
sg56
(lp3288
g1876
asbasbasbag49
(g65
g51
NtRp3289
(dp3290
g54
(dp3291
sg63
g2886
sg56
(lp3292
g49
(g70
g51
NtRp3293
(dp3294
g54
(dp3295
g74
g75
ssg63
g3289
sg56
(lp3296
S'wsgi.errors'
p3297
asbag49
(g70
g51
NtRp3298
(dp3299
g54
(dp3300
g81
g82
ssg63
g3289
sg56
(lp3301
S':'
asbag49
(g70
g51
NtRp3302
(dp3303
g54
(dp3304
sg63
g3289
sg56
(lp3305
g49
(g50
g51
NtRp3306
(dp3307
g54
(dp3308
g62
I3
ssg63
g3302
sg56
(lp3309
S"<open file '<stderr>', mode 'w' at 0x016000B0>"
p3310
asbasbasbag49
(g65
g51
NtRp3311
(dp3312
g54
(dp3313
sg63
g2886
sg56
(lp3314
g49
(g70
g51
NtRp3315
(dp3316
g54
(dp3317
g74
g75
ssg63
g3311
sg56
(lp3318
S'wsgi.file_wrapper'
p3319
asbag49
(g70
g51
NtRp3320
(dp3321
g54
(dp3322
g81
g82
ssg63
g3311
sg56
(lp3323
S':'
asbag49
(g70
g51
NtRp3324
(dp3325
g54
(dp3326
sg63
g3311
sg56
(lp3327
g49
(g50
g51
NtRp3328
(dp3329
g54
(dp3330
g62
I3
ssg63
g3324
sg56
(lp3331
S'<class wsgiref.util.FileWrapper at 0x025361B0>'
p3332
asbasbasbag49
(g65
g51
NtRp3333
(dp3334
g54
(dp3335
sg63
g2886
sg56
(lp3336
g49
(g70
g51
NtRp3337
(dp3338
g54
(dp3339
g74
g75
ssg63
g3333
sg56
(lp3340
S'wsgi.input'
p3341
asbag49
(g70
g51
NtRp3342
(dp3343
g54
(dp3344
g81
g82
ssg63
g3333
sg56
(lp3345
S':'
asbag49
(g70
g51
NtRp3346
(dp3347
g54
(dp3348
sg63
g3333
sg56
(lp3349
g49
(g50
g51
NtRp3350
(dp3351
g54
(dp3352
g62
I3
ssg63
g3346
sg56
(lp3353
S'<cStringIO.StringO object at 0x061D3360>'
p3354
asbasbasbag49
(g65
g51
NtRp3355
(dp3356
g54
(dp3357
sg63
g2886
sg56
(lp3358
g49
(g70
g51
NtRp3359
(dp3360
g54
(dp3361
g74
g75
ssg63
g3355
sg56
(lp3362
S'wsgi.multiprocess'
p3363
asbag49
(g70
g51
NtRp3364
(dp3365
g54
(dp3366
g81
g82
ssg63
g3355
sg56
(lp3367
S':'
asbag49
(g70
g51
NtRp3368
(dp3369
g54
(dp3370
sg63
g3355
sg56
(lp3371
g49
(g50
g51
NtRp3372
(dp3373
g54
(dp3374
g62
I3
ssg63
g3368
sg56
(lp3375
g92
asbasbasbag49
(g65
g51
NtRp3376
(dp3377
g54
(dp3378
sg63
g2886
sg56
(lp3379
g49
(g70
g51
NtRp3380
(dp3381
g54
(dp3382
g74
g75
ssg63
g3376
sg56
(lp3383
S'wsgi.multithread'
p3384
asbag49
(g70
g51
NtRp3385
(dp3386
g54
(dp3387
g81
g82
ssg63
g3376
sg56
(lp3388
S':'
asbag49
(g70
g51
NtRp3389
(dp3390
g54
(dp3391
sg63
g3376
sg56
(lp3392
g49
(g50
g51
NtRp3393
(dp3394
g54
(dp3395
g62
I3
ssg63
g3389
sg56
(lp3396
g2116
asbasbasbag49
(g65
g51
NtRp3397
(dp3398
g54
(dp3399
sg63
g2886
sg56
(lp3400
g49
(g70
g51
NtRp3401
(dp3402
g54
(dp3403
g74
g75
ssg63
g3397
sg56
(lp3404
S'wsgi.run_once'
p3405
asbag49
(g70
g51
NtRp3406
(dp3407
g54
(dp3408
g81
g82
ssg63
g3397
sg56
(lp3409
S':'
asbag49
(g70
g51
NtRp3410
(dp3411
g54
(dp3412
sg63
g3397
sg56
(lp3413
g49
(g50
g51
NtRp3414
(dp3415
g54
(dp3416
g62
I3
ssg63
g3410
sg56
(lp3417
g92
asbasbasbag49
(g65
g51
NtRp3418
(dp3419
g54
(dp3420
sg63
g2886
sg56
(lp3421
g49
(g70
g51
NtRp3422
(dp3423
g54
(dp3424
g74
g75
ssg63
g3418
sg56
(lp3425
S'wsgi.url_scheme'
p3426
asbag49
(g70
g51
NtRp3427
(dp3428
g54
(dp3429
g81
g82
ssg63
g3418
sg56
(lp3430
S':'
asbag49
(g70
g51
NtRp3431
(dp3432
g54
(dp3433
sg63
g3418
sg56
(lp3434
g49
(g50
g51
NtRp3435
(dp3436
g54
(dp3437
g62
I3
ssg63
g3431
sg56
(lp3438
g2159
asbasbasbag49
(g65
g51
NtRp3439
(dp3440
g54
(dp3441
sg63
g2886
sg56
(lp3442
g49
(g70
g51
NtRp3443
(dp3444
g54
(dp3445
g74
g75
ssg63
g3439
sg56
(lp3446
S'wsgi.version'
p3447
asbag49
(g70
g51
NtRp3448
(dp3449
g54
(dp3450
g81
g82
ssg63
g3439
sg56
(lp3451
S':'
asbag49
(g70
g51
NtRp3452
(dp3453
g54
(dp3454
sg63
g3439
sg56
(lp3455
g49
(g50
g51
NtRp3456
(dp3457
g54
(dp3458
g62
I3
ssg63
g3452
sg56
(lp3459
S'1'
asbasbasbasbasbasbasbasbasbasbasbasbasbsS'frames'
p3460
(lp3461
(dp3462
S'file'
p3463
S'C:\\Users\\omkara\\Desktop\\web2py\\gluon\\restricted.py'
p3464
sS'dump'
p3465
(dp3466
sS'lnum'
p3467
I205
sS'lines'
p3468
(dp3469
sS'call'
p3470
S'(code=r"response.write(\'<!DOCTYPE html>\\n<!-- paulirish....ponse.write(\'\\n</body>\\n</html>\\n\', escape=False)", environment={\'A\': <class \'gluon.html.A\'>, \'Auth\': <class \'gluon.tools.Auth\'>, \'B\': <class \'gluon.html.B\'>, \'BEAUTIFY\': <class \'gluon.html.BEAUTIFY\'>, \'BODY\': <class \'gluon.html.BODY\'>, \'BR\': <class \'gluon.html.BR\'>, \'BUTTON\': <class \'gluon.html.BUTTON\'>, \'CAT\': <class \'gluon.html.CAT\'>, \'CENTER\': <class \'gluon.html.CENTER\'>, \'CLEANUP\': <class \'gluon.validators.CLEANUP\'>, ...}, layer=r\'C:\\Users\\omkara\\Desktop\\web2py\\applications\\SlugBarter\\views\\default/description_mode.html\')'
p3471
sS'func'
p3472
S'restricted'
p3473
sa(dp3474
g3463
S'C:\\Users\\omkara\\Desktop\\web2py\\applications\\SlugBarter\\views\\default\\description_mode.html'
p3475
sg3465
(dp3476
sg3467
I86
sg3468
(dp3477
I96
S"    response.write('\\n          <h3>Right Sidebar</h3>\\n          <p></p>\\n          ', escape=False)"
p3478
sI77
S'    response.write(\'\\n        <div class="four columns left-sidebar">\\n          \', escape=False)'
p3479
sI78
S"    response.write('\\n          <h3>Left Sidebar</h3>\\n          <p></p>\\n          ', escape=False)"
p3480
sI79
S"    response.write('\\n        </div>\\n        ', escape=False)"
p3481
sI80
S'    pass'
p3482
sI81
S'response.write(\'\\n        \\n        <div class="\', escape=False)'
p3483
sI82
S'response.write(middle_columns)'
p3484
sI83
S'response.write(\' columns center">\\n          \', escape=False)'
p3485
sI84
S"response.write('\\n          ', escape=False)"
p3486
sI85
S"response.write('\\r\\n<h3>Description Mode</h3>\\r\\n<b>Title:</b>\\r\\n', escape=False)"
p3487
sI86
S'response.write(reads.name)'
p3488
sI87
S"response.write('\\r\\n<br>\\r\\n<br>\\r\\n<b>Description:</b>\\r\\n<p>', escape=False)"
p3489
sI88
S'response.write(reads.description)'
p3490
sI89
S"response.write('</p>\\r\\n<b>Category:</b>\\r\\n', escape=False)"
p3491
sI90
S'response.write(reads.services)'
p3492
sI91
S"response.write('\\r\\n', escape=False)"
p3493
sI92
S"response.write('\\n          ', escape=False)"
p3494
sI93
S"response.write('\\n        </div>\\n        \\n        ', escape=False)"
p3495
sI94
S'if right_sidebar_enabled:'
p3496
sI95
S'    response.write(\'\\n        <div class="four columns">\\n          \', escape=False)'
p3497
ssg3470
S'()'
p3498
sg3472
S'<module>'
p3499
sa(dp3500
g3463
S'C:\\Users\\omkara\\Desktop\\web2py\\gluon\\dal.py'
p3501
sg3465
(dp3502
sg3467
I5657
sg3468
(dp3503
sg3470
S"(self=<Row {'description': 'Hello', 'title': 'Computer...lete_record': <function <lambda> at 0x063A0970>}>, key='name')"
p3504
sg3472
S'__getattr__'
p3505
sa(dp3506
g3463
S'C:\\Users\\omkara\\Desktop\\web2py\\gluon\\dal.py'
p3507
sg3465
(dp3508
sg3467
I5648
sg3468
(dp3509
sg3470
S"(self=<Row {'description': 'Hello', 'title': 'Computer...lete_record': <function <lambda> at 0x063A0970>}>, key='name')"
p3510
sg3472
g20
sasS'pyver'
p3511
S'Python 2.5.4: C:\\Users\\omkara\\Desktop\\web2py\\web2py.exe'
p3512
sS'session'
p3513
g49
(g50
g51
NtRp3514
(dp3515
g54
(dp3516
sg56
(lp3517
g49
(g58
g51
NtRp3518
(dp3519
g54
(dp3520
g62
I5
ssg63
Nsg56
(lp3521
g49
(g65
g51
NtRp3522
(dp3523
g54
(dp3524
sg63
g3518
sg56
(lp3525
g49
(g70
g51
NtRp3526
(dp3527
g54
(dp3528
g74
g75
ssg63
g3522
sg56
(lp3529
S'auth'
p3530
asbag49
(g70
g51
NtRp3531
(dp3532
g54
(dp3533
g81
g82
ssg63
g3522
sg56
(lp3534
S':'
asbag49
(g70
g51
NtRp3535
(dp3536
g54
(dp3537
sg63
g3522
sg56
(lp3538
g49
(g50
g51
NtRp3539
(dp3540
g54
(dp3541
g62
I5
ssg63
g3535
sg56
(lp3542
g49
(g58
g51
NtRp3543
(dp3544
g54
(dp3545
g62
I4
ssg63
Nsg56
(lp3546
g49
(g65
g51
NtRp3547
(dp3548
g54
(dp3549
sg63
g3543
sg56
(lp3550
g49
(g70
g51
NtRp3551
(dp3552
g54
(dp3553
g74
g75
ssg63
g3547
sg56
(lp3554
S'expiration'
p3555
asbag49
(g70
g51
NtRp3556
(dp3557
g54
(dp3558
g81
g82
ssg63
g3547
sg56
(lp3559
S':'
asbag49
(g70
g51
NtRp3560
(dp3561
g54
(dp3562
sg63
g3547
sg56
(lp3563
g49
(g50
g51
NtRp3564
(dp3565
g54
(dp3566
g62
I4
ssg63
g3560
sg56
(lp3567
S'3600'
p3568
asbasbasbag49
(g65
g51
NtRp3569
(dp3570
g54
(dp3571
sg63
g3543
sg56
(lp3572
g49
(g70
g51
NtRp3573
(dp3574
g54
(dp3575
g74
g75
ssg63
g3569
sg56
(lp3576
S'hmac_key'
p3577
asbag49
(g70
g51
NtRp3578
(dp3579
g54
(dp3580
g81
g82
ssg63
g3569
sg56
(lp3581
S':'
asbag49
(g70
g51
NtRp3582
(dp3583
g54
(dp3584
sg63
g3569
sg56
(lp3585
g49
(g50
g51
NtRp3586
(dp3587
g54
(dp3588
g62
I4
ssg63
g3582
sg56
(lp3589
S'45d603de-e5cb-48f4-a180-90b37af06570'
p3590
asbasbasbag49
(g65
g51
NtRp3591
(dp3592
g54
(dp3593
sg63
g3543
sg56
(lp3594
g49
(g70
g51
NtRp3595
(dp3596
g54
(dp3597
g74
g75
ssg63
g3591
sg56
(lp3598
S'last_visit'
p3599
asbag49
(g70
g51
NtRp3600
(dp3601
g54
(dp3602
g81
g82
ssg63
g3591
sg56
(lp3603
S':'
asbag49
(g70
g51
NtRp3604
(dp3605
g54
(dp3606
sg63
g3591
sg56
(lp3607
g49
(g50
g51
NtRp3608
(dp3609
g54
(dp3610
g62
I4
ssg63
g3604
sg56
(lp3611
S'datetime.datetime(2012, 11, 11, 19, 23, 53, 100000)'
p3612
asbasbasbag49
(g65
g51
NtRp3613
(dp3614
g54
(dp3615
sg63
g3543
sg56
(lp3616
g49
(g70
g51
NtRp3617
(dp3618
g54
(dp3619
g74
g75
ssg63
g3613
sg56
(lp3620
S'remember'
p3621
asbag49
(g70
g51
NtRp3622
(dp3623
g54
(dp3624
g81
g82
ssg63
g3613
sg56
(lp3625
S':'
asbag49
(g70
g51
NtRp3626
(dp3627
g54
(dp3628
sg63
g3613
sg56
(lp3629
g49
(g50
g51
NtRp3630
(dp3631
g54
(dp3632
g62
I4
ssg63
g3626
sg56
(lp3633
g92
asbasbasbag49
(g65
g51
NtRp3634
(dp3635
g54
(dp3636
sg63
g3543
sg56
(lp3637
g49
(g70
g51
NtRp3638
(dp3639
g54
(dp3640
g74
g75
ssg63
g3634
sg56
(lp3641
S'user'
p3642
asbag49
(g70
g51
NtRp3643
(dp3644
g54
(dp3645
g81
g82
ssg63
g3634
sg56
(lp3646
S':'
asbag49
(g70
g51
NtRp3647
(dp3648
g54
(dp3649
sg63
g3634
sg56
(lp3650
g49
(g50
g51
NtRp3651
(dp3652
g54
(dp3653
g62
I4
ssg63
g3647
sg56
(lp3654
g49
(g58
g51
NtRp3655
(dp3656
g54
(dp3657
g62
I3
ssg63
Nsg56
(lp3658
g49
(g65
g51
NtRp3659
(dp3660
g54
(dp3661
sg63
g3655
sg56
(lp3662
g49
(g70
g51
NtRp3663
(dp3664
g54
(dp3665
g74
g75
ssg63
g3659
sg56
(lp3666
S'dateCreated'
p3667
asbag49
(g70
g51
NtRp3668
(dp3669
g54
(dp3670
g81
g82
ssg63
g3659
sg56
(lp3671
S':'
asbag49
(g70
g51
NtRp3672
(dp3673
g54
(dp3674
sg63
g3659
sg56
(lp3675
g49
(g50
g51
NtRp3676
(dp3677
g54
(dp3678
g62
I3
ssg63
g3672
sg56
(lp3679
S'datetime.datetime(2012, 11, 11, 19, 41, 48)'
p3680
asbasbasbag49
(g65
g51
NtRp3681
(dp3682
g54
(dp3683
sg63
g3655
sg56
(lp3684
g49
(g70
g51
NtRp3685
(dp3686
g54
(dp3687
g74
g75
ssg63
g3681
sg56
(lp3688
S'email'
p3689
asbag49
(g70
g51
NtRp3690
(dp3691
g54
(dp3692
g81
g82
ssg63
g3681
sg56
(lp3693
S':'
asbag49
(g70
g51
NtRp3694
(dp3695
g54
(dp3696
sg63
g3681
sg56
(lp3697
g49
(g50
g51
NtRp3698
(dp3699
g54
(dp3700
g62
I3
ssg63
g3694
sg56
(lp3701
S'sukha620@yahoo.com'
p3702
asbasbasbag49
(g65
g51
NtRp3703
(dp3704
g54
(dp3705
sg63
g3655
sg56
(lp3706
g49
(g70
g51
NtRp3707
(dp3708
g54
(dp3709
g74
g75
ssg63
g3703
sg56
(lp3710
S'first_name'
p3711
asbag49
(g70
g51
NtRp3712
(dp3713
g54
(dp3714
g81
g82
ssg63
g3703
sg56
(lp3715
S':'
asbag49
(g70
g51
NtRp3716
(dp3717
g54
(dp3718
sg63
g3703
sg56
(lp3719
g49
(g50
g51
NtRp3720
(dp3721
g54
(dp3722
g62
I3
ssg63
g3716
sg56
(lp3723
S'Sukhraj'
p3724
asbasbasbag49
(g65
g51
NtRp3725
(dp3726
g54
(dp3727
sg63
g3655
sg56
(lp3728
g49
(g70
g51
NtRp3729
(dp3730
g54
(dp3731
g74
g75
ssg63
g3725
sg56
(lp3732
S'id'
p3733
asbag49
(g70
g51
NtRp3734
(dp3735
g54
(dp3736
g81
g82
ssg63
g3725
sg56
(lp3737
S':'
asbag49
(g70
g51
NtRp3738
(dp3739
g54
(dp3740
sg63
g3725
sg56
(lp3741
g49
(g50
g51
NtRp3742
(dp3743
g54
(dp3744
g62
I3
ssg63
g3738
sg56
(lp3745
S'2'
asbasbasbag49
(g65
g51
NtRp3746
(dp3747
g54
(dp3748
sg63
g3655
sg56
(lp3749
g49
(g70
g51
NtRp3750
(dp3751
g54
(dp3752
g74
g75
ssg63
g3746
sg56
(lp3753
S'last_name'
p3754
asbag49
(g70
g51
NtRp3755
(dp3756
g54
(dp3757
g81
g82
ssg63
g3746
sg56
(lp3758
S':'
asbag49
(g70
g51
NtRp3759
(dp3760
g54
(dp3761
sg63
g3746
sg56
(lp3762
g49
(g50
g51
NtRp3763
(dp3764
g54
(dp3765
g62
I3
ssg63
g3759
sg56
(lp3766
S'Singh'
p3767
asbasbasbag49
(g65
g51
NtRp3768
(dp3769
g54
(dp3770
sg63
g3655
sg56
(lp3771
g49
(g70
g51
NtRp3772
(dp3773
g54
(dp3774
g74
g75
ssg63
g3768
sg56
(lp3775
S'password'
p3776
asbag49
(g70
g51
NtRp3777
(dp3778
g54
(dp3779
g81
g82
ssg63
g3768
sg56
(lp3780
S':'
asbag49
(g70
g51
NtRp3781
(dp3782
g54
(dp3783
sg63
g3768
sg56
(lp3784
g49
(g50
g51
NtRp3785
(dp3786
g54
(dp3787
g62
I3
ssg63
g3781
sg56
(lp3788
S'd82bdd86eff736d398dfae05281ad449'
p3789
asbasbasbag49
(g65
g51
NtRp3790
(dp3791
g54
(dp3792
sg63
g3655
sg56
(lp3793
g49
(g70
g51
NtRp3794
(dp3795
g54
(dp3796
g74
g75
ssg63
g3790
sg56
(lp3797
S'registration_id'
p3798
asbag49
(g70
g51
NtRp3799
(dp3800
g54
(dp3801
g81
g82
ssg63
g3790
sg56
(lp3802
S':'
asbag49
(g70
g51
NtRp3803
(dp3804
g54
(dp3805
sg63
g3790
sg56
(lp3806
g49
(g50
g51
NtRp3807
(dp3808
g54
(dp3809
g62
I3
ssg63
g3803
sg56
(lp3810
S''
asbasbasbag49
(g65
g51
NtRp3811
(dp3812
g54
(dp3813
sg63
g3655
sg56
(lp3814
g49
(g70
g51
NtRp3815
(dp3816
g54
(dp3817
g74
g75
ssg63
g3811
sg56
(lp3818
S'registration_key'
p3819
asbag49
(g70
g51
NtRp3820
(dp3821
g54
(dp3822
g81
g82
ssg63
g3811
sg56
(lp3823
S':'
asbag49
(g70
g51
NtRp3824
(dp3825
g54
(dp3826
sg63
g3811
sg56
(lp3827
g49
(g50
g51
NtRp3828
(dp3829
g54
(dp3830
g62
I3
ssg63
g3824
sg56
(lp3831
S''
asbasbasbag49
(g65
g51
NtRp3832
(dp3833
g54
(dp3834
sg63
g3655
sg56
(lp3835
g49
(g70
g51
NtRp3836
(dp3837
g54
(dp3838
g74
g75
ssg63
g3832
sg56
(lp3839
S'reset_password_key'
p3840
asbag49
(g70
g51
NtRp3841
(dp3842
g54
(dp3843
g81
g82
ssg63
g3832
sg56
(lp3844
S':'
asbag49
(g70
g51
NtRp3845
(dp3846
g54
(dp3847
sg63
g3832
sg56
(lp3848
g49
(g50
g51
NtRp3849
(dp3850
g54
(dp3851
g62
I3
ssg63
g3845
sg56
(lp3852
S''
asbasbasbag49
(g65
g51
NtRp3853
(dp3854
g54
(dp3855
sg63
g3655
sg56
(lp3856
g49
(g70
g51
NtRp3857
(dp3858
g54
(dp3859
g74
g75
ssg63
g3853
sg56
(lp3860
S'username'
p3861
asbag49
(g70
g51
NtRp3862
(dp3863
g54
(dp3864
g81
g82
ssg63
g3853
sg56
(lp3865
S':'
asbag49
(g70
g51
NtRp3866
(dp3867
g54
(dp3868
sg63
g3853
sg56
(lp3869
g49
(g50
g51
NtRp3870
(dp3871
g54
(dp3872
g62
I3
ssg63
g3866
sg56
(lp3873
S'5abi209'
p3874
asbasbasbasbasbasbasbag49
(g65
g51
NtRp3875
(dp3876
g54
(dp3877
sg63
g3543
sg56
(lp3878
g49
(g70
g51
NtRp3879
(dp3880
g54
(dp3881
g74
g75
ssg63
g3875
sg56
(lp3882
S'user_groups'
p3883
asbag49
(g70
g51
NtRp3884
(dp3885
g54
(dp3886
g81
g82
ssg63
g3875
sg56
(lp3887
S':'
asbag49
(g70
g51
NtRp3888
(dp3889
g54
(dp3890
sg63
g3875
sg56
(lp3891
g49
(g50
g51
NtRp3892
(dp3893
g54
(dp3894
g62
I4
ssg63
g3888
sg56
(lp3895
g49
(g58
g51
NtRp3896
(dp3897
g54
(dp3898
g62
I3
ssg63
Nsg56
(lp3899
g49
(g65
g51
NtRp3900
(dp3901
g54
(dp3902
sg63
g3896
sg56
(lp3903
g49
(g70
g51
NtRp3904
(dp3905
g54
(dp3906
g74
g75
ssg63
g3900
sg56
(lp3907
S'1'
asbag49
(g70
g51
NtRp3908
(dp3909
g54
(dp3910
g81
g82
ssg63
g3900
sg56
(lp3911
S':'
asbag49
(g70
g51
NtRp3912
(dp3913
g54
(dp3914
sg63
g3900
sg56
(lp3915
g49
(g50
g51
NtRp3916
(dp3917
g54
(dp3918
g62
I3
ssg63
g3912
sg56
(lp3919
S'user_2'
p3920
asbasbasbasbasbasbasbasbasbasbasbag49
(g65
g51
NtRp3921
(dp3922
g54
(dp3923
sg63
g3518
sg56
(lp3924
g49
(g70
g51
NtRp3925
(dp3926
g54
(dp3927
g74
g75
ssg63
g3921
sg56
(lp3928
S'last_query'
p3929
asbag49
(g70
g51
NtRp3930
(dp3931
g54
(dp3932
g81
g82
ssg63
g3921
sg56
(lp3933
S':'
asbag49
(g70
g51
NtRp3934
(dp3935
g54
(dp3936
sg63
g3921
sg56
(lp3937
g49
(g50
g51
NtRp3938
(dp3939
g54
(dp3940
g62
I5
ssg63
g3934
sg56
(lp3941
S'db.listing.id>0'
p3942
asbasbasbasbasbsS'etype'
p3943
S"<type 'exceptions.KeyError'>"
p3944
sS'date'
p3945
S'Sun Nov 11 19:23:55 2012'
p3946
sS'response'
p3947
g49
(g50
g51
NtRp3948
(dp3949
g54
(dp3950
sg56
(lp3951
g49
(g58
g51
NtRp3952
(dp3953
g54
(dp3954
g62
I5
ssg63
Nsg56
(lp3955
g49
(g65
g51
NtRp3956
(dp3957
g54
(dp3958
sg63
g3952
sg56
(lp3959
g49
(g70
g51
NtRp3960
(dp3961
g54
(dp3962
g74
g75
ssg63
g3956
sg56
(lp3963
g159
asbag49
(g70
g51
NtRp3964
(dp3965
g54
(dp3966
g81
g82
ssg63
g3956
sg56
(lp3967
S':'
asbag49
(g70
g51
NtRp3968
(dp3969
g54
(dp3970
sg63
g3956
sg56
(lp3971
g49
(g50
g51
NtRp3972
(dp3973
g54
(dp3974
g62
I5
ssg63
g3968
sg56
(lp3975
S'<cStringIO.StringO object at 0x065EB8E0>'
p3976
asbasbasbag49
(g65
g51
NtRp3977
(dp3978
g54
(dp3979
sg63
g3952
sg56
(lp3980
g49
(g70
g51
NtRp3981
(dp3982
g54
(dp3983
g74
g75
ssg63
g3977
sg56
(lp3984
g225
asbag49
(g70
g51
NtRp3985
(dp3986
g54
(dp3987
g81
g82
ssg63
g3977
sg56
(lp3988
S':'
asbag49
(g70
g51
NtRp3989
(dp3990
g54
(dp3991
sg63
g3977
sg56
(lp3992
g49
(g50
g51
NtRp3993
(dp3994
g54
(dp3995
g62
I5
ssg63
g3989
sg56
(lp3996
g49
(g58
g51
NtRp3997
(dp3998
g54
(dp3999
g62
I4
ssg63
Nsg56
(lp4000
g49
(g65
g51
NtRp4001
(dp4002
g54
(dp4003
sg63
g3997
sg56
(lp4004
g49
(g70
g51
NtRp4005
(dp4006
g54
(dp4007
g74
g75
ssg63
g4001
sg56
(lp4008
S'session_id_slugbarter'
p4009
asbag49
(g70
g51
NtRp4010
(dp4011
g54
(dp4012
g81
g82
ssg63
g4001
sg56
(lp4013
S':'
asbag49
(g70
g51
NtRp4014
(dp4015
g54
(dp4016
sg63
g4001
sg56
(lp4017
g49
(g50
g51
NtRp4018
(dp4019
g54
(dp4020
g62
I4
ssg63
g4014
sg56
(lp4021
g49
(g58
g51
NtRp4022
(dp4023
g54
(dp4024
g62
I3
ssg63
Nsg56
(lp4025
g49
(g65
g51
NtRp4026
(dp4027
g54
(dp4028
sg63
g4022
sg56
(lp4029
g49
(g70
g51
NtRp4030
(dp4031
g54
(dp4032
g74
g75
ssg63
g4026
sg56
(lp4033
g275
asbag49
(g70
g51
NtRp4034
(dp4035
g54
(dp4036
g81
g82
ssg63
g4026
sg56
(lp4037
S':'
asbag49
(g70
g51
NtRp4038
(dp4039
g54
(dp4040
sg63
g4026
sg56
(lp4041
g49
(g50
g51
NtRp4042
(dp4043
g54
(dp4044
g62
I3
ssg63
g4038
sg56
(lp4045
S''
asbasbasbag49
(g65
g51
NtRp4046
(dp4047
g54
(dp4048
sg63
g4022
sg56
(lp4049
g49
(g70
g51
NtRp4050
(dp4051
g54
(dp4052
g74
g75
ssg63
g4046
sg56
(lp4053
g296
asbag49
(g70
g51
NtRp4054
(dp4055
g54
(dp4056
g81
g82
ssg63
g4046
sg56
(lp4057
S':'
asbag49
(g70
g51
NtRp4058
(dp4059
g54
(dp4060
sg63
g4046
sg56
(lp4061
g49
(g50
g51
NtRp4062
(dp4063
g54
(dp4064
g62
I3
ssg63
g4058
sg56
(lp4065
S''
asbasbasbag49
(g65
g51
NtRp4066
(dp4067
g54
(dp4068
sg63
g4022
sg56
(lp4069
g49
(g70
g51
NtRp4070
(dp4071
g54
(dp4072
g74
g75
ssg63
g4066
sg56
(lp4073
g317
asbag49
(g70
g51
NtRp4074
(dp4075
g54
(dp4076
g81
g82
ssg63
g4066
sg56
(lp4077
S':'
asbag49
(g70
g51
NtRp4078
(dp4079
g54
(dp4080
sg63
g4066
sg56
(lp4081
g49
(g50
g51
NtRp4082
(dp4083
g54
(dp4084
g62
I3
ssg63
g4078
sg56
(lp4085
S''
asbasbasbag49
(g65
g51
NtRp4086
(dp4087
g54
(dp4088
sg63
g4022
sg56
(lp4089
g49
(g70
g51
NtRp4090
(dp4091
g54
(dp4092
g74
g75
ssg63
g4086
sg56
(lp4093
g338
asbag49
(g70
g51
NtRp4094
(dp4095
g54
(dp4096
g81
g82
ssg63
g4086
sg56
(lp4097
S':'
asbag49
(g70
g51
NtRp4098
(dp4099
g54
(dp4100
sg63
g4086
sg56
(lp4101
g49
(g50
g51
NtRp4102
(dp4103
g54
(dp4104
g62
I3
ssg63
g4098
sg56
(lp4105
S''
asbasbasbag49
(g65
g51
NtRp4106
(dp4107
g54
(dp4108
sg63
g4022
sg56
(lp4109
g49
(g70
g51
NtRp4110
(dp4111
g54
(dp4112
g74
g75
ssg63
g4106
sg56
(lp4113
g359
asbag49
(g70
g51
NtRp4114
(dp4115
g54
(dp4116
g81
g82
ssg63
g4106
sg56
(lp4117
S':'
asbag49
(g70
g51
NtRp4118
(dp4119
g54
(dp4120
sg63
g4106
sg56
(lp4121
g49
(g50
g51
NtRp4122
(dp4123
g54
(dp4124
g62
I3
ssg63
g4118
sg56
(lp4125
S'/'
asbasbasbag49
(g65
g51
NtRp4126
(dp4127
g54
(dp4128
sg63
g4022
sg56
(lp4129
g49
(g70
g51
NtRp4130
(dp4131
g54
(dp4132
g74
g75
ssg63
g4126
sg56
(lp4133
g380
asbag49
(g70
g51
NtRp4134
(dp4135
g54
(dp4136
g81
g82
ssg63
g4126
sg56
(lp4137
S':'
asbag49
(g70
g51
NtRp4138
(dp4139
g54
(dp4140
sg63
g4126
sg56
(lp4141
g49
(g50
g51
NtRp4142
(dp4143
g54
(dp4144
g62
I3
ssg63
g4138
sg56
(lp4145
S''
asbasbasbag49
(g65
g51
NtRp4146
(dp4147
g54
(dp4148
sg63
g4022
sg56
(lp4149
g49
(g70
g51
NtRp4150
(dp4151
g54
(dp4152
g74
g75
ssg63
g4146
sg56
(lp4153
g401
asbag49
(g70
g51
NtRp4154
(dp4155
g54
(dp4156
g81
g82
ssg63
g4146
sg56
(lp4157
S':'
asbag49
(g70
g51
NtRp4158
(dp4159
g54
(dp4160
sg63
g4146
sg56
(lp4161
g49
(g50
g51
NtRp4162
(dp4163
g54
(dp4164
g62
I3
ssg63
g4158
sg56
(lp4165
S''
asbasbasbasbasbasbasbasbasbasbasbag49
(g65
g51
NtRp4166
(dp4167
g54
(dp4168
sg63
g3952
sg56
(lp4169
g49
(g70
g51
NtRp4170
(dp4171
g54
(dp4172
g74
g75
ssg63
g4166
sg56
(lp4173
S'delimiters'
p4174
asbag49
(g70
g51
NtRp4175
(dp4176
g54
(dp4177
g81
g82
ssg63
g4166
sg56
(lp4178
S':'
asbag49
(g70
g51
NtRp4179
(dp4180
g54
(dp4181
sg63
g4166
sg56
(lp4182
g49
(g50
g51
NtRp4183
(dp4184
g54
(dp4185
g62
I5
ssg63
g4179
sg56
(lp4186
g49
(g58
g51
NtRp4187
(dp4188
g54
(dp4189
g62
I4
ssg63
Nsg56
(lp4190
g49
(g65
g51
NtRp4191
(dp4192
g54
(dp4193
sg63
g4187
sg56
(lp4194
g49
(g70
g51
NtRp4195
(dp4196
g54
(dp4197
sg63
g4191
sg56
(lp4198
g49
(g50
g51
NtRp4199
(dp4200
g54
(dp4201
g62
I4
ssg63
g4195
sg56
(lp4202
S'{{'
p4203
asbasbasbag49
(g65
g51
NtRp4204
(dp4205
g54
(dp4206
sg63
g4187
sg56
(lp4207
g49
(g70
g51
NtRp4208
(dp4209
g54
(dp4210
sg63
g4204
sg56
(lp4211
g49
(g50
g51
NtRp4212
(dp4213
g54
(dp4214
g62
I4
ssg63
g4208
sg56
(lp4215
S'}}'
p4216
asbasbasbasbasbasbasbag49
(g65
g51
NtRp4217
(dp4218
g54
(dp4219
sg63
g3952
sg56
(lp4220
g49
(g70
g51
NtRp4221
(dp4222
g54
(dp4223
g74
g75
ssg63
g4217
sg56
(lp4224
S'files'
p4225
asbag49
(g70
g51
NtRp4226
(dp4227
g54
(dp4228
g81
g82
ssg63
g4217
sg56
(lp4229
S':'
asbag49
(g70
g51
NtRp4230
(dp4231
g54
(dp4232
sg63
g4217
sg56
(lp4233
g49
(g50
g51
NtRp4234
(dp4235
g54
(dp4236
g62
I5
ssg63
g4230
sg56
(lp4237
g49
(g58
g51
NtRp4238
(dp4239
g54
(dp4240
g62
I4
ssg63
Nsg56
(lp4241
g49
(g65
g51
NtRp4242
(dp4243
g54
(dp4244
sg63
g4238
sg56
(lp4245
g49
(g70
g51
NtRp4246
(dp4247
g54
(dp4248
sg63
g4242
sg56
(lp4249
g49
(g50
g51
NtRp4250
(dp4251
g54
(dp4252
g62
I4
ssg63
g4246
sg56
(lp4253
S'/SlugBarter/static/js/jquery.js'
p4254
asbasbasbag49
(g65
g51
NtRp4255
(dp4256
g54
(dp4257
sg63
g4238
sg56
(lp4258
g49
(g70
g51
NtRp4259
(dp4260
g54
(dp4261
sg63
g4255
sg56
(lp4262
g49
(g50
g51
NtRp4263
(dp4264
g54
(dp4265
g62
I4
ssg63
g4259
sg56
(lp4266
S'/SlugBarter/static/css/calendar.css'
p4267
asbasbasbag49
(g65
g51
NtRp4268
(dp4269
g54
(dp4270
sg63
g4238
sg56
(lp4271
g49
(g70
g51
NtRp4272
(dp4273
g54
(dp4274
sg63
g4268
sg56
(lp4275
g49
(g50
g51
NtRp4276
(dp4277
g54
(dp4278
g62
I4
ssg63
g4272
sg56
(lp4279
S'/SlugBarter/static/js/calendar.js'
p4280
asbasbasbag49
(g65
g51
NtRp4281
(dp4282
g54
(dp4283
sg63
g4238
sg56
(lp4284
g49
(g70
g51
NtRp4285
(dp4286
g54
(dp4287
sg63
g4281
sg56
(lp4288
g49
(g50
g51
NtRp4289
(dp4290
g54
(dp4291
g62
I4
ssg63
g4285
sg56
(lp4292
S'/SlugBarter/static/js/web2py.js'
p4293
asbasbasbag49
(g65
g51
NtRp4294
(dp4295
g54
(dp4296
sg63
g4238
sg56
(lp4297
g49
(g70
g51
NtRp4298
(dp4299
g54
(dp4300
sg63
g4294
sg56
(lp4301
g49
(g50
g51
NtRp4302
(dp4303
g54
(dp4304
g62
I4
ssg63
g4298
sg56
(lp4305
S'/SlugBarter/static/css/skeleton.css'
p4306
asbasbasbag49
(g65
g51
NtRp4307
(dp4308
g54
(dp4309
sg63
g4238
sg56
(lp4310
g49
(g70
g51
NtRp4311
(dp4312
g54
(dp4313
sg63
g4307
sg56
(lp4314
g49
(g50
g51
NtRp4315
(dp4316
g54
(dp4317
g62
I4
ssg63
g4311
sg56
(lp4318
S'/SlugBarter/static/css/web2py.css'
p4319
asbasbasbag49
(g65
g51
NtRp4320
(dp4321
g54
(dp4322
sg63
g4238
sg56
(lp4323
g49
(g70
g51
NtRp4324
(dp4325
g54
(dp4326
sg63
g4320
sg56
(lp4327
g49
(g50
g51
NtRp4328
(dp4329
g54
(dp4330
g62
I4
ssg63
g4324
sg56
(lp4331
S'/SlugBarter/static/css/superfish.css'
p4332
asbasbasbag49
(g65
g51
NtRp4333
(dp4334
g54
(dp4335
sg63
g4238
sg56
(lp4336
g49
(g70
g51
NtRp4337
(dp4338
g54
(dp4339
sg63
g4333
sg56
(lp4340
g49
(g50
g51
NtRp4341
(dp4342
g54
(dp4343
g62
I4
ssg63
g4337
sg56
(lp4344
S'/SlugBarter/static/js/superfish.js'
p4345
asbasbasbasbasbasbasbag49
(g65
g51
NtRp4346
(dp4347
g54
(dp4348
sg63
g3952
sg56
(lp4349
g49
(g70
g51
NtRp4350
(dp4351
g54
(dp4352
g74
g75
ssg63
g4346
sg56
(lp4353
S'flash'
p4354
asbag49
(g70
g51
NtRp4355
(dp4356
g54
(dp4357
g81
g82
ssg63
g4346
sg56
(lp4358
S':'
asbag49
(g70
g51
NtRp4359
(dp4360
g54
(dp4361
sg63
g4346
sg56
(lp4362
g49
(g50
g51
NtRp4363
(dp4364
g54
(dp4365
g62
I5
ssg63
g4359
sg56
(lp4366
S''
asbasbasbag49
(g65
g51
NtRp4367
(dp4368
g54
(dp4369
sg63
g3952
sg56
(lp4370
g49
(g70
g51
NtRp4371
(dp4372
g54
(dp4373
g74
g75
ssg63
g4367
sg56
(lp4374
S'generic_patterns'
p4375
asbag49
(g70
g51
NtRp4376
(dp4377
g54
(dp4378
g81
g82
ssg63
g4367
sg56
(lp4379
S':'
asbag49
(g70
g51
NtRp4380
(dp4381
g54
(dp4382
sg63
g4367
sg56
(lp4383
g49
(g50
g51
NtRp4384
(dp4385
g54
(dp4386
g62
I5
ssg63
g4380
sg56
(lp4387
g49
(g58
g51
NtRp4388
(dp4389
g54
(dp4390
g62
I4
ssg63
Nsg56
(lp4391
g49
(g65
g51
NtRp4392
(dp4393
g54
(dp4394
sg63
g4388
sg56
(lp4395
g49
(g70
g51
NtRp4396
(dp4397
g54
(dp4398
sg63
g4392
sg56
(lp4399
g49
(g50
g51
NtRp4400
(dp4401
g54
(dp4402
g62
I4
ssg63
g4396
sg56
(lp4403
S'*'
asbasbasbasbasbasbasbag49
(g65
g51
NtRp4404
(dp4405
g54
(dp4406
sg63
g3952
sg56
(lp4407
g49
(g70
g51
NtRp4408
(dp4409
g54
(dp4410
g74
g75
ssg63
g4404
sg56
(lp4411
S'headers'
p4412
asbag49
(g70
g51
NtRp4413
(dp4414
g54
(dp4415
g81
g82
ssg63
g4404
sg56
(lp4416
S':'
asbag49
(g70
g51
NtRp4417
(dp4418
g54
(dp4419
sg63
g4404
sg56
(lp4420
g49
(g50
g51
NtRp4421
(dp4422
g54
(dp4423
g62
I5
ssg63
g4417
sg56
(lp4424
g49
(g58
g51
NtRp4425
(dp4426
g54
(dp4427
g62
I4
ssg63
Nsg56
(lp4428
g49
(g65
g51
NtRp4429
(dp4430
g54
(dp4431
sg63
g4425
sg56
(lp4432
g49
(g70
g51
NtRp4433
(dp4434
g54
(dp4435
g74
g75
ssg63
g4429
sg56
(lp4436
S'Cache-Control'
p4437
asbag49
(g70
g51
NtRp4438
(dp4439
g54
(dp4440
g81
g82
ssg63
g4429
sg56
(lp4441
S':'
asbag49
(g70
g51
NtRp4442
(dp4443
g54
(dp4444
sg63
g4429
sg56
(lp4445
g49
(g50
g51
NtRp4446
(dp4447
g54
(dp4448
g62
I4
ssg63
g4442
sg56
(lp4449
S'no-store, no-cache, must-revalidate, post-check=0, pre-check=0'
p4450
asbasbasbag49
(g65
g51
NtRp4451
(dp4452
g54
(dp4453
sg63
g4425
sg56
(lp4454
g49
(g70
g51
NtRp4455
(dp4456
g54
(dp4457
g74
g75
ssg63
g4451
sg56
(lp4458
S'Content-Type'
p4459
asbag49
(g70
g51
NtRp4460
(dp4461
g54
(dp4462
g81
g82
ssg63
g4451
sg56
(lp4463
S':'
asbag49
(g70
g51
NtRp4464
(dp4465
g54
(dp4466
sg63
g4451
sg56
(lp4467
g49
(g50
g51
NtRp4468
(dp4469
g54
(dp4470
g62
I4
ssg63
g4464
sg56
(lp4471
S'text/html; charset=utf-8'
p4472
asbasbasbag49
(g65
g51
NtRp4473
(dp4474
g54
(dp4475
sg63
g4425
sg56
(lp4476
g49
(g70
g51
NtRp4477
(dp4478
g54
(dp4479
g74
g75
ssg63
g4473
sg56
(lp4480
S'Expires'
p4481
asbag49
(g70
g51
NtRp4482
(dp4483
g54
(dp4484
g81
g82
ssg63
g4473
sg56
(lp4485
S':'
asbag49
(g70
g51
NtRp4486
(dp4487
g54
(dp4488
sg63
g4473
sg56
(lp4489
g49
(g50
g51
NtRp4490
(dp4491
g54
(dp4492
g62
I4
ssg63
g4486
sg56
(lp4493
S'Mon, 12 Nov 2012 03:23:55 GMT'
p4494
asbasbasbag49
(g65
g51
NtRp4495
(dp4496
g54
(dp4497
sg63
g4425
sg56
(lp4498
g49
(g70
g51
NtRp4499
(dp4500
g54
(dp4501
g74
g75
ssg63
g4495
sg56
(lp4502
S'Pragma'
p4503
asbag49
(g70
g51
NtRp4504
(dp4505
g54
(dp4506
g81
g82
ssg63
g4495
sg56
(lp4507
S':'
asbag49
(g70
g51
NtRp4508
(dp4509
g54
(dp4510
sg63
g4495
sg56
(lp4511
g49
(g50
g51
NtRp4512
(dp4513
g54
(dp4514
g62
I4
ssg63
g4508
sg56
(lp4515
S'no-cache'
p4516
asbasbasbag49
(g65
g51
NtRp4517
(dp4518
g54
(dp4519
sg63
g4425
sg56
(lp4520
g49
(g70
g51
NtRp4521
(dp4522
g54
(dp4523
g74
g75
ssg63
g4517
sg56
(lp4524
S'X-Powered-By'
p4525
asbag49
(g70
g51
NtRp4526
(dp4527
g54
(dp4528
g81
g82
ssg63
g4517
sg56
(lp4529
S':'
asbag49
(g70
g51
NtRp4530
(dp4531
g54
(dp4532
sg63
g4517
sg56
(lp4533
g49
(g50
g51
NtRp4534
(dp4535
g54
(dp4536
g62
I4
ssg63
g4530
sg56
(lp4537
S'web2py'
p4538
asbasbasbasbasbasbasbag49
(g65
g51
NtRp4539
(dp4540
g54
(dp4541
sg63
g3952
sg56
(lp4542
g49
(g70
g51
NtRp4543
(dp4544
g54
(dp4545
g74
g75
ssg63
g4539
sg56
(lp4546
S'menu'
p4547
asbag49
(g70
g51
NtRp4548
(dp4549
g54
(dp4550
g81
g82
ssg63
g4539
sg56
(lp4551
S':'
asbag49
(g70
g51
NtRp4552
(dp4553
g54
(dp4554
sg63
g4539
sg56
(lp4555
g49
(g50
g51
NtRp4556
(dp4557
g54
(dp4558
g62
I5
ssg63
g4552
sg56
(lp4559
g49
(g58
g51
NtRp4560
(dp4561
g54
(dp4562
g62
I4
ssg63
Nsg56
(lp4563
g49
(g65
g51
NtRp4564
(dp4565
g54
(dp4566
sg63
g4560
sg56
(lp4567
g49
(g70
g51
NtRp4568
(dp4569
g54
(dp4570
sg63
g4564
sg56
(lp4571
g49
(g50
g51
NtRp4572
(dp4573
g54
(dp4574
g62
I4
ssg63
g4568
sg56
(lp4575
g49
(g58
g51
NtRp4576
(dp4577
g54
(dp4578
g62
I3
ssg63
Nsg56
(lp4579
g49
(g65
g51
NtRp4580
(dp4581
g54
(dp4582
sg63
g4576
sg56
(lp4583
g49
(g70
g51
NtRp4584
(dp4585
g54
(dp4586
sg63
g4580
sg56
(lp4587
g49
(g50
g51
NtRp4588
(dp4589
g54
(dp4590
g62
I3
ssg63
g4584
sg56
(lp4591
cgluon.languages
lazyT_unpickle
p4592
(S's\x04\x00\x00\x00Home'
tRp4593
asbasbasbag49
(g65
g51
NtRp4594
(dp4595
g54
(dp4596
sg63
g4576
sg56
(lp4597
g49
(g70
g51
NtRp4598
(dp4599
g54
(dp4600
sg63
g4594
sg56
(lp4601
g49
(g50
g51
NtRp4602
(dp4603
g54
(dp4604
g62
I3
ssg63
g4598
sg56
(lp4605
g92
asbasbasbag49
(g65
g51
NtRp4606
(dp4607
g54
(dp4608
sg63
g4576
sg56
(lp4609
g49
(g70
g51
NtRp4610
(dp4611
g54
(dp4612
sg63
g4606
sg56
(lp4613
g49
(g50
g51
NtRp4614
(dp4615
g54
(dp4616
g62
I3
ssg63
g4610
sg56
(lp4617
S'/SlugBarter/default/index'
p4618
asbasbasbag49
(g65
g51
NtRp4619
(dp4620
g54
(dp4621
sg63
g4576
sg56
(lp4622
g49
(g70
g51
NtRp4623
(dp4624
g54
(dp4625
sg63
g4619
sg56
(lp4626
g49
(g50
g51
NtRp4627
(dp4628
g54
(dp4629
g62
I3
ssg63
g4623
sg56
(lp4630
g49
(g58
g51
NtRp4631
(dp4632
g54
(dp4633
g62
I2
ssg63
Nsg56
(lp4634
sbasbasbasbasbasbasbasbag49
(g65
g51
NtRp4635
(dp4636
g54
(dp4637
sg63
g4560
sg56
(lp4638
g49
(g70
g51
NtRp4639
(dp4640
g54
(dp4641
sg63
g4635
sg56
(lp4642
g49
(g50
g51
NtRp4643
(dp4644
g54
(dp4645
g62
I4
ssg63
g4639
sg56
(lp4646
g49
(g58
g51
NtRp4647
(dp4648
g54
(dp4649
g62
I3
ssg63
Nsg56
(lp4650
g49
(g65
g51
NtRp4651
(dp4652
g54
(dp4653
sg63
g4647
sg56
(lp4654
g49
(g70
g51
NtRp4655
(dp4656
g54
(dp4657
sg63
g4651
sg56
(lp4658
g49
(g50
g51
NtRp4659
(dp4660
g54
(dp4661
g62
I3
ssg63
g4655
sg56
(lp4662
g49
(cgluon.html
SPAN
p4663
g51
NtRp4664
(dp4665
g54
(dp4666
g74
S'color:yellow'
p4667
ssg63
g49
(cgluon.html
A
p4668
g51
NtRp4669
(dp4670
g54
(dp4671
S'_onclick'
p4672
S'javascript:void(0);return false;'
p4673
sS'_href'
p4674
S'#'
ssg63
g49
(cgluon.html
LI
p4675
g51
NtRp4676
(dp4677
g54
(dp4678
S'_class'
p4679
S'web2py-menu-expand'
p4680
ssg63
g49
(cgluon.html
UL
p4681
g51
NtRp4682
(dp4683
g54
(dp4684
S'mobile'
p4685
I00
sS'li_class'
p4686
g4680
sg4679
S'sf-menu'
p4687
sS'ul_class'
p4688
S'web2py-menu-vertical'
p4689
sS'li_active'
p4690
S'web2py-menu-active'
p4691
ssg63
Nsg56
(lp4692
g49
(g4675
g51
NtRp4693
(dp4694
g54
(dp4695
sg63
g4682
sg56
(lp4696
g49
(g4668
g51
NtRp4697
(dp4698
g54
(dp4699
g4674
g4618
ssg63
g4693
sg56
(lp4700
g4593
asbasbag4676
asbsg56
(lp4701
g4669
ag49
(g4681
g51
NtRp4702
(dp4703
g54
(dp4704
g4679
g4689
ssg63
g4676
sg56
(lp4705
g49
(g4675
g51
NtRp4706
(dp4707
g54
(dp4708
sg63
g4702
sg56
(lp4709
g49
(g4668
g51
NtRp4710
(dp4711
g54
(dp4712
g4674
S'/admin/default/site'
p4713
ssg63
g4706
sg56
(lp4714
g4592
(S's\x08\x00\x00\x00My Sites'
tRp4715
asbasbag49
(g4675
g51
NtRp4716
(dp4717
g54
(dp4718
g4679
g4680
ssg63
g4702
sg56
(lp4719
g49
(g4668
g51
NtRp4720
(dp4721
g54
(dp4722
g4674
S'/admin/default/design/SlugBarter'
p4723
ssg63
g4716
sg56
(lp4724
g4592
(S's\x08\x00\x00\x00This App'
tRp4725
asbag49
(g4681
g51
NtRp4726
(dp4727
g54
(dp4728
g4679
g4689
ssg63
g4716
sg56
(lp4729
g49
(g4675
g51
NtRp4730
(dp4731
g54
(dp4732
sg63
g4726
sg56
(lp4733
g49
(g4668
g51
NtRp4734
(dp4735
g54
(dp4736
g4674
S'/admin/default/edit/SlugBarter/controllers/default.py'
p4737
ssg63
g4730
sg56
(lp4738
g4592
(S's\n\x00\x00\x00Controller'
tRp4739
asbasbag49
(g4675
g51
NtRp4740
(dp4741
g54
(dp4742
sg63
g4726
sg56
(lp4743
g49
(g4668
g51
NtRp4744
(dp4745
g54
(dp4746
g4674
S'/admin/default/edit/SlugBarter/views/default/description_mode.html'
p4747
ssg63
g4740
sg56
(lp4748
g4592
(S's\x04\x00\x00\x00View'
tRp4749
asbasbag49
(g4675
g51
NtRp4750
(dp4751
g54
(dp4752
sg63
g4726
sg56
(lp4753
g49
(g4668
g51
NtRp4754
(dp4755
g54
(dp4756
g4674
S'/admin/default/edit/SlugBarter/views/layout.html'
p4757
ssg63
g4750
sg56
(lp4758
g4592
(S's\x06\x00\x00\x00Layout'
tRp4759
asbasbag49
(g4675
g51
NtRp4760
(dp4761
g54
(dp4762
sg63
g4726
sg56
(lp4763
g49
(g4668
g51
NtRp4764
(dp4765
g54
(dp4766
g4674
S'/admin/default/edit/SlugBarter/static/css/web2py.css'
p4767
ssg63
g4760
sg56
(lp4768
g4592
(S's\n\x00\x00\x00Stylesheet'
tRp4769
asbasbag49
(g4675
g51
NtRp4770
(dp4771
g54
(dp4772
sg63
g4726
sg56
(lp4773
g49
(g4668
g51
NtRp4774
(dp4775
g54
(dp4776
g4674
S'/admin/default/edit/SlugBarter/models/db.py'
p4777
ssg63
g4770
sg56
(lp4778
g4592
(S's\x08\x00\x00\x00DB Model'
tRp4779
asbasbag49
(g4675
g51
NtRp4780
(dp4781
g54
(dp4782
sg63
g4726
sg56
(lp4783
g49
(g4668
g51
NtRp4784
(dp4785
g54
(dp4786
g4674
S'/admin/default/edit/SlugBarter/models/menu.py'
p4787
ssg63
g4780
sg56
(lp4788
g4592
(S's\n\x00\x00\x00Menu Model'
tRp4789
asbasbag49
(g4675
g51
NtRp4790
(dp4791
g54
(dp4792
sg63
g4726
sg56
(lp4793
g49
(g4668
g51
NtRp4794
(dp4795
g54
(dp4796
g4674
S'/SlugBarter/appadmin/index'
p4797
ssg63
g4790
sg56
(lp4798
g4592
(S's\x08\x00\x00\x00Database'
tRp4799
asbasbag49
(g4675
g51
NtRp4800
(dp4801
g54
(dp4802
sg63
g4726
sg56
(lp4803
g49
(g4668
g51
NtRp4804
(dp4805
g54
(dp4806
g4674
S'/admin/default/errors/SlugBarter'
p4807
ssg63
g4800
sg56
(lp4808
g4592
(S's\x06\x00\x00\x00Errors'
tRp4809
asbasbag49
(g4675
g51
NtRp4810
(dp4811
g54
(dp4812
sg63
g4726
sg56
(lp4813
g49
(g4668
g51
NtRp4814
(dp4815
g54
(dp4816
g4674
S'/admin/default/about/SlugBarter'
p4817
ssg63
g4810
sg56
(lp4818
g4592
(S's\x05\x00\x00\x00About'
tRp4819
asbasbasbasbag49
(g4675
g51
NtRp4820
(dp4821
g54
(dp4822
g4679
g4680
ssg63
g4702
sg56
(lp4823
g49
(g4668
g51
NtRp4824
(dp4825
g54
(dp4826
g4674
S'http://www.web2py.com'
p4827
ssg63
g4820
sg56
(lp4828
S'web2py.com'
p4829
asbag49
(g4681
g51
NtRp4830
(dp4831
g54
(dp4832
g4679
g4689
ssg63
g4820
sg56
(lp4833
g49
(g4675
g51
NtRp4834
(dp4835
g54
(dp4836
sg63
g4830
sg56
(lp4837
g49
(g4668
g51
NtRp4838
(dp4839
g54
(dp4840
g4674
S'http://www.web2py.com/examples/default/download'
p4841
ssg63
g4834
sg56
(lp4842
g4592
(S's\x08\x00\x00\x00Download'
tRp4843
asbasbag49
(g4675
g51
NtRp4844
(dp4845
g54
(dp4846
sg63
g4830
sg56
(lp4847
g49
(g4668
g51
NtRp4848
(dp4849
g54
(dp4850
g4674
S'http://www.web2py.com/examples/default/support'
p4851
ssg63
g4844
sg56
(lp4852
g4592
(S's\x07\x00\x00\x00Support'
tRp4853
asbasbag49
(g4675
g51
NtRp4854
(dp4855
g54
(dp4856
sg63
g4830
sg56
(lp4857
g49
(g4668
g51
NtRp4858
(dp4859
g54
(dp4860
g4674
S'http://web2py.com/demo_admin'
p4861
ssg63
g4854
sg56
(lp4862
g4592
(S's\x04\x00\x00\x00Demo'
tRp4863
asbasbag49
(g4675
g51
NtRp4864
(dp4865
g54
(dp4866
sg63
g4830
sg56
(lp4867
g49
(g4668
g51
NtRp4868
(dp4869
g54
(dp4870
g4674
S'http://web2py.com/examples/default/examples'
p4871
ssg63
g4864
sg56
(lp4872
g4592
(S's\x0e\x00\x00\x00Quick Examples'
tRp4873
asbasbag49
(g4675
g51
NtRp4874
(dp4875
g54
(dp4876
sg63
g4830
sg56
(lp4877
g49
(g4668
g51
NtRp4878
(dp4879
g54
(dp4880
g4674
S'http://web2py.com/AlterEgo'
p4881
ssg63
g4874
sg56
(lp4882
g4592
(S's\x03\x00\x00\x00FAQ'
tRp4883
asbasbag49
(g4675
g51
NtRp4884
(dp4885
g54
(dp4886
sg63
g4830
sg56
(lp4887
g49
(g4668
g51
NtRp4888
(dp4889
g54
(dp4890
g4674
S'http://www.web2py.com/examples/default/videos/'
p4891
ssg63
g4884
sg56
(lp4892
g4592
(S's\x06\x00\x00\x00Videos'
tRp4893
asbasbag49
(g4675
g51
NtRp4894
(dp4895
g54
(dp4896
sg63
g4830
sg56
(lp4897
g49
(g4668
g51
NtRp4898
(dp4899
g54
(dp4900
g4674
S'http://web2py.com/appliances'
p4901
ssg63
g4894
sg56
(lp4902
g4592
(S's\x11\x00\x00\x00Free Applications'
tRp4903
asbasbag49
(g4675
g51
NtRp4904
(dp4905
g54
(dp4906
sg63
g4830
sg56
(lp4907
g49
(g4668
g51
NtRp4908
(dp4909
g54
(dp4910
g4674
S'http://web2py.com/plugins'
p4911
ssg63
g4904
sg56
(lp4912
g4592
(S's\x07\x00\x00\x00Plugins'
tRp4913
asbasbag49
(g4675
g51
NtRp4914
(dp4915
g54
(dp4916
sg63
g4830
sg56
(lp4917
g49
(g4668
g51
NtRp4918
(dp4919
g54
(dp4920
g4674
S'http://web2py.com/layouts'
p4921
ssg63
g4914
sg56
(lp4922
g4592
(S's\x07\x00\x00\x00Layouts'
tRp4923
asbasbag49
(g4675
g51
NtRp4924
(dp4925
g54
(dp4926
sg63
g4830
sg56
(lp4927
g49
(g4668
g51
NtRp4928
(dp4929
g54
(dp4930
g4674
S'http://web2pyslices.com/'
p4931
ssg63
g4924
sg56
(lp4932
g4592
(S's\x07\x00\x00\x00Recipes'
tRp4933
asbasbag49
(g4675
g51
NtRp4934
(dp4935
g54
(dp4936
sg63
g4830
sg56
(lp4937
g49
(g4668
g51
NtRp4938
(dp4939
g54
(dp4940
g4674
S'http://web2py.com/semantic'
p4941
ssg63
g4934
sg56
(lp4942
g4592
(S's\x08\x00\x00\x00Semantic'
tRp4943
asbasbasbasbag49
(g4675
g51
NtRp4944
(dp4945
g54
(dp4946
g4679
g4680
ssg63
g4702
sg56
(lp4947
g49
(g4668
g51
NtRp4948
(dp4949
g54
(dp4950
g4674
S'http://www.web2py.com/book'
p4951
ssg63
g4944
sg56
(lp4952
g4592
(S's\r\x00\x00\x00Documentation'
tRp4953
asbag49
(g4681
g51
NtRp4954
(dp4955
g54
(dp4956
g4679
g4689
ssg63
g4944
sg56
(lp4957
g49
(g4675
g51
NtRp4958
(dp4959
g54
(dp4960
sg63
g4954
sg56
(lp4961
g49
(g4668
g51
NtRp4962
(dp4963
g54
(dp4964
g4674
S'http://www.web2py.com/book/default/chapter/00'
p4965
ssg63
g4958
sg56
(lp4966
g4592
(S's\x07\x00\x00\x00Preface'
tRp4967
asbasbag49
(g4675
g51
NtRp4968
(dp4969
g54
(dp4970
sg63
g4954
sg56
(lp4971
g49
(g4668
g51
NtRp4972
(dp4973
g54
(dp4974
g4674
S'http://www.web2py.com/book/default/chapter/01'
p4975
ssg63
g4968
sg56
(lp4976
g4592
(S's\x0c\x00\x00\x00Introduction'
tRp4977
asbasbag49
(g4675
g51
NtRp4978
(dp4979
g54
(dp4980
sg63
g4954
sg56
(lp4981
g49
(g4668
g51
NtRp4982
(dp4983
g54
(dp4984
g4674
S'http://www.web2py.com/book/default/chapter/02'
p4985
ssg63
g4978
sg56
(lp4986
g4592
(S's\x06\x00\x00\x00Python'
tRp4987
asbasbag49
(g4675
g51
NtRp4988
(dp4989
g54
(dp4990
sg63
g4954
sg56
(lp4991
g49
(g4668
g51
NtRp4992
(dp4993
g54
(dp4994
g4674
S'http://www.web2py.com/book/default/chapter/03'
p4995
ssg63
g4988
sg56
(lp4996
g4592
(S's\x08\x00\x00\x00Overview'
tRp4997
asbasbag49
(g4675
g51
NtRp4998
(dp4999
g54
(dp5000
sg63
g4954
sg56
(lp5001
g49
(g4668
g51
NtRp5002
(dp5003
g54
(dp5004
g4674
S'http://www.web2py.com/book/default/chapter/04'
p5005
ssg63
g4998
sg56
(lp5006
g4592
(S's\x08\x00\x00\x00The Core'
tRp5007
asbasbag49
(g4675
g51
NtRp5008
(dp5009
g54
(dp5010
sg63
g4954
sg56
(lp5011
g49
(g4668
g51
NtRp5012
(dp5013
g54
(dp5014
g4674
S'http://www.web2py.com/book/default/chapter/05'
p5015
ssg63
g5008
sg56
(lp5016
g4592
(S's\t\x00\x00\x00The Views'
tRp5017
asbasbag49
(g4675
g51
NtRp5018
(dp5019
g54
(dp5020
sg63
g4954
sg56
(lp5021
g49
(g4668
g51
NtRp5022
(dp5023
g54
(dp5024
g4674
S'http://www.web2py.com/book/default/chapter/06'
p5025
ssg63
g5018
sg56
(lp5026
g4592
(S's\x08\x00\x00\x00Database'
tRp5027
asbasbag49
(g4675
g51
NtRp5028
(dp5029
g54
(dp5030
sg63
g4954
sg56
(lp5031
g49
(g4668
g51
NtRp5032
(dp5033
g54
(dp5034
g4674
S'http://www.web2py.com/book/default/chapter/07'
p5035
ssg63
g5028
sg56
(lp5036
g4592
(S's\x14\x00\x00\x00Forms and Validators'
tRp5037
asbasbag49
(g4675
g51
NtRp5038
(dp5039
g54
(dp5040
sg63
g4954
sg56
(lp5041
g49
(g4668
g51
NtRp5042
(dp5043
g54
(dp5044
g4674
S'http://www.web2py.com/book/default/chapter/08'
p5045
ssg63
g5038
sg56
(lp5046
g4592
(S's\r\x00\x00\x00Email and SMS'
tRp5047
asbasbag49
(g4675
g51
NtRp5048
(dp5049
g54
(dp5050
sg63
g4954
sg56
(lp5051
g49
(g4668
g51
NtRp5052
(dp5053
g54
(dp5054
g4674
S'http://www.web2py.com/book/default/chapter/09'
p5055
ssg63
g5048
sg56
(lp5056
g4592
(S's\x0e\x00\x00\x00Access Control'
tRp5057
asbasbag49
(g4675
g51
NtRp5058
(dp5059
g54
(dp5060
sg63
g4954
sg56
(lp5061
g49
(g4668
g51
NtRp5062
(dp5063
g54
(dp5064
g4674
S'http://www.web2py.com/book/default/chapter/10'
p5065
ssg63
g5058
sg56
(lp5066
g4592
(S's\x08\x00\x00\x00Services'
tRp5067
asbasbag49
(g4675
g51
NtRp5068
(dp5069
g54
(dp5070
sg63
g4954
sg56
(lp5071
g49
(g4668
g51
NtRp5072
(dp5073
g54
(dp5074
g4674
S'http://www.web2py.com/book/default/chapter/11'
p5075
ssg63
g5068
sg56
(lp5076
g4592
(S's\x0c\x00\x00\x00Ajax Recipes'
tRp5077
asbasbag49
(g4675
g51
NtRp5078
(dp5079
g54
(dp5080
sg63
g4954
sg56
(lp5081
g49
(g4668
g51
NtRp5082
(dp5083
g54
(dp5084
g4674
S'http://www.web2py.com/book/default/chapter/12'
p5085
ssg63
g5078
sg56
(lp5086
g4592
(S's\x16\x00\x00\x00Components and Plugins'
tRp5087
asbasbag49
(g4675
g51
NtRp5088
(dp5089
g54
(dp5090
sg63
g4954
sg56
(lp5091
g49
(g4668
g51
NtRp5092
(dp5093
g54
(dp5094
g4674
S'http://www.web2py.com/book/default/chapter/13'
p5095
ssg63
g5088
sg56
(lp5096
g4592
(S's\x12\x00\x00\x00Deployment Recipes'
tRp5097
asbasbag49
(g4675
g51
NtRp5098
(dp5099
g54
(dp5100
sg63
g4954
sg56
(lp5101
g49
(g4668
g51
NtRp5102
(dp5103
g54
(dp5104
g4674
S'http://www.web2py.com/book/default/chapter/14'
p5105
ssg63
g5098
sg56
(lp5106
g4592
(S's\r\x00\x00\x00Other Recipes'
tRp5107
asbasbag49
(g4675
g51
NtRp5108
(dp5109
g54
(dp5110
sg63
g4954
sg56
(lp5111
g49
(g4668
g51
NtRp5112
(dp5113
g54
(dp5114
g4674
S'http://stores.lulu.com/web2py'
p5115
ssg63
g5108
sg56
(lp5116
g4592
(S's\r\x00\x00\x00Buy this book'
tRp5117
asbasbasbasbag49
(g4675
g51
NtRp5118
(dp5119
g54
(dp5120
g4679
g4680
ssg63
g4702
sg56
(lp5121
g49
(g4668
g51
NtRp5122
(dp5123
g54
(dp5124
g4672
g4673
sg4674
S'#'
ssg63
g5118
sg56
(lp5125
g4592
(S's\t\x00\x00\x00Community'
tRp5126
asbag49
(g4681
g51
NtRp5127
(dp5128
g54
(dp5129
g4679
g4689
ssg63
g5118
sg56
(lp5130
g49
(g4675
g51
NtRp5131
(dp5132
g54
(dp5133
sg63
g5127
sg56
(lp5134
g49
(g4668
g51
NtRp5135
(dp5136
g54
(dp5137
g4674
S'http://www.web2py.com/examples/default/usergroups'
p5138
ssg63
g5131
sg56
(lp5139
g4592
(S's\x06\x00\x00\x00Groups'
tRp5140
asbasbag49
(g4675
g51
NtRp5141
(dp5142
g54
(dp5143
sg63
g5127
sg56
(lp5144
g49
(g4668
g51
NtRp5145
(dp5146
g54
(dp5147
g4674
S'http://twitter.com/web2py'
p5148
ssg63
g5141
sg56
(lp5149
g4592
(S's\x07\x00\x00\x00Twitter'
tRp5150
asbasbag49
(g4675
g51
NtRp5151
(dp5152
g54
(dp5153
sg63
g5127
sg56
(lp5154
g49
(g4668
g51
NtRp5155
(dp5156
g54
(dp5157
g4674
S'http://webchat.freenode.net/?channels=web2py'
p5158
ssg63
g5151
sg56
(lp5159
g4592
(S's\t\x00\x00\x00Live Chat'
tRp5160
asbasbasbasbag49
(g4675
g51
NtRp5161
(dp5162
g54
(dp5163
g4679
g4680
ssg63
g4702
sg56
(lp5164
g49
(g4668
g51
NtRp5165
(dp5166
g54
(dp5167
g4672
g4673
sg4674
S'#'
ssg63
g5161
sg56
(lp5168
g4592
(S's\x07\x00\x00\x00Plugins'
tRp5169
asbag49
(g4681
g51
NtRp5170
(dp5171
g54
(dp5172
g4679
g4689
ssg63
g5161
sg56
(lp5173
g49
(g4675
g51
NtRp5174
(dp5175
g54
(dp5176
sg63
g5170
sg56
(lp5177
g49
(g4668
g51
NtRp5178
(dp5179
g54
(dp5180
g4674
S'http://web2py.com/examples/default/download'
p5181
ssg63
g5174
sg56
(lp5182
S'plugin_wiki'
p5183
asbasbag49
(g4675
g51
NtRp5184
(dp5185
g54
(dp5186
sg63
g5170
sg56
(lp5187
g49
(g4668
g51
NtRp5188
(dp5189
g54
(dp5190
g4674
g4911
ssg63
g5184
sg56
(lp5191
g4592
(S's\r\x00\x00\x00Other Plugins'
tRp5192
asbasbag49
(g4675
g51
NtRp5193
(dp5194
g54
(dp5195
sg63
g5170
sg56
(lp5196
g49
(g4668
g51
NtRp5197
(dp5198
g54
(dp5199
g4674
g4921
ssg63
g5193
sg56
(lp5200
g4592
(S's\x0e\x00\x00\x00Layout Plugins'
tRp5201
asbasbasbasbasbasbsg56
(lp5202
g4664
asbsg56
(lp5203
g4538
asbasbasbasbag49
(g65
g51
NtRp5204
(dp5205
g54
(dp5206
sg63
g4647
sg56
(lp5207
g49
(g70
g51
NtRp5208
(dp5209
g54
(dp5210
sg63
g5204
sg56
(lp5211
g49
(g50
g51
NtRp5212
(dp5213
g54
(dp5214
g62
I3
ssg63
g5208
sg56
(lp5215
g92
asbasbasbag49
(g65
g51
NtRp5216
(dp5217
g54
(dp5218
sg63
g4647
sg56
(lp5219
g49
(g70
g51
NtRp5220
(dp5221
g54
(dp5222
sg63
g5216
sg56
(lp5223
g49
(g50
g51
NtRp5224
(dp5225
g54
(dp5226
g62
I3
ssg63
g5220
sg56
(lp5227
S'None'
p5228
asbasbasbag49
(g65
g51
NtRp5229
(dp5230
g54
(dp5231
sg63
g4647
sg56
(lp5232
g49
(g70
g51
NtRp5233
(dp5234
g54
(dp5235
sg63
g5229
sg56
(lp5236
g49
(g50
g51
NtRp5237
(dp5238
g54
(dp5239
g62
I3
ssg63
g5233
sg56
(lp5240
g49
(g58
g51
NtRp5241
(dp5242
g54
(dp5243
g62
I2
ssg63
Nsg56
(lp5244
g49
(g65
g51
NtRp5245
(dp5246
g54
(dp5247
sg63
g5241
sg56
(lp5248
g49
(g70
g51
NtRp5249
(dp5250
g54
(dp5251
sg63
g5245
sg56
(lp5252
g49
(g50
g51
NtRp5253
(dp5254
g54
(dp5255
g62
I2
ssg63
g5249
sg56
(lp5256
g49
(g58
g51
NtRp5257
(dp5258
g54
(dp5259
g62
I1
ssg63
Nsg56
(lp5260
g49
(g65
g51
NtRp5261
(dp5262
g54
(dp5263
sg63
g5257
sg56
(lp5264
g49
(g70
g51
NtRp5265
(dp5266
g54
(dp5267
sg63
g5261
sg56
(lp5268
g49
(g50
g51
NtRp5269
(dp5270
g54
(dp5271
g62
I1
ssg63
g5265
sg56
(lp5272
g4715
asbasbasbag49
(g65
g51
NtRp5273
(dp5274
g54
(dp5275
sg63
g5257
sg56
(lp5276
g49
(g70
g51
NtRp5277
(dp5278
g54
(dp5279
sg63
g5273
sg56
(lp5280
g49
(g50
g51
NtRp5281
(dp5282
g54
(dp5283
g62
I1
ssg63
g5277
sg56
(lp5284
I00
asbasbasbag49
(g65
g51
NtRp5285
(dp5286
g54
(dp5287
sg63
g5257
sg56
(lp5288
g49
(g70
g51
NtRp5289
(dp5290
g54
(dp5291
sg63
g5285
sg56
(lp5292
g49
(g50
g51
NtRp5293
(dp5294
g54
(dp5295
g62
I1
ssg63
g5289
sg56
(lp5296
g4713
asbasbasbasbasbasbasbag49
(g65
g51
NtRp5297
(dp5298
g54
(dp5299
sg63
g5241
sg56
(lp5300
g49
(g70
g51
NtRp5301
(dp5302
g54
(dp5303
sg63
g5297
sg56
(lp5304
g49
(g50
g51
NtRp5305
(dp5306
g54
(dp5307
g62
I2
ssg63
g5301
sg56
(lp5308
g49
(g58
g51
NtRp5309
(dp5310
g54
(dp5311
g62
I1
ssg63
Nsg56
(lp5312
g49
(g65
g51
NtRp5313
(dp5314
g54
(dp5315
sg63
g5309
sg56
(lp5316
g49
(g70
g51
NtRp5317
(dp5318
g54
(dp5319
sg63
g5313
sg56
(lp5320
g49
(g50
g51
NtRp5321
(dp5322
g54
(dp5323
g62
I1
ssg63
g5317
sg56
(lp5324
g4725
asbasbasbag49
(g65
g51
NtRp5325
(dp5326
g54
(dp5327
sg63
g5309
sg56
(lp5328
g49
(g70
g51
NtRp5329
(dp5330
g54
(dp5331
sg63
g5325
sg56
(lp5332
g49
(g50
g51
NtRp5333
(dp5334
g54
(dp5335
g62
I1
ssg63
g5329
sg56
(lp5336
I00
asbasbasbag49
(g65
g51
NtRp5337
(dp5338
g54
(dp5339
sg63
g5309
sg56
(lp5340
g49
(g70
g51
NtRp5341
(dp5342
g54
(dp5343
sg63
g5337
sg56
(lp5344
g49
(g50
g51
NtRp5345
(dp5346
g54
(dp5347
g62
I1
ssg63
g5341
sg56
(lp5348
g4723
asbasbasbag49
(g65
g51
NtRp5349
(dp5350
g54
(dp5351
sg63
g5309
sg56
(lp5352
g49
(g70
g51
NtRp5353
(dp5354
g54
(dp5355
sg63
g5349
sg56
(lp5356
g49
(g50
g51
NtRp5357
(dp5358
g54
(dp5359
g62
I1
ssg63
g5353
sg56
(lp5360
(lp5361
(g4739
I00
g4737
tp5362
a(g4749
I00
g4747
tp5363
a(g4759
I00
g4757
tp5364
a(g4769
I00
g4767
tp5365
a(g4779
I00
g4777
tp5366
a(g4789
I00
g4787
tp5367
a(g4799
I00
g4797
tp5368
a(g4809
I00
g4807
tp5369
a(g4819
I00
g4817
tp5370
aasbasbasbasbasbasbasbag49
(g65
g51
NtRp5371
(dp5372
g54
(dp5373
sg63
g5241
sg56
(lp5374
g49
(g70
g51
NtRp5375
(dp5376
g54
(dp5377
sg63
g5371
sg56
(lp5378
g49
(g50
g51
NtRp5379
(dp5380
g54
(dp5381
g62
I2
ssg63
g5375
sg56
(lp5382
g49
(g58
g51
NtRp5383
(dp5384
g54
(dp5385
g62
I1
ssg63
Nsg56
(lp5386
g49
(g65
g51
NtRp5387
(dp5388
g54
(dp5389
sg63
g5383
sg56
(lp5390
g49
(g70
g51
NtRp5391
(dp5392
g54
(dp5393
sg63
g5387
sg56
(lp5394
g49
(g50
g51
NtRp5395
(dp5396
g54
(dp5397
g62
I1
ssg63
g5391
sg56
(lp5398
g4829
asbasbasbag49
(g65
g51
NtRp5399
(dp5400
g54
(dp5401
sg63
g5383
sg56
(lp5402
g49
(g70
g51
NtRp5403
(dp5404
g54
(dp5405
sg63
g5399
sg56
(lp5406
g49
(g50
g51
NtRp5407
(dp5408
g54
(dp5409
g62
I1
ssg63
g5403
sg56
(lp5410
I00
asbasbasbag49
(g65
g51
NtRp5411
(dp5412
g54
(dp5413
sg63
g5383
sg56
(lp5414
g49
(g70
g51
NtRp5415
(dp5416
g54
(dp5417
sg63
g5411
sg56
(lp5418
g49
(g50
g51
NtRp5419
(dp5420
g54
(dp5421
g62
I1
ssg63
g5415
sg56
(lp5422
g4827
asbasbasbag49
(g65
g51
NtRp5423
(dp5424
g54
(dp5425
sg63
g5383
sg56
(lp5426
g49
(g70
g51
NtRp5427
(dp5428
g54
(dp5429
sg63
g5423
sg56
(lp5430
g49
(g50
g51
NtRp5431
(dp5432
g54
(dp5433
g62
I1
ssg63
g5427
sg56
(lp5434
(lp5435
(g4843
I00
g4841
tp5436
a(g4853
I00
g4851
tp5437
a(g4863
I00
g4861
tp5438
a(g4873
I00
g4871
tp5439
a(g4883
I00
g4881
tp5440
a(g4893
I00
g4891
tp5441
a(g4903
I00
g4901
tp5442
a(g4913
I00
g4911
tp5443
a(g4923
I00
g4921
tp5444
a(g4933
I00
g4931
tp5445
a(g4943
I00
g4941
tp5446
aasbasbasbasbasbasbasbag49
(g65
g51
NtRp5447
(dp5448
g54
(dp5449
sg63
g5241
sg56
(lp5450
g49
(g70
g51
NtRp5451
(dp5452
g54
(dp5453
sg63
g5447
sg56
(lp5454
g49
(g50
g51
NtRp5455
(dp5456
g54
(dp5457
g62
I2
ssg63
g5451
sg56
(lp5458
g49
(g58
g51
NtRp5459
(dp5460
g54
(dp5461
g62
I1
ssg63
Nsg56
(lp5462
g49
(g65
g51
NtRp5463
(dp5464
g54
(dp5465
sg63
g5459
sg56
(lp5466
g49
(g70
g51
NtRp5467
(dp5468
g54
(dp5469
sg63
g5463
sg56
(lp5470
g49
(g50
g51
NtRp5471
(dp5472
g54
(dp5473
g62
I1
ssg63
g5467
sg56
(lp5474
g4953
asbasbasbag49
(g65
g51
NtRp5475
(dp5476
g54
(dp5477
sg63
g5459
sg56
(lp5478
g49
(g70
g51
NtRp5479
(dp5480
g54
(dp5481
sg63
g5475
sg56
(lp5482
g49
(g50
g51
NtRp5483
(dp5484
g54
(dp5485
g62
I1
ssg63
g5479
sg56
(lp5486
I00
asbasbasbag49
(g65
g51
NtRp5487
(dp5488
g54
(dp5489
sg63
g5459
sg56
(lp5490
g49
(g70
g51
NtRp5491
(dp5492
g54
(dp5493
sg63
g5487
sg56
(lp5494
g49
(g50
g51
NtRp5495
(dp5496
g54
(dp5497
g62
I1
ssg63
g5491
sg56
(lp5498
g4951
asbasbasbag49
(g65
g51
NtRp5499
(dp5500
g54
(dp5501
sg63
g5459
sg56
(lp5502
g49
(g70
g51
NtRp5503
(dp5504
g54
(dp5505
sg63
g5499
sg56
(lp5506
g49
(g50
g51
NtRp5507
(dp5508
g54
(dp5509
g62
I1
ssg63
g5503
sg56
(lp5510
(lp5511
(g4967
I00
g4965
tp5512
a(g4977
I00
g4975
tp5513
a(g4987
I00
g4985
tp5514
a(g4997
I00
g4995
tp5515
a(g5007
I00
g5005
tp5516
a(g5017
I00
g5015
tp5517
a(g5027
I00
g5025
tp5518
a(g5037
I00
g5035
tp5519
a(g5047
I00
g5045
tp5520
a(g5057
I00
g5055
tp5521
a(g5067
I00
g5065
tp5522
a(g5077
I00
g5075
tp5523
a(g5087
I00
g5085
tp5524
a(g5097
I00
g5095
tp5525
a(g5107
I00
g5105
tp5526
a(g5117
I00
g5115
tp5527
aasbasbasbasbasbasbasbag49
(g65
g51
NtRp5528
(dp5529
g54
(dp5530
sg63
g5241
sg56
(lp5531
g49
(g70
g51
NtRp5532
(dp5533
g54
(dp5534
sg63
g5528
sg56
(lp5535
g49
(g50
g51
NtRp5536
(dp5537
g54
(dp5538
g62
I2
ssg63
g5532
sg56
(lp5539
g49
(g58
g51
NtRp5540
(dp5541
g54
(dp5542
g62
I1
ssg63
Nsg56
(lp5543
g49
(g65
g51
NtRp5544
(dp5545
g54
(dp5546
sg63
g5540
sg56
(lp5547
g49
(g70
g51
NtRp5548
(dp5549
g54
(dp5550
sg63
g5544
sg56
(lp5551
g49
(g50
g51
NtRp5552
(dp5553
g54
(dp5554
g62
I1
ssg63
g5548
sg56
(lp5555
g5126
asbasbasbag49
(g65
g51
NtRp5556
(dp5557
g54
(dp5558
sg63
g5540
sg56
(lp5559
g49
(g70
g51
NtRp5560
(dp5561
g54
(dp5562
sg63
g5556
sg56
(lp5563
g49
(g50
g51
NtRp5564
(dp5565
g54
(dp5566
g62
I1
ssg63
g5560
sg56
(lp5567
I00
asbasbasbag49
(g65
g51
NtRp5568
(dp5569
g54
(dp5570
sg63
g5540
sg56
(lp5571
g49
(g70
g51
NtRp5572
(dp5573
g54
(dp5574
sg63
g5568
sg56
(lp5575
g49
(g50
g51
NtRp5576
(dp5577
g54
(dp5578
g62
I1
ssg63
g5572
sg56
(lp5579
Nasbasbasbag49
(g65
g51
NtRp5580
(dp5581
g54
(dp5582
sg63
g5540
sg56
(lp5583
g49
(g70
g51
NtRp5584
(dp5585
g54
(dp5586
sg63
g5580
sg56
(lp5587
g49
(g50
g51
NtRp5588
(dp5589
g54
(dp5590
g62
I1
ssg63
g5584
sg56
(lp5591
(lp5592
(g5140
I00
g5138
tp5593
a(g5150
I00
g5148
tp5594
a(g5160
I00
g5158
tp5595
aasbasbasbasbasbasbasbag49
(g65
g51
NtRp5596
(dp5597
g54
(dp5598
sg63
g5241
sg56
(lp5599
g49
(g70
g51
NtRp5600
(dp5601
g54
(dp5602
sg63
g5596
sg56
(lp5603
g49
(g50
g51
NtRp5604
(dp5605
g54
(dp5606
g62
I2
ssg63
g5600
sg56
(lp5607
g49
(g58
g51
NtRp5608
(dp5609
g54
(dp5610
g62
I1
ssg63
Nsg56
(lp5611
g49
(g65
g51
NtRp5612
(dp5613
g54
(dp5614
sg63
g5608
sg56
(lp5615
g49
(g70
g51
NtRp5616
(dp5617
g54
(dp5618
sg63
g5612
sg56
(lp5619
g49
(g50
g51
NtRp5620
(dp5621
g54
(dp5622
g62
I1
ssg63
g5616
sg56
(lp5623
g5169
asbasbasbag49
(g65
g51
NtRp5624
(dp5625
g54
(dp5626
sg63
g5608
sg56
(lp5627
g49
(g70
g51
NtRp5628
(dp5629
g54
(dp5630
sg63
g5624
sg56
(lp5631
g49
(g50
g51
NtRp5632
(dp5633
g54
(dp5634
g62
I1
ssg63
g5628
sg56
(lp5635
I00
asbasbasbag49
(g65
g51
NtRp5636
(dp5637
g54
(dp5638
sg63
g5608
sg56
(lp5639
g49
(g70
g51
NtRp5640
(dp5641
g54
(dp5642
sg63
g5636
sg56
(lp5643
g49
(g50
g51
NtRp5644
(dp5645
g54
(dp5646
g62
I1
ssg63
g5640
sg56
(lp5647
Nasbasbasbag49
(g65
g51
NtRp5648
(dp5649
g54
(dp5650
sg63
g5608
sg56
(lp5651
g49
(g70
g51
NtRp5652
(dp5653
g54
(dp5654
sg63
g5648
sg56
(lp5655
g49
(g50
g51
NtRp5656
(dp5657
g54
(dp5658
g62
I1
ssg63
g5652
sg56
(lp5659
(lp5660
(g5183
I00
g5181
tp5661
a(g5192
I00
g4911
tp5662
a(g5201
I00
g4921
tp5663
aasbasbasbasbasbasbasbasbasbasbasbasbasbasbasbasbasbasbasbag49
(g65
g51
NtRp5664
(dp5665
g54
(dp5666
sg63
g3952
sg56
(lp5667
g49
(g70
g51
NtRp5668
(dp5669
g54
(dp5670
g74
g75
ssg63
g5664
sg56
(lp5671
S'meta'
p5672
asbag49
(g70
g51
NtRp5673
(dp5674
g54
(dp5675
g81
g82
ssg63
g5664
sg56
(lp5676
S':'
asbag49
(g70
g51
NtRp5677
(dp5678
g54
(dp5679
sg63
g5664
sg56
(lp5680
g49
(g50
g51
NtRp5681
(dp5682
g54
(dp5683
g62
I5
ssg63
g5677
sg56
(lp5684
g49
(g58
g51
NtRp5685
(dp5686
g54
(dp5687
g62
I4
ssg63
Nsg56
(lp5688
g49
(g65
g51
NtRp5689
(dp5690
g54
(dp5691
sg63
g5685
sg56
(lp5692
g49
(g70
g51
NtRp5693
(dp5694
g54
(dp5695
g74
g75
ssg63
g5689
sg56
(lp5696
S'author'
p5697
asbag49
(g70
g51
NtRp5698
(dp5699
g54
(dp5700
g81
g82
ssg63
g5689
sg56
(lp5701
S':'
asbag49
(g70
g51
NtRp5702
(dp5703
g54
(dp5704
sg63
g5689
sg56
(lp5705
g49
(g50
g51
NtRp5706
(dp5707
g54
(dp5708
g62
I4
ssg63
g5702
sg56
(lp5709
S'Your Name <you@example.com>'
p5710
asbasbasbag49
(g65
g51
NtRp5711
(dp5712
g54
(dp5713
sg63
g5685
sg56
(lp5714
g49
(g70
g51
NtRp5715
(dp5716
g54
(dp5717
g74
g75
ssg63
g5711
sg56
(lp5718
S'copyright'
p5719
asbag49
(g70
g51
NtRp5720
(dp5721
g54
(dp5722
g81
g82
ssg63
g5711
sg56
(lp5723
S':'
asbag49
(g70
g51
NtRp5724
(dp5725
g54
(dp5726
sg63
g5711
sg56
(lp5727
g49
(g50
g51
NtRp5728
(dp5729
g54
(dp5730
g62
I4
ssg63
g5724
sg56
(lp5731
S'Copyright 2011'
p5732
asbasbasbag49
(g65
g51
NtRp5733
(dp5734
g54
(dp5735
sg63
g5685
sg56
(lp5736
g49
(g70
g51
NtRp5737
(dp5738
g54
(dp5739
g74
g75
ssg63
g5733
sg56
(lp5740
S'description'
p5741
asbag49
(g70
g51
NtRp5742
(dp5743
g54
(dp5744
g81
g82
ssg63
g5733
sg56
(lp5745
S':'
asbag49
(g70
g51
NtRp5746
(dp5747
g54
(dp5748
sg63
g5733
sg56
(lp5749
g49
(g50
g51
NtRp5750
(dp5751
g54
(dp5752
g62
I4
ssg63
g5746
sg56
(lp5753
S'a cool new app'
p5754
asbasbasbag49
(g65
g51
NtRp5755
(dp5756
g54
(dp5757
sg63
g5685
sg56
(lp5758
g49
(g70
g51
NtRp5759
(dp5760
g54
(dp5761
g74
g75
ssg63
g5755
sg56
(lp5762
S'generator'
p5763
asbag49
(g70
g51
NtRp5764
(dp5765
g54
(dp5766
g81
g82
ssg63
g5755
sg56
(lp5767
S':'
asbag49
(g70
g51
NtRp5768
(dp5769
g54
(dp5770
sg63
g5755
sg56
(lp5771
g49
(g50
g51
NtRp5772
(dp5773
g54
(dp5774
g62
I4
ssg63
g5768
sg56
(lp5775
S'Web2py Web Framework'
p5776
asbasbasbag49
(g65
g51
NtRp5777
(dp5778
g54
(dp5779
sg63
g5685
sg56
(lp5780
g49
(g70
g51
NtRp5781
(dp5782
g54
(dp5783
g74
g75
ssg63
g5777
sg56
(lp5784
S'keywords'
p5785
asbag49
(g70
g51
NtRp5786
(dp5787
g54
(dp5788
g81
g82
ssg63
g5777
sg56
(lp5789
S':'
asbag49
(g70
g51
NtRp5790
(dp5791
g54
(dp5792
sg63
g5777
sg56
(lp5793
g49
(g50
g51
NtRp5794
(dp5795
g54
(dp5796
g62
I4
ssg63
g5790
sg56
(lp5797
S'web2py, python, framework'
p5798
asbasbasbasbasbasbasbag49
(g65
g51
NtRp5799
(dp5800
g54
(dp5801
sg63
g3952
sg56
(lp5802
g49
(g70
g51
NtRp5803
(dp5804
g54
(dp5805
g74
g75
ssg63
g5799
sg56
(lp5806
S'postprocessing'
p5807
asbag49
(g70
g51
NtRp5808
(dp5809
g54
(dp5810
g81
g82
ssg63
g5799
sg56
(lp5811
S':'
asbag49
(g70
g51
NtRp5812
(dp5813
g54
(dp5814
sg63
g5799
sg56
(lp5815
g49
(g50
g51
NtRp5816
(dp5817
g54
(dp5818
g62
I5
ssg63
g5812
sg56
(lp5819
g49
(g58
g51
NtRp5820
(dp5821
g54
(dp5822
g62
I4
ssg63
Nsg56
(lp5823
sbasbasbasbag49
(g65
g51
NtRp5824
(dp5825
g54
(dp5826
sg63
g3952
sg56
(lp5827
g49
(g70
g51
NtRp5828
(dp5829
g54
(dp5830
g74
g75
ssg63
g5824
sg56
(lp5831
S'session_file'
p5832
asbag49
(g70
g51
NtRp5833
(dp5834
g54
(dp5835
g81
g82
ssg63
g5824
sg56
(lp5836
S':'
asbag49
(g70
g51
NtRp5837
(dp5838
g54
(dp5839
sg63
g5824
sg56
(lp5840
g49
(g50
g51
NtRp5841
(dp5842
g54
(dp5843
g62
I5
ssg63
g5837
sg56
(lp5844
S"<open file 'C:\\Users\\omkara\\Desktop\\web2py\\applications\\SlugBarter\\sessions\\127.0.0.1-e6ebae72-1bbc-48a5-9458-95dbb65a4e54', mode 'rb+' at 0x064123C8>"
p5845
asbasbasbag49
(g65
g51
NtRp5846
(dp5847
g54
(dp5848
sg63
g3952
sg56
(lp5849
g49
(g70
g51
NtRp5850
(dp5851
g54
(dp5852
g74
g75
ssg63
g5846
sg56
(lp5853
S'session_filename'
p5854
asbag49
(g70
g51
NtRp5855
(dp5856
g54
(dp5857
g81
g82
ssg63
g5846
sg56
(lp5858
S':'
asbag49
(g70
g51
NtRp5859
(dp5860
g54
(dp5861
sg63
g5846
sg56
(lp5862
g49
(g50
g51
NtRp5863
(dp5864
g54
(dp5865
g62
I5
ssg63
g5859
sg56
(lp5866
S'C:\\Users\\omkara\\Desktop\\web2py\\applications\\SlugBarter\\sessions\\127.0.0.1-e6ebae72-1bbc-48a5-9458-95dbb65a4e54'
p5867
asbasbasbag49
(g65
g51
NtRp5868
(dp5869
g54
(dp5870
sg63
g3952
sg56
(lp5871
g49
(g70
g51
NtRp5872
(dp5873
g54
(dp5874
g74
g75
ssg63
g5868
sg56
(lp5875
S'session_id'
p5876
asbag49
(g70
g51
NtRp5877
(dp5878
g54
(dp5879
g81
g82
ssg63
g5868
sg56
(lp5880
S':'
asbag49
(g70
g51
NtRp5881
(dp5882
g54
(dp5883
sg63
g5868
sg56
(lp5884
g49
(g50
g51
NtRp5885
(dp5886
g54
(dp5887
g62
I5
ssg63
g5881
sg56
(lp5888
S'127.0.0.1-e6ebae72-1bbc-48a5-9458-95dbb65a4e54'
p5889
asbasbasbag49
(g65
g51
NtRp5890
(dp5891
g54
(dp5892
sg63
g3952
sg56
(lp5893
g49
(g70
g51
NtRp5894
(dp5895
g54
(dp5896
g74
g75
ssg63
g5890
sg56
(lp5897
S'session_id_name'
p5898
asbag49
(g70
g51
NtRp5899
(dp5900
g54
(dp5901
g81
g82
ssg63
g5890
sg56
(lp5902
S':'
asbag49
(g70
g51
NtRp5903
(dp5904
g54
(dp5905
sg63
g5890
sg56
(lp5906
g49
(g50
g51
NtRp5907
(dp5908
g54
(dp5909
g62
I5
ssg63
g5903
sg56
(lp5910
g4009
asbasbasbag49
(g65
g51
NtRp5911
(dp5912
g54
(dp5913
sg63
g3952
sg56
(lp5914
g49
(g70
g51
NtRp5915
(dp5916
g54
(dp5917
g74
g75
ssg63
g5911
sg56
(lp5918
S'session_locked'
p5919
asbag49
(g70
g51
NtRp5920
(dp5921
g54
(dp5922
g81
g82
ssg63
g5911
sg56
(lp5923
S':'
asbag49
(g70
g51
NtRp5924
(dp5925
g54
(dp5926
sg63
g5911
sg56
(lp5927
g49
(g50
g51
NtRp5928
(dp5929
g54
(dp5930
g62
I5
ssg63
g5924
sg56
(lp5931
g2116
asbasbasbag49
(g65
g51
NtRp5932
(dp5933
g54
(dp5934
sg63
g3952
sg56
(lp5935
g49
(g70
g51
NtRp5936
(dp5937
g54
(dp5938
g74
g75
ssg63
g5932
sg56
(lp5939
S'session_new'
p5940
asbag49
(g70
g51
NtRp5941
(dp5942
g54
(dp5943
g81
g82
ssg63
g5932
sg56
(lp5944
S':'
asbag49
(g70
g51
NtRp5945
(dp5946
g54
(dp5947
sg63
g5932
sg56
(lp5948
g49
(g50
g51
NtRp5949
(dp5950
g54
(dp5951
g62
I5
ssg63
g5945
sg56
(lp5952
g92
asbasbasbag49
(g65
g51
NtRp5953
(dp5954
g54
(dp5955
sg63
g3952
sg56
(lp5956
g49
(g70
g51
NtRp5957
(dp5958
g54
(dp5959
g74
g75
ssg63
g5953
sg56
(lp5960
S'status'
p5961
asbag49
(g70
g51
NtRp5962
(dp5963
g54
(dp5964
g81
g82
ssg63
g5953
sg56
(lp5965
S':'
asbag49
(g70
g51
NtRp5966
(dp5967
g54
(dp5968
sg63
g5953
sg56
(lp5969
g49
(g50
g51
NtRp5970
(dp5971
g54
(dp5972
g62
I5
ssg63
g5966
sg56
(lp5973
S'200'
p5974
asbasbasbag49
(g65
g51
NtRp5975
(dp5976
g54
(dp5977
sg63
g3952
sg56
(lp5978
g49
(g70
g51
NtRp5979
(dp5980
g54
(dp5981
g74
g75
ssg63
g5975
sg56
(lp5982
S'subtitle'
p5983
asbag49
(g70
g51
NtRp5984
(dp5985
g54
(dp5986
g81
g82
ssg63
g5975
sg56
(lp5987
S':'
asbag49
(g70
g51
NtRp5988
(dp5989
g54
(dp5990
sg63
g5975
sg56
(lp5991
g49
(g50
g51
NtRp5992
(dp5993
g54
(dp5994
g62
I5
ssg63
g5988
sg56
(lp5995
g4592
(S's\r\x00\x00\x00customize me!'
tRp5996
asbasbasbag49
(g65
g51
NtRp5997
(dp5998
g54
(dp5999
sg63
g3952
sg56
(lp6000
g49
(g70
g51
NtRp6001
(dp6002
g54
(dp6003
g74
g75
ssg63
g5997
sg56
(lp6004
S'title'
p6005
asbag49
(g70
g51
NtRp6006
(dp6007
g54
(dp6008
g81
g82
ssg63
g5997
sg56
(lp6009
S':'
asbag49
(g70
g51
NtRp6010
(dp6011
g54
(dp6012
sg63
g5997
sg56
(lp6013
g49
(g50
g51
NtRp6014
(dp6015
g54
(dp6016
g62
I5
ssg63
g6010
sg56
(lp6017
S'Slugbarter'
p6018
asbasbasbag49
(g65
g51
NtRp6019
(dp6020
g54
(dp6021
sg63
g3952
sg56
(lp6022
g49
(g70
g51
NtRp6023
(dp6024
g54
(dp6025
g74
g75
ssg63
g6019
sg56
(lp6026
g2801
asbag49
(g70
g51
NtRp6027
(dp6028
g54
(dp6029
g81
g82
ssg63
g6019
sg56
(lp6030
S':'
asbag49
(g70
g51
NtRp6031
(dp6032
g54
(dp6033
sg63
g6019
sg56
(lp6034
g49
(g50
g51
NtRp6035
(dp6036
g54
(dp6037
g62
I5
ssg63
g6031
sg56
(lp6038
g2814
asbasbasbag49
(g65
g51
NtRp6039
(dp6040
g54
(dp6041
sg63
g3952
sg56
(lp6042
g49
(g70
g51
NtRp6043
(dp6044
g54
(dp6045
g74
g75
ssg63
g6039
sg56
(lp6046
S'view'
p6047
asbag49
(g70
g51
NtRp6048
(dp6049
g54
(dp6050
g81
g82
ssg63
g6039
sg56
(lp6051
S':'
asbag49
(g70
g51
NtRp6052
(dp6053
g54
(dp6054
sg63
g6039
sg56
(lp6055
g49
(g50
g51
NtRp6056
(dp6057
g54
(dp6058
g62
I5
ssg63
g6052
sg56
(lp6059
S'default/description_mode.html'
p6060
asbasbasbasbasbsS'locals'
p6061
(dp6062
S'self'
p6063
S"<Row {'description': 'Hello', 'title': 'Computer...lete_record': <function <lambda> at 0x063A0970>}>"
p6064
sS'm'
S'None'
p6065
sS'key'
p6066
S"'name'"
p6067
sssS'traceback'
p6068
S'Traceback (most recent call last):\n  File "gluon/restricted.py", line 205, in restricted\n  File "C:\\Users\\omkara\\Desktop\\web2py\\applications\\SlugBarter\\views\\default/description_mode.html", line 86, in <module>\n  File "gluon/dal.py", line 5657, in __getattr__\n  File "gluon/dal.py", line 5648, in __getitem__\nKeyError: \'name\'\n'
p6069
s.