(dp1
S'output'
p2
S"<type 'exceptions.KeyError'> 'username'"
p3
sS'layer'
p4
S'C:\\Users\\omkara\\Desktop\\web2py\\applications\\SlugBarter\\controllers/default.py'
p5
sS'code'
p6
S'# -*- coding: utf-8 -*-\n# this file is released under public domain and you can use without limitations\n\n#########################################################################\n## This is a samples controller\n## - index is the default action of any application\n## - user is required for authentication and authorization\n## - download is for downloading files uploaded in the db (does streaming)\n## - call exposes all registered services (none by default)\n#########################################################################\n\n#controller for when the user is at index page\ndef index():\n  return dict()\n    \n#controller for when the user registers\ndef register():\n     return dict(form = auth.register())\n   \n#controller for when the user login\ndef login(): \n  form = auth.login()\n  return dict(form = form)\n    \ndef user():\n    """\n    exposes:\n    http://..../[app]/default/user/login\n    http://..../[app]/default/user/logout\n    http://..../[app]/default/user/register\n    http://..../[app]/default/user/profile\n    http://..../[app]/default/user/retrieve_password\n    http://..../[app]/default/user/change_password\n    use @auth.requires_login()\n        @auth.requires_membership(\'group name\')\n        @auth.requires_permission(\'read\',\'table name\',record_id)\n    to decorate functions that need access control\n    """\n    return dict(form=auth())\n\n\ndef download():\n    """\n    allows downloading of uploaded files\n    http://..../[app]/default/download/[filename]\n    """\n    return response.download(request,db)\n\n\ndef call():\n    """\n    exposes services. for example:\n    http://..../[app]/default/call/jsonrpc\n    decorate with @services.jsonrpc the functions to expose\n    supports xml, json, xmlrpc, jsonrpc, amfrpc, rss, csv\n    """\n    return service()\n\n\n@auth.requires_signature()\ndef data():\n    """\n    http://..../[app]/default/data/tables\n    http://..../[app]/default/data/create/[table]\n    http://..../[app]/default/data/read/[table]/[id]\n    http://..../[app]/default/data/update/[table]/[id]\n    http://..../[app]/default/data/delete/[table]/[id]\n    http://..../[app]/default/data/select/[table]\n    http://..../[app]/default/data/search/[table]\n    but URLs must be signed, i.e. linked with\n      A(\'table\',_href=URL(\'data/tables\',user_signature=True))\n    or with the signed load operator\n      LOAD(\'default\',\'data.load\',args=\'tables\',ajax=True,user_signature=True)\n    """\n    return dict(form=crud())\n\nresponse._vars=response._caller(login)\n'
p7
sS'snapshot'
p8
(dp9
S'exception'
p10
(dp11
S'__hash__'
p12
S"<method-wrapper '__hash__' of exceptions.KeyError object at 0x05F86DF0>"
p13
sS'__setattr__'
p14
S"<method-wrapper '__setattr__' of exceptions.KeyError object at 0x05F86DF0>"
p15
sS'__reduce_ex__'
p16
S'<built-in method __reduce_ex__ of exceptions.KeyError object at 0x05F86DF0>'
p17
sS'__getslice__'
p18
S"<method-wrapper '__getslice__' of exceptions.KeyError object at 0x05F86DF0>"
p19
sS'__getitem__'
p20
S"<method-wrapper '__getitem__' of exceptions.KeyError object at 0x05F86DF0>"
p21
sS'__setstate__'
p22
S'<built-in method __setstate__ of exceptions.KeyError object at 0x05F86DF0>'
p23
sS'__reduce__'
p24
S'<built-in method __reduce__ of exceptions.KeyError object at 0x05F86DF0>'
p25
sS'__str__'
p26
S"<method-wrapper '__str__' of exceptions.KeyError object at 0x05F86DF0>"
p27
sS'args'
p28
S"('username',)"
p29
sS'__getattribute__'
p30
S"<method-wrapper '__getattribute__' of exceptions.KeyError object at 0x05F86DF0>"
p31
sS'__class__'
p32
S"<type 'exceptions.KeyError'>"
p33
sS'__delattr__'
p34
S"<method-wrapper '__delattr__' of exceptions.KeyError object at 0x05F86DF0>"
p35
sS'__repr__'
p36
S"<method-wrapper '__repr__' of exceptions.KeyError object at 0x05F86DF0>"
p37
sS'__dict__'
p38
S'{}'
p39
sS'__doc__'
p40
S"'Mapping key not found.'"
p41
sS'__init__'
p42
S"<method-wrapper '__init__' of exceptions.KeyError object at 0x05F86DF0>"
p43
sS'__new__'
p44
S'<built-in method __new__ of type object at 0x1E1CDFB8>'
p45
ssS'evalue'
p46
S"'username'"
p47
sS'request'
p48
ccopy_reg
_reconstructor
p49
(cgluon.html
BEAUTIFY
p50
c__builtin__
object
p51
NtRp52
(dp53
S'attributes'
p54
(dp55
sS'components'
p56
(lp57
g49
(cgluon.html
TABLE
p58
g51
NtRp59
(dp60
g54
(dp61
S'level'
p62
I5
ssS'parent'
p63
Nsg56
(lp64
g49
(cgluon.html
TR
p65
g51
NtRp66
(dp67
g54
(dp68
sg63
g59
sg56
(lp69
g49
(cgluon.html
TD
p70
g51
NtRp71
(dp72
g54
(dp73
S'_style'
p74
S'font-weight:bold;vertical-align:top'
p75
ssg63
g66
sg56
(lp76
S'ajax'
p77
asbag49
(g70
g51
NtRp78
(dp79
g54
(dp80
S'_valign'
p81
S'top'
p82
ssg63
g66
sg56
(lp83
S':'
asbag49
(g70
g51
NtRp84
(dp85
g54
(dp86
sg63
g66
sg56
(lp87
g49
(g50
g51
NtRp88
(dp89
g54
(dp90
g62
I5
ssg63
g84
sg56
(lp91
S'False'
p92
asbasbasbag49
(g65
g51
NtRp93
(dp94
g54
(dp95
sg63
g59
sg56
(lp96
g49
(g70
g51
NtRp97
(dp98
g54
(dp99
g74
g75
ssg63
g93
sg56
(lp100
S'application'
p101
asbag49
(g70
g51
NtRp102
(dp103
g54
(dp104
g81
g82
ssg63
g93
sg56
(lp105
S':'
asbag49
(g70
g51
NtRp106
(dp107
g54
(dp108
sg63
g93
sg56
(lp109
g49
(g50
g51
NtRp110
(dp111
g54
(dp112
g62
I5
ssg63
g106
sg56
(lp113
S'SlugBarter'
p114
asbasbasbag49
(g65
g51
NtRp115
(dp116
g54
(dp117
sg63
g59
sg56
(lp118
g49
(g70
g51
NtRp119
(dp120
g54
(dp121
g74
g75
ssg63
g115
sg56
(lp122
g28
asbag49
(g70
g51
NtRp123
(dp124
g54
(dp125
g81
g82
ssg63
g115
sg56
(lp126
S':'
asbag49
(g70
g51
NtRp127
(dp128
g54
(dp129
sg63
g115
sg56
(lp130
g49
(g50
g51
NtRp131
(dp132
g54
(dp133
g62
I5
ssg63
g127
sg56
(lp134
g49
(g58
g51
NtRp135
(dp136
g54
(dp137
g62
I4
ssg63
Nsg56
(lp138
sbasbasbasbag49
(g65
g51
NtRp139
(dp140
g54
(dp141
sg63
g59
sg56
(lp142
g49
(g70
g51
NtRp143
(dp144
g54
(dp145
g74
g75
ssg63
g139
sg56
(lp146
S'body'
p147
asbag49
(g70
g51
NtRp148
(dp149
g54
(dp150
g81
g82
ssg63
g139
sg56
(lp151
S':'
asbag49
(g70
g51
NtRp152
(dp153
g54
(dp154
sg63
g139
sg56
(lp155
g49
(g50
g51
NtRp156
(dp157
g54
(dp158
g62
I5
ssg63
g152
sg56
(lp159
S'<cStringIO.StringO object at 0x05DCB7E0>'
p160
asbasbasbag49
(g65
g51
NtRp161
(dp162
g54
(dp163
sg63
g59
sg56
(lp164
g49
(g70
g51
NtRp165
(dp166
g54
(dp167
g74
g75
ssg63
g161
sg56
(lp168
S'client'
p169
asbag49
(g70
g51
NtRp170
(dp171
g54
(dp172
g81
g82
ssg63
g161
sg56
(lp173
S':'
asbag49
(g70
g51
NtRp174
(dp175
g54
(dp176
sg63
g161
sg56
(lp177
g49
(g50
g51
NtRp178
(dp179
g54
(dp180
g62
I5
ssg63
g174
sg56
(lp181
S'127.0.0.1'
p182
asbasbasbag49
(g65
g51
NtRp183
(dp184
g54
(dp185
sg63
g59
sg56
(lp186
g49
(g70
g51
NtRp187
(dp188
g54
(dp189
g74
g75
ssg63
g183
sg56
(lp190
S'controller'
p191
asbag49
(g70
g51
NtRp192
(dp193
g54
(dp194
g81
g82
ssg63
g183
sg56
(lp195
S':'
asbag49
(g70
g51
NtRp196
(dp197
g54
(dp198
sg63
g183
sg56
(lp199
g49
(g50
g51
NtRp200
(dp201
g54
(dp202
g62
I5
ssg63
g196
sg56
(lp203
S'default'
p204
asbasbasbag49
(g65
g51
NtRp205
(dp206
g54
(dp207
sg63
g59
sg56
(lp208
g49
(g70
g51
NtRp209
(dp210
g54
(dp211
g74
g75
ssg63
g205
sg56
(lp212
S'cookies'
p213
asbag49
(g70
g51
NtRp214
(dp215
g54
(dp216
g81
g82
ssg63
g205
sg56
(lp217
S':'
asbag49
(g70
g51
NtRp218
(dp219
g54
(dp220
sg63
g205
sg56
(lp221
g49
(g50
g51
NtRp222
(dp223
g54
(dp224
g62
I5
ssg63
g218
sg56
(lp225
g49
(g58
g51
NtRp226
(dp227
g54
(dp228
g62
I4
ssg63
Nsg56
(lp229
g49
(g65
g51
NtRp230
(dp231
g54
(dp232
sg63
g226
sg56
(lp233
g49
(g70
g51
NtRp234
(dp235
g54
(dp236
g74
g75
ssg63
g230
sg56
(lp237
S'session_id_admin'
p238
asbag49
(g70
g51
NtRp239
(dp240
g54
(dp241
g81
g82
ssg63
g230
sg56
(lp242
S':'
asbag49
(g70
g51
NtRp243
(dp244
g54
(dp245
sg63
g230
sg56
(lp246
g49
(g50
g51
NtRp247
(dp248
g54
(dp249
g62
I4
ssg63
g243
sg56
(lp250
g49
(g58
g51
NtRp251
(dp252
g54
(dp253
g62
I3
ssg63
Nsg56
(lp254
g49
(g65
g51
NtRp255
(dp256
g54
(dp257
sg63
g251
sg56
(lp258
g49
(g70
g51
NtRp259
(dp260
g54
(dp261
g74
g75
ssg63
g255
sg56
(lp262
S'comment'
p263
asbag49
(g70
g51
NtRp264
(dp265
g54
(dp266
g81
g82
ssg63
g255
sg56
(lp267
S':'
asbag49
(g70
g51
NtRp268
(dp269
g54
(dp270
sg63
g255
sg56
(lp271
g49
(g50
g51
NtRp272
(dp273
g54
(dp274
g62
I3
ssg63
g268
sg56
(lp275
S''
asbasbasbag49
(g65
g51
NtRp276
(dp277
g54
(dp278
sg63
g251
sg56
(lp279
g49
(g70
g51
NtRp280
(dp281
g54
(dp282
g74
g75
ssg63
g276
sg56
(lp283
S'domain'
p284
asbag49
(g70
g51
NtRp285
(dp286
g54
(dp287
g81
g82
ssg63
g276
sg56
(lp288
S':'
asbag49
(g70
g51
NtRp289
(dp290
g54
(dp291
sg63
g276
sg56
(lp292
g49
(g50
g51
NtRp293
(dp294
g54
(dp295
g62
I3
ssg63
g289
sg56
(lp296
S''
asbasbasbag49
(g65
g51
NtRp297
(dp298
g54
(dp299
sg63
g251
sg56
(lp300
g49
(g70
g51
NtRp301
(dp302
g54
(dp303
g74
g75
ssg63
g297
sg56
(lp304
S'expires'
p305
asbag49
(g70
g51
NtRp306
(dp307
g54
(dp308
g81
g82
ssg63
g297
sg56
(lp309
S':'
asbag49
(g70
g51
NtRp310
(dp311
g54
(dp312
sg63
g297
sg56
(lp313
g49
(g50
g51
NtRp314
(dp315
g54
(dp316
g62
I3
ssg63
g310
sg56
(lp317
S''
asbasbasbag49
(g65
g51
NtRp318
(dp319
g54
(dp320
sg63
g251
sg56
(lp321
g49
(g70
g51
NtRp322
(dp323
g54
(dp324
g74
g75
ssg63
g318
sg56
(lp325
S'max-age'
p326
asbag49
(g70
g51
NtRp327
(dp328
g54
(dp329
g81
g82
ssg63
g318
sg56
(lp330
S':'
asbag49
(g70
g51
NtRp331
(dp332
g54
(dp333
sg63
g318
sg56
(lp334
g49
(g50
g51
NtRp335
(dp336
g54
(dp337
g62
I3
ssg63
g331
sg56
(lp338
S''
asbasbasbag49
(g65
g51
NtRp339
(dp340
g54
(dp341
sg63
g251
sg56
(lp342
g49
(g70
g51
NtRp343
(dp344
g54
(dp345
g74
g75
ssg63
g339
sg56
(lp346
S'path'
p347
asbag49
(g70
g51
NtRp348
(dp349
g54
(dp350
g81
g82
ssg63
g339
sg56
(lp351
S':'
asbag49
(g70
g51
NtRp352
(dp353
g54
(dp354
sg63
g339
sg56
(lp355
g49
(g50
g51
NtRp356
(dp357
g54
(dp358
g62
I3
ssg63
g352
sg56
(lp359
S''
asbasbasbag49
(g65
g51
NtRp360
(dp361
g54
(dp362
sg63
g251
sg56
(lp363
g49
(g70
g51
NtRp364
(dp365
g54
(dp366
g74
g75
ssg63
g360
sg56
(lp367
S'secure'
p368
asbag49
(g70
g51
NtRp369
(dp370
g54
(dp371
g81
g82
ssg63
g360
sg56
(lp372
S':'
asbag49
(g70
g51
NtRp373
(dp374
g54
(dp375
sg63
g360
sg56
(lp376
g49
(g50
g51
NtRp377
(dp378
g54
(dp379
g62
I3
ssg63
g373
sg56
(lp380
S''
asbasbasbag49
(g65
g51
NtRp381
(dp382
g54
(dp383
sg63
g251
sg56
(lp384
g49
(g70
g51
NtRp385
(dp386
g54
(dp387
g74
g75
ssg63
g381
sg56
(lp388
S'version'
p389
asbag49
(g70
g51
NtRp390
(dp391
g54
(dp392
g81
g82
ssg63
g381
sg56
(lp393
S':'
asbag49
(g70
g51
NtRp394
(dp395
g54
(dp396
sg63
g381
sg56
(lp397
g49
(g50
g51
NtRp398
(dp399
g54
(dp400
g62
I3
ssg63
g394
sg56
(lp401
S''
asbasbasbasbasbasbasbag49
(g65
g51
NtRp402
(dp403
g54
(dp404
sg63
g226
sg56
(lp405
g49
(g70
g51
NtRp406
(dp407
g54
(dp408
g74
g75
ssg63
g402
sg56
(lp409
S'session_id_onlinenotes_p1_'
p410
asbag49
(g70
g51
NtRp411
(dp412
g54
(dp413
g81
g82
ssg63
g402
sg56
(lp414
S':'
asbag49
(g70
g51
NtRp415
(dp416
g54
(dp417
sg63
g402
sg56
(lp418
g49
(g50
g51
NtRp419
(dp420
g54
(dp421
g62
I4
ssg63
g415
sg56
(lp422
g49
(g58
g51
NtRp423
(dp424
g54
(dp425
g62
I3
ssg63
Nsg56
(lp426
g49
(g65
g51
NtRp427
(dp428
g54
(dp429
sg63
g423
sg56
(lp430
g49
(g70
g51
NtRp431
(dp432
g54
(dp433
g74
g75
ssg63
g427
sg56
(lp434
g263
asbag49
(g70
g51
NtRp435
(dp436
g54
(dp437
g81
g82
ssg63
g427
sg56
(lp438
S':'
asbag49
(g70
g51
NtRp439
(dp440
g54
(dp441
sg63
g427
sg56
(lp442
g49
(g50
g51
NtRp443
(dp444
g54
(dp445
g62
I3
ssg63
g439
sg56
(lp446
S''
asbasbasbag49
(g65
g51
NtRp447
(dp448
g54
(dp449
sg63
g423
sg56
(lp450
g49
(g70
g51
NtRp451
(dp452
g54
(dp453
g74
g75
ssg63
g447
sg56
(lp454
g284
asbag49
(g70
g51
NtRp455
(dp456
g54
(dp457
g81
g82
ssg63
g447
sg56
(lp458
S':'
asbag49
(g70
g51
NtRp459
(dp460
g54
(dp461
sg63
g447
sg56
(lp462
g49
(g50
g51
NtRp463
(dp464
g54
(dp465
g62
I3
ssg63
g459
sg56
(lp466
S''
asbasbasbag49
(g65
g51
NtRp467
(dp468
g54
(dp469
sg63
g423
sg56
(lp470
g49
(g70
g51
NtRp471
(dp472
g54
(dp473
g74
g75
ssg63
g467
sg56
(lp474
g305
asbag49
(g70
g51
NtRp475
(dp476
g54
(dp477
g81
g82
ssg63
g467
sg56
(lp478
S':'
asbag49
(g70
g51
NtRp479
(dp480
g54
(dp481
sg63
g467
sg56
(lp482
g49
(g50
g51
NtRp483
(dp484
g54
(dp485
g62
I3
ssg63
g479
sg56
(lp486
S''
asbasbasbag49
(g65
g51
NtRp487
(dp488
g54
(dp489
sg63
g423
sg56
(lp490
g49
(g70
g51
NtRp491
(dp492
g54
(dp493
g74
g75
ssg63
g487
sg56
(lp494
g326
asbag49
(g70
g51
NtRp495
(dp496
g54
(dp497
g81
g82
ssg63
g487
sg56
(lp498
S':'
asbag49
(g70
g51
NtRp499
(dp500
g54
(dp501
sg63
g487
sg56
(lp502
g49
(g50
g51
NtRp503
(dp504
g54
(dp505
g62
I3
ssg63
g499
sg56
(lp506
S''
asbasbasbag49
(g65
g51
NtRp507
(dp508
g54
(dp509
sg63
g423
sg56
(lp510
g49
(g70
g51
NtRp511
(dp512
g54
(dp513
g74
g75
ssg63
g507
sg56
(lp514
g347
asbag49
(g70
g51
NtRp515
(dp516
g54
(dp517
g81
g82
ssg63
g507
sg56
(lp518
S':'
asbag49
(g70
g51
NtRp519
(dp520
g54
(dp521
sg63
g507
sg56
(lp522
g49
(g50
g51
NtRp523
(dp524
g54
(dp525
g62
I3
ssg63
g519
sg56
(lp526
S''
asbasbasbag49
(g65
g51
NtRp527
(dp528
g54
(dp529
sg63
g423
sg56
(lp530
g49
(g70
g51
NtRp531
(dp532
g54
(dp533
g74
g75
ssg63
g527
sg56
(lp534
g368
asbag49
(g70
g51
NtRp535
(dp536
g54
(dp537
g81
g82
ssg63
g527
sg56
(lp538
S':'
asbag49
(g70
g51
NtRp539
(dp540
g54
(dp541
sg63
g527
sg56
(lp542
g49
(g50
g51
NtRp543
(dp544
g54
(dp545
g62
I3
ssg63
g539
sg56
(lp546
S''
asbasbasbag49
(g65
g51
NtRp547
(dp548
g54
(dp549
sg63
g423
sg56
(lp550
g49
(g70
g51
NtRp551
(dp552
g54
(dp553
g74
g75
ssg63
g547
sg56
(lp554
g389
asbag49
(g70
g51
NtRp555
(dp556
g54
(dp557
g81
g82
ssg63
g547
sg56
(lp558
S':'
asbag49
(g70
g51
NtRp559
(dp560
g54
(dp561
sg63
g547
sg56
(lp562
g49
(g50
g51
NtRp563
(dp564
g54
(dp565
g62
I3
ssg63
g559
sg56
(lp566
S''
asbasbasbasbasbasbasbag49
(g65
g51
NtRp567
(dp568
g54
(dp569
sg63
g226
sg56
(lp570
g49
(g70
g51
NtRp571
(dp572
g54
(dp573
g74
g75
ssg63
g567
sg56
(lp574
S'session_id_slugbarter'
p575
asbag49
(g70
g51
NtRp576
(dp577
g54
(dp578
g81
g82
ssg63
g567
sg56
(lp579
S':'
asbag49
(g70
g51
NtRp580
(dp581
g54
(dp582
sg63
g567
sg56
(lp583
g49
(g50
g51
NtRp584
(dp585
g54
(dp586
g62
I4
ssg63
g580
sg56
(lp587
g49
(g58
g51
NtRp588
(dp589
g54
(dp590
g62
I3
ssg63
Nsg56
(lp591
g49
(g65
g51
NtRp592
(dp593
g54
(dp594
sg63
g588
sg56
(lp595
g49
(g70
g51
NtRp596
(dp597
g54
(dp598
g74
g75
ssg63
g592
sg56
(lp599
g263
asbag49
(g70
g51
NtRp600
(dp601
g54
(dp602
g81
g82
ssg63
g592
sg56
(lp603
S':'
asbag49
(g70
g51
NtRp604
(dp605
g54
(dp606
sg63
g592
sg56
(lp607
g49
(g50
g51
NtRp608
(dp609
g54
(dp610
g62
I3
ssg63
g604
sg56
(lp611
S''
asbasbasbag49
(g65
g51
NtRp612
(dp613
g54
(dp614
sg63
g588
sg56
(lp615
g49
(g70
g51
NtRp616
(dp617
g54
(dp618
g74
g75
ssg63
g612
sg56
(lp619
g284
asbag49
(g70
g51
NtRp620
(dp621
g54
(dp622
g81
g82
ssg63
g612
sg56
(lp623
S':'
asbag49
(g70
g51
NtRp624
(dp625
g54
(dp626
sg63
g612
sg56
(lp627
g49
(g50
g51
NtRp628
(dp629
g54
(dp630
g62
I3
ssg63
g624
sg56
(lp631
S''
asbasbasbag49
(g65
g51
NtRp632
(dp633
g54
(dp634
sg63
g588
sg56
(lp635
g49
(g70
g51
NtRp636
(dp637
g54
(dp638
g74
g75
ssg63
g632
sg56
(lp639
g305
asbag49
(g70
g51
NtRp640
(dp641
g54
(dp642
g81
g82
ssg63
g632
sg56
(lp643
S':'
asbag49
(g70
g51
NtRp644
(dp645
g54
(dp646
sg63
g632
sg56
(lp647
g49
(g50
g51
NtRp648
(dp649
g54
(dp650
g62
I3
ssg63
g644
sg56
(lp651
S''
asbasbasbag49
(g65
g51
NtRp652
(dp653
g54
(dp654
sg63
g588
sg56
(lp655
g49
(g70
g51
NtRp656
(dp657
g54
(dp658
g74
g75
ssg63
g652
sg56
(lp659
g326
asbag49
(g70
g51
NtRp660
(dp661
g54
(dp662
g81
g82
ssg63
g652
sg56
(lp663
S':'
asbag49
(g70
g51
NtRp664
(dp665
g54
(dp666
sg63
g652
sg56
(lp667
g49
(g50
g51
NtRp668
(dp669
g54
(dp670
g62
I3
ssg63
g664
sg56
(lp671
S''
asbasbasbag49
(g65
g51
NtRp672
(dp673
g54
(dp674
sg63
g588
sg56
(lp675
g49
(g70
g51
NtRp676
(dp677
g54
(dp678
g74
g75
ssg63
g672
sg56
(lp679
g347
asbag49
(g70
g51
NtRp680
(dp681
g54
(dp682
g81
g82
ssg63
g672
sg56
(lp683
S':'
asbag49
(g70
g51
NtRp684
(dp685
g54
(dp686
sg63
g672
sg56
(lp687
g49
(g50
g51
NtRp688
(dp689
g54
(dp690
g62
I3
ssg63
g684
sg56
(lp691
S''
asbasbasbag49
(g65
g51
NtRp692
(dp693
g54
(dp694
sg63
g588
sg56
(lp695
g49
(g70
g51
NtRp696
(dp697
g54
(dp698
g74
g75
ssg63
g692
sg56
(lp699
g368
asbag49
(g70
g51
NtRp700
(dp701
g54
(dp702
g81
g82
ssg63
g692
sg56
(lp703
S':'
asbag49
(g70
g51
NtRp704
(dp705
g54
(dp706
sg63
g692
sg56
(lp707
g49
(g50
g51
NtRp708
(dp709
g54
(dp710
g62
I3
ssg63
g704
sg56
(lp711
S''
asbasbasbag49
(g65
g51
NtRp712
(dp713
g54
(dp714
sg63
g588
sg56
(lp715
g49
(g70
g51
NtRp716
(dp717
g54
(dp718
g74
g75
ssg63
g712
sg56
(lp719
g389
asbag49
(g70
g51
NtRp720
(dp721
g54
(dp722
g81
g82
ssg63
g712
sg56
(lp723
S':'
asbag49
(g70
g51
NtRp724
(dp725
g54
(dp726
sg63
g712
sg56
(lp727
g49
(g50
g51
NtRp728
(dp729
g54
(dp730
g62
I3
ssg63
g724
sg56
(lp731
S''
asbasbasbasbasbasbasbag49
(g65
g51
NtRp732
(dp733
g54
(dp734
sg63
g226
sg56
(lp735
g49
(g70
g51
NtRp736
(dp737
g54
(dp738
g74
g75
ssg63
g732
sg56
(lp739
S'session_id_welcome'
p740
asbag49
(g70
g51
NtRp741
(dp742
g54
(dp743
g81
g82
ssg63
g732
sg56
(lp744
S':'
asbag49
(g70
g51
NtRp745
(dp746
g54
(dp747
sg63
g732
sg56
(lp748
g49
(g50
g51
NtRp749
(dp750
g54
(dp751
g62
I4
ssg63
g745
sg56
(lp752
g49
(g58
g51
NtRp753
(dp754
g54
(dp755
g62
I3
ssg63
Nsg56
(lp756
g49
(g65
g51
NtRp757
(dp758
g54
(dp759
sg63
g753
sg56
(lp760
g49
(g70
g51
NtRp761
(dp762
g54
(dp763
g74
g75
ssg63
g757
sg56
(lp764
g263
asbag49
(g70
g51
NtRp765
(dp766
g54
(dp767
g81
g82
ssg63
g757
sg56
(lp768
S':'
asbag49
(g70
g51
NtRp769
(dp770
g54
(dp771
sg63
g757
sg56
(lp772
g49
(g50
g51
NtRp773
(dp774
g54
(dp775
g62
I3
ssg63
g769
sg56
(lp776
S''
asbasbasbag49
(g65
g51
NtRp777
(dp778
g54
(dp779
sg63
g753
sg56
(lp780
g49
(g70
g51
NtRp781
(dp782
g54
(dp783
g74
g75
ssg63
g777
sg56
(lp784
g284
asbag49
(g70
g51
NtRp785
(dp786
g54
(dp787
g81
g82
ssg63
g777
sg56
(lp788
S':'
asbag49
(g70
g51
NtRp789
(dp790
g54
(dp791
sg63
g777
sg56
(lp792
g49
(g50
g51
NtRp793
(dp794
g54
(dp795
g62
I3
ssg63
g789
sg56
(lp796
S''
asbasbasbag49
(g65
g51
NtRp797
(dp798
g54
(dp799
sg63
g753
sg56
(lp800
g49
(g70
g51
NtRp801
(dp802
g54
(dp803
g74
g75
ssg63
g797
sg56
(lp804
g305
asbag49
(g70
g51
NtRp805
(dp806
g54
(dp807
g81
g82
ssg63
g797
sg56
(lp808
S':'
asbag49
(g70
g51
NtRp809
(dp810
g54
(dp811
sg63
g797
sg56
(lp812
g49
(g50
g51
NtRp813
(dp814
g54
(dp815
g62
I3
ssg63
g809
sg56
(lp816
S''
asbasbasbag49
(g65
g51
NtRp817
(dp818
g54
(dp819
sg63
g753
sg56
(lp820
g49
(g70
g51
NtRp821
(dp822
g54
(dp823
g74
g75
ssg63
g817
sg56
(lp824
g326
asbag49
(g70
g51
NtRp825
(dp826
g54
(dp827
g81
g82
ssg63
g817
sg56
(lp828
S':'
asbag49
(g70
g51
NtRp829
(dp830
g54
(dp831
sg63
g817
sg56
(lp832
g49
(g50
g51
NtRp833
(dp834
g54
(dp835
g62
I3
ssg63
g829
sg56
(lp836
S''
asbasbasbag49
(g65
g51
NtRp837
(dp838
g54
(dp839
sg63
g753
sg56
(lp840
g49
(g70
g51
NtRp841
(dp842
g54
(dp843
g74
g75
ssg63
g837
sg56
(lp844
g347
asbag49
(g70
g51
NtRp845
(dp846
g54
(dp847
g81
g82
ssg63
g837
sg56
(lp848
S':'
asbag49
(g70
g51
NtRp849
(dp850
g54
(dp851
sg63
g837
sg56
(lp852
g49
(g50
g51
NtRp853
(dp854
g54
(dp855
g62
I3
ssg63
g849
sg56
(lp856
S''
asbasbasbag49
(g65
g51
NtRp857
(dp858
g54
(dp859
sg63
g753
sg56
(lp860
g49
(g70
g51
NtRp861
(dp862
g54
(dp863
g74
g75
ssg63
g857
sg56
(lp864
g368
asbag49
(g70
g51
NtRp865
(dp866
g54
(dp867
g81
g82
ssg63
g857
sg56
(lp868
S':'
asbag49
(g70
g51
NtRp869
(dp870
g54
(dp871
sg63
g857
sg56
(lp872
g49
(g50
g51
NtRp873
(dp874
g54
(dp875
g62
I3
ssg63
g869
sg56
(lp876
S''
asbasbasbag49
(g65
g51
NtRp877
(dp878
g54
(dp879
sg63
g753
sg56
(lp880
g49
(g70
g51
NtRp881
(dp882
g54
(dp883
g74
g75
ssg63
g877
sg56
(lp884
g389
asbag49
(g70
g51
NtRp885
(dp886
g54
(dp887
g81
g82
ssg63
g877
sg56
(lp888
S':'
asbag49
(g70
g51
NtRp889
(dp890
g54
(dp891
sg63
g877
sg56
(lp892
g49
(g50
g51
NtRp893
(dp894
g54
(dp895
g62
I3
ssg63
g889
sg56
(lp896
S''
asbasbasbasbasbasbasbasbasbasbasbag49
(g65
g51
NtRp897
(dp898
g54
(dp899
sg63
g59
sg56
(lp900
g49
(g70
g51
NtRp901
(dp902
g54
(dp903
g74
g75
ssg63
g897
sg56
(lp904
S'env'
p905
asbag49
(g70
g51
NtRp906
(dp907
g54
(dp908
g81
g82
ssg63
g897
sg56
(lp909
S':'
asbag49
(g70
g51
NtRp910
(dp911
g54
(dp912
sg63
g897
sg56
(lp913
g49
(g50
g51
NtRp914
(dp915
g54
(dp916
g62
I5
ssg63
g910
sg56
(lp917
g49
(g58
g51
NtRp918
(dp919
g54
(dp920
g62
I4
ssg63
Nsg56
(lp921
g49
(g65
g51
NtRp922
(dp923
g54
(dp924
sg63
g918
sg56
(lp925
g49
(g70
g51
NtRp926
(dp927
g54
(dp928
g74
g75
ssg63
g922
sg56
(lp929
S'app_folders'
p930
asbag49
(g70
g51
NtRp931
(dp932
g54
(dp933
g81
g82
ssg63
g922
sg56
(lp934
S':'
asbag49
(g70
g51
NtRp935
(dp936
g54
(dp937
sg63
g922
sg56
(lp938
g49
(g50
g51
NtRp939
(dp940
g54
(dp941
g62
I4
ssg63
g935
sg56
(lp942
S"set(['C:\\\\Users\\\\omkara\\\\Desktop\\\\web2py\\\\applications\\\\admin\\\\', 'C:\\\\Users\\\\omkara\\\\Desktop\\\\web2py\\\\applications\\\\welcome\\\\', 'C:\\\\Users\\\\omkara\\\\Desktop\\\\web2py\\\\applications\\\\SlugBarter\\\\', 'C:\\\\Users\\\\omkara\\\\Desktop\\\\web2py\\\\applications\\\\OnlineNotes_p1_\\\\'])"
p943
asbasbasbag49
(g65
g51
NtRp944
(dp945
g54
(dp946
sg63
g918
sg56
(lp947
g49
(g70
g51
NtRp948
(dp949
g54
(dp950
g74
g75
ssg63
g944
sg56
(lp951
S'applications_parent'
p952
asbag49
(g70
g51
NtRp953
(dp954
g54
(dp955
g81
g82
ssg63
g944
sg56
(lp956
S':'
asbag49
(g70
g51
NtRp957
(dp958
g54
(dp959
sg63
g944
sg56
(lp960
g49
(g50
g51
NtRp961
(dp962
g54
(dp963
g62
I4
ssg63
g957
sg56
(lp964
S'C:\\Users\\omkara\\Desktop\\web2py'
p965
asbasbasbag49
(g65
g51
NtRp966
(dp967
g54
(dp968
sg63
g918
sg56
(lp969
g49
(g70
g51
NtRp970
(dp971
g54
(dp972
g74
g75
ssg63
g966
sg56
(lp973
S'cmd_args'
p974
asbag49
(g70
g51
NtRp975
(dp976
g54
(dp977
g81
g82
ssg63
g966
sg56
(lp978
S':'
asbag49
(g70
g51
NtRp979
(dp980
g54
(dp981
sg63
g966
sg56
(lp982
g49
(g50
g51
NtRp983
(dp984
g54
(dp985
g62
I4
ssg63
g979
sg56
(lp986
g49
(g58
g51
NtRp987
(dp988
g54
(dp989
g62
I3
ssg63
Nsg56
(lp990
sbasbasbasbag49
(g65
g51
NtRp991
(dp992
g54
(dp993
sg63
g918
sg56
(lp994
g49
(g70
g51
NtRp995
(dp996
g54
(dp997
g74
g75
ssg63
g991
sg56
(lp998
S'cmd_options'
p999
asbag49
(g70
g51
NtRp1000
(dp1001
g54
(dp1002
g81
g82
ssg63
g991
sg56
(lp1003
S':'
asbag49
(g70
g51
NtRp1004
(dp1005
g54
(dp1006
sg63
g991
sg56
(lp1007
g49
(g50
g51
NtRp1008
(dp1009
g54
(dp1010
g62
I4
ssg63
g1004
sg56
(lp1011
S"<Values at 0x27a30f8: {'verbose': False, 'ip': '127.0.0.1', 'shutdown_timeout': 5, 'taskbar': False, 'nocron': False, 'pid_filename': 'httpserver.pid', 'maxthreads': None, 'softcron': False, 'server_name': 'omkara-PC', 'bpython': False, 'nogui': False, 'port': 8000, 'extcron': False, 'debuglevel': 30, 'test': None, 'folder': 'C:\\\\Users\\\\omkara\\\\Desktop\\\\web2py', 'config': '', 'import_models': False, 'winservice': '', 'shell': None, 'run': '', 'log_filename': 'httpserver.log', 'args': [''], 'socket_timeout': 5, 'ssl_ca_certificate': None, 'scheduler': None, 'profiler_filename': None, 'ssl_private_key': '', 'password': '<ask>', 'request_queue_size': 5, 'ssl_certificate': '', 'cronjob': False, 'numthreads': None, 'quiet': False, 'interfaces': None, 'minthreads': None, 'timeout': 10, 'plain': False, 'nobanner': False}>"
p1012
asbasbasbag49
(g65
g51
NtRp1013
(dp1014
g54
(dp1015
sg63
g918
sg56
(lp1016
g49
(g70
g51
NtRp1017
(dp1018
g54
(dp1019
g74
g75
ssg63
g1013
sg56
(lp1020
S'db_sessions'
p1021
asbag49
(g70
g51
NtRp1022
(dp1023
g54
(dp1024
g81
g82
ssg63
g1013
sg56
(lp1025
S':'
asbag49
(g70
g51
NtRp1026
(dp1027
g54
(dp1028
sg63
g1013
sg56
(lp1029
g49
(g50
g51
NtRp1030
(dp1031
g54
(dp1032
g62
I4
ssg63
g1026
sg56
(lp1033
S'set([])'
p1034
asbasbasbag49
(g65
g51
NtRp1035
(dp1036
g54
(dp1037
sg63
g918
sg56
(lp1038
g49
(g70
g51
NtRp1039
(dp1040
g54
(dp1041
g74
g75
ssg63
g1035
sg56
(lp1042
S'debugging'
p1043
asbag49
(g70
g51
NtRp1044
(dp1045
g54
(dp1046
g81
g82
ssg63
g1035
sg56
(lp1047
S':'
asbag49
(g70
g51
NtRp1048
(dp1049
g54
(dp1050
sg63
g1035
sg56
(lp1051
g49
(g50
g51
NtRp1052
(dp1053
g54
(dp1054
g62
I4
ssg63
g1048
sg56
(lp1055
g92
asbasbasbag49
(g65
g51
NtRp1056
(dp1057
g54
(dp1058
sg63
g918
sg56
(lp1059
g49
(g70
g51
NtRp1060
(dp1061
g54
(dp1062
g74
g75
ssg63
g1056
sg56
(lp1063
S'gluon_parent'
p1064
asbag49
(g70
g51
NtRp1065
(dp1066
g54
(dp1067
g81
g82
ssg63
g1056
sg56
(lp1068
S':'
asbag49
(g70
g51
NtRp1069
(dp1070
g54
(dp1071
sg63
g1056
sg56
(lp1072
g49
(g50
g51
NtRp1073
(dp1074
g54
(dp1075
g62
I4
ssg63
g1069
sg56
(lp1076
S'C:\\Users\\omkara\\Desktop\\web2py'
p1077
asbasbasbag49
(g65
g51
NtRp1078
(dp1079
g54
(dp1080
sg63
g918
sg56
(lp1081
g49
(g70
g51
NtRp1082
(dp1083
g54
(dp1084
g74
g75
ssg63
g1078
sg56
(lp1085
S'http_accept'
p1086
asbag49
(g70
g51
NtRp1087
(dp1088
g54
(dp1089
g81
g82
ssg63
g1078
sg56
(lp1090
S':'
asbag49
(g70
g51
NtRp1091
(dp1092
g54
(dp1093
sg63
g1078
sg56
(lp1094
g49
(g50
g51
NtRp1095
(dp1096
g54
(dp1097
g62
I4
ssg63
g1091
sg56
(lp1098
S'text/html,application/xhtml+xml,application/xml;q=0.9,*/*;q=0.8'
p1099
asbasbasbag49
(g65
g51
NtRp1100
(dp1101
g54
(dp1102
sg63
g918
sg56
(lp1103
g49
(g70
g51
NtRp1104
(dp1105
g54
(dp1106
g74
g75
ssg63
g1100
sg56
(lp1107
S'http_accept_charset'
p1108
asbag49
(g70
g51
NtRp1109
(dp1110
g54
(dp1111
g81
g82
ssg63
g1100
sg56
(lp1112
S':'
asbag49
(g70
g51
NtRp1113
(dp1114
g54
(dp1115
sg63
g1100
sg56
(lp1116
g49
(g50
g51
NtRp1117
(dp1118
g54
(dp1119
g62
I4
ssg63
g1113
sg56
(lp1120
S'ISO-8859-1,utf-8;q=0.7,*;q=0.3'
p1121
asbasbasbag49
(g65
g51
NtRp1122
(dp1123
g54
(dp1124
sg63
g918
sg56
(lp1125
g49
(g70
g51
NtRp1126
(dp1127
g54
(dp1128
g74
g75
ssg63
g1122
sg56
(lp1129
S'http_accept_encoding'
p1130
asbag49
(g70
g51
NtRp1131
(dp1132
g54
(dp1133
g81
g82
ssg63
g1122
sg56
(lp1134
S':'
asbag49
(g70
g51
NtRp1135
(dp1136
g54
(dp1137
sg63
g1122
sg56
(lp1138
g49
(g50
g51
NtRp1139
(dp1140
g54
(dp1141
g62
I4
ssg63
g1135
sg56
(lp1142
S'gzip,deflate,sdch'
p1143
asbasbasbag49
(g65
g51
NtRp1144
(dp1145
g54
(dp1146
sg63
g918
sg56
(lp1147
g49
(g70
g51
NtRp1148
(dp1149
g54
(dp1150
g74
g75
ssg63
g1144
sg56
(lp1151
S'http_accept_language'
p1152
asbag49
(g70
g51
NtRp1153
(dp1154
g54
(dp1155
g81
g82
ssg63
g1144
sg56
(lp1156
S':'
asbag49
(g70
g51
NtRp1157
(dp1158
g54
(dp1159
sg63
g1144
sg56
(lp1160
g49
(g50
g51
NtRp1161
(dp1162
g54
(dp1163
g62
I4
ssg63
g1157
sg56
(lp1164
S'en-US,en;q=0.8'
p1165
asbasbasbag49
(g65
g51
NtRp1166
(dp1167
g54
(dp1168
sg63
g918
sg56
(lp1169
g49
(g70
g51
NtRp1170
(dp1171
g54
(dp1172
g74
g75
ssg63
g1166
sg56
(lp1173
S'http_cache_control'
p1174
asbag49
(g70
g51
NtRp1175
(dp1176
g54
(dp1177
g81
g82
ssg63
g1166
sg56
(lp1178
S':'
asbag49
(g70
g51
NtRp1179
(dp1180
g54
(dp1181
sg63
g1166
sg56
(lp1182
g49
(g50
g51
NtRp1183
(dp1184
g54
(dp1185
g62
I4
ssg63
g1179
sg56
(lp1186
S'max-age=0'
p1187
asbasbasbag49
(g65
g51
NtRp1188
(dp1189
g54
(dp1190
sg63
g918
sg56
(lp1191
g49
(g70
g51
NtRp1192
(dp1193
g54
(dp1194
g74
g75
ssg63
g1188
sg56
(lp1195
S'http_connection'
p1196
asbag49
(g70
g51
NtRp1197
(dp1198
g54
(dp1199
g81
g82
ssg63
g1188
sg56
(lp1200
S':'
asbag49
(g70
g51
NtRp1201
(dp1202
g54
(dp1203
sg63
g1188
sg56
(lp1204
g49
(g50
g51
NtRp1205
(dp1206
g54
(dp1207
g62
I4
ssg63
g1201
sg56
(lp1208
S'keep-alive'
p1209
asbasbasbag49
(g65
g51
NtRp1210
(dp1211
g54
(dp1212
sg63
g918
sg56
(lp1213
g49
(g70
g51
NtRp1214
(dp1215
g54
(dp1216
g74
g75
ssg63
g1210
sg56
(lp1217
S'http_cookie'
p1218
asbag49
(g70
g51
NtRp1219
(dp1220
g54
(dp1221
g81
g82
ssg63
g1210
sg56
(lp1222
S':'
asbag49
(g70
g51
NtRp1223
(dp1224
g54
(dp1225
sg63
g1210
sg56
(lp1226
g49
(g50
g51
NtRp1227
(dp1228
g54
(dp1229
g62
I4
ssg63
g1223
sg56
(lp1230
S'session_id_welcome=127.0.0.1-a1b3016b-66b8-408b-ae8e-37231f35f16e; session_id_onlinenotes_p1_=127.0.0.1-2b1a349f-aa95-4718-93d5-e7df1c85d951; session_id_slugbarter=127.0.0.1-e6ebae72-1bbc-48a5-9458-95dbb65a4e54; session_id_admin=127.0.0.1-3b1553ef-7186-4588-80e8-d2bbbaa88c9f'
p1231
asbasbasbag49
(g65
g51
NtRp1232
(dp1233
g54
(dp1234
sg63
g918
sg56
(lp1235
g49
(g70
g51
NtRp1236
(dp1237
g54
(dp1238
g74
g75
ssg63
g1232
sg56
(lp1239
S'http_host'
p1240
asbag49
(g70
g51
NtRp1241
(dp1242
g54
(dp1243
g81
g82
ssg63
g1232
sg56
(lp1244
S':'
asbag49
(g70
g51
NtRp1245
(dp1246
g54
(dp1247
sg63
g1232
sg56
(lp1248
g49
(g50
g51
NtRp1249
(dp1250
g54
(dp1251
g62
I4
ssg63
g1245
sg56
(lp1252
S'127.0.0.1:8000'
p1253
asbasbasbag49
(g65
g51
NtRp1254
(dp1255
g54
(dp1256
sg63
g918
sg56
(lp1257
g49
(g70
g51
NtRp1258
(dp1259
g54
(dp1260
g74
g75
ssg63
g1254
sg56
(lp1261
S'http_referer'
p1262
asbag49
(g70
g51
NtRp1263
(dp1264
g54
(dp1265
g81
g82
ssg63
g1254
sg56
(lp1266
S':'
asbag49
(g70
g51
NtRp1267
(dp1268
g54
(dp1269
sg63
g1254
sg56
(lp1270
g49
(g50
g51
NtRp1271
(dp1272
g54
(dp1273
g62
I4
ssg63
g1267
sg56
(lp1274
S'http://127.0.0.1:8000/SlugBarter/default/index'
p1275
asbasbasbag49
(g65
g51
NtRp1276
(dp1277
g54
(dp1278
sg63
g918
sg56
(lp1279
g49
(g70
g51
NtRp1280
(dp1281
g54
(dp1282
g74
g75
ssg63
g1276
sg56
(lp1283
S'http_user_agent'
p1284
asbag49
(g70
g51
NtRp1285
(dp1286
g54
(dp1287
g81
g82
ssg63
g1276
sg56
(lp1288
S':'
asbag49
(g70
g51
NtRp1289
(dp1290
g54
(dp1291
sg63
g1276
sg56
(lp1292
g49
(g50
g51
NtRp1293
(dp1294
g54
(dp1295
g62
I4
ssg63
g1289
sg56
(lp1296
S'Mozilla/5.0 (Windows NT 6.1) AppleWebKit/537.11 (KHTML, like Gecko) Chrome/23.0.1271.64 Safari/537.11'
p1297
asbasbasbag49
(g65
g51
NtRp1298
(dp1299
g54
(dp1300
sg63
g918
sg56
(lp1301
g49
(g70
g51
NtRp1302
(dp1303
g54
(dp1304
g74
g75
ssg63
g1298
sg56
(lp1305
S'is_jython'
p1306
asbag49
(g70
g51
NtRp1307
(dp1308
g54
(dp1309
g81
g82
ssg63
g1298
sg56
(lp1310
S':'
asbag49
(g70
g51
NtRp1311
(dp1312
g54
(dp1313
sg63
g1298
sg56
(lp1314
g49
(g50
g51
NtRp1315
(dp1316
g54
(dp1317
g62
I4
ssg63
g1311
sg56
(lp1318
g92
asbasbasbag49
(g65
g51
NtRp1319
(dp1320
g54
(dp1321
sg63
g918
sg56
(lp1322
g49
(g70
g51
NtRp1323
(dp1324
g54
(dp1325
g74
g75
ssg63
g1319
sg56
(lp1326
S'is_pypy'
p1327
asbag49
(g70
g51
NtRp1328
(dp1329
g54
(dp1330
g81
g82
ssg63
g1319
sg56
(lp1331
S':'
asbag49
(g70
g51
NtRp1332
(dp1333
g54
(dp1334
sg63
g1319
sg56
(lp1335
g49
(g50
g51
NtRp1336
(dp1337
g54
(dp1338
g62
I4
ssg63
g1332
sg56
(lp1339
g92
asbasbasbag49
(g65
g51
NtRp1340
(dp1341
g54
(dp1342
sg63
g918
sg56
(lp1343
g49
(g70
g51
NtRp1344
(dp1345
g54
(dp1346
g74
g75
ssg63
g1340
sg56
(lp1347
S'path_info'
p1348
asbag49
(g70
g51
NtRp1349
(dp1350
g54
(dp1351
g81
g82
ssg63
g1340
sg56
(lp1352
S':'
asbag49
(g70
g51
NtRp1353
(dp1354
g54
(dp1355
sg63
g1340
sg56
(lp1356
g49
(g50
g51
NtRp1357
(dp1358
g54
(dp1359
g62
I4
ssg63
g1353
sg56
(lp1360
S'/SlugBarter/default/login'
p1361
asbasbasbag49
(g65
g51
NtRp1362
(dp1363
g54
(dp1364
sg63
g918
sg56
(lp1365
g49
(g70
g51
NtRp1366
(dp1367
g54
(dp1368
g74
g75
ssg63
g1362
sg56
(lp1369
S'query_string'
p1370
asbag49
(g70
g51
NtRp1371
(dp1372
g54
(dp1373
g81
g82
ssg63
g1362
sg56
(lp1374
S':'
asbag49
(g70
g51
NtRp1375
(dp1376
g54
(dp1377
sg63
g1362
sg56
(lp1378
g49
(g50
g51
NtRp1379
(dp1380
g54
(dp1381
g62
I4
ssg63
g1375
sg56
(lp1382
S''
asbasbasbag49
(g65
g51
NtRp1383
(dp1384
g54
(dp1385
sg63
g918
sg56
(lp1386
g49
(g70
g51
NtRp1387
(dp1388
g54
(dp1389
g74
g75
ssg63
g1383
sg56
(lp1390
S'remote_addr'
p1391
asbag49
(g70
g51
NtRp1392
(dp1393
g54
(dp1394
g81
g82
ssg63
g1383
sg56
(lp1395
S':'
asbag49
(g70
g51
NtRp1396
(dp1397
g54
(dp1398
sg63
g1383
sg56
(lp1399
g49
(g50
g51
NtRp1400
(dp1401
g54
(dp1402
g62
I4
ssg63
g1396
sg56
(lp1403
g182
asbasbasbag49
(g65
g51
NtRp1404
(dp1405
g54
(dp1406
sg63
g918
sg56
(lp1407
g49
(g70
g51
NtRp1408
(dp1409
g54
(dp1410
g74
g75
ssg63
g1404
sg56
(lp1411
S'remote_port'
p1412
asbag49
(g70
g51
NtRp1413
(dp1414
g54
(dp1415
g81
g82
ssg63
g1404
sg56
(lp1416
S':'
asbag49
(g70
g51
NtRp1417
(dp1418
g54
(dp1419
sg63
g1404
sg56
(lp1420
g49
(g50
g51
NtRp1421
(dp1422
g54
(dp1423
g62
I4
ssg63
g1417
sg56
(lp1424
S'60297'
p1425
asbasbasbag49
(g65
g51
NtRp1426
(dp1427
g54
(dp1428
sg63
g918
sg56
(lp1429
g49
(g70
g51
NtRp1430
(dp1431
g54
(dp1432
g74
g75
ssg63
g1426
sg56
(lp1433
S'request_method'
p1434
asbag49
(g70
g51
NtRp1435
(dp1436
g54
(dp1437
g81
g82
ssg63
g1426
sg56
(lp1438
S':'
asbag49
(g70
g51
NtRp1439
(dp1440
g54
(dp1441
sg63
g1426
sg56
(lp1442
g49
(g50
g51
NtRp1443
(dp1444
g54
(dp1445
g62
I4
ssg63
g1439
sg56
(lp1446
S'GET'
p1447
asbasbasbag49
(g65
g51
NtRp1448
(dp1449
g54
(dp1450
sg63
g918
sg56
(lp1451
g49
(g70
g51
NtRp1452
(dp1453
g54
(dp1454
g74
g75
ssg63
g1448
sg56
(lp1455
S'script_name'
p1456
asbag49
(g70
g51
NtRp1457
(dp1458
g54
(dp1459
g81
g82
ssg63
g1448
sg56
(lp1460
S':'
asbag49
(g70
g51
NtRp1461
(dp1462
g54
(dp1463
sg63
g1448
sg56
(lp1464
g49
(g50
g51
NtRp1465
(dp1466
g54
(dp1467
g62
I4
ssg63
g1461
sg56
(lp1468
S''
asbasbasbag49
(g65
g51
NtRp1469
(dp1470
g54
(dp1471
sg63
g918
sg56
(lp1472
g49
(g70
g51
NtRp1473
(dp1474
g54
(dp1475
g74
g75
ssg63
g1469
sg56
(lp1476
S'server_name'
p1477
asbag49
(g70
g51
NtRp1478
(dp1479
g54
(dp1480
g81
g82
ssg63
g1469
sg56
(lp1481
S':'
asbag49
(g70
g51
NtRp1482
(dp1483
g54
(dp1484
sg63
g1469
sg56
(lp1485
g49
(g50
g51
NtRp1486
(dp1487
g54
(dp1488
g62
I4
ssg63
g1482
sg56
(lp1489
S'omkara-PC'
p1490
asbasbasbag49
(g65
g51
NtRp1491
(dp1492
g54
(dp1493
sg63
g918
sg56
(lp1494
g49
(g70
g51
NtRp1495
(dp1496
g54
(dp1497
g74
g75
ssg63
g1491
sg56
(lp1498
S'server_port'
p1499
asbag49
(g70
g51
NtRp1500
(dp1501
g54
(dp1502
g81
g82
ssg63
g1491
sg56
(lp1503
S':'
asbag49
(g70
g51
NtRp1504
(dp1505
g54
(dp1506
sg63
g1491
sg56
(lp1507
g49
(g50
g51
NtRp1508
(dp1509
g54
(dp1510
g62
I4
ssg63
g1504
sg56
(lp1511
S'8000'
p1512
asbasbasbag49
(g65
g51
NtRp1513
(dp1514
g54
(dp1515
sg63
g918
sg56
(lp1516
g49
(g70
g51
NtRp1517
(dp1518
g54
(dp1519
g74
g75
ssg63
g1513
sg56
(lp1520
S'server_protocol'
p1521
asbag49
(g70
g51
NtRp1522
(dp1523
g54
(dp1524
g81
g82
ssg63
g1513
sg56
(lp1525
S':'
asbag49
(g70
g51
NtRp1526
(dp1527
g54
(dp1528
sg63
g1513
sg56
(lp1529
g49
(g50
g51
NtRp1530
(dp1531
g54
(dp1532
g62
I4
ssg63
g1526
sg56
(lp1533
S'HTTP/1.1'
p1534
asbasbasbag49
(g65
g51
NtRp1535
(dp1536
g54
(dp1537
sg63
g918
sg56
(lp1538
g49
(g70
g51
NtRp1539
(dp1540
g54
(dp1541
g74
g75
ssg63
g1535
sg56
(lp1542
S'server_software'
p1543
asbag49
(g70
g51
NtRp1544
(dp1545
g54
(dp1546
g81
g82
ssg63
g1535
sg56
(lp1547
S':'
asbag49
(g70
g51
NtRp1548
(dp1549
g54
(dp1550
sg63
g1535
sg56
(lp1551
g49
(g50
g51
NtRp1552
(dp1553
g54
(dp1554
g62
I4
ssg63
g1548
sg56
(lp1555
S'Rocket 1.2.4'
p1556
asbasbasbag49
(g65
g51
NtRp1557
(dp1558
g54
(dp1559
sg63
g918
sg56
(lp1560
g49
(g70
g51
NtRp1561
(dp1562
g54
(dp1563
g74
g75
ssg63
g1557
sg56
(lp1564
S'web2py_crontype'
p1565
asbag49
(g70
g51
NtRp1566
(dp1567
g54
(dp1568
g81
g82
ssg63
g1557
sg56
(lp1569
S':'
asbag49
(g70
g51
NtRp1570
(dp1571
g54
(dp1572
sg63
g1557
sg56
(lp1573
g49
(g50
g51
NtRp1574
(dp1575
g54
(dp1576
g62
I4
ssg63
g1570
sg56
(lp1577
S'hard'
p1578
asbasbasbag49
(g65
g51
NtRp1579
(dp1580
g54
(dp1581
sg63
g918
sg56
(lp1582
g49
(g70
g51
NtRp1583
(dp1584
g54
(dp1585
g74
g75
ssg63
g1579
sg56
(lp1586
S'web2py_path'
p1587
asbag49
(g70
g51
NtRp1588
(dp1589
g54
(dp1590
g81
g82
ssg63
g1579
sg56
(lp1591
S':'
asbag49
(g70
g51
NtRp1592
(dp1593
g54
(dp1594
sg63
g1579
sg56
(lp1595
g49
(g50
g51
NtRp1596
(dp1597
g54
(dp1598
g62
I4
ssg63
g1592
sg56
(lp1599
g965
asbasbasbag49
(g65
g51
NtRp1600
(dp1601
g54
(dp1602
sg63
g918
sg56
(lp1603
g49
(g70
g51
NtRp1604
(dp1605
g54
(dp1606
g74
g75
ssg63
g1600
sg56
(lp1607
S'web2py_version'
p1608
asbag49
(g70
g51
NtRp1609
(dp1610
g54
(dp1611
g81
g82
ssg63
g1600
sg56
(lp1612
S':'
asbag49
(g70
g51
NtRp1613
(dp1614
g54
(dp1615
sg63
g1600
sg56
(lp1616
g49
(g50
g51
NtRp1617
(dp1618
g54
(dp1619
g62
I4
ssg63
g1613
sg56
(lp1620
g49
(g58
g51
NtRp1621
(dp1622
g54
(dp1623
g62
I3
ssg63
Nsg56
(lp1624
g49
(g65
g51
NtRp1625
(dp1626
g54
(dp1627
sg63
g1621
sg56
(lp1628
g49
(g70
g51
NtRp1629
(dp1630
g54
(dp1631
sg63
g1625
sg56
(lp1632
g49
(g50
g51
NtRp1633
(dp1634
g54
(dp1635
g62
I3
ssg63
g1629
sg56
(lp1636
S'1'
asbasbasbag49
(g65
g51
NtRp1637
(dp1638
g54
(dp1639
sg63
g1621
sg56
(lp1640
g49
(g70
g51
NtRp1641
(dp1642
g54
(dp1643
sg63
g1637
sg56
(lp1644
g49
(g50
g51
NtRp1645
(dp1646
g54
(dp1647
g62
I3
ssg63
g1641
sg56
(lp1648
S'99'
p1649
asbasbasbag49
(g65
g51
NtRp1650
(dp1651
g54
(dp1652
sg63
g1621
sg56
(lp1653
g49
(g70
g51
NtRp1654
(dp1655
g54
(dp1656
sg63
g1650
sg56
(lp1657
g49
(g50
g51
NtRp1658
(dp1659
g54
(dp1660
g62
I3
ssg63
g1654
sg56
(lp1661
S'7'
asbasbasbag49
(g65
g51
NtRp1662
(dp1663
g54
(dp1664
sg63
g1621
sg56
(lp1665
g49
(g70
g51
NtRp1666
(dp1667
g54
(dp1668
sg63
g1662
sg56
(lp1669
g49
(g50
g51
NtRp1670
(dp1671
g54
(dp1672
g62
I3
ssg63
g1666
sg56
(lp1673
S'datetime.datetime(2012, 3, 4, 22, 12, 8)'
p1674
asbasbasbag49
(g65
g51
NtRp1675
(dp1676
g54
(dp1677
sg63
g1621
sg56
(lp1678
g49
(g70
g51
NtRp1679
(dp1680
g54
(dp1681
sg63
g1675
sg56
(lp1682
g49
(g50
g51
NtRp1683
(dp1684
g54
(dp1685
g62
I3
ssg63
g1679
sg56
(lp1686
S'stable'
p1687
asbasbasbasbasbasbasbag49
(g65
g51
NtRp1688
(dp1689
g54
(dp1690
sg63
g918
sg56
(lp1691
g49
(g70
g51
NtRp1692
(dp1693
g54
(dp1694
g74
g75
ssg63
g1688
sg56
(lp1695
S'wsgi_errors'
p1696
asbag49
(g70
g51
NtRp1697
(dp1698
g54
(dp1699
g81
g82
ssg63
g1688
sg56
(lp1700
S':'
asbag49
(g70
g51
NtRp1701
(dp1702
g54
(dp1703
sg63
g1688
sg56
(lp1704
g49
(g50
g51
NtRp1705
(dp1706
g54
(dp1707
g62
I4
ssg63
g1701
sg56
(lp1708
S'<__main__.Stderr object at 0x01667670>'
p1709
asbasbasbag49
(g65
g51
NtRp1710
(dp1711
g54
(dp1712
sg63
g918
sg56
(lp1713
g49
(g70
g51
NtRp1714
(dp1715
g54
(dp1716
g74
g75
ssg63
g1710
sg56
(lp1717
S'wsgi_file_wrapper'
p1718
asbag49
(g70
g51
NtRp1719
(dp1720
g54
(dp1721
g81
g82
ssg63
g1710
sg56
(lp1722
S':'
asbag49
(g70
g51
NtRp1723
(dp1724
g54
(dp1725
sg63
g1710
sg56
(lp1726
g49
(g50
g51
NtRp1727
(dp1728
g54
(dp1729
g62
I4
ssg63
g1723
sg56
(lp1730
S'<class wsgiref.util.FileWrapper at 0x02532210>'
p1731
asbasbasbag49
(g65
g51
NtRp1732
(dp1733
g54
(dp1734
sg63
g918
sg56
(lp1735
g49
(g70
g51
NtRp1736
(dp1737
g54
(dp1738
g74
g75
ssg63
g1732
sg56
(lp1739
S'wsgi_input'
p1740
asbag49
(g70
g51
NtRp1741
(dp1742
g54
(dp1743
g81
g82
ssg63
g1732
sg56
(lp1744
S':'
asbag49
(g70
g51
NtRp1745
(dp1746
g54
(dp1747
sg63
g1732
sg56
(lp1748
g49
(g50
g51
NtRp1749
(dp1750
g54
(dp1751
g62
I4
ssg63
g1745
sg56
(lp1752
S'<socket._fileobject object at 0x05EF01B0>'
p1753
asbasbasbag49
(g65
g51
NtRp1754
(dp1755
g54
(dp1756
sg63
g918
sg56
(lp1757
g49
(g70
g51
NtRp1758
(dp1759
g54
(dp1760
g74
g75
ssg63
g1754
sg56
(lp1761
S'wsgi_multiprocess'
p1762
asbag49
(g70
g51
NtRp1763
(dp1764
g54
(dp1765
g81
g82
ssg63
g1754
sg56
(lp1766
S':'
asbag49
(g70
g51
NtRp1767
(dp1768
g54
(dp1769
sg63
g1754
sg56
(lp1770
g49
(g50
g51
NtRp1771
(dp1772
g54
(dp1773
g62
I4
ssg63
g1767
sg56
(lp1774
g92
asbasbasbag49
(g65
g51
NtRp1775
(dp1776
g54
(dp1777
sg63
g918
sg56
(lp1778
g49
(g70
g51
NtRp1779
(dp1780
g54
(dp1781
g74
g75
ssg63
g1775
sg56
(lp1782
S'wsgi_multithread'
p1783
asbag49
(g70
g51
NtRp1784
(dp1785
g54
(dp1786
g81
g82
ssg63
g1775
sg56
(lp1787
S':'
asbag49
(g70
g51
NtRp1788
(dp1789
g54
(dp1790
sg63
g1775
sg56
(lp1791
g49
(g50
g51
NtRp1792
(dp1793
g54
(dp1794
g62
I4
ssg63
g1788
sg56
(lp1795
S'True'
p1796
asbasbasbag49
(g65
g51
NtRp1797
(dp1798
g54
(dp1799
sg63
g918
sg56
(lp1800
g49
(g70
g51
NtRp1801
(dp1802
g54
(dp1803
g74
g75
ssg63
g1797
sg56
(lp1804
S'wsgi_run_once'
p1805
asbag49
(g70
g51
NtRp1806
(dp1807
g54
(dp1808
g81
g82
ssg63
g1797
sg56
(lp1809
S':'
asbag49
(g70
g51
NtRp1810
(dp1811
g54
(dp1812
sg63
g1797
sg56
(lp1813
g49
(g50
g51
NtRp1814
(dp1815
g54
(dp1816
g62
I4
ssg63
g1810
sg56
(lp1817
g92
asbasbasbag49
(g65
g51
NtRp1818
(dp1819
g54
(dp1820
sg63
g918
sg56
(lp1821
g49
(g70
g51
NtRp1822
(dp1823
g54
(dp1824
g74
g75
ssg63
g1818
sg56
(lp1825
S'wsgi_url_scheme'
p1826
asbag49
(g70
g51
NtRp1827
(dp1828
g54
(dp1829
g81
g82
ssg63
g1818
sg56
(lp1830
S':'
asbag49
(g70
g51
NtRp1831
(dp1832
g54
(dp1833
sg63
g1818
sg56
(lp1834
g49
(g50
g51
NtRp1835
(dp1836
g54
(dp1837
g62
I4
ssg63
g1831
sg56
(lp1838
S'http'
p1839
asbasbasbag49
(g65
g51
NtRp1840
(dp1841
g54
(dp1842
sg63
g918
sg56
(lp1843
g49
(g70
g51
NtRp1844
(dp1845
g54
(dp1846
g74
g75
ssg63
g1840
sg56
(lp1847
S'wsgi_version'
p1848
asbag49
(g70
g51
NtRp1849
(dp1850
g54
(dp1851
g81
g82
ssg63
g1840
sg56
(lp1852
S':'
asbag49
(g70
g51
NtRp1853
(dp1854
g54
(dp1855
sg63
g1840
sg56
(lp1856
g49
(g50
g51
NtRp1857
(dp1858
g54
(dp1859
g62
I4
ssg63
g1853
sg56
(lp1860
g49
(g58
g51
NtRp1861
(dp1862
g54
(dp1863
g62
I3
ssg63
Nsg56
(lp1864
g49
(g65
g51
NtRp1865
(dp1866
g54
(dp1867
sg63
g1861
sg56
(lp1868
g49
(g70
g51
NtRp1869
(dp1870
g54
(dp1871
sg63
g1865
sg56
(lp1872
g49
(g50
g51
NtRp1873
(dp1874
g54
(dp1875
g62
I3
ssg63
g1869
sg56
(lp1876
S'1'
asbasbasbag49
(g65
g51
NtRp1877
(dp1878
g54
(dp1879
sg63
g1861
sg56
(lp1880
g49
(g70
g51
NtRp1881
(dp1882
g54
(dp1883
sg63
g1877
sg56
(lp1884
g49
(g50
g51
NtRp1885
(dp1886
g54
(dp1887
g62
I3
ssg63
g1881
sg56
(lp1888
S'0'
asbasbasbasbasbasbasbasbasbasbasbag49
(g65
g51
NtRp1889
(dp1890
g54
(dp1891
sg63
g59
sg56
(lp1892
g49
(g70
g51
NtRp1893
(dp1894
g54
(dp1895
g74
g75
ssg63
g1889
sg56
(lp1896
S'extension'
p1897
asbag49
(g70
g51
NtRp1898
(dp1899
g54
(dp1900
g81
g82
ssg63
g1889
sg56
(lp1901
S':'
asbag49
(g70
g51
NtRp1902
(dp1903
g54
(dp1904
sg63
g1889
sg56
(lp1905
g49
(g50
g51
NtRp1906
(dp1907
g54
(dp1908
g62
I5
ssg63
g1902
sg56
(lp1909
S'html'
p1910
asbasbasbag49
(g65
g51
NtRp1911
(dp1912
g54
(dp1913
sg63
g59
sg56
(lp1914
g49
(g70
g51
NtRp1915
(dp1916
g54
(dp1917
g74
g75
ssg63
g1911
sg56
(lp1918
S'folder'
p1919
asbag49
(g70
g51
NtRp1920
(dp1921
g54
(dp1922
g81
g82
ssg63
g1911
sg56
(lp1923
S':'
asbag49
(g70
g51
NtRp1924
(dp1925
g54
(dp1926
sg63
g1911
sg56
(lp1927
g49
(g50
g51
NtRp1928
(dp1929
g54
(dp1930
g62
I5
ssg63
g1924
sg56
(lp1931
S'C:\\Users\\omkara\\Desktop\\web2py\\applications\\SlugBarter\\'
p1932
asbasbasbag49
(g65
g51
NtRp1933
(dp1934
g54
(dp1935
sg63
g59
sg56
(lp1936
g49
(g70
g51
NtRp1937
(dp1938
g54
(dp1939
g74
g75
ssg63
g1933
sg56
(lp1940
S'function'
p1941
asbag49
(g70
g51
NtRp1942
(dp1943
g54
(dp1944
g81
g82
ssg63
g1933
sg56
(lp1945
S':'
asbag49
(g70
g51
NtRp1946
(dp1947
g54
(dp1948
sg63
g1933
sg56
(lp1949
g49
(g50
g51
NtRp1950
(dp1951
g54
(dp1952
g62
I5
ssg63
g1946
sg56
(lp1953
S'login'
p1954
asbasbasbag49
(g65
g51
NtRp1955
(dp1956
g54
(dp1957
sg63
g59
sg56
(lp1958
g49
(g70
g51
NtRp1959
(dp1960
g54
(dp1961
g74
g75
ssg63
g1955
sg56
(lp1962
S'get_vars'
p1963
asbag49
(g70
g51
NtRp1964
(dp1965
g54
(dp1966
g81
g82
ssg63
g1955
sg56
(lp1967
S':'
asbag49
(g70
g51
NtRp1968
(dp1969
g54
(dp1970
sg63
g1955
sg56
(lp1971
g49
(g50
g51
NtRp1972
(dp1973
g54
(dp1974
g62
I5
ssg63
g1968
sg56
(lp1975
g49
(g58
g51
NtRp1976
(dp1977
g54
(dp1978
g62
I4
ssg63
Nsg56
(lp1979
sbasbasbasbag49
(g65
g51
NtRp1980
(dp1981
g54
(dp1982
sg63
g59
sg56
(lp1983
g49
(g70
g51
NtRp1984
(dp1985
g54
(dp1986
g74
g75
ssg63
g1980
sg56
(lp1987
S'global_settings'
p1988
asbag49
(g70
g51
NtRp1989
(dp1990
g54
(dp1991
g81
g82
ssg63
g1980
sg56
(lp1992
S':'
asbag49
(g70
g51
NtRp1993
(dp1994
g54
(dp1995
sg63
g1980
sg56
(lp1996
g49
(g50
g51
NtRp1997
(dp1998
g54
(dp1999
g62
I5
ssg63
g1993
sg56
(lp2000
g49
(g58
g51
NtRp2001
(dp2002
g54
(dp2003
g62
I4
ssg63
Nsg56
(lp2004
g49
(g65
g51
NtRp2005
(dp2006
g54
(dp2007
sg63
g2001
sg56
(lp2008
g49
(g70
g51
NtRp2009
(dp2010
g54
(dp2011
g74
g75
ssg63
g2005
sg56
(lp2012
g930
asbag49
(g70
g51
NtRp2013
(dp2014
g54
(dp2015
g81
g82
ssg63
g2005
sg56
(lp2016
S':'
asbag49
(g70
g51
NtRp2017
(dp2018
g54
(dp2019
sg63
g2005
sg56
(lp2020
g49
(g50
g51
NtRp2021
(dp2022
g54
(dp2023
g62
I4
ssg63
g2017
sg56
(lp2024
S"set(['C:\\\\Users\\\\omkara\\\\Desktop\\\\web2py\\\\applications\\\\admin\\\\', 'C:\\\\Users\\\\omkara\\\\Desktop\\\\web2py\\\\applications\\\\welcome\\\\', 'C:\\\\Users\\\\omkara\\\\Desktop\\\\web2py\\\\applications\\\\SlugBarter\\\\', 'C:\\\\Users\\\\omkara\\\\Desktop\\\\web2py\\\\applications\\\\OnlineNotes_p1_\\\\'])"
p2025
asbasbasbag49
(g65
g51
NtRp2026
(dp2027
g54
(dp2028
sg63
g2001
sg56
(lp2029
g49
(g70
g51
NtRp2030
(dp2031
g54
(dp2032
g74
g75
ssg63
g2026
sg56
(lp2033
g952
asbag49
(g70
g51
NtRp2034
(dp2035
g54
(dp2036
g81
g82
ssg63
g2026
sg56
(lp2037
S':'
asbag49
(g70
g51
NtRp2038
(dp2039
g54
(dp2040
sg63
g2026
sg56
(lp2041
g49
(g50
g51
NtRp2042
(dp2043
g54
(dp2044
g62
I4
ssg63
g2038
sg56
(lp2045
g965
asbasbasbag49
(g65
g51
NtRp2046
(dp2047
g54
(dp2048
sg63
g2001
sg56
(lp2049
g49
(g70
g51
NtRp2050
(dp2051
g54
(dp2052
g74
g75
ssg63
g2046
sg56
(lp2053
g974
asbag49
(g70
g51
NtRp2054
(dp2055
g54
(dp2056
g81
g82
ssg63
g2046
sg56
(lp2057
S':'
asbag49
(g70
g51
NtRp2058
(dp2059
g54
(dp2060
sg63
g2046
sg56
(lp2061
g49
(g50
g51
NtRp2062
(dp2063
g54
(dp2064
g62
I4
ssg63
g2058
sg56
(lp2065
g49
(g58
g51
NtRp2066
(dp2067
g54
(dp2068
g62
I3
ssg63
Nsg56
(lp2069
sbasbasbasbag49
(g65
g51
NtRp2070
(dp2071
g54
(dp2072
sg63
g2001
sg56
(lp2073
g49
(g70
g51
NtRp2074
(dp2075
g54
(dp2076
g74
g75
ssg63
g2070
sg56
(lp2077
g999
asbag49
(g70
g51
NtRp2078
(dp2079
g54
(dp2080
g81
g82
ssg63
g2070
sg56
(lp2081
S':'
asbag49
(g70
g51
NtRp2082
(dp2083
g54
(dp2084
sg63
g2070
sg56
(lp2085
g49
(g50
g51
NtRp2086
(dp2087
g54
(dp2088
g62
I4
ssg63
g2082
sg56
(lp2089
S"<Values at 0x27a30f8: {'verbose': False, 'ip': '127.0.0.1', 'shutdown_timeout': 5, 'taskbar': False, 'nocron': False, 'pid_filename': 'httpserver.pid', 'maxthreads': None, 'softcron': False, 'server_name': 'omkara-PC', 'bpython': False, 'nogui': False, 'port': 8000, 'extcron': False, 'debuglevel': 30, 'test': None, 'folder': 'C:\\\\Users\\\\omkara\\\\Desktop\\\\web2py', 'config': '', 'import_models': False, 'winservice': '', 'shell': None, 'run': '', 'log_filename': 'httpserver.log', 'args': [''], 'socket_timeout': 5, 'ssl_ca_certificate': None, 'scheduler': None, 'profiler_filename': None, 'ssl_private_key': '', 'password': '<ask>', 'request_queue_size': 5, 'ssl_certificate': '', 'cronjob': False, 'numthreads': None, 'quiet': False, 'interfaces': None, 'minthreads': None, 'timeout': 10, 'plain': False, 'nobanner': False}>"
p2090
asbasbasbag49
(g65
g51
NtRp2091
(dp2092
g54
(dp2093
sg63
g2001
sg56
(lp2094
g49
(g70
g51
NtRp2095
(dp2096
g54
(dp2097
g74
g75
ssg63
g2091
sg56
(lp2098
g1021
asbag49
(g70
g51
NtRp2099
(dp2100
g54
(dp2101
g81
g82
ssg63
g2091
sg56
(lp2102
S':'
asbag49
(g70
g51
NtRp2103
(dp2104
g54
(dp2105
sg63
g2091
sg56
(lp2106
g49
(g50
g51
NtRp2107
(dp2108
g54
(dp2109
g62
I4
ssg63
g2103
sg56
(lp2110
S'set([])'
p2111
asbasbasbag49
(g65
g51
NtRp2112
(dp2113
g54
(dp2114
sg63
g2001
sg56
(lp2115
g49
(g70
g51
NtRp2116
(dp2117
g54
(dp2118
g74
g75
ssg63
g2112
sg56
(lp2119
g1043
asbag49
(g70
g51
NtRp2120
(dp2121
g54
(dp2122
g81
g82
ssg63
g2112
sg56
(lp2123
S':'
asbag49
(g70
g51
NtRp2124
(dp2125
g54
(dp2126
sg63
g2112
sg56
(lp2127
g49
(g50
g51
NtRp2128
(dp2129
g54
(dp2130
g62
I4
ssg63
g2124
sg56
(lp2131
g92
asbasbasbag49
(g65
g51
NtRp2132
(dp2133
g54
(dp2134
sg63
g2001
sg56
(lp2135
g49
(g70
g51
NtRp2136
(dp2137
g54
(dp2138
g74
g75
ssg63
g2132
sg56
(lp2139
g1064
asbag49
(g70
g51
NtRp2140
(dp2141
g54
(dp2142
g81
g82
ssg63
g2132
sg56
(lp2143
S':'
asbag49
(g70
g51
NtRp2144
(dp2145
g54
(dp2146
sg63
g2132
sg56
(lp2147
g49
(g50
g51
NtRp2148
(dp2149
g54
(dp2150
g62
I4
ssg63
g2144
sg56
(lp2151
g1077
asbasbasbag49
(g65
g51
NtRp2152
(dp2153
g54
(dp2154
sg63
g2001
sg56
(lp2155
g49
(g70
g51
NtRp2156
(dp2157
g54
(dp2158
g74
g75
ssg63
g2152
sg56
(lp2159
g1306
asbag49
(g70
g51
NtRp2160
(dp2161
g54
(dp2162
g81
g82
ssg63
g2152
sg56
(lp2163
S':'
asbag49
(g70
g51
NtRp2164
(dp2165
g54
(dp2166
sg63
g2152
sg56
(lp2167
g49
(g50
g51
NtRp2168
(dp2169
g54
(dp2170
g62
I4
ssg63
g2164
sg56
(lp2171
g92
asbasbasbag49
(g65
g51
NtRp2172
(dp2173
g54
(dp2174
sg63
g2001
sg56
(lp2175
g49
(g70
g51
NtRp2176
(dp2177
g54
(dp2178
g74
g75
ssg63
g2172
sg56
(lp2179
g1327
asbag49
(g70
g51
NtRp2180
(dp2181
g54
(dp2182
g81
g82
ssg63
g2172
sg56
(lp2183
S':'
asbag49
(g70
g51
NtRp2184
(dp2185
g54
(dp2186
sg63
g2172
sg56
(lp2187
g49
(g50
g51
NtRp2188
(dp2189
g54
(dp2190
g62
I4
ssg63
g2184
sg56
(lp2191
g92
asbasbasbag49
(g65
g51
NtRp2192
(dp2193
g54
(dp2194
sg63
g2001
sg56
(lp2195
g49
(g70
g51
NtRp2196
(dp2197
g54
(dp2198
g74
g75
ssg63
g2192
sg56
(lp2199
g1565
asbag49
(g70
g51
NtRp2200
(dp2201
g54
(dp2202
g81
g82
ssg63
g2192
sg56
(lp2203
S':'
asbag49
(g70
g51
NtRp2204
(dp2205
g54
(dp2206
sg63
g2192
sg56
(lp2207
g49
(g50
g51
NtRp2208
(dp2209
g54
(dp2210
g62
I4
ssg63
g2204
sg56
(lp2211
g1578
asbasbasbag49
(g65
g51
NtRp2212
(dp2213
g54
(dp2214
sg63
g2001
sg56
(lp2215
g49
(g70
g51
NtRp2216
(dp2217
g54
(dp2218
g74
g75
ssg63
g2212
sg56
(lp2219
g1608
asbag49
(g70
g51
NtRp2220
(dp2221
g54
(dp2222
g81
g82
ssg63
g2212
sg56
(lp2223
S':'
asbag49
(g70
g51
NtRp2224
(dp2225
g54
(dp2226
sg63
g2212
sg56
(lp2227
g49
(g50
g51
NtRp2228
(dp2229
g54
(dp2230
g62
I4
ssg63
g2224
sg56
(lp2231
g49
(g58
g51
NtRp2232
(dp2233
g54
(dp2234
g62
I3
ssg63
Nsg56
(lp2235
g49
(g65
g51
NtRp2236
(dp2237
g54
(dp2238
sg63
g2232
sg56
(lp2239
g49
(g70
g51
NtRp2240
(dp2241
g54
(dp2242
sg63
g2236
sg56
(lp2243
g49
(g50
g51
NtRp2244
(dp2245
g54
(dp2246
g62
I3
ssg63
g2240
sg56
(lp2247
S'1'
asbasbasbag49
(g65
g51
NtRp2248
(dp2249
g54
(dp2250
sg63
g2232
sg56
(lp2251
g49
(g70
g51
NtRp2252
(dp2253
g54
(dp2254
sg63
g2248
sg56
(lp2255
g49
(g50
g51
NtRp2256
(dp2257
g54
(dp2258
g62
I3
ssg63
g2252
sg56
(lp2259
S'99'
p2260
asbasbasbag49
(g65
g51
NtRp2261
(dp2262
g54
(dp2263
sg63
g2232
sg56
(lp2264
g49
(g70
g51
NtRp2265
(dp2266
g54
(dp2267
sg63
g2261
sg56
(lp2268
g49
(g50
g51
NtRp2269
(dp2270
g54
(dp2271
g62
I3
ssg63
g2265
sg56
(lp2272
S'7'
asbasbasbag49
(g65
g51
NtRp2273
(dp2274
g54
(dp2275
sg63
g2232
sg56
(lp2276
g49
(g70
g51
NtRp2277
(dp2278
g54
(dp2279
sg63
g2273
sg56
(lp2280
g49
(g50
g51
NtRp2281
(dp2282
g54
(dp2283
g62
I3
ssg63
g2277
sg56
(lp2284
S'datetime.datetime(2012, 3, 4, 22, 12, 8)'
p2285
asbasbasbag49
(g65
g51
NtRp2286
(dp2287
g54
(dp2288
sg63
g2232
sg56
(lp2289
g49
(g70
g51
NtRp2290
(dp2291
g54
(dp2292
sg63
g2286
sg56
(lp2293
g49
(g50
g51
NtRp2294
(dp2295
g54
(dp2296
g62
I3
ssg63
g2290
sg56
(lp2297
g1687
asbasbasbasbasbasbasbasbasbasbasbag49
(g65
g51
NtRp2298
(dp2299
g54
(dp2300
sg63
g59
sg56
(lp2301
g49
(g70
g51
NtRp2302
(dp2303
g54
(dp2304
g74
g75
ssg63
g2298
sg56
(lp2305
S'is_https'
p2306
asbag49
(g70
g51
NtRp2307
(dp2308
g54
(dp2309
g81
g82
ssg63
g2298
sg56
(lp2310
S':'
asbag49
(g70
g51
NtRp2311
(dp2312
g54
(dp2313
sg63
g2298
sg56
(lp2314
g49
(g50
g51
NtRp2315
(dp2316
g54
(dp2317
g62
I5
ssg63
g2311
sg56
(lp2318
g92
asbasbasbag49
(g65
g51
NtRp2319
(dp2320
g54
(dp2321
sg63
g59
sg56
(lp2322
g49
(g70
g51
NtRp2323
(dp2324
g54
(dp2325
g74
g75
ssg63
g2319
sg56
(lp2326
S'is_local'
p2327
asbag49
(g70
g51
NtRp2328
(dp2329
g54
(dp2330
g81
g82
ssg63
g2319
sg56
(lp2331
S':'
asbag49
(g70
g51
NtRp2332
(dp2333
g54
(dp2334
sg63
g2319
sg56
(lp2335
g49
(g50
g51
NtRp2336
(dp2337
g54
(dp2338
g62
I5
ssg63
g2332
sg56
(lp2339
g1796
asbasbasbag49
(g65
g51
NtRp2340
(dp2341
g54
(dp2342
sg63
g59
sg56
(lp2343
g49
(g70
g51
NtRp2344
(dp2345
g54
(dp2346
g74
g75
ssg63
g2340
sg56
(lp2347
S'is_restful'
p2348
asbag49
(g70
g51
NtRp2349
(dp2350
g54
(dp2351
g81
g82
ssg63
g2340
sg56
(lp2352
S':'
asbag49
(g70
g51
NtRp2353
(dp2354
g54
(dp2355
sg63
g2340
sg56
(lp2356
g49
(g50
g51
NtRp2357
(dp2358
g54
(dp2359
g62
I5
ssg63
g2353
sg56
(lp2360
g92
asbasbasbag49
(g65
g51
NtRp2361
(dp2362
g54
(dp2363
sg63
g59
sg56
(lp2364
g49
(g70
g51
NtRp2365
(dp2366
g54
(dp2367
g74
g75
ssg63
g2361
sg56
(lp2368
S'now'
p2369
asbag49
(g70
g51
NtRp2370
(dp2371
g54
(dp2372
g81
g82
ssg63
g2361
sg56
(lp2373
S':'
asbag49
(g70
g51
NtRp2374
(dp2375
g54
(dp2376
sg63
g2361
sg56
(lp2377
g49
(g50
g51
NtRp2378
(dp2379
g54
(dp2380
g62
I5
ssg63
g2374
sg56
(lp2381
S'datetime.datetime(2012, 11, 10, 12, 11, 34, 855000)'
p2382
asbasbasbag49
(g65
g51
NtRp2383
(dp2384
g54
(dp2385
sg63
g59
sg56
(lp2386
g49
(g70
g51
NtRp2387
(dp2388
g54
(dp2389
g74
g75
ssg63
g2383
sg56
(lp2390
S'post_vars'
p2391
asbag49
(g70
g51
NtRp2392
(dp2393
g54
(dp2394
g81
g82
ssg63
g2383
sg56
(lp2395
S':'
asbag49
(g70
g51
NtRp2396
(dp2397
g54
(dp2398
sg63
g2383
sg56
(lp2399
g49
(g50
g51
NtRp2400
(dp2401
g54
(dp2402
g62
I5
ssg63
g2396
sg56
(lp2403
g49
(g58
g51
NtRp2404
(dp2405
g54
(dp2406
g62
I4
ssg63
Nsg56
(lp2407
sbasbasbasbag49
(g65
g51
NtRp2408
(dp2409
g54
(dp2410
sg63
g59
sg56
(lp2411
g49
(g70
g51
NtRp2412
(dp2413
g54
(dp2414
g74
g75
ssg63
g2408
sg56
(lp2415
S'url'
p2416
asbag49
(g70
g51
NtRp2417
(dp2418
g54
(dp2419
g81
g82
ssg63
g2408
sg56
(lp2420
S':'
asbag49
(g70
g51
NtRp2421
(dp2422
g54
(dp2423
sg63
g2408
sg56
(lp2424
g49
(g50
g51
NtRp2425
(dp2426
g54
(dp2427
g62
I5
ssg63
g2421
sg56
(lp2428
S'/SlugBarter/default/login'
p2429
asbasbasbag49
(g65
g51
NtRp2430
(dp2431
g54
(dp2432
sg63
g59
sg56
(lp2433
g49
(g70
g51
NtRp2434
(dp2435
g54
(dp2436
g74
g75
ssg63
g2430
sg56
(lp2437
S'utcnow'
p2438
asbag49
(g70
g51
NtRp2439
(dp2440
g54
(dp2441
g81
g82
ssg63
g2430
sg56
(lp2442
S':'
asbag49
(g70
g51
NtRp2443
(dp2444
g54
(dp2445
sg63
g2430
sg56
(lp2446
g49
(g50
g51
NtRp2447
(dp2448
g54
(dp2449
g62
I5
ssg63
g2443
sg56
(lp2450
S'datetime.datetime(2012, 11, 10, 20, 11, 34, 855000)'
p2451
asbasbasbag49
(g65
g51
NtRp2452
(dp2453
g54
(dp2454
sg63
g59
sg56
(lp2455
g49
(g70
g51
NtRp2456
(dp2457
g54
(dp2458
g74
g75
ssg63
g2452
sg56
(lp2459
S'uuid'
p2460
asbag49
(g70
g51
NtRp2461
(dp2462
g54
(dp2463
g81
g82
ssg63
g2452
sg56
(lp2464
S':'
asbag49
(g70
g51
NtRp2465
(dp2466
g54
(dp2467
sg63
g2452
sg56
(lp2468
g49
(g50
g51
NtRp2469
(dp2470
g54
(dp2471
g62
I5
ssg63
g2465
sg56
(lp2472
S'SlugBarter/127.0.0.1.2012-11-10.12-11-34.4a1a7eb9-c962-4ff3-93fa-712a96181fb3'
p2473
asbasbasbag49
(g65
g51
NtRp2474
(dp2475
g54
(dp2476
sg63
g59
sg56
(lp2477
g49
(g70
g51
NtRp2478
(dp2479
g54
(dp2480
g74
g75
ssg63
g2474
sg56
(lp2481
S'vars'
p2482
asbag49
(g70
g51
NtRp2483
(dp2484
g54
(dp2485
g81
g82
ssg63
g2474
sg56
(lp2486
S':'
asbag49
(g70
g51
NtRp2487
(dp2488
g54
(dp2489
sg63
g2474
sg56
(lp2490
g49
(g50
g51
NtRp2491
(dp2492
g54
(dp2493
g62
I5
ssg63
g2487
sg56
(lp2494
g49
(g58
g51
NtRp2495
(dp2496
g54
(dp2497
g62
I4
ssg63
Nsg56
(lp2498
sbasbasbasbag49
(g65
g51
NtRp2499
(dp2500
g54
(dp2501
sg63
g59
sg56
(lp2502
g49
(g70
g51
NtRp2503
(dp2504
g54
(dp2505
g74
g75
ssg63
g2499
sg56
(lp2506
S'wsgi'
p2507
asbag49
(g70
g51
NtRp2508
(dp2509
g54
(dp2510
g81
g82
ssg63
g2499
sg56
(lp2511
S':'
asbag49
(g70
g51
NtRp2512
(dp2513
g54
(dp2514
sg63
g2499
sg56
(lp2515
g49
(g50
g51
NtRp2516
(dp2517
g54
(dp2518
g62
I5
ssg63
g2512
sg56
(lp2519
g49
(g58
g51
NtRp2520
(dp2521
g54
(dp2522
g62
I4
ssg63
Nsg56
(lp2523
g49
(g65
g51
NtRp2524
(dp2525
g54
(dp2526
sg63
g2520
sg56
(lp2527
g49
(g70
g51
NtRp2528
(dp2529
g54
(dp2530
g74
g75
ssg63
g2524
sg56
(lp2531
S'environ'
p2532
asbag49
(g70
g51
NtRp2533
(dp2534
g54
(dp2535
g81
g82
ssg63
g2524
sg56
(lp2536
S':'
asbag49
(g70
g51
NtRp2537
(dp2538
g54
(dp2539
sg63
g2524
sg56
(lp2540
g49
(g50
g51
NtRp2541
(dp2542
g54
(dp2543
g62
I4
ssg63
g2537
sg56
(lp2544
g49
(g58
g51
NtRp2545
(dp2546
g54
(dp2547
g62
I3
ssg63
Nsg56
(lp2548
g49
(g65
g51
NtRp2549
(dp2550
g54
(dp2551
sg63
g2545
sg56
(lp2552
g49
(g70
g51
NtRp2553
(dp2554
g54
(dp2555
g74
g75
ssg63
g2549
sg56
(lp2556
S'HTTP_ACCEPT'
p2557
asbag49
(g70
g51
NtRp2558
(dp2559
g54
(dp2560
g81
g82
ssg63
g2549
sg56
(lp2561
S':'
asbag49
(g70
g51
NtRp2562
(dp2563
g54
(dp2564
sg63
g2549
sg56
(lp2565
g49
(g50
g51
NtRp2566
(dp2567
g54
(dp2568
g62
I3
ssg63
g2562
sg56
(lp2569
g1099
asbasbasbag49
(g65
g51
NtRp2570
(dp2571
g54
(dp2572
sg63
g2545
sg56
(lp2573
g49
(g70
g51
NtRp2574
(dp2575
g54
(dp2576
g74
g75
ssg63
g2570
sg56
(lp2577
S'HTTP_ACCEPT_CHARSET'
p2578
asbag49
(g70
g51
NtRp2579
(dp2580
g54
(dp2581
g81
g82
ssg63
g2570
sg56
(lp2582
S':'
asbag49
(g70
g51
NtRp2583
(dp2584
g54
(dp2585
sg63
g2570
sg56
(lp2586
g49
(g50
g51
NtRp2587
(dp2588
g54
(dp2589
g62
I3
ssg63
g2583
sg56
(lp2590
g1121
asbasbasbag49
(g65
g51
NtRp2591
(dp2592
g54
(dp2593
sg63
g2545
sg56
(lp2594
g49
(g70
g51
NtRp2595
(dp2596
g54
(dp2597
g74
g75
ssg63
g2591
sg56
(lp2598
S'HTTP_ACCEPT_ENCODING'
p2599
asbag49
(g70
g51
NtRp2600
(dp2601
g54
(dp2602
g81
g82
ssg63
g2591
sg56
(lp2603
S':'
asbag49
(g70
g51
NtRp2604
(dp2605
g54
(dp2606
sg63
g2591
sg56
(lp2607
g49
(g50
g51
NtRp2608
(dp2609
g54
(dp2610
g62
I3
ssg63
g2604
sg56
(lp2611
g1143
asbasbasbag49
(g65
g51
NtRp2612
(dp2613
g54
(dp2614
sg63
g2545
sg56
(lp2615
g49
(g70
g51
NtRp2616
(dp2617
g54
(dp2618
g74
g75
ssg63
g2612
sg56
(lp2619
S'HTTP_ACCEPT_LANGUAGE'
p2620
asbag49
(g70
g51
NtRp2621
(dp2622
g54
(dp2623
g81
g82
ssg63
g2612
sg56
(lp2624
S':'
asbag49
(g70
g51
NtRp2625
(dp2626
g54
(dp2627
sg63
g2612
sg56
(lp2628
g49
(g50
g51
NtRp2629
(dp2630
g54
(dp2631
g62
I3
ssg63
g2625
sg56
(lp2632
g1165
asbasbasbag49
(g65
g51
NtRp2633
(dp2634
g54
(dp2635
sg63
g2545
sg56
(lp2636
g49
(g70
g51
NtRp2637
(dp2638
g54
(dp2639
g74
g75
ssg63
g2633
sg56
(lp2640
S'HTTP_CACHE_CONTROL'
p2641
asbag49
(g70
g51
NtRp2642
(dp2643
g54
(dp2644
g81
g82
ssg63
g2633
sg56
(lp2645
S':'
asbag49
(g70
g51
NtRp2646
(dp2647
g54
(dp2648
sg63
g2633
sg56
(lp2649
g49
(g50
g51
NtRp2650
(dp2651
g54
(dp2652
g62
I3
ssg63
g2646
sg56
(lp2653
g1187
asbasbasbag49
(g65
g51
NtRp2654
(dp2655
g54
(dp2656
sg63
g2545
sg56
(lp2657
g49
(g70
g51
NtRp2658
(dp2659
g54
(dp2660
g74
g75
ssg63
g2654
sg56
(lp2661
S'HTTP_CONNECTION'
p2662
asbag49
(g70
g51
NtRp2663
(dp2664
g54
(dp2665
g81
g82
ssg63
g2654
sg56
(lp2666
S':'
asbag49
(g70
g51
NtRp2667
(dp2668
g54
(dp2669
sg63
g2654
sg56
(lp2670
g49
(g50
g51
NtRp2671
(dp2672
g54
(dp2673
g62
I3
ssg63
g2667
sg56
(lp2674
g1209
asbasbasbag49
(g65
g51
NtRp2675
(dp2676
g54
(dp2677
sg63
g2545
sg56
(lp2678
g49
(g70
g51
NtRp2679
(dp2680
g54
(dp2681
g74
g75
ssg63
g2675
sg56
(lp2682
S'HTTP_COOKIE'
p2683
asbag49
(g70
g51
NtRp2684
(dp2685
g54
(dp2686
g81
g82
ssg63
g2675
sg56
(lp2687
S':'
asbag49
(g70
g51
NtRp2688
(dp2689
g54
(dp2690
sg63
g2675
sg56
(lp2691
g49
(g50
g51
NtRp2692
(dp2693
g54
(dp2694
g62
I3
ssg63
g2688
sg56
(lp2695
g1231
asbasbasbag49
(g65
g51
NtRp2696
(dp2697
g54
(dp2698
sg63
g2545
sg56
(lp2699
g49
(g70
g51
NtRp2700
(dp2701
g54
(dp2702
g74
g75
ssg63
g2696
sg56
(lp2703
S'HTTP_HOST'
p2704
asbag49
(g70
g51
NtRp2705
(dp2706
g54
(dp2707
g81
g82
ssg63
g2696
sg56
(lp2708
S':'
asbag49
(g70
g51
NtRp2709
(dp2710
g54
(dp2711
sg63
g2696
sg56
(lp2712
g49
(g50
g51
NtRp2713
(dp2714
g54
(dp2715
g62
I3
ssg63
g2709
sg56
(lp2716
g1253
asbasbasbag49
(g65
g51
NtRp2717
(dp2718
g54
(dp2719
sg63
g2545
sg56
(lp2720
g49
(g70
g51
NtRp2721
(dp2722
g54
(dp2723
g74
g75
ssg63
g2717
sg56
(lp2724
S'HTTP_REFERER'
p2725
asbag49
(g70
g51
NtRp2726
(dp2727
g54
(dp2728
g81
g82
ssg63
g2717
sg56
(lp2729
S':'
asbag49
(g70
g51
NtRp2730
(dp2731
g54
(dp2732
sg63
g2717
sg56
(lp2733
g49
(g50
g51
NtRp2734
(dp2735
g54
(dp2736
g62
I3
ssg63
g2730
sg56
(lp2737
g1275
asbasbasbag49
(g65
g51
NtRp2738
(dp2739
g54
(dp2740
sg63
g2545
sg56
(lp2741
g49
(g70
g51
NtRp2742
(dp2743
g54
(dp2744
g74
g75
ssg63
g2738
sg56
(lp2745
S'HTTP_USER_AGENT'
p2746
asbag49
(g70
g51
NtRp2747
(dp2748
g54
(dp2749
g81
g82
ssg63
g2738
sg56
(lp2750
S':'
asbag49
(g70
g51
NtRp2751
(dp2752
g54
(dp2753
sg63
g2738
sg56
(lp2754
g49
(g50
g51
NtRp2755
(dp2756
g54
(dp2757
g62
I3
ssg63
g2751
sg56
(lp2758
g1297
asbasbasbag49
(g65
g51
NtRp2759
(dp2760
g54
(dp2761
sg63
g2545
sg56
(lp2762
g49
(g70
g51
NtRp2763
(dp2764
g54
(dp2765
g74
g75
ssg63
g2759
sg56
(lp2766
S'PATH_INFO'
p2767
asbag49
(g70
g51
NtRp2768
(dp2769
g54
(dp2770
g81
g82
ssg63
g2759
sg56
(lp2771
S':'
asbag49
(g70
g51
NtRp2772
(dp2773
g54
(dp2774
sg63
g2759
sg56
(lp2775
g49
(g50
g51
NtRp2776
(dp2777
g54
(dp2778
g62
I3
ssg63
g2772
sg56
(lp2779
g1361
asbasbasbag49
(g65
g51
NtRp2780
(dp2781
g54
(dp2782
sg63
g2545
sg56
(lp2783
g49
(g70
g51
NtRp2784
(dp2785
g54
(dp2786
g74
g75
ssg63
g2780
sg56
(lp2787
S'QUERY_STRING'
p2788
asbag49
(g70
g51
NtRp2789
(dp2790
g54
(dp2791
g81
g82
ssg63
g2780
sg56
(lp2792
S':'
asbag49
(g70
g51
NtRp2793
(dp2794
g54
(dp2795
sg63
g2780
sg56
(lp2796
g49
(g50
g51
NtRp2797
(dp2798
g54
(dp2799
g62
I3
ssg63
g2793
sg56
(lp2800
S''
asbasbasbag49
(g65
g51
NtRp2801
(dp2802
g54
(dp2803
sg63
g2545
sg56
(lp2804
g49
(g70
g51
NtRp2805
(dp2806
g54
(dp2807
g74
g75
ssg63
g2801
sg56
(lp2808
S'REMOTE_ADDR'
p2809
asbag49
(g70
g51
NtRp2810
(dp2811
g54
(dp2812
g81
g82
ssg63
g2801
sg56
(lp2813
S':'
asbag49
(g70
g51
NtRp2814
(dp2815
g54
(dp2816
sg63
g2801
sg56
(lp2817
g49
(g50
g51
NtRp2818
(dp2819
g54
(dp2820
g62
I3
ssg63
g2814
sg56
(lp2821
g182
asbasbasbag49
(g65
g51
NtRp2822
(dp2823
g54
(dp2824
sg63
g2545
sg56
(lp2825
g49
(g70
g51
NtRp2826
(dp2827
g54
(dp2828
g74
g75
ssg63
g2822
sg56
(lp2829
S'REMOTE_PORT'
p2830
asbag49
(g70
g51
NtRp2831
(dp2832
g54
(dp2833
g81
g82
ssg63
g2822
sg56
(lp2834
S':'
asbag49
(g70
g51
NtRp2835
(dp2836
g54
(dp2837
sg63
g2822
sg56
(lp2838
g49
(g50
g51
NtRp2839
(dp2840
g54
(dp2841
g62
I3
ssg63
g2835
sg56
(lp2842
g1425
asbasbasbag49
(g65
g51
NtRp2843
(dp2844
g54
(dp2845
sg63
g2545
sg56
(lp2846
g49
(g70
g51
NtRp2847
(dp2848
g54
(dp2849
g74
g75
ssg63
g2843
sg56
(lp2850
S'REQUEST_METHOD'
p2851
asbag49
(g70
g51
NtRp2852
(dp2853
g54
(dp2854
g81
g82
ssg63
g2843
sg56
(lp2855
S':'
asbag49
(g70
g51
NtRp2856
(dp2857
g54
(dp2858
sg63
g2843
sg56
(lp2859
g49
(g50
g51
NtRp2860
(dp2861
g54
(dp2862
g62
I3
ssg63
g2856
sg56
(lp2863
g1447
asbasbasbag49
(g65
g51
NtRp2864
(dp2865
g54
(dp2866
sg63
g2545
sg56
(lp2867
g49
(g70
g51
NtRp2868
(dp2869
g54
(dp2870
g74
g75
ssg63
g2864
sg56
(lp2871
S'SCRIPT_NAME'
p2872
asbag49
(g70
g51
NtRp2873
(dp2874
g54
(dp2875
g81
g82
ssg63
g2864
sg56
(lp2876
S':'
asbag49
(g70
g51
NtRp2877
(dp2878
g54
(dp2879
sg63
g2864
sg56
(lp2880
g49
(g50
g51
NtRp2881
(dp2882
g54
(dp2883
g62
I3
ssg63
g2877
sg56
(lp2884
S''
asbasbasbag49
(g65
g51
NtRp2885
(dp2886
g54
(dp2887
sg63
g2545
sg56
(lp2888
g49
(g70
g51
NtRp2889
(dp2890
g54
(dp2891
g74
g75
ssg63
g2885
sg56
(lp2892
S'SERVER_NAME'
p2893
asbag49
(g70
g51
NtRp2894
(dp2895
g54
(dp2896
g81
g82
ssg63
g2885
sg56
(lp2897
S':'
asbag49
(g70
g51
NtRp2898
(dp2899
g54
(dp2900
sg63
g2885
sg56
(lp2901
g49
(g50
g51
NtRp2902
(dp2903
g54
(dp2904
g62
I3
ssg63
g2898
sg56
(lp2905
g1490
asbasbasbag49
(g65
g51
NtRp2906
(dp2907
g54
(dp2908
sg63
g2545
sg56
(lp2909
g49
(g70
g51
NtRp2910
(dp2911
g54
(dp2912
g74
g75
ssg63
g2906
sg56
(lp2913
S'SERVER_PORT'
p2914
asbag49
(g70
g51
NtRp2915
(dp2916
g54
(dp2917
g81
g82
ssg63
g2906
sg56
(lp2918
S':'
asbag49
(g70
g51
NtRp2919
(dp2920
g54
(dp2921
sg63
g2906
sg56
(lp2922
g49
(g50
g51
NtRp2923
(dp2924
g54
(dp2925
g62
I3
ssg63
g2919
sg56
(lp2926
g1512
asbasbasbag49
(g65
g51
NtRp2927
(dp2928
g54
(dp2929
sg63
g2545
sg56
(lp2930
g49
(g70
g51
NtRp2931
(dp2932
g54
(dp2933
g74
g75
ssg63
g2927
sg56
(lp2934
S'SERVER_PROTOCOL'
p2935
asbag49
(g70
g51
NtRp2936
(dp2937
g54
(dp2938
g81
g82
ssg63
g2927
sg56
(lp2939
S':'
asbag49
(g70
g51
NtRp2940
(dp2941
g54
(dp2942
sg63
g2927
sg56
(lp2943
g49
(g50
g51
NtRp2944
(dp2945
g54
(dp2946
g62
I3
ssg63
g2940
sg56
(lp2947
g1534
asbasbasbag49
(g65
g51
NtRp2948
(dp2949
g54
(dp2950
sg63
g2545
sg56
(lp2951
g49
(g70
g51
NtRp2952
(dp2953
g54
(dp2954
g74
g75
ssg63
g2948
sg56
(lp2955
S'SERVER_SOFTWARE'
p2956
asbag49
(g70
g51
NtRp2957
(dp2958
g54
(dp2959
g81
g82
ssg63
g2948
sg56
(lp2960
S':'
asbag49
(g70
g51
NtRp2961
(dp2962
g54
(dp2963
sg63
g2948
sg56
(lp2964
g49
(g50
g51
NtRp2965
(dp2966
g54
(dp2967
g62
I3
ssg63
g2961
sg56
(lp2968
g1556
asbasbasbag49
(g65
g51
NtRp2969
(dp2970
g54
(dp2971
sg63
g2545
sg56
(lp2972
g49
(g70
g51
NtRp2973
(dp2974
g54
(dp2975
g74
g75
ssg63
g2969
sg56
(lp2976
S'wsgi.errors'
p2977
asbag49
(g70
g51
NtRp2978
(dp2979
g54
(dp2980
g81
g82
ssg63
g2969
sg56
(lp2981
S':'
asbag49
(g70
g51
NtRp2982
(dp2983
g54
(dp2984
sg63
g2969
sg56
(lp2985
g49
(g50
g51
NtRp2986
(dp2987
g54
(dp2988
g62
I3
ssg63
g2982
sg56
(lp2989
S'<__main__.Stderr object at 0x01667670>'
p2990
asbasbasbag49
(g65
g51
NtRp2991
(dp2992
g54
(dp2993
sg63
g2545
sg56
(lp2994
g49
(g70
g51
NtRp2995
(dp2996
g54
(dp2997
g74
g75
ssg63
g2991
sg56
(lp2998
S'wsgi.file_wrapper'
p2999
asbag49
(g70
g51
NtRp3000
(dp3001
g54
(dp3002
g81
g82
ssg63
g2991
sg56
(lp3003
S':'
asbag49
(g70
g51
NtRp3004
(dp3005
g54
(dp3006
sg63
g2991
sg56
(lp3007
g49
(g50
g51
NtRp3008
(dp3009
g54
(dp3010
g62
I3
ssg63
g3004
sg56
(lp3011
S'<class wsgiref.util.FileWrapper at 0x02532210>'
p3012
asbasbasbag49
(g65
g51
NtRp3013
(dp3014
g54
(dp3015
sg63
g2545
sg56
(lp3016
g49
(g70
g51
NtRp3017
(dp3018
g54
(dp3019
g74
g75
ssg63
g3013
sg56
(lp3020
S'wsgi.input'
p3021
asbag49
(g70
g51
NtRp3022
(dp3023
g54
(dp3024
g81
g82
ssg63
g3013
sg56
(lp3025
S':'
asbag49
(g70
g51
NtRp3026
(dp3027
g54
(dp3028
sg63
g3013
sg56
(lp3029
g49
(g50
g51
NtRp3030
(dp3031
g54
(dp3032
g62
I3
ssg63
g3026
sg56
(lp3033
S'<cStringIO.StringO object at 0x05DCB7E0>'
p3034
asbasbasbag49
(g65
g51
NtRp3035
(dp3036
g54
(dp3037
sg63
g2545
sg56
(lp3038
g49
(g70
g51
NtRp3039
(dp3040
g54
(dp3041
g74
g75
ssg63
g3035
sg56
(lp3042
S'wsgi.multiprocess'
p3043
asbag49
(g70
g51
NtRp3044
(dp3045
g54
(dp3046
g81
g82
ssg63
g3035
sg56
(lp3047
S':'
asbag49
(g70
g51
NtRp3048
(dp3049
g54
(dp3050
sg63
g3035
sg56
(lp3051
g49
(g50
g51
NtRp3052
(dp3053
g54
(dp3054
g62
I3
ssg63
g3048
sg56
(lp3055
g92
asbasbasbag49
(g65
g51
NtRp3056
(dp3057
g54
(dp3058
sg63
g2545
sg56
(lp3059
g49
(g70
g51
NtRp3060
(dp3061
g54
(dp3062
g74
g75
ssg63
g3056
sg56
(lp3063
S'wsgi.multithread'
p3064
asbag49
(g70
g51
NtRp3065
(dp3066
g54
(dp3067
g81
g82
ssg63
g3056
sg56
(lp3068
S':'
asbag49
(g70
g51
NtRp3069
(dp3070
g54
(dp3071
sg63
g3056
sg56
(lp3072
g49
(g50
g51
NtRp3073
(dp3074
g54
(dp3075
g62
I3
ssg63
g3069
sg56
(lp3076
g1796
asbasbasbag49
(g65
g51
NtRp3077
(dp3078
g54
(dp3079
sg63
g2545
sg56
(lp3080
g49
(g70
g51
NtRp3081
(dp3082
g54
(dp3083
g74
g75
ssg63
g3077
sg56
(lp3084
S'wsgi.run_once'
p3085
asbag49
(g70
g51
NtRp3086
(dp3087
g54
(dp3088
g81
g82
ssg63
g3077
sg56
(lp3089
S':'
asbag49
(g70
g51
NtRp3090
(dp3091
g54
(dp3092
sg63
g3077
sg56
(lp3093
g49
(g50
g51
NtRp3094
(dp3095
g54
(dp3096
g62
I3
ssg63
g3090
sg56
(lp3097
g92
asbasbasbag49
(g65
g51
NtRp3098
(dp3099
g54
(dp3100
sg63
g2545
sg56
(lp3101
g49
(g70
g51
NtRp3102
(dp3103
g54
(dp3104
g74
g75
ssg63
g3098
sg56
(lp3105
S'wsgi.url_scheme'
p3106
asbag49
(g70
g51
NtRp3107
(dp3108
g54
(dp3109
g81
g82
ssg63
g3098
sg56
(lp3110
S':'
asbag49
(g70
g51
NtRp3111
(dp3112
g54
(dp3113
sg63
g3098
sg56
(lp3114
g49
(g50
g51
NtRp3115
(dp3116
g54
(dp3117
g62
I3
ssg63
g3111
sg56
(lp3118
g1839
asbasbasbag49
(g65
g51
NtRp3119
(dp3120
g54
(dp3121
sg63
g2545
sg56
(lp3122
g49
(g70
g51
NtRp3123
(dp3124
g54
(dp3125
g74
g75
ssg63
g3119
sg56
(lp3126
S'wsgi.version'
p3127
asbag49
(g70
g51
NtRp3128
(dp3129
g54
(dp3130
g81
g82
ssg63
g3119
sg56
(lp3131
S':'
asbag49
(g70
g51
NtRp3132
(dp3133
g54
(dp3134
sg63
g3119
sg56
(lp3135
g49
(g50
g51
NtRp3136
(dp3137
g54
(dp3138
g62
I3
ssg63
g3132
sg56
(lp3139
S'1'
asbasbasbasbasbasbasbasbasbasbasbasbasbsS'frames'
p3140
(lp3141
(dp3142
S'file'
p3143
S'C:\\Users\\omkara\\Desktop\\web2py\\gluon\\restricted.py'
p3144
sS'dump'
p3145
(dp3146
sS'lnum'
p3147
I205
sS'lines'
p3148
(dp3149
sS'call'
p3150
S"(code='# -*- coding: utf-8 -*-\\n# this file is released ...=crud())\\n\\nresponse._vars=response._caller(login)\\n', environment={'A': <class 'gluon.html.A'>, 'Auth': <class 'gluon.tools.Auth'>, 'B': <class 'gluon.html.B'>, 'BEAUTIFY': <class 'gluon.html.BEAUTIFY'>, 'BODY': <class 'gluon.html.BODY'>, 'BR': <class 'gluon.html.BR'>, 'BUTTON': <class 'gluon.html.BUTTON'>, 'CAT': <class 'gluon.html.CAT'>, 'CENTER': <class 'gluon.html.CENTER'>, 'CLEANUP': <class 'gluon.validators.CLEANUP'>, ...}, layer=r'C:\\Users\\omkara\\Desktop\\web2py\\applications\\SlugBarter\\controllers/default.py')"
p3151
sS'func'
p3152
S'restricted'
p3153
sa(dp3154
g3143
S'C:\\Users\\omkara\\Desktop\\web2py\\applications\\SlugBarter\\controllers\\default.py'
p3155
sg3145
(dp3156
sg3147
I77
sg3148
(dp3157
I66
S'    http://..../[app]/default/data/update/[table]/[id]'
p3158
sI67
S'    http://..../[app]/default/data/delete/[table]/[id]'
p3159
sI68
S'    http://..../[app]/default/data/select/[table]'
p3160
sI69
S'    http://..../[app]/default/data/search/[table]'
p3161
sI70
S'    but URLs must be signed, i.e. linked with'
p3162
sI71
S"      A('table',_href=URL('data/tables',user_signature=True))"
p3163
sI72
S'    or with the signed load operator'
p3164
sI73
S"      LOAD('default','data.load',args='tables',ajax=True,user_signature=True)"
p3165
sI74
S'    """'
p3166
sI75
S'    return dict(form=crud())'
p3167
ssg3150
S'()'
p3168
sg3152
S'<module>'
p3169
sa(dp3170
g3143
S'C:\\Users\\omkara\\Desktop\\web2py\\gluon\\globals.py'
p3171
sg3145
(dp3172
sg3147
I173
sg3148
(dp3173
sg3150
S'(f=<function login at 0x06299230>)'
p3174
sg3152
S'<lambda>'
p3175
sa(dp3176
g3143
S'C:\\Users\\omkara\\Desktop\\web2py\\applications\\SlugBarter\\controllers\\default.py'
p3177
sg3145
(dp3178
sg3147
I22
sg3148
(dp3179
I17
S'def register():'
p3180
sI18
S'     return dict(form = auth.register())'
p3181
sI19
S''
sI20
S'#controller for when the user login'
p3182
sI21
S'def login():'
p3183
sI22
S'  form = auth.login()'
p3184
sI23
S'  return dict(form = form)'
p3185
sI24
S''
sI25
S'def user():'
p3186
sI26
S'    """'
p3187
ssg3150
S'()'
p3188
sg3152
S'login'
p3189
sa(dp3190
g3143
S'C:\\Users\\omkara\\Desktop\\web2py\\gluon\\tools.py'
p3191
sg3145
(dp3192
sg3147
I1656
sg3148
(dp3193
sg3150
S'(self=<gluon.tools.Auth object at 0x05E098D0>, next=<function <lambda> at 0x0294F1B0>, onvalidation=<function <lambda> at 0x0294F1B0>, onaccept=<function <lambda> at 0x0294F1B0>, log=<function <lambda> at 0x0294F1B0>)'
p3194
sg3152
g3189
sa(dp3195
g3143
S'C:\\Users\\omkara\\Desktop\\web2py\\gluon\\dal.py'
p3196
sg3145
(dp3197
sg3147
I6714
sg3148
(dp3198
sg3150
S"(self=<Table {'last_name': <gluon.dal.Field object at ...on_key': <gluon.dal.Field object at 0x05CB6610>}>, key='username')"
p3199
sg3152
g20
sasS'pyver'
p3200
S'Python 2.5.4: C:\\Users\\omkara\\Desktop\\web2py\\web2py_no_console.exe'
p3201
sS'session'
p3202
g49
(g50
g51
NtRp3203
(dp3204
g54
(dp3205
sg56
(lp3206
g49
(g58
g51
NtRp3207
(dp3208
g54
(dp3209
g62
I5
ssg63
Nsg56
(lp3210
g49
(g65
g51
NtRp3211
(dp3212
g54
(dp3213
sg63
g3207
sg56
(lp3214
g49
(g70
g51
NtRp3215
(dp3216
g54
(dp3217
g74
g75
ssg63
g3211
sg56
(lp3218
S'last_query'
p3219
asbag49
(g70
g51
NtRp3220
(dp3221
g54
(dp3222
g81
g82
ssg63
g3211
sg56
(lp3223
S':'
asbag49
(g70
g51
NtRp3224
(dp3225
g54
(dp3226
sg63
g3211
sg56
(lp3227
g49
(g50
g51
NtRp3228
(dp3229
g54
(dp3230
g62
I5
ssg63
g3224
sg56
(lp3231
S'db.auth_user.id>0'
p3232
asbasbasbasbasbsS'etype'
p3233
S"<type 'exceptions.KeyError'>"
p3234
sS'date'
p3235
S'Sat Nov 10 12:11:34 2012'
p3236
sS'response'
p3237
g49
(g50
g51
NtRp3238
(dp3239
g54
(dp3240
sg56
(lp3241
g49
(g58
g51
NtRp3242
(dp3243
g54
(dp3244
g62
I5
ssg63
Nsg56
(lp3245
g49
(g65
g51
NtRp3246
(dp3247
g54
(dp3248
sg63
g3242
sg56
(lp3249
g49
(g70
g51
NtRp3250
(dp3251
g54
(dp3252
g74
g75
ssg63
g3246
sg56
(lp3253
g147
asbag49
(g70
g51
NtRp3254
(dp3255
g54
(dp3256
g81
g82
ssg63
g3246
sg56
(lp3257
S':'
asbag49
(g70
g51
NtRp3258
(dp3259
g54
(dp3260
sg63
g3246
sg56
(lp3261
g49
(g50
g51
NtRp3262
(dp3263
g54
(dp3264
g62
I5
ssg63
g3258
sg56
(lp3265
S'<cStringIO.StringO object at 0x05D71680>'
p3266
asbasbasbag49
(g65
g51
NtRp3267
(dp3268
g54
(dp3269
sg63
g3242
sg56
(lp3270
g49
(g70
g51
NtRp3271
(dp3272
g54
(dp3273
g74
g75
ssg63
g3267
sg56
(lp3274
g213
asbag49
(g70
g51
NtRp3275
(dp3276
g54
(dp3277
g81
g82
ssg63
g3267
sg56
(lp3278
S':'
asbag49
(g70
g51
NtRp3279
(dp3280
g54
(dp3281
sg63
g3267
sg56
(lp3282
g49
(g50
g51
NtRp3283
(dp3284
g54
(dp3285
g62
I5
ssg63
g3279
sg56
(lp3286
g49
(g58
g51
NtRp3287
(dp3288
g54
(dp3289
g62
I4
ssg63
Nsg56
(lp3290
g49
(g65
g51
NtRp3291
(dp3292
g54
(dp3293
sg63
g3287
sg56
(lp3294
g49
(g70
g51
NtRp3295
(dp3296
g54
(dp3297
g74
g75
ssg63
g3291
sg56
(lp3298
S'session_id_slugbarter'
p3299
asbag49
(g70
g51
NtRp3300
(dp3301
g54
(dp3302
g81
g82
ssg63
g3291
sg56
(lp3303
S':'
asbag49
(g70
g51
NtRp3304
(dp3305
g54
(dp3306
sg63
g3291
sg56
(lp3307
g49
(g50
g51
NtRp3308
(dp3309
g54
(dp3310
g62
I4
ssg63
g3304
sg56
(lp3311
g49
(g58
g51
NtRp3312
(dp3313
g54
(dp3314
g62
I3
ssg63
Nsg56
(lp3315
g49
(g65
g51
NtRp3316
(dp3317
g54
(dp3318
sg63
g3312
sg56
(lp3319
g49
(g70
g51
NtRp3320
(dp3321
g54
(dp3322
g74
g75
ssg63
g3316
sg56
(lp3323
g263
asbag49
(g70
g51
NtRp3324
(dp3325
g54
(dp3326
g81
g82
ssg63
g3316
sg56
(lp3327
S':'
asbag49
(g70
g51
NtRp3328
(dp3329
g54
(dp3330
sg63
g3316
sg56
(lp3331
g49
(g50
g51
NtRp3332
(dp3333
g54
(dp3334
g62
I3
ssg63
g3328
sg56
(lp3335
S''
asbasbasbag49
(g65
g51
NtRp3336
(dp3337
g54
(dp3338
sg63
g3312
sg56
(lp3339
g49
(g70
g51
NtRp3340
(dp3341
g54
(dp3342
g74
g75
ssg63
g3336
sg56
(lp3343
g284
asbag49
(g70
g51
NtRp3344
(dp3345
g54
(dp3346
g81
g82
ssg63
g3336
sg56
(lp3347
S':'
asbag49
(g70
g51
NtRp3348
(dp3349
g54
(dp3350
sg63
g3336
sg56
(lp3351
g49
(g50
g51
NtRp3352
(dp3353
g54
(dp3354
g62
I3
ssg63
g3348
sg56
(lp3355
S''
asbasbasbag49
(g65
g51
NtRp3356
(dp3357
g54
(dp3358
sg63
g3312
sg56
(lp3359
g49
(g70
g51
NtRp3360
(dp3361
g54
(dp3362
g74
g75
ssg63
g3356
sg56
(lp3363
g305
asbag49
(g70
g51
NtRp3364
(dp3365
g54
(dp3366
g81
g82
ssg63
g3356
sg56
(lp3367
S':'
asbag49
(g70
g51
NtRp3368
(dp3369
g54
(dp3370
sg63
g3356
sg56
(lp3371
g49
(g50
g51
NtRp3372
(dp3373
g54
(dp3374
g62
I3
ssg63
g3368
sg56
(lp3375
S''
asbasbasbag49
(g65
g51
NtRp3376
(dp3377
g54
(dp3378
sg63
g3312
sg56
(lp3379
g49
(g70
g51
NtRp3380
(dp3381
g54
(dp3382
g74
g75
ssg63
g3376
sg56
(lp3383
g326
asbag49
(g70
g51
NtRp3384
(dp3385
g54
(dp3386
g81
g82
ssg63
g3376
sg56
(lp3387
S':'
asbag49
(g70
g51
NtRp3388
(dp3389
g54
(dp3390
sg63
g3376
sg56
(lp3391
g49
(g50
g51
NtRp3392
(dp3393
g54
(dp3394
g62
I3
ssg63
g3388
sg56
(lp3395
S''
asbasbasbag49
(g65
g51
NtRp3396
(dp3397
g54
(dp3398
sg63
g3312
sg56
(lp3399
g49
(g70
g51
NtRp3400
(dp3401
g54
(dp3402
g74
g75
ssg63
g3396
sg56
(lp3403
g347
asbag49
(g70
g51
NtRp3404
(dp3405
g54
(dp3406
g81
g82
ssg63
g3396
sg56
(lp3407
S':'
asbag49
(g70
g51
NtRp3408
(dp3409
g54
(dp3410
sg63
g3396
sg56
(lp3411
g49
(g50
g51
NtRp3412
(dp3413
g54
(dp3414
g62
I3
ssg63
g3408
sg56
(lp3415
S'/'
asbasbasbag49
(g65
g51
NtRp3416
(dp3417
g54
(dp3418
sg63
g3312
sg56
(lp3419
g49
(g70
g51
NtRp3420
(dp3421
g54
(dp3422
g74
g75
ssg63
g3416
sg56
(lp3423
g368
asbag49
(g70
g51
NtRp3424
(dp3425
g54
(dp3426
g81
g82
ssg63
g3416
sg56
(lp3427
S':'
asbag49
(g70
g51
NtRp3428
(dp3429
g54
(dp3430
sg63
g3416
sg56
(lp3431
g49
(g50
g51
NtRp3432
(dp3433
g54
(dp3434
g62
I3
ssg63
g3428
sg56
(lp3435
S''
asbasbasbag49
(g65
g51
NtRp3436
(dp3437
g54
(dp3438
sg63
g3312
sg56
(lp3439
g49
(g70
g51
NtRp3440
(dp3441
g54
(dp3442
g74
g75
ssg63
g3436
sg56
(lp3443
g389
asbag49
(g70
g51
NtRp3444
(dp3445
g54
(dp3446
g81
g82
ssg63
g3436
sg56
(lp3447
S':'
asbag49
(g70
g51
NtRp3448
(dp3449
g54
(dp3450
sg63
g3436
sg56
(lp3451
g49
(g50
g51
NtRp3452
(dp3453
g54
(dp3454
g62
I3
ssg63
g3448
sg56
(lp3455
S''
asbasbasbasbasbasbasbasbasbasbasbag49
(g65
g51
NtRp3456
(dp3457
g54
(dp3458
sg63
g3242
sg56
(lp3459
g49
(g70
g51
NtRp3460
(dp3461
g54
(dp3462
g74
g75
ssg63
g3456
sg56
(lp3463
S'delimiters'
p3464
asbag49
(g70
g51
NtRp3465
(dp3466
g54
(dp3467
g81
g82
ssg63
g3456
sg56
(lp3468
S':'
asbag49
(g70
g51
NtRp3469
(dp3470
g54
(dp3471
sg63
g3456
sg56
(lp3472
g49
(g50
g51
NtRp3473
(dp3474
g54
(dp3475
g62
I5
ssg63
g3469
sg56
(lp3476
g49
(g58
g51
NtRp3477
(dp3478
g54
(dp3479
g62
I4
ssg63
Nsg56
(lp3480
g49
(g65
g51
NtRp3481
(dp3482
g54
(dp3483
sg63
g3477
sg56
(lp3484
g49
(g70
g51
NtRp3485
(dp3486
g54
(dp3487
sg63
g3481
sg56
(lp3488
g49
(g50
g51
NtRp3489
(dp3490
g54
(dp3491
g62
I4
ssg63
g3485
sg56
(lp3492
S'{{'
p3493
asbasbasbag49
(g65
g51
NtRp3494
(dp3495
g54
(dp3496
sg63
g3477
sg56
(lp3497
g49
(g70
g51
NtRp3498
(dp3499
g54
(dp3500
sg63
g3494
sg56
(lp3501
g49
(g50
g51
NtRp3502
(dp3503
g54
(dp3504
g62
I4
ssg63
g3498
sg56
(lp3505
S'}}'
p3506
asbasbasbasbasbasbasbag49
(g65
g51
NtRp3507
(dp3508
g54
(dp3509
sg63
g3242
sg56
(lp3510
g49
(g70
g51
NtRp3511
(dp3512
g54
(dp3513
g74
g75
ssg63
g3507
sg56
(lp3514
S'files'
p3515
asbag49
(g70
g51
NtRp3516
(dp3517
g54
(dp3518
g81
g82
ssg63
g3507
sg56
(lp3519
S':'
asbag49
(g70
g51
NtRp3520
(dp3521
g54
(dp3522
sg63
g3507
sg56
(lp3523
g49
(g50
g51
NtRp3524
(dp3525
g54
(dp3526
g62
I5
ssg63
g3520
sg56
(lp3527
g49
(g58
g51
NtRp3528
(dp3529
g54
(dp3530
g62
I4
ssg63
Nsg56
(lp3531
sbasbasbasbag49
(g65
g51
NtRp3532
(dp3533
g54
(dp3534
sg63
g3242
sg56
(lp3535
g49
(g70
g51
NtRp3536
(dp3537
g54
(dp3538
g74
g75
ssg63
g3532
sg56
(lp3539
S'flash'
p3540
asbag49
(g70
g51
NtRp3541
(dp3542
g54
(dp3543
g81
g82
ssg63
g3532
sg56
(lp3544
S':'
asbag49
(g70
g51
NtRp3545
(dp3546
g54
(dp3547
sg63
g3532
sg56
(lp3548
g49
(g50
g51
NtRp3549
(dp3550
g54
(dp3551
g62
I5
ssg63
g3545
sg56
(lp3552
S''
asbasbasbag49
(g65
g51
NtRp3553
(dp3554
g54
(dp3555
sg63
g3242
sg56
(lp3556
g49
(g70
g51
NtRp3557
(dp3558
g54
(dp3559
g74
g75
ssg63
g3553
sg56
(lp3560
S'generic_patterns'
p3561
asbag49
(g70
g51
NtRp3562
(dp3563
g54
(dp3564
g81
g82
ssg63
g3553
sg56
(lp3565
S':'
asbag49
(g70
g51
NtRp3566
(dp3567
g54
(dp3568
sg63
g3553
sg56
(lp3569
g49
(g50
g51
NtRp3570
(dp3571
g54
(dp3572
g62
I5
ssg63
g3566
sg56
(lp3573
g49
(g58
g51
NtRp3574
(dp3575
g54
(dp3576
g62
I4
ssg63
Nsg56
(lp3577
g49
(g65
g51
NtRp3578
(dp3579
g54
(dp3580
sg63
g3574
sg56
(lp3581
g49
(g70
g51
NtRp3582
(dp3583
g54
(dp3584
sg63
g3578
sg56
(lp3585
g49
(g50
g51
NtRp3586
(dp3587
g54
(dp3588
g62
I4
ssg63
g3582
sg56
(lp3589
S'*'
asbasbasbasbasbasbasbag49
(g65
g51
NtRp3590
(dp3591
g54
(dp3592
sg63
g3242
sg56
(lp3593
g49
(g70
g51
NtRp3594
(dp3595
g54
(dp3596
g74
g75
ssg63
g3590
sg56
(lp3597
S'headers'
p3598
asbag49
(g70
g51
NtRp3599
(dp3600
g54
(dp3601
g81
g82
ssg63
g3590
sg56
(lp3602
S':'
asbag49
(g70
g51
NtRp3603
(dp3604
g54
(dp3605
sg63
g3590
sg56
(lp3606
g49
(g50
g51
NtRp3607
(dp3608
g54
(dp3609
g62
I5
ssg63
g3603
sg56
(lp3610
g49
(g58
g51
NtRp3611
(dp3612
g54
(dp3613
g62
I4
ssg63
Nsg56
(lp3614
g49
(g65
g51
NtRp3615
(dp3616
g54
(dp3617
sg63
g3611
sg56
(lp3618
g49
(g70
g51
NtRp3619
(dp3620
g54
(dp3621
g74
g75
ssg63
g3615
sg56
(lp3622
S'Cache-Control'
p3623
asbag49
(g70
g51
NtRp3624
(dp3625
g54
(dp3626
g81
g82
ssg63
g3615
sg56
(lp3627
S':'
asbag49
(g70
g51
NtRp3628
(dp3629
g54
(dp3630
sg63
g3615
sg56
(lp3631
g49
(g50
g51
NtRp3632
(dp3633
g54
(dp3634
g62
I4
ssg63
g3628
sg56
(lp3635
S'no-store, no-cache, must-revalidate, post-check=0, pre-check=0'
p3636
asbasbasbag49
(g65
g51
NtRp3637
(dp3638
g54
(dp3639
sg63
g3611
sg56
(lp3640
g49
(g70
g51
NtRp3641
(dp3642
g54
(dp3643
g74
g75
ssg63
g3637
sg56
(lp3644
S'Content-Type'
p3645
asbag49
(g70
g51
NtRp3646
(dp3647
g54
(dp3648
g81
g82
ssg63
g3637
sg56
(lp3649
S':'
asbag49
(g70
g51
NtRp3650
(dp3651
g54
(dp3652
sg63
g3637
sg56
(lp3653
g49
(g50
g51
NtRp3654
(dp3655
g54
(dp3656
g62
I4
ssg63
g3650
sg56
(lp3657
S'text/html; charset=utf-8'
p3658
asbasbasbag49
(g65
g51
NtRp3659
(dp3660
g54
(dp3661
sg63
g3611
sg56
(lp3662
g49
(g70
g51
NtRp3663
(dp3664
g54
(dp3665
g74
g75
ssg63
g3659
sg56
(lp3666
S'Expires'
p3667
asbag49
(g70
g51
NtRp3668
(dp3669
g54
(dp3670
g81
g82
ssg63
g3659
sg56
(lp3671
S':'
asbag49
(g70
g51
NtRp3672
(dp3673
g54
(dp3674
sg63
g3659
sg56
(lp3675
g49
(g50
g51
NtRp3676
(dp3677
g54
(dp3678
g62
I4
ssg63
g3672
sg56
(lp3679
S'Sat, 10 Nov 2012 20:11:34 GMT'
p3680
asbasbasbag49
(g65
g51
NtRp3681
(dp3682
g54
(dp3683
sg63
g3611
sg56
(lp3684
g49
(g70
g51
NtRp3685
(dp3686
g54
(dp3687
g74
g75
ssg63
g3681
sg56
(lp3688
S'Pragma'
p3689
asbag49
(g70
g51
NtRp3690
(dp3691
g54
(dp3692
g81
g82
ssg63
g3681
sg56
(lp3693
S':'
asbag49
(g70
g51
NtRp3694
(dp3695
g54
(dp3696
sg63
g3681
sg56
(lp3697
g49
(g50
g51
NtRp3698
(dp3699
g54
(dp3700
g62
I4
ssg63
g3694
sg56
(lp3701
S'no-cache'
p3702
asbasbasbag49
(g65
g51
NtRp3703
(dp3704
g54
(dp3705
sg63
g3611
sg56
(lp3706
g49
(g70
g51
NtRp3707
(dp3708
g54
(dp3709
g74
g75
ssg63
g3703
sg56
(lp3710
S'X-Powered-By'
p3711
asbag49
(g70
g51
NtRp3712
(dp3713
g54
(dp3714
g81
g82
ssg63
g3703
sg56
(lp3715
S':'
asbag49
(g70
g51
NtRp3716
(dp3717
g54
(dp3718
sg63
g3703
sg56
(lp3719
g49
(g50
g51
NtRp3720
(dp3721
g54
(dp3722
g62
I4
ssg63
g3716
sg56
(lp3723
S'web2py'
p3724
asbasbasbasbasbasbasbag49
(g65
g51
NtRp3725
(dp3726
g54
(dp3727
sg63
g3242
sg56
(lp3728
g49
(g70
g51
NtRp3729
(dp3730
g54
(dp3731
g74
g75
ssg63
g3725
sg56
(lp3732
S'menu'
p3733
asbag49
(g70
g51
NtRp3734
(dp3735
g54
(dp3736
g81
g82
ssg63
g3725
sg56
(lp3737
S':'
asbag49
(g70
g51
NtRp3738
(dp3739
g54
(dp3740
sg63
g3725
sg56
(lp3741
g49
(g50
g51
NtRp3742
(dp3743
g54
(dp3744
g62
I5
ssg63
g3738
sg56
(lp3745
g49
(g58
g51
NtRp3746
(dp3747
g54
(dp3748
g62
I4
ssg63
Nsg56
(lp3749
g49
(g65
g51
NtRp3750
(dp3751
g54
(dp3752
sg63
g3746
sg56
(lp3753
g49
(g70
g51
NtRp3754
(dp3755
g54
(dp3756
sg63
g3750
sg56
(lp3757
g49
(g50
g51
NtRp3758
(dp3759
g54
(dp3760
g62
I4
ssg63
g3754
sg56
(lp3761
g49
(g58
g51
NtRp3762
(dp3763
g54
(dp3764
g62
I3
ssg63
Nsg56
(lp3765
g49
(g65
g51
NtRp3766
(dp3767
g54
(dp3768
sg63
g3762
sg56
(lp3769
g49
(g70
g51
NtRp3770
(dp3771
g54
(dp3772
sg63
g3766
sg56
(lp3773
g49
(g50
g51
NtRp3774
(dp3775
g54
(dp3776
g62
I3
ssg63
g3770
sg56
(lp3777
cgluon.languages
lazyT_unpickle
p3778
(S's\x04\x00\x00\x00Home'
tRp3779
asbasbasbag49
(g65
g51
NtRp3780
(dp3781
g54
(dp3782
sg63
g3762
sg56
(lp3783
g49
(g70
g51
NtRp3784
(dp3785
g54
(dp3786
sg63
g3780
sg56
(lp3787
g49
(g50
g51
NtRp3788
(dp3789
g54
(dp3790
g62
I3
ssg63
g3784
sg56
(lp3791
g92
asbasbasbag49
(g65
g51
NtRp3792
(dp3793
g54
(dp3794
sg63
g3762
sg56
(lp3795
g49
(g70
g51
NtRp3796
(dp3797
g54
(dp3798
sg63
g3792
sg56
(lp3799
g49
(g50
g51
NtRp3800
(dp3801
g54
(dp3802
g62
I3
ssg63
g3796
sg56
(lp3803
S'/SlugBarter/default/index'
p3804
asbasbasbag49
(g65
g51
NtRp3805
(dp3806
g54
(dp3807
sg63
g3762
sg56
(lp3808
g49
(g70
g51
NtRp3809
(dp3810
g54
(dp3811
sg63
g3805
sg56
(lp3812
g49
(g50
g51
NtRp3813
(dp3814
g54
(dp3815
g62
I3
ssg63
g3809
sg56
(lp3816
g49
(g58
g51
NtRp3817
(dp3818
g54
(dp3819
g62
I2
ssg63
Nsg56
(lp3820
sbasbasbasbasbasbasbasbag49
(g65
g51
NtRp3821
(dp3822
g54
(dp3823
sg63
g3746
sg56
(lp3824
g49
(g70
g51
NtRp3825
(dp3826
g54
(dp3827
sg63
g3821
sg56
(lp3828
g49
(g50
g51
NtRp3829
(dp3830
g54
(dp3831
g62
I4
ssg63
g3825
sg56
(lp3832
g49
(g58
g51
NtRp3833
(dp3834
g54
(dp3835
g62
I3
ssg63
Nsg56
(lp3836
g49
(g65
g51
NtRp3837
(dp3838
g54
(dp3839
sg63
g3833
sg56
(lp3840
g49
(g70
g51
NtRp3841
(dp3842
g54
(dp3843
sg63
g3837
sg56
(lp3844
g49
(g50
g51
NtRp3845
(dp3846
g54
(dp3847
g62
I3
ssg63
g3841
sg56
(lp3848
g49
(cgluon.html
SPAN
p3849
g51
NtRp3850
(dp3851
g54
(dp3852
g74
S'color:yellow'
p3853
ssg63
Nsg56
(lp3854
g3724
asbasbasbasbag49
(g65
g51
NtRp3855
(dp3856
g54
(dp3857
sg63
g3833
sg56
(lp3858
g49
(g70
g51
NtRp3859
(dp3860
g54
(dp3861
sg63
g3855
sg56
(lp3862
g49
(g50
g51
NtRp3863
(dp3864
g54
(dp3865
g62
I3
ssg63
g3859
sg56
(lp3866
g92
asbasbasbag49
(g65
g51
NtRp3867
(dp3868
g54
(dp3869
sg63
g3833
sg56
(lp3870
g49
(g70
g51
NtRp3871
(dp3872
g54
(dp3873
sg63
g3867
sg56
(lp3874
g49
(g50
g51
NtRp3875
(dp3876
g54
(dp3877
g62
I3
ssg63
g3871
sg56
(lp3878
S'None'
p3879
asbasbasbag49
(g65
g51
NtRp3880
(dp3881
g54
(dp3882
sg63
g3833
sg56
(lp3883
g49
(g70
g51
NtRp3884
(dp3885
g54
(dp3886
sg63
g3880
sg56
(lp3887
g49
(g50
g51
NtRp3888
(dp3889
g54
(dp3890
g62
I3
ssg63
g3884
sg56
(lp3891
g49
(g58
g51
NtRp3892
(dp3893
g54
(dp3894
g62
I2
ssg63
Nsg56
(lp3895
g49
(g65
g51
NtRp3896
(dp3897
g54
(dp3898
sg63
g3892
sg56
(lp3899
g49
(g70
g51
NtRp3900
(dp3901
g54
(dp3902
sg63
g3896
sg56
(lp3903
g49
(g50
g51
NtRp3904
(dp3905
g54
(dp3906
g62
I2
ssg63
g3900
sg56
(lp3907
g49
(g58
g51
NtRp3908
(dp3909
g54
(dp3910
g62
I1
ssg63
Nsg56
(lp3911
g49
(g65
g51
NtRp3912
(dp3913
g54
(dp3914
sg63
g3908
sg56
(lp3915
g49
(g70
g51
NtRp3916
(dp3917
g54
(dp3918
sg63
g3912
sg56
(lp3919
g49
(g50
g51
NtRp3920
(dp3921
g54
(dp3922
g62
I1
ssg63
g3916
sg56
(lp3923
g3778
(S's\x08\x00\x00\x00My Sites'
tRp3924
asbasbasbag49
(g65
g51
NtRp3925
(dp3926
g54
(dp3927
sg63
g3908
sg56
(lp3928
g49
(g70
g51
NtRp3929
(dp3930
g54
(dp3931
sg63
g3925
sg56
(lp3932
g49
(g50
g51
NtRp3933
(dp3934
g54
(dp3935
g62
I1
ssg63
g3929
sg56
(lp3936
I00
asbasbasbag49
(g65
g51
NtRp3937
(dp3938
g54
(dp3939
sg63
g3908
sg56
(lp3940
g49
(g70
g51
NtRp3941
(dp3942
g54
(dp3943
sg63
g3937
sg56
(lp3944
g49
(g50
g51
NtRp3945
(dp3946
g54
(dp3947
g62
I1
ssg63
g3941
sg56
(lp3948
S'/admin/default/site'
p3949
asbasbasbasbasbasbasbag49
(g65
g51
NtRp3950
(dp3951
g54
(dp3952
sg63
g3892
sg56
(lp3953
g49
(g70
g51
NtRp3954
(dp3955
g54
(dp3956
sg63
g3950
sg56
(lp3957
g49
(g50
g51
NtRp3958
(dp3959
g54
(dp3960
g62
I2
ssg63
g3954
sg56
(lp3961
g49
(g58
g51
NtRp3962
(dp3963
g54
(dp3964
g62
I1
ssg63
Nsg56
(lp3965
g49
(g65
g51
NtRp3966
(dp3967
g54
(dp3968
sg63
g3962
sg56
(lp3969
g49
(g70
g51
NtRp3970
(dp3971
g54
(dp3972
sg63
g3966
sg56
(lp3973
g49
(g50
g51
NtRp3974
(dp3975
g54
(dp3976
g62
I1
ssg63
g3970
sg56
(lp3977
g3778
(S's\x08\x00\x00\x00This App'
tRp3978
asbasbasbag49
(g65
g51
NtRp3979
(dp3980
g54
(dp3981
sg63
g3962
sg56
(lp3982
g49
(g70
g51
NtRp3983
(dp3984
g54
(dp3985
sg63
g3979
sg56
(lp3986
g49
(g50
g51
NtRp3987
(dp3988
g54
(dp3989
g62
I1
ssg63
g3983
sg56
(lp3990
I00
asbasbasbag49
(g65
g51
NtRp3991
(dp3992
g54
(dp3993
sg63
g3962
sg56
(lp3994
g49
(g70
g51
NtRp3995
(dp3996
g54
(dp3997
sg63
g3991
sg56
(lp3998
g49
(g50
g51
NtRp3999
(dp4000
g54
(dp4001
g62
I1
ssg63
g3995
sg56
(lp4002
S'/admin/default/design/SlugBarter'
p4003
asbasbasbag49
(g65
g51
NtRp4004
(dp4005
g54
(dp4006
sg63
g3962
sg56
(lp4007
g49
(g70
g51
NtRp4008
(dp4009
g54
(dp4010
sg63
g4004
sg56
(lp4011
g49
(g50
g51
NtRp4012
(dp4013
g54
(dp4014
g62
I1
ssg63
g4008
sg56
(lp4015
(lp4016
(g3778
(S's\n\x00\x00\x00Controller'
tRp4017
I00
S'/admin/default/edit/SlugBarter/controllers/default.py'
tp4018
a(g3778
(S's\x04\x00\x00\x00View'
tRp4019
I00
S'/admin/default/edit/SlugBarter/views/default/login.html'
tp4020
a(g3778
(S's\x06\x00\x00\x00Layout'
tRp4021
I00
S'/admin/default/edit/SlugBarter/views/layout.html'
tp4022
a(g3778
(S's\n\x00\x00\x00Stylesheet'
tRp4023
I00
S'/admin/default/edit/SlugBarter/static/css/web2py.css'
tp4024
a(g3778
(S's\x08\x00\x00\x00DB Model'
tRp4025
I00
S'/admin/default/edit/SlugBarter/models/db.py'
tp4026
a(g3778
(S's\n\x00\x00\x00Menu Model'
tRp4027
I00
S'/admin/default/edit/SlugBarter/models/menu.py'
tp4028
a(g3778
(S's\x08\x00\x00\x00Database'
tRp4029
I00
S'/SlugBarter/appadmin/index'
tp4030
a(g3778
(S's\x06\x00\x00\x00Errors'
tRp4031
I00
S'/admin/default/errors/SlugBarter'
tp4032
a(g3778
(S's\x05\x00\x00\x00About'
tRp4033
I00
S'/admin/default/about/SlugBarter'
tp4034
aasbasbasbasbasbasbasbag49
(g65
g51
NtRp4035
(dp4036
g54
(dp4037
sg63
g3892
sg56
(lp4038
g49
(g70
g51
NtRp4039
(dp4040
g54
(dp4041
sg63
g4035
sg56
(lp4042
g49
(g50
g51
NtRp4043
(dp4044
g54
(dp4045
g62
I2
ssg63
g4039
sg56
(lp4046
g49
(g58
g51
NtRp4047
(dp4048
g54
(dp4049
g62
I1
ssg63
Nsg56
(lp4050
g49
(g65
g51
NtRp4051
(dp4052
g54
(dp4053
sg63
g4047
sg56
(lp4054
g49
(g70
g51
NtRp4055
(dp4056
g54
(dp4057
sg63
g4051
sg56
(lp4058
g49
(g50
g51
NtRp4059
(dp4060
g54
(dp4061
g62
I1
ssg63
g4055
sg56
(lp4062
S'web2py.com'
p4063
asbasbasbag49
(g65
g51
NtRp4064
(dp4065
g54
(dp4066
sg63
g4047
sg56
(lp4067
g49
(g70
g51
NtRp4068
(dp4069
g54
(dp4070
sg63
g4064
sg56
(lp4071
g49
(g50
g51
NtRp4072
(dp4073
g54
(dp4074
g62
I1
ssg63
g4068
sg56
(lp4075
I00
asbasbasbag49
(g65
g51
NtRp4076
(dp4077
g54
(dp4078
sg63
g4047
sg56
(lp4079
g49
(g70
g51
NtRp4080
(dp4081
g54
(dp4082
sg63
g4076
sg56
(lp4083
g49
(g50
g51
NtRp4084
(dp4085
g54
(dp4086
g62
I1
ssg63
g4080
sg56
(lp4087
S'http://www.web2py.com'
p4088
asbasbasbag49
(g65
g51
NtRp4089
(dp4090
g54
(dp4091
sg63
g4047
sg56
(lp4092
g49
(g70
g51
NtRp4093
(dp4094
g54
(dp4095
sg63
g4089
sg56
(lp4096
g49
(g50
g51
NtRp4097
(dp4098
g54
(dp4099
g62
I1
ssg63
g4093
sg56
(lp4100
(lp4101
(g3778
(S's\x08\x00\x00\x00Download'
tRp4102
I00
S'http://www.web2py.com/examples/default/download'
p4103
tp4104
a(g3778
(S's\x07\x00\x00\x00Support'
tRp4105
I00
S'http://www.web2py.com/examples/default/support'
p4106
tp4107
a(g3778
(S's\x04\x00\x00\x00Demo'
tRp4108
I00
S'http://web2py.com/demo_admin'
p4109
tp4110
a(g3778
(S's\x0e\x00\x00\x00Quick Examples'
tRp4111
I00
S'http://web2py.com/examples/default/examples'
p4112
tp4113
a(g3778
(S's\x03\x00\x00\x00FAQ'
tRp4114
I00
S'http://web2py.com/AlterEgo'
p4115
tp4116
a(g3778
(S's\x06\x00\x00\x00Videos'
tRp4117
I00
S'http://www.web2py.com/examples/default/videos/'
p4118
tp4119
a(g3778
(S's\x11\x00\x00\x00Free Applications'
tRp4120
I00
S'http://web2py.com/appliances'
p4121
tp4122
a(g3778
(S's\x07\x00\x00\x00Plugins'
tRp4123
I00
S'http://web2py.com/plugins'
p4124
tp4125
a(g3778
(S's\x07\x00\x00\x00Layouts'
tRp4126
I00
S'http://web2py.com/layouts'
p4127
tp4128
a(g3778
(S's\x07\x00\x00\x00Recipes'
tRp4129
I00
S'http://web2pyslices.com/'
p4130
tp4131
a(g3778
(S's\x08\x00\x00\x00Semantic'
tRp4132
I00
S'http://web2py.com/semantic'
p4133
tp4134
aasbasbasbasbasbasbasbag49
(g65
g51
NtRp4135
(dp4136
g54
(dp4137
sg63
g3892
sg56
(lp4138
g49
(g70
g51
NtRp4139
(dp4140
g54
(dp4141
sg63
g4135
sg56
(lp4142
g49
(g50
g51
NtRp4143
(dp4144
g54
(dp4145
g62
I2
ssg63
g4139
sg56
(lp4146
g49
(g58
g51
NtRp4147
(dp4148
g54
(dp4149
g62
I1
ssg63
Nsg56
(lp4150
g49
(g65
g51
NtRp4151
(dp4152
g54
(dp4153
sg63
g4147
sg56
(lp4154
g49
(g70
g51
NtRp4155
(dp4156
g54
(dp4157
sg63
g4151
sg56
(lp4158
g49
(g50
g51
NtRp4159
(dp4160
g54
(dp4161
g62
I1
ssg63
g4155
sg56
(lp4162
g3778
(S's\r\x00\x00\x00Documentation'
tRp4163
asbasbasbag49
(g65
g51
NtRp4164
(dp4165
g54
(dp4166
sg63
g4147
sg56
(lp4167
g49
(g70
g51
NtRp4168
(dp4169
g54
(dp4170
sg63
g4164
sg56
(lp4171
g49
(g50
g51
NtRp4172
(dp4173
g54
(dp4174
g62
I1
ssg63
g4168
sg56
(lp4175
I00
asbasbasbag49
(g65
g51
NtRp4176
(dp4177
g54
(dp4178
sg63
g4147
sg56
(lp4179
g49
(g70
g51
NtRp4180
(dp4181
g54
(dp4182
sg63
g4176
sg56
(lp4183
g49
(g50
g51
NtRp4184
(dp4185
g54
(dp4186
g62
I1
ssg63
g4180
sg56
(lp4187
S'http://www.web2py.com/book'
p4188
asbasbasbag49
(g65
g51
NtRp4189
(dp4190
g54
(dp4191
sg63
g4147
sg56
(lp4192
g49
(g70
g51
NtRp4193
(dp4194
g54
(dp4195
sg63
g4189
sg56
(lp4196
g49
(g50
g51
NtRp4197
(dp4198
g54
(dp4199
g62
I1
ssg63
g4193
sg56
(lp4200
(lp4201
(g3778
(S's\x07\x00\x00\x00Preface'
tRp4202
I00
S'http://www.web2py.com/book/default/chapter/00'
p4203
tp4204
a(g3778
(S's\x0c\x00\x00\x00Introduction'
tRp4205
I00
S'http://www.web2py.com/book/default/chapter/01'
p4206
tp4207
a(g3778
(S's\x06\x00\x00\x00Python'
tRp4208
I00
S'http://www.web2py.com/book/default/chapter/02'
p4209
tp4210
a(g3778
(S's\x08\x00\x00\x00Overview'
tRp4211
I00
S'http://www.web2py.com/book/default/chapter/03'
p4212
tp4213
a(g3778
(S's\x08\x00\x00\x00The Core'
tRp4214
I00
S'http://www.web2py.com/book/default/chapter/04'
p4215
tp4216
a(g3778
(S's\t\x00\x00\x00The Views'
tRp4217
I00
S'http://www.web2py.com/book/default/chapter/05'
p4218
tp4219
a(g3778
(S's\x08\x00\x00\x00Database'
tRp4220
I00
S'http://www.web2py.com/book/default/chapter/06'
p4221
tp4222
a(g3778
(S's\x14\x00\x00\x00Forms and Validators'
tRp4223
I00
S'http://www.web2py.com/book/default/chapter/07'
p4224
tp4225
a(g3778
(S's\r\x00\x00\x00Email and SMS'
tRp4226
I00
S'http://www.web2py.com/book/default/chapter/08'
p4227
tp4228
a(g3778
(S's\x0e\x00\x00\x00Access Control'
tRp4229
I00
S'http://www.web2py.com/book/default/chapter/09'
p4230
tp4231
a(g3778
(S's\x08\x00\x00\x00Services'
tRp4232
I00
S'http://www.web2py.com/book/default/chapter/10'
p4233
tp4234
a(g3778
(S's\x0c\x00\x00\x00Ajax Recipes'
tRp4235
I00
S'http://www.web2py.com/book/default/chapter/11'
p4236
tp4237
a(g3778
(S's\x16\x00\x00\x00Components and Plugins'
tRp4238
I00
S'http://www.web2py.com/book/default/chapter/12'
p4239
tp4240
a(g3778
(S's\x12\x00\x00\x00Deployment Recipes'
tRp4241
I00
S'http://www.web2py.com/book/default/chapter/13'
p4242
tp4243
a(g3778
(S's\r\x00\x00\x00Other Recipes'
tRp4244
I00
S'http://www.web2py.com/book/default/chapter/14'
p4245
tp4246
a(g3778
(S's\r\x00\x00\x00Buy this book'
tRp4247
I00
S'http://stores.lulu.com/web2py'
p4248
tp4249
aasbasbasbasbasbasbasbag49
(g65
g51
NtRp4250
(dp4251
g54
(dp4252
sg63
g3892
sg56
(lp4253
g49
(g70
g51
NtRp4254
(dp4255
g54
(dp4256
sg63
g4250
sg56
(lp4257
g49
(g50
g51
NtRp4258
(dp4259
g54
(dp4260
g62
I2
ssg63
g4254
sg56
(lp4261
g49
(g58
g51
NtRp4262
(dp4263
g54
(dp4264
g62
I1
ssg63
Nsg56
(lp4265
g49
(g65
g51
NtRp4266
(dp4267
g54
(dp4268
sg63
g4262
sg56
(lp4269
g49
(g70
g51
NtRp4270
(dp4271
g54
(dp4272
sg63
g4266
sg56
(lp4273
g49
(g50
g51
NtRp4274
(dp4275
g54
(dp4276
g62
I1
ssg63
g4270
sg56
(lp4277
g3778
(S's\t\x00\x00\x00Community'
tRp4278
asbasbasbag49
(g65
g51
NtRp4279
(dp4280
g54
(dp4281
sg63
g4262
sg56
(lp4282
g49
(g70
g51
NtRp4283
(dp4284
g54
(dp4285
sg63
g4279
sg56
(lp4286
g49
(g50
g51
NtRp4287
(dp4288
g54
(dp4289
g62
I1
ssg63
g4283
sg56
(lp4290
I00
asbasbasbag49
(g65
g51
NtRp4291
(dp4292
g54
(dp4293
sg63
g4262
sg56
(lp4294
g49
(g70
g51
NtRp4295
(dp4296
g54
(dp4297
sg63
g4291
sg56
(lp4298
g49
(g50
g51
NtRp4299
(dp4300
g54
(dp4301
g62
I1
ssg63
g4295
sg56
(lp4302
Nasbasbasbag49
(g65
g51
NtRp4303
(dp4304
g54
(dp4305
sg63
g4262
sg56
(lp4306
g49
(g70
g51
NtRp4307
(dp4308
g54
(dp4309
sg63
g4303
sg56
(lp4310
g49
(g50
g51
NtRp4311
(dp4312
g54
(dp4313
g62
I1
ssg63
g4307
sg56
(lp4314
(lp4315
(g3778
(S's\x06\x00\x00\x00Groups'
tRp4316
I00
S'http://www.web2py.com/examples/default/usergroups'
p4317
tp4318
a(g3778
(S's\x07\x00\x00\x00Twitter'
tRp4319
I00
S'http://twitter.com/web2py'
p4320
tp4321
a(g3778
(S's\t\x00\x00\x00Live Chat'
tRp4322
I00
S'http://webchat.freenode.net/?channels=web2py'
p4323
tp4324
aasbasbasbasbasbasbasbag49
(g65
g51
NtRp4325
(dp4326
g54
(dp4327
sg63
g3892
sg56
(lp4328
g49
(g70
g51
NtRp4329
(dp4330
g54
(dp4331
sg63
g4325
sg56
(lp4332
g49
(g50
g51
NtRp4333
(dp4334
g54
(dp4335
g62
I2
ssg63
g4329
sg56
(lp4336
g49
(g58
g51
NtRp4337
(dp4338
g54
(dp4339
g62
I1
ssg63
Nsg56
(lp4340
g49
(g65
g51
NtRp4341
(dp4342
g54
(dp4343
sg63
g4337
sg56
(lp4344
g49
(g70
g51
NtRp4345
(dp4346
g54
(dp4347
sg63
g4341
sg56
(lp4348
g49
(g50
g51
NtRp4349
(dp4350
g54
(dp4351
g62
I1
ssg63
g4345
sg56
(lp4352
g3778
(S's\x07\x00\x00\x00Plugins'
tRp4353
asbasbasbag49
(g65
g51
NtRp4354
(dp4355
g54
(dp4356
sg63
g4337
sg56
(lp4357
g49
(g70
g51
NtRp4358
(dp4359
g54
(dp4360
sg63
g4354
sg56
(lp4361
g49
(g50
g51
NtRp4362
(dp4363
g54
(dp4364
g62
I1
ssg63
g4358
sg56
(lp4365
I00
asbasbasbag49
(g65
g51
NtRp4366
(dp4367
g54
(dp4368
sg63
g4337
sg56
(lp4369
g49
(g70
g51
NtRp4370
(dp4371
g54
(dp4372
sg63
g4366
sg56
(lp4373
g49
(g50
g51
NtRp4374
(dp4375
g54
(dp4376
g62
I1
ssg63
g4370
sg56
(lp4377
Nasbasbasbag49
(g65
g51
NtRp4378
(dp4379
g54
(dp4380
sg63
g4337
sg56
(lp4381
g49
(g70
g51
NtRp4382
(dp4383
g54
(dp4384
sg63
g4378
sg56
(lp4385
g49
(g50
g51
NtRp4386
(dp4387
g54
(dp4388
g62
I1
ssg63
g4382
sg56
(lp4389
(lp4390
(S'plugin_wiki'
p4391
I00
S'http://web2py.com/examples/default/download'
p4392
tp4393
a(g3778
(S's\r\x00\x00\x00Other Plugins'
tRp4394
I00
g4124
tp4395
a(g3778
(S's\x0e\x00\x00\x00Layout Plugins'
tRp4396
I00
g4127
tp4397
aasbasbasbasbasbasbasbasbasbasbasbasbasbasbasbasbasbasbasbag49
(g65
g51
NtRp4398
(dp4399
g54
(dp4400
sg63
g3242
sg56
(lp4401
g49
(g70
g51
NtRp4402
(dp4403
g54
(dp4404
g74
g75
ssg63
g4398
sg56
(lp4405
S'meta'
p4406
asbag49
(g70
g51
NtRp4407
(dp4408
g54
(dp4409
g81
g82
ssg63
g4398
sg56
(lp4410
S':'
asbag49
(g70
g51
NtRp4411
(dp4412
g54
(dp4413
sg63
g4398
sg56
(lp4414
g49
(g50
g51
NtRp4415
(dp4416
g54
(dp4417
g62
I5
ssg63
g4411
sg56
(lp4418
g49
(g58
g51
NtRp4419
(dp4420
g54
(dp4421
g62
I4
ssg63
Nsg56
(lp4422
g49
(g65
g51
NtRp4423
(dp4424
g54
(dp4425
sg63
g4419
sg56
(lp4426
g49
(g70
g51
NtRp4427
(dp4428
g54
(dp4429
g74
g75
ssg63
g4423
sg56
(lp4430
S'author'
p4431
asbag49
(g70
g51
NtRp4432
(dp4433
g54
(dp4434
g81
g82
ssg63
g4423
sg56
(lp4435
S':'
asbag49
(g70
g51
NtRp4436
(dp4437
g54
(dp4438
sg63
g4423
sg56
(lp4439
g49
(g50
g51
NtRp4440
(dp4441
g54
(dp4442
g62
I4
ssg63
g4436
sg56
(lp4443
S'Your Name <you@example.com>'
p4444
asbasbasbag49
(g65
g51
NtRp4445
(dp4446
g54
(dp4447
sg63
g4419
sg56
(lp4448
g49
(g70
g51
NtRp4449
(dp4450
g54
(dp4451
g74
g75
ssg63
g4445
sg56
(lp4452
S'copyright'
p4453
asbag49
(g70
g51
NtRp4454
(dp4455
g54
(dp4456
g81
g82
ssg63
g4445
sg56
(lp4457
S':'
asbag49
(g70
g51
NtRp4458
(dp4459
g54
(dp4460
sg63
g4445
sg56
(lp4461
g49
(g50
g51
NtRp4462
(dp4463
g54
(dp4464
g62
I4
ssg63
g4458
sg56
(lp4465
S'Copyright 2011'
p4466
asbasbasbag49
(g65
g51
NtRp4467
(dp4468
g54
(dp4469
sg63
g4419
sg56
(lp4470
g49
(g70
g51
NtRp4471
(dp4472
g54
(dp4473
g74
g75
ssg63
g4467
sg56
(lp4474
S'description'
p4475
asbag49
(g70
g51
NtRp4476
(dp4477
g54
(dp4478
g81
g82
ssg63
g4467
sg56
(lp4479
S':'
asbag49
(g70
g51
NtRp4480
(dp4481
g54
(dp4482
sg63
g4467
sg56
(lp4483
g49
(g50
g51
NtRp4484
(dp4485
g54
(dp4486
g62
I4
ssg63
g4480
sg56
(lp4487
S'a cool new app'
p4488
asbasbasbag49
(g65
g51
NtRp4489
(dp4490
g54
(dp4491
sg63
g4419
sg56
(lp4492
g49
(g70
g51
NtRp4493
(dp4494
g54
(dp4495
g74
g75
ssg63
g4489
sg56
(lp4496
S'generator'
p4497
asbag49
(g70
g51
NtRp4498
(dp4499
g54
(dp4500
g81
g82
ssg63
g4489
sg56
(lp4501
S':'
asbag49
(g70
g51
NtRp4502
(dp4503
g54
(dp4504
sg63
g4489
sg56
(lp4505
g49
(g50
g51
NtRp4506
(dp4507
g54
(dp4508
g62
I4
ssg63
g4502
sg56
(lp4509
S'Web2py Web Framework'
p4510
asbasbasbag49
(g65
g51
NtRp4511
(dp4512
g54
(dp4513
sg63
g4419
sg56
(lp4514
g49
(g70
g51
NtRp4515
(dp4516
g54
(dp4517
g74
g75
ssg63
g4511
sg56
(lp4518
S'keywords'
p4519
asbag49
(g70
g51
NtRp4520
(dp4521
g54
(dp4522
g81
g82
ssg63
g4511
sg56
(lp4523
S':'
asbag49
(g70
g51
NtRp4524
(dp4525
g54
(dp4526
sg63
g4511
sg56
(lp4527
g49
(g50
g51
NtRp4528
(dp4529
g54
(dp4530
g62
I4
ssg63
g4524
sg56
(lp4531
S'web2py, python, framework'
p4532
asbasbasbasbasbasbasbag49
(g65
g51
NtRp4533
(dp4534
g54
(dp4535
sg63
g3242
sg56
(lp4536
g49
(g70
g51
NtRp4537
(dp4538
g54
(dp4539
g74
g75
ssg63
g4533
sg56
(lp4540
S'postprocessing'
p4541
asbag49
(g70
g51
NtRp4542
(dp4543
g54
(dp4544
g81
g82
ssg63
g4533
sg56
(lp4545
S':'
asbag49
(g70
g51
NtRp4546
(dp4547
g54
(dp4548
sg63
g4533
sg56
(lp4549
g49
(g50
g51
NtRp4550
(dp4551
g54
(dp4552
g62
I5
ssg63
g4546
sg56
(lp4553
g49
(g58
g51
NtRp4554
(dp4555
g54
(dp4556
g62
I4
ssg63
Nsg56
(lp4557
sbasbasbasbag49
(g65
g51
NtRp4558
(dp4559
g54
(dp4560
sg63
g3242
sg56
(lp4561
g49
(g70
g51
NtRp4562
(dp4563
g54
(dp4564
g74
g75
ssg63
g4558
sg56
(lp4565
S'session_file'
p4566
asbag49
(g70
g51
NtRp4567
(dp4568
g54
(dp4569
g81
g82
ssg63
g4558
sg56
(lp4570
S':'
asbag49
(g70
g51
NtRp4571
(dp4572
g54
(dp4573
sg63
g4558
sg56
(lp4574
g49
(g50
g51
NtRp4575
(dp4576
g54
(dp4577
g62
I5
ssg63
g4571
sg56
(lp4578
S"<open file 'C:\\Users\\omkara\\Desktop\\web2py\\applications\\SlugBarter\\sessions\\127.0.0.1-e6ebae72-1bbc-48a5-9458-95dbb65a4e54', mode 'rb+' at 0x06461B60>"
p4579
asbasbasbag49
(g65
g51
NtRp4580
(dp4581
g54
(dp4582
sg63
g3242
sg56
(lp4583
g49
(g70
g51
NtRp4584
(dp4585
g54
(dp4586
g74
g75
ssg63
g4580
sg56
(lp4587
S'session_filename'
p4588
asbag49
(g70
g51
NtRp4589
(dp4590
g54
(dp4591
g81
g82
ssg63
g4580
sg56
(lp4592
S':'
asbag49
(g70
g51
NtRp4593
(dp4594
g54
(dp4595
sg63
g4580
sg56
(lp4596
g49
(g50
g51
NtRp4597
(dp4598
g54
(dp4599
g62
I5
ssg63
g4593
sg56
(lp4600
S'C:\\Users\\omkara\\Desktop\\web2py\\applications\\SlugBarter\\sessions\\127.0.0.1-e6ebae72-1bbc-48a5-9458-95dbb65a4e54'
p4601
asbasbasbag49
(g65
g51
NtRp4602
(dp4603
g54
(dp4604
sg63
g3242
sg56
(lp4605
g49
(g70
g51
NtRp4606
(dp4607
g54
(dp4608
g74
g75
ssg63
g4602
sg56
(lp4609
S'session_id'
p4610
asbag49
(g70
g51
NtRp4611
(dp4612
g54
(dp4613
g81
g82
ssg63
g4602
sg56
(lp4614
S':'
asbag49
(g70
g51
NtRp4615
(dp4616
g54
(dp4617
sg63
g4602
sg56
(lp4618
g49
(g50
g51
NtRp4619
(dp4620
g54
(dp4621
g62
I5
ssg63
g4615
sg56
(lp4622
S'127.0.0.1-e6ebae72-1bbc-48a5-9458-95dbb65a4e54'
p4623
asbasbasbag49
(g65
g51
NtRp4624
(dp4625
g54
(dp4626
sg63
g3242
sg56
(lp4627
g49
(g70
g51
NtRp4628
(dp4629
g54
(dp4630
g74
g75
ssg63
g4624
sg56
(lp4631
S'session_id_name'
p4632
asbag49
(g70
g51
NtRp4633
(dp4634
g54
(dp4635
g81
g82
ssg63
g4624
sg56
(lp4636
S':'
asbag49
(g70
g51
NtRp4637
(dp4638
g54
(dp4639
sg63
g4624
sg56
(lp4640
g49
(g50
g51
NtRp4641
(dp4642
g54
(dp4643
g62
I5
ssg63
g4637
sg56
(lp4644
g3299
asbasbasbag49
(g65
g51
NtRp4645
(dp4646
g54
(dp4647
sg63
g3242
sg56
(lp4648
g49
(g70
g51
NtRp4649
(dp4650
g54
(dp4651
g74
g75
ssg63
g4645
sg56
(lp4652
S'session_locked'
p4653
asbag49
(g70
g51
NtRp4654
(dp4655
g54
(dp4656
g81
g82
ssg63
g4645
sg56
(lp4657
S':'
asbag49
(g70
g51
NtRp4658
(dp4659
g54
(dp4660
sg63
g4645
sg56
(lp4661
g49
(g50
g51
NtRp4662
(dp4663
g54
(dp4664
g62
I5
ssg63
g4658
sg56
(lp4665
g1796
asbasbasbag49
(g65
g51
NtRp4666
(dp4667
g54
(dp4668
sg63
g3242
sg56
(lp4669
g49
(g70
g51
NtRp4670
(dp4671
g54
(dp4672
g74
g75
ssg63
g4666
sg56
(lp4673
S'session_new'
p4674
asbag49
(g70
g51
NtRp4675
(dp4676
g54
(dp4677
g81
g82
ssg63
g4666
sg56
(lp4678
S':'
asbag49
(g70
g51
NtRp4679
(dp4680
g54
(dp4681
sg63
g4666
sg56
(lp4682
g49
(g50
g51
NtRp4683
(dp4684
g54
(dp4685
g62
I5
ssg63
g4679
sg56
(lp4686
g92
asbasbasbag49
(g65
g51
NtRp4687
(dp4688
g54
(dp4689
sg63
g3242
sg56
(lp4690
g49
(g70
g51
NtRp4691
(dp4692
g54
(dp4693
g74
g75
ssg63
g4687
sg56
(lp4694
S'status'
p4695
asbag49
(g70
g51
NtRp4696
(dp4697
g54
(dp4698
g81
g82
ssg63
g4687
sg56
(lp4699
S':'
asbag49
(g70
g51
NtRp4700
(dp4701
g54
(dp4702
sg63
g4687
sg56
(lp4703
g49
(g50
g51
NtRp4704
(dp4705
g54
(dp4706
g62
I5
ssg63
g4700
sg56
(lp4707
S'200'
p4708
asbasbasbag49
(g65
g51
NtRp4709
(dp4710
g54
(dp4711
sg63
g3242
sg56
(lp4712
g49
(g70
g51
NtRp4713
(dp4714
g54
(dp4715
g74
g75
ssg63
g4709
sg56
(lp4716
S'subtitle'
p4717
asbag49
(g70
g51
NtRp4718
(dp4719
g54
(dp4720
g81
g82
ssg63
g4709
sg56
(lp4721
S':'
asbag49
(g70
g51
NtRp4722
(dp4723
g54
(dp4724
sg63
g4709
sg56
(lp4725
g49
(g50
g51
NtRp4726
(dp4727
g54
(dp4728
g62
I5
ssg63
g4722
sg56
(lp4729
g3778
(S's\r\x00\x00\x00customize me!'
tRp4730
asbasbasbag49
(g65
g51
NtRp4731
(dp4732
g54
(dp4733
sg63
g3242
sg56
(lp4734
g49
(g70
g51
NtRp4735
(dp4736
g54
(dp4737
g74
g75
ssg63
g4731
sg56
(lp4738
S'title'
p4739
asbag49
(g70
g51
NtRp4740
(dp4741
g54
(dp4742
g81
g82
ssg63
g4731
sg56
(lp4743
S':'
asbag49
(g70
g51
NtRp4744
(dp4745
g54
(dp4746
sg63
g4731
sg56
(lp4747
g49
(g50
g51
NtRp4748
(dp4749
g54
(dp4750
g62
I5
ssg63
g4744
sg56
(lp4751
S'Slugbarter'
p4752
asbasbasbag49
(g65
g51
NtRp4753
(dp4754
g54
(dp4755
sg63
g3242
sg56
(lp4756
g49
(g70
g51
NtRp4757
(dp4758
g54
(dp4759
g74
g75
ssg63
g4753
sg56
(lp4760
g2460
asbag49
(g70
g51
NtRp4761
(dp4762
g54
(dp4763
g81
g82
ssg63
g4753
sg56
(lp4764
S':'
asbag49
(g70
g51
NtRp4765
(dp4766
g54
(dp4767
sg63
g4753
sg56
(lp4768
g49
(g50
g51
NtRp4769
(dp4770
g54
(dp4771
g62
I5
ssg63
g4765
sg56
(lp4772
g2473
asbasbasbag49
(g65
g51
NtRp4773
(dp4774
g54
(dp4775
sg63
g3242
sg56
(lp4776
g49
(g70
g51
NtRp4777
(dp4778
g54
(dp4779
g74
g75
ssg63
g4773
sg56
(lp4780
S'view'
p4781
asbag49
(g70
g51
NtRp4782
(dp4783
g54
(dp4784
g81
g82
ssg63
g4773
sg56
(lp4785
S':'
asbag49
(g70
g51
NtRp4786
(dp4787
g54
(dp4788
sg63
g4773
sg56
(lp4789
g49
(g50
g51
NtRp4790
(dp4791
g54
(dp4792
g62
I5
ssg63
g4786
sg56
(lp4793
S'default/login.html'
p4794
asbasbasbasbasbsS'locals'
p4795
(dp4796
S'self'
p4797
S"<Table {'last_name': <gluon.dal.Field object at ...on_key': <gluon.dal.Field object at 0x05CB6610>}>"
p4798
sS'key'
p4799
S"'username'"
p4800
sssS'traceback'
p4801
S'Traceback (most recent call last):\n  File "gluon/restricted.py", line 205, in restricted\n  File "C:\\Users\\omkara\\Desktop\\web2py\\applications\\SlugBarter\\controllers/default.py", line 77, in <module>\n  File "gluon/globals.py", line 173, in <lambda>\n  File "C:\\Users\\omkara\\Desktop\\web2py\\applications\\SlugBarter\\controllers/default.py", line 22, in login\n  File "gluon/tools.py", line 1656, in login\n  File "gluon/dal.py", line 6714, in __getitem__\nKeyError: \'username\'\n'
p4802
s.