(dp1
S'output'
p2
S"<type 'exceptions.SyntaxError'> invalid table name: auth_user"
p3
sS'layer'
p4
S'C:\\Users\\omkara\\Desktop\\web2py\\applications\\SlugBarter\\models\\registerForm.py'
p5
sS'code'
p6
S"#Needed for authenticating users\nfrom gluon.tools import Auth\n#auth = Auth(db)\n\ndb.define_table(\n    auth.settings.table_user_name,\n    Field('firstName','string', length =64,default=''),\n    Field('lastName', 'string', length= 64,default=''),\n    Field('username', 'string', length=64,default='', unique = True),\n    Field('password', 'password', length=64,default='', readable = False,\n            label = 'Password'),\n    Field('email', 'string',default='', length=64),\n    Field('registration_key', length=512,                # required\n          writable=False, readable=False, default=''),\n    Field('reset_password_key', length=512,              # required\n          writable=False, readable=False, default=''),\n    Field('registration_id', length=512,                 # required\n          writable=False, readable=False, default='')\n    )\n\ncustom_auth_table = db[auth.settings.table_user_name]\ncustom_auth_table.firstName.requires = [IS_NOT_EMPTY()]\ncustom_auth_table.lastName.requires = [IS_NOT_EMPTY()]\ncustom_auth_table.username.requires = [IS_NOT_EMPTY(),IS_NOT_IN_DB(db, custom_auth_table.username,error_message ='username already exists')]\ncustom_auth_table.email.requires = [IS_NOT_EMPTY(),IS_EMAIL(error_message = 'Invalid email'),IS_NOT_IN_DB(db, custom_auth_table.email, error_message ='Email already exists')]\ncustom_auth_table.password.requires = IS_NOT_EMPTY()\n\nauth.settings.table_user = custom_auth_table \nauth.define_tables()\n"
p7
sS'snapshot'
p8
(dp9
S'exception'
p10
(dp11
S'__getslice__'
p12
S"<method-wrapper '__getslice__' of exceptions.SyntaxError object at 0x05B04370>"
p13
sS'text'
p14
S'None'
p15
sS'__str__'
p16
S"<method-wrapper '__str__' of exceptions.SyntaxError object at 0x05B04370>"
p17
sS'__reduce__'
p18
S'<built-in method __reduce__ of exceptions.SyntaxError object at 0x05B04370>'
p19
sS'__dict__'
p20
S'{}'
p21
sS'__init__'
p22
S"<method-wrapper '__init__' of exceptions.SyntaxError object at 0x05B04370>"
p23
sS'__setattr__'
p24
S"<method-wrapper '__setattr__' of exceptions.SyntaxError object at 0x05B04370>"
p25
sS'__reduce_ex__'
p26
S'<built-in method __reduce_ex__ of exceptions.SyntaxError object at 0x05B04370>'
p27
sS'__new__'
p28
S'<built-in method __new__ of type object at 0x1E1CDBD0>'
p29
sS'__class__'
p30
S"<type 'exceptions.SyntaxError'>"
p31
sS'filename'
p32
S'None'
p33
sS'lineno'
p34
S'None'
p35
sS'msg'
p36
S"'invalid table name: auth_user'"
p37
sS'__doc__'
p38
S"'Invalid syntax.'"
p39
sS'__getitem__'
p40
S"<method-wrapper '__getitem__' of exceptions.SyntaxError object at 0x05B04370>"
p41
sS'__setstate__'
p42
S'<built-in method __setstate__ of exceptions.SyntaxError object at 0x05B04370>'
p43
sS'__getattribute__'
p44
S"<method-wrapper '__getattribute__' of exceptions.SyntaxError object at 0x05B04370>"
p45
sS'print_file_and_line'
p46
S'None'
p47
sS'args'
p48
S"('invalid table name: auth_user',)"
p49
sS'offset'
p50
S'None'
p51
sS'__delattr__'
p52
S"<method-wrapper '__delattr__' of exceptions.SyntaxError object at 0x05B04370>"
p53
sS'__repr__'
p54
S"<method-wrapper '__repr__' of exceptions.SyntaxError object at 0x05B04370>"
p55
sS'__hash__'
p56
S"<method-wrapper '__hash__' of exceptions.SyntaxError object at 0x05B04370>"
p57
ssS'evalue'
p58
S'invalid table name: auth_user'
p59
sS'request'
p60
ccopy_reg
_reconstructor
p61
(cgluon.html
BEAUTIFY
p62
c__builtin__
object
p63
NtRp64
(dp65
S'attributes'
p66
(dp67
sS'components'
p68
(lp69
g61
(cgluon.html
TABLE
p70
g63
NtRp71
(dp72
g66
(dp73
S'level'
p74
I5
ssS'parent'
p75
Nsg68
(lp76
g61
(cgluon.html
TR
p77
g63
NtRp78
(dp79
g66
(dp80
sg75
g71
sg68
(lp81
g61
(cgluon.html
TD
p82
g63
NtRp83
(dp84
g66
(dp85
S'_style'
p86
S'font-weight:bold;vertical-align:top'
p87
ssg75
g78
sg68
(lp88
S'ajax'
p89
asbag61
(g82
g63
NtRp90
(dp91
g66
(dp92
S'_valign'
p93
S'top'
p94
ssg75
g78
sg68
(lp95
S':'
asbag61
(g82
g63
NtRp96
(dp97
g66
(dp98
sg75
g78
sg68
(lp99
g61
(g62
g63
NtRp100
(dp101
g66
(dp102
g74
I5
ssg75
g96
sg68
(lp103
S'False'
p104
asbasbasbag61
(g77
g63
NtRp105
(dp106
g66
(dp107
sg75
g71
sg68
(lp108
g61
(g82
g63
NtRp109
(dp110
g66
(dp111
g86
g87
ssg75
g105
sg68
(lp112
S'application'
p113
asbag61
(g82
g63
NtRp114
(dp115
g66
(dp116
g93
g94
ssg75
g105
sg68
(lp117
S':'
asbag61
(g82
g63
NtRp118
(dp119
g66
(dp120
sg75
g105
sg68
(lp121
g61
(g62
g63
NtRp122
(dp123
g66
(dp124
g74
I5
ssg75
g118
sg68
(lp125
S'SlugBarter'
p126
asbasbasbag61
(g77
g63
NtRp127
(dp128
g66
(dp129
sg75
g71
sg68
(lp130
g61
(g82
g63
NtRp131
(dp132
g66
(dp133
g86
g87
ssg75
g127
sg68
(lp134
g48
asbag61
(g82
g63
NtRp135
(dp136
g66
(dp137
g93
g94
ssg75
g127
sg68
(lp138
S':'
asbag61
(g82
g63
NtRp139
(dp140
g66
(dp141
sg75
g127
sg68
(lp142
g61
(g62
g63
NtRp143
(dp144
g66
(dp145
g74
I5
ssg75
g139
sg68
(lp146
g61
(g70
g63
NtRp147
(dp148
g66
(dp149
g74
I4
ssg75
Nsg68
(lp150
sbasbasbasbag61
(g77
g63
NtRp151
(dp152
g66
(dp153
sg75
g71
sg68
(lp154
g61
(g82
g63
NtRp155
(dp156
g66
(dp157
g86
g87
ssg75
g151
sg68
(lp158
S'body'
p159
asbag61
(g82
g63
NtRp160
(dp161
g66
(dp162
g93
g94
ssg75
g151
sg68
(lp163
S':'
asbag61
(g82
g63
NtRp164
(dp165
g66
(dp166
sg75
g151
sg68
(lp167
g61
(g62
g63
NtRp168
(dp169
g66
(dp170
g74
I5
ssg75
g164
sg68
(lp171
S'<cStringIO.StringO object at 0x063457E0>'
p172
asbasbasbag61
(g77
g63
NtRp173
(dp174
g66
(dp175
sg75
g71
sg68
(lp176
g61
(g82
g63
NtRp177
(dp178
g66
(dp179
g86
g87
ssg75
g173
sg68
(lp180
S'client'
p181
asbag61
(g82
g63
NtRp182
(dp183
g66
(dp184
g93
g94
ssg75
g173
sg68
(lp185
S':'
asbag61
(g82
g63
NtRp186
(dp187
g66
(dp188
sg75
g173
sg68
(lp189
g61
(g62
g63
NtRp190
(dp191
g66
(dp192
g74
I5
ssg75
g186
sg68
(lp193
S'127.0.0.1'
p194
asbasbasbag61
(g77
g63
NtRp195
(dp196
g66
(dp197
sg75
g71
sg68
(lp198
g61
(g82
g63
NtRp199
(dp200
g66
(dp201
g86
g87
ssg75
g195
sg68
(lp202
S'controller'
p203
asbag61
(g82
g63
NtRp204
(dp205
g66
(dp206
g93
g94
ssg75
g195
sg68
(lp207
S':'
asbag61
(g82
g63
NtRp208
(dp209
g66
(dp210
sg75
g195
sg68
(lp211
g61
(g62
g63
NtRp212
(dp213
g66
(dp214
g74
I5
ssg75
g208
sg68
(lp215
S'appadmin'
p216
asbasbasbag61
(g77
g63
NtRp217
(dp218
g66
(dp219
sg75
g71
sg68
(lp220
g61
(g82
g63
NtRp221
(dp222
g66
(dp223
g86
g87
ssg75
g217
sg68
(lp224
S'cookies'
p225
asbag61
(g82
g63
NtRp226
(dp227
g66
(dp228
g93
g94
ssg75
g217
sg68
(lp229
S':'
asbag61
(g82
g63
NtRp230
(dp231
g66
(dp232
sg75
g217
sg68
(lp233
g61
(g62
g63
NtRp234
(dp235
g66
(dp236
g74
I5
ssg75
g230
sg68
(lp237
g61
(g70
g63
NtRp238
(dp239
g66
(dp240
g74
I4
ssg75
Nsg68
(lp241
g61
(g77
g63
NtRp242
(dp243
g66
(dp244
sg75
g238
sg68
(lp245
g61
(g82
g63
NtRp246
(dp247
g66
(dp248
g86
g87
ssg75
g242
sg68
(lp249
S'session_id_admin'
p250
asbag61
(g82
g63
NtRp251
(dp252
g66
(dp253
g93
g94
ssg75
g242
sg68
(lp254
S':'
asbag61
(g82
g63
NtRp255
(dp256
g66
(dp257
sg75
g242
sg68
(lp258
g61
(g62
g63
NtRp259
(dp260
g66
(dp261
g74
I4
ssg75
g255
sg68
(lp262
g61
(g70
g63
NtRp263
(dp264
g66
(dp265
g74
I3
ssg75
Nsg68
(lp266
g61
(g77
g63
NtRp267
(dp268
g66
(dp269
sg75
g263
sg68
(lp270
g61
(g82
g63
NtRp271
(dp272
g66
(dp273
g86
g87
ssg75
g267
sg68
(lp274
S'comment'
p275
asbag61
(g82
g63
NtRp276
(dp277
g66
(dp278
g93
g94
ssg75
g267
sg68
(lp279
S':'
asbag61
(g82
g63
NtRp280
(dp281
g66
(dp282
sg75
g267
sg68
(lp283
g61
(g62
g63
NtRp284
(dp285
g66
(dp286
g74
I3
ssg75
g280
sg68
(lp287
S''
asbasbasbag61
(g77
g63
NtRp288
(dp289
g66
(dp290
sg75
g263
sg68
(lp291
g61
(g82
g63
NtRp292
(dp293
g66
(dp294
g86
g87
ssg75
g288
sg68
(lp295
S'domain'
p296
asbag61
(g82
g63
NtRp297
(dp298
g66
(dp299
g93
g94
ssg75
g288
sg68
(lp300
S':'
asbag61
(g82
g63
NtRp301
(dp302
g66
(dp303
sg75
g288
sg68
(lp304
g61
(g62
g63
NtRp305
(dp306
g66
(dp307
g74
I3
ssg75
g301
sg68
(lp308
S''
asbasbasbag61
(g77
g63
NtRp309
(dp310
g66
(dp311
sg75
g263
sg68
(lp312
g61
(g82
g63
NtRp313
(dp314
g66
(dp315
g86
g87
ssg75
g309
sg68
(lp316
S'expires'
p317
asbag61
(g82
g63
NtRp318
(dp319
g66
(dp320
g93
g94
ssg75
g309
sg68
(lp321
S':'
asbag61
(g82
g63
NtRp322
(dp323
g66
(dp324
sg75
g309
sg68
(lp325
g61
(g62
g63
NtRp326
(dp327
g66
(dp328
g74
I3
ssg75
g322
sg68
(lp329
S''
asbasbasbag61
(g77
g63
NtRp330
(dp331
g66
(dp332
sg75
g263
sg68
(lp333
g61
(g82
g63
NtRp334
(dp335
g66
(dp336
g86
g87
ssg75
g330
sg68
(lp337
S'max-age'
p338
asbag61
(g82
g63
NtRp339
(dp340
g66
(dp341
g93
g94
ssg75
g330
sg68
(lp342
S':'
asbag61
(g82
g63
NtRp343
(dp344
g66
(dp345
sg75
g330
sg68
(lp346
g61
(g62
g63
NtRp347
(dp348
g66
(dp349
g74
I3
ssg75
g343
sg68
(lp350
S''
asbasbasbag61
(g77
g63
NtRp351
(dp352
g66
(dp353
sg75
g263
sg68
(lp354
g61
(g82
g63
NtRp355
(dp356
g66
(dp357
g86
g87
ssg75
g351
sg68
(lp358
S'path'
p359
asbag61
(g82
g63
NtRp360
(dp361
g66
(dp362
g93
g94
ssg75
g351
sg68
(lp363
S':'
asbag61
(g82
g63
NtRp364
(dp365
g66
(dp366
sg75
g351
sg68
(lp367
g61
(g62
g63
NtRp368
(dp369
g66
(dp370
g74
I3
ssg75
g364
sg68
(lp371
S''
asbasbasbag61
(g77
g63
NtRp372
(dp373
g66
(dp374
sg75
g263
sg68
(lp375
g61
(g82
g63
NtRp376
(dp377
g66
(dp378
g86
g87
ssg75
g372
sg68
(lp379
S'secure'
p380
asbag61
(g82
g63
NtRp381
(dp382
g66
(dp383
g93
g94
ssg75
g372
sg68
(lp384
S':'
asbag61
(g82
g63
NtRp385
(dp386
g66
(dp387
sg75
g372
sg68
(lp388
g61
(g62
g63
NtRp389
(dp390
g66
(dp391
g74
I3
ssg75
g385
sg68
(lp392
S''
asbasbasbag61
(g77
g63
NtRp393
(dp394
g66
(dp395
sg75
g263
sg68
(lp396
g61
(g82
g63
NtRp397
(dp398
g66
(dp399
g86
g87
ssg75
g393
sg68
(lp400
S'version'
p401
asbag61
(g82
g63
NtRp402
(dp403
g66
(dp404
g93
g94
ssg75
g393
sg68
(lp405
S':'
asbag61
(g82
g63
NtRp406
(dp407
g66
(dp408
sg75
g393
sg68
(lp409
g61
(g62
g63
NtRp410
(dp411
g66
(dp412
g74
I3
ssg75
g406
sg68
(lp413
S''
asbasbasbasbasbasbasbag61
(g77
g63
NtRp414
(dp415
g66
(dp416
sg75
g238
sg68
(lp417
g61
(g82
g63
NtRp418
(dp419
g66
(dp420
g86
g87
ssg75
g414
sg68
(lp421
S'session_id_assignment3'
p422
asbag61
(g82
g63
NtRp423
(dp424
g66
(dp425
g93
g94
ssg75
g414
sg68
(lp426
S':'
asbag61
(g82
g63
NtRp427
(dp428
g66
(dp429
sg75
g414
sg68
(lp430
g61
(g62
g63
NtRp431
(dp432
g66
(dp433
g74
I4
ssg75
g427
sg68
(lp434
g61
(g70
g63
NtRp435
(dp436
g66
(dp437
g74
I3
ssg75
Nsg68
(lp438
g61
(g77
g63
NtRp439
(dp440
g66
(dp441
sg75
g435
sg68
(lp442
g61
(g82
g63
NtRp443
(dp444
g66
(dp445
g86
g87
ssg75
g439
sg68
(lp446
g275
asbag61
(g82
g63
NtRp447
(dp448
g66
(dp449
g93
g94
ssg75
g439
sg68
(lp450
S':'
asbag61
(g82
g63
NtRp451
(dp452
g66
(dp453
sg75
g439
sg68
(lp454
g61
(g62
g63
NtRp455
(dp456
g66
(dp457
g74
I3
ssg75
g451
sg68
(lp458
S''
asbasbasbag61
(g77
g63
NtRp459
(dp460
g66
(dp461
sg75
g435
sg68
(lp462
g61
(g82
g63
NtRp463
(dp464
g66
(dp465
g86
g87
ssg75
g459
sg68
(lp466
g296
asbag61
(g82
g63
NtRp467
(dp468
g66
(dp469
g93
g94
ssg75
g459
sg68
(lp470
S':'
asbag61
(g82
g63
NtRp471
(dp472
g66
(dp473
sg75
g459
sg68
(lp474
g61
(g62
g63
NtRp475
(dp476
g66
(dp477
g74
I3
ssg75
g471
sg68
(lp478
S''
asbasbasbag61
(g77
g63
NtRp479
(dp480
g66
(dp481
sg75
g435
sg68
(lp482
g61
(g82
g63
NtRp483
(dp484
g66
(dp485
g86
g87
ssg75
g479
sg68
(lp486
g317
asbag61
(g82
g63
NtRp487
(dp488
g66
(dp489
g93
g94
ssg75
g479
sg68
(lp490
S':'
asbag61
(g82
g63
NtRp491
(dp492
g66
(dp493
sg75
g479
sg68
(lp494
g61
(g62
g63
NtRp495
(dp496
g66
(dp497
g74
I3
ssg75
g491
sg68
(lp498
S''
asbasbasbag61
(g77
g63
NtRp499
(dp500
g66
(dp501
sg75
g435
sg68
(lp502
g61
(g82
g63
NtRp503
(dp504
g66
(dp505
g86
g87
ssg75
g499
sg68
(lp506
g338
asbag61
(g82
g63
NtRp507
(dp508
g66
(dp509
g93
g94
ssg75
g499
sg68
(lp510
S':'
asbag61
(g82
g63
NtRp511
(dp512
g66
(dp513
sg75
g499
sg68
(lp514
g61
(g62
g63
NtRp515
(dp516
g66
(dp517
g74
I3
ssg75
g511
sg68
(lp518
S''
asbasbasbag61
(g77
g63
NtRp519
(dp520
g66
(dp521
sg75
g435
sg68
(lp522
g61
(g82
g63
NtRp523
(dp524
g66
(dp525
g86
g87
ssg75
g519
sg68
(lp526
g359
asbag61
(g82
g63
NtRp527
(dp528
g66
(dp529
g93
g94
ssg75
g519
sg68
(lp530
S':'
asbag61
(g82
g63
NtRp531
(dp532
g66
(dp533
sg75
g519
sg68
(lp534
g61
(g62
g63
NtRp535
(dp536
g66
(dp537
g74
I3
ssg75
g531
sg68
(lp538
S''
asbasbasbag61
(g77
g63
NtRp539
(dp540
g66
(dp541
sg75
g435
sg68
(lp542
g61
(g82
g63
NtRp543
(dp544
g66
(dp545
g86
g87
ssg75
g539
sg68
(lp546
g380
asbag61
(g82
g63
NtRp547
(dp548
g66
(dp549
g93
g94
ssg75
g539
sg68
(lp550
S':'
asbag61
(g82
g63
NtRp551
(dp552
g66
(dp553
sg75
g539
sg68
(lp554
g61
(g62
g63
NtRp555
(dp556
g66
(dp557
g74
I3
ssg75
g551
sg68
(lp558
S''
asbasbasbag61
(g77
g63
NtRp559
(dp560
g66
(dp561
sg75
g435
sg68
(lp562
g61
(g82
g63
NtRp563
(dp564
g66
(dp565
g86
g87
ssg75
g559
sg68
(lp566
g401
asbag61
(g82
g63
NtRp567
(dp568
g66
(dp569
g93
g94
ssg75
g559
sg68
(lp570
S':'
asbag61
(g82
g63
NtRp571
(dp572
g66
(dp573
sg75
g559
sg68
(lp574
g61
(g62
g63
NtRp575
(dp576
g66
(dp577
g74
I3
ssg75
g571
sg68
(lp578
S''
asbasbasbasbasbasbasbag61
(g77
g63
NtRp579
(dp580
g66
(dp581
sg75
g238
sg68
(lp582
g61
(g82
g63
NtRp583
(dp584
g66
(dp585
g86
g87
ssg75
g579
sg68
(lp586
S'session_id_onlinenotes_p1_'
p587
asbag61
(g82
g63
NtRp588
(dp589
g66
(dp590
g93
g94
ssg75
g579
sg68
(lp591
S':'
asbag61
(g82
g63
NtRp592
(dp593
g66
(dp594
sg75
g579
sg68
(lp595
g61
(g62
g63
NtRp596
(dp597
g66
(dp598
g74
I4
ssg75
g592
sg68
(lp599
g61
(g70
g63
NtRp600
(dp601
g66
(dp602
g74
I3
ssg75
Nsg68
(lp603
g61
(g77
g63
NtRp604
(dp605
g66
(dp606
sg75
g600
sg68
(lp607
g61
(g82
g63
NtRp608
(dp609
g66
(dp610
g86
g87
ssg75
g604
sg68
(lp611
g275
asbag61
(g82
g63
NtRp612
(dp613
g66
(dp614
g93
g94
ssg75
g604
sg68
(lp615
S':'
asbag61
(g82
g63
NtRp616
(dp617
g66
(dp618
sg75
g604
sg68
(lp619
g61
(g62
g63
NtRp620
(dp621
g66
(dp622
g74
I3
ssg75
g616
sg68
(lp623
S''
asbasbasbag61
(g77
g63
NtRp624
(dp625
g66
(dp626
sg75
g600
sg68
(lp627
g61
(g82
g63
NtRp628
(dp629
g66
(dp630
g86
g87
ssg75
g624
sg68
(lp631
g296
asbag61
(g82
g63
NtRp632
(dp633
g66
(dp634
g93
g94
ssg75
g624
sg68
(lp635
S':'
asbag61
(g82
g63
NtRp636
(dp637
g66
(dp638
sg75
g624
sg68
(lp639
g61
(g62
g63
NtRp640
(dp641
g66
(dp642
g74
I3
ssg75
g636
sg68
(lp643
S''
asbasbasbag61
(g77
g63
NtRp644
(dp645
g66
(dp646
sg75
g600
sg68
(lp647
g61
(g82
g63
NtRp648
(dp649
g66
(dp650
g86
g87
ssg75
g644
sg68
(lp651
g317
asbag61
(g82
g63
NtRp652
(dp653
g66
(dp654
g93
g94
ssg75
g644
sg68
(lp655
S':'
asbag61
(g82
g63
NtRp656
(dp657
g66
(dp658
sg75
g644
sg68
(lp659
g61
(g62
g63
NtRp660
(dp661
g66
(dp662
g74
I3
ssg75
g656
sg68
(lp663
S''
asbasbasbag61
(g77
g63
NtRp664
(dp665
g66
(dp666
sg75
g600
sg68
(lp667
g61
(g82
g63
NtRp668
(dp669
g66
(dp670
g86
g87
ssg75
g664
sg68
(lp671
g338
asbag61
(g82
g63
NtRp672
(dp673
g66
(dp674
g93
g94
ssg75
g664
sg68
(lp675
S':'
asbag61
(g82
g63
NtRp676
(dp677
g66
(dp678
sg75
g664
sg68
(lp679
g61
(g62
g63
NtRp680
(dp681
g66
(dp682
g74
I3
ssg75
g676
sg68
(lp683
S''
asbasbasbag61
(g77
g63
NtRp684
(dp685
g66
(dp686
sg75
g600
sg68
(lp687
g61
(g82
g63
NtRp688
(dp689
g66
(dp690
g86
g87
ssg75
g684
sg68
(lp691
g359
asbag61
(g82
g63
NtRp692
(dp693
g66
(dp694
g93
g94
ssg75
g684
sg68
(lp695
S':'
asbag61
(g82
g63
NtRp696
(dp697
g66
(dp698
sg75
g684
sg68
(lp699
g61
(g62
g63
NtRp700
(dp701
g66
(dp702
g74
I3
ssg75
g696
sg68
(lp703
S''
asbasbasbag61
(g77
g63
NtRp704
(dp705
g66
(dp706
sg75
g600
sg68
(lp707
g61
(g82
g63
NtRp708
(dp709
g66
(dp710
g86
g87
ssg75
g704
sg68
(lp711
g380
asbag61
(g82
g63
NtRp712
(dp713
g66
(dp714
g93
g94
ssg75
g704
sg68
(lp715
S':'
asbag61
(g82
g63
NtRp716
(dp717
g66
(dp718
sg75
g704
sg68
(lp719
g61
(g62
g63
NtRp720
(dp721
g66
(dp722
g74
I3
ssg75
g716
sg68
(lp723
S''
asbasbasbag61
(g77
g63
NtRp724
(dp725
g66
(dp726
sg75
g600
sg68
(lp727
g61
(g82
g63
NtRp728
(dp729
g66
(dp730
g86
g87
ssg75
g724
sg68
(lp731
g401
asbag61
(g82
g63
NtRp732
(dp733
g66
(dp734
g93
g94
ssg75
g724
sg68
(lp735
S':'
asbag61
(g82
g63
NtRp736
(dp737
g66
(dp738
sg75
g724
sg68
(lp739
g61
(g62
g63
NtRp740
(dp741
g66
(dp742
g74
I3
ssg75
g736
sg68
(lp743
S''
asbasbasbasbasbasbasbag61
(g77
g63
NtRp744
(dp745
g66
(dp746
sg75
g238
sg68
(lp747
g61
(g82
g63
NtRp748
(dp749
g66
(dp750
g86
g87
ssg75
g744
sg68
(lp751
S'session_id_slug_register_page'
p752
asbag61
(g82
g63
NtRp753
(dp754
g66
(dp755
g93
g94
ssg75
g744
sg68
(lp756
S':'
asbag61
(g82
g63
NtRp757
(dp758
g66
(dp759
sg75
g744
sg68
(lp760
g61
(g62
g63
NtRp761
(dp762
g66
(dp763
g74
I4
ssg75
g757
sg68
(lp764
g61
(g70
g63
NtRp765
(dp766
g66
(dp767
g74
I3
ssg75
Nsg68
(lp768
g61
(g77
g63
NtRp769
(dp770
g66
(dp771
sg75
g765
sg68
(lp772
g61
(g82
g63
NtRp773
(dp774
g66
(dp775
g86
g87
ssg75
g769
sg68
(lp776
g275
asbag61
(g82
g63
NtRp777
(dp778
g66
(dp779
g93
g94
ssg75
g769
sg68
(lp780
S':'
asbag61
(g82
g63
NtRp781
(dp782
g66
(dp783
sg75
g769
sg68
(lp784
g61
(g62
g63
NtRp785
(dp786
g66
(dp787
g74
I3
ssg75
g781
sg68
(lp788
S''
asbasbasbag61
(g77
g63
NtRp789
(dp790
g66
(dp791
sg75
g765
sg68
(lp792
g61
(g82
g63
NtRp793
(dp794
g66
(dp795
g86
g87
ssg75
g789
sg68
(lp796
g296
asbag61
(g82
g63
NtRp797
(dp798
g66
(dp799
g93
g94
ssg75
g789
sg68
(lp800
S':'
asbag61
(g82
g63
NtRp801
(dp802
g66
(dp803
sg75
g789
sg68
(lp804
g61
(g62
g63
NtRp805
(dp806
g66
(dp807
g74
I3
ssg75
g801
sg68
(lp808
S''
asbasbasbag61
(g77
g63
NtRp809
(dp810
g66
(dp811
sg75
g765
sg68
(lp812
g61
(g82
g63
NtRp813
(dp814
g66
(dp815
g86
g87
ssg75
g809
sg68
(lp816
g317
asbag61
(g82
g63
NtRp817
(dp818
g66
(dp819
g93
g94
ssg75
g809
sg68
(lp820
S':'
asbag61
(g82
g63
NtRp821
(dp822
g66
(dp823
sg75
g809
sg68
(lp824
g61
(g62
g63
NtRp825
(dp826
g66
(dp827
g74
I3
ssg75
g821
sg68
(lp828
S''
asbasbasbag61
(g77
g63
NtRp829
(dp830
g66
(dp831
sg75
g765
sg68
(lp832
g61
(g82
g63
NtRp833
(dp834
g66
(dp835
g86
g87
ssg75
g829
sg68
(lp836
g338
asbag61
(g82
g63
NtRp837
(dp838
g66
(dp839
g93
g94
ssg75
g829
sg68
(lp840
S':'
asbag61
(g82
g63
NtRp841
(dp842
g66
(dp843
sg75
g829
sg68
(lp844
g61
(g62
g63
NtRp845
(dp846
g66
(dp847
g74
I3
ssg75
g841
sg68
(lp848
S''
asbasbasbag61
(g77
g63
NtRp849
(dp850
g66
(dp851
sg75
g765
sg68
(lp852
g61
(g82
g63
NtRp853
(dp854
g66
(dp855
g86
g87
ssg75
g849
sg68
(lp856
g359
asbag61
(g82
g63
NtRp857
(dp858
g66
(dp859
g93
g94
ssg75
g849
sg68
(lp860
S':'
asbag61
(g82
g63
NtRp861
(dp862
g66
(dp863
sg75
g849
sg68
(lp864
g61
(g62
g63
NtRp865
(dp866
g66
(dp867
g74
I3
ssg75
g861
sg68
(lp868
S''
asbasbasbag61
(g77
g63
NtRp869
(dp870
g66
(dp871
sg75
g765
sg68
(lp872
g61
(g82
g63
NtRp873
(dp874
g66
(dp875
g86
g87
ssg75
g869
sg68
(lp876
g380
asbag61
(g82
g63
NtRp877
(dp878
g66
(dp879
g93
g94
ssg75
g869
sg68
(lp880
S':'
asbag61
(g82
g63
NtRp881
(dp882
g66
(dp883
sg75
g869
sg68
(lp884
g61
(g62
g63
NtRp885
(dp886
g66
(dp887
g74
I3
ssg75
g881
sg68
(lp888
S''
asbasbasbag61
(g77
g63
NtRp889
(dp890
g66
(dp891
sg75
g765
sg68
(lp892
g61
(g82
g63
NtRp893
(dp894
g66
(dp895
g86
g87
ssg75
g889
sg68
(lp896
g401
asbag61
(g82
g63
NtRp897
(dp898
g66
(dp899
g93
g94
ssg75
g889
sg68
(lp900
S':'
asbag61
(g82
g63
NtRp901
(dp902
g66
(dp903
sg75
g889
sg68
(lp904
g61
(g62
g63
NtRp905
(dp906
g66
(dp907
g74
I3
ssg75
g901
sg68
(lp908
S''
asbasbasbasbasbasbasbag61
(g77
g63
NtRp909
(dp910
g66
(dp911
sg75
g238
sg68
(lp912
g61
(g82
g63
NtRp913
(dp914
g66
(dp915
g86
g87
ssg75
g909
sg68
(lp916
S'session_id_slugbarter'
p917
asbag61
(g82
g63
NtRp918
(dp919
g66
(dp920
g93
g94
ssg75
g909
sg68
(lp921
S':'
asbag61
(g82
g63
NtRp922
(dp923
g66
(dp924
sg75
g909
sg68
(lp925
g61
(g62
g63
NtRp926
(dp927
g66
(dp928
g74
I4
ssg75
g922
sg68
(lp929
g61
(g70
g63
NtRp930
(dp931
g66
(dp932
g74
I3
ssg75
Nsg68
(lp933
g61
(g77
g63
NtRp934
(dp935
g66
(dp936
sg75
g930
sg68
(lp937
g61
(g82
g63
NtRp938
(dp939
g66
(dp940
g86
g87
ssg75
g934
sg68
(lp941
g275
asbag61
(g82
g63
NtRp942
(dp943
g66
(dp944
g93
g94
ssg75
g934
sg68
(lp945
S':'
asbag61
(g82
g63
NtRp946
(dp947
g66
(dp948
sg75
g934
sg68
(lp949
g61
(g62
g63
NtRp950
(dp951
g66
(dp952
g74
I3
ssg75
g946
sg68
(lp953
S''
asbasbasbag61
(g77
g63
NtRp954
(dp955
g66
(dp956
sg75
g930
sg68
(lp957
g61
(g82
g63
NtRp958
(dp959
g66
(dp960
g86
g87
ssg75
g954
sg68
(lp961
g296
asbag61
(g82
g63
NtRp962
(dp963
g66
(dp964
g93
g94
ssg75
g954
sg68
(lp965
S':'
asbag61
(g82
g63
NtRp966
(dp967
g66
(dp968
sg75
g954
sg68
(lp969
g61
(g62
g63
NtRp970
(dp971
g66
(dp972
g74
I3
ssg75
g966
sg68
(lp973
S''
asbasbasbag61
(g77
g63
NtRp974
(dp975
g66
(dp976
sg75
g930
sg68
(lp977
g61
(g82
g63
NtRp978
(dp979
g66
(dp980
g86
g87
ssg75
g974
sg68
(lp981
g317
asbag61
(g82
g63
NtRp982
(dp983
g66
(dp984
g93
g94
ssg75
g974
sg68
(lp985
S':'
asbag61
(g82
g63
NtRp986
(dp987
g66
(dp988
sg75
g974
sg68
(lp989
g61
(g62
g63
NtRp990
(dp991
g66
(dp992
g74
I3
ssg75
g986
sg68
(lp993
S''
asbasbasbag61
(g77
g63
NtRp994
(dp995
g66
(dp996
sg75
g930
sg68
(lp997
g61
(g82
g63
NtRp998
(dp999
g66
(dp1000
g86
g87
ssg75
g994
sg68
(lp1001
g338
asbag61
(g82
g63
NtRp1002
(dp1003
g66
(dp1004
g93
g94
ssg75
g994
sg68
(lp1005
S':'
asbag61
(g82
g63
NtRp1006
(dp1007
g66
(dp1008
sg75
g994
sg68
(lp1009
g61
(g62
g63
NtRp1010
(dp1011
g66
(dp1012
g74
I3
ssg75
g1006
sg68
(lp1013
S''
asbasbasbag61
(g77
g63
NtRp1014
(dp1015
g66
(dp1016
sg75
g930
sg68
(lp1017
g61
(g82
g63
NtRp1018
(dp1019
g66
(dp1020
g86
g87
ssg75
g1014
sg68
(lp1021
g359
asbag61
(g82
g63
NtRp1022
(dp1023
g66
(dp1024
g93
g94
ssg75
g1014
sg68
(lp1025
S':'
asbag61
(g82
g63
NtRp1026
(dp1027
g66
(dp1028
sg75
g1014
sg68
(lp1029
g61
(g62
g63
NtRp1030
(dp1031
g66
(dp1032
g74
I3
ssg75
g1026
sg68
(lp1033
S''
asbasbasbag61
(g77
g63
NtRp1034
(dp1035
g66
(dp1036
sg75
g930
sg68
(lp1037
g61
(g82
g63
NtRp1038
(dp1039
g66
(dp1040
g86
g87
ssg75
g1034
sg68
(lp1041
g380
asbag61
(g82
g63
NtRp1042
(dp1043
g66
(dp1044
g93
g94
ssg75
g1034
sg68
(lp1045
S':'
asbag61
(g82
g63
NtRp1046
(dp1047
g66
(dp1048
sg75
g1034
sg68
(lp1049
g61
(g62
g63
NtRp1050
(dp1051
g66
(dp1052
g74
I3
ssg75
g1046
sg68
(lp1053
S''
asbasbasbag61
(g77
g63
NtRp1054
(dp1055
g66
(dp1056
sg75
g930
sg68
(lp1057
g61
(g82
g63
NtRp1058
(dp1059
g66
(dp1060
g86
g87
ssg75
g1054
sg68
(lp1061
g401
asbag61
(g82
g63
NtRp1062
(dp1063
g66
(dp1064
g93
g94
ssg75
g1054
sg68
(lp1065
S':'
asbag61
(g82
g63
NtRp1066
(dp1067
g66
(dp1068
sg75
g1054
sg68
(lp1069
g61
(g62
g63
NtRp1070
(dp1071
g66
(dp1072
g74
I3
ssg75
g1066
sg68
(lp1073
S''
asbasbasbasbasbasbasbag61
(g77
g63
NtRp1074
(dp1075
g66
(dp1076
sg75
g238
sg68
(lp1077
g61
(g82
g63
NtRp1078
(dp1079
g66
(dp1080
g86
g87
ssg75
g1074
sg68
(lp1081
S'session_id_welcome'
p1082
asbag61
(g82
g63
NtRp1083
(dp1084
g66
(dp1085
g93
g94
ssg75
g1074
sg68
(lp1086
S':'
asbag61
(g82
g63
NtRp1087
(dp1088
g66
(dp1089
sg75
g1074
sg68
(lp1090
g61
(g62
g63
NtRp1091
(dp1092
g66
(dp1093
g74
I4
ssg75
g1087
sg68
(lp1094
g61
(g70
g63
NtRp1095
(dp1096
g66
(dp1097
g74
I3
ssg75
Nsg68
(lp1098
g61
(g77
g63
NtRp1099
(dp1100
g66
(dp1101
sg75
g1095
sg68
(lp1102
g61
(g82
g63
NtRp1103
(dp1104
g66
(dp1105
g86
g87
ssg75
g1099
sg68
(lp1106
g275
asbag61
(g82
g63
NtRp1107
(dp1108
g66
(dp1109
g93
g94
ssg75
g1099
sg68
(lp1110
S':'
asbag61
(g82
g63
NtRp1111
(dp1112
g66
(dp1113
sg75
g1099
sg68
(lp1114
g61
(g62
g63
NtRp1115
(dp1116
g66
(dp1117
g74
I3
ssg75
g1111
sg68
(lp1118
S''
asbasbasbag61
(g77
g63
NtRp1119
(dp1120
g66
(dp1121
sg75
g1095
sg68
(lp1122
g61
(g82
g63
NtRp1123
(dp1124
g66
(dp1125
g86
g87
ssg75
g1119
sg68
(lp1126
g296
asbag61
(g82
g63
NtRp1127
(dp1128
g66
(dp1129
g93
g94
ssg75
g1119
sg68
(lp1130
S':'
asbag61
(g82
g63
NtRp1131
(dp1132
g66
(dp1133
sg75
g1119
sg68
(lp1134
g61
(g62
g63
NtRp1135
(dp1136
g66
(dp1137
g74
I3
ssg75
g1131
sg68
(lp1138
S''
asbasbasbag61
(g77
g63
NtRp1139
(dp1140
g66
(dp1141
sg75
g1095
sg68
(lp1142
g61
(g82
g63
NtRp1143
(dp1144
g66
(dp1145
g86
g87
ssg75
g1139
sg68
(lp1146
g317
asbag61
(g82
g63
NtRp1147
(dp1148
g66
(dp1149
g93
g94
ssg75
g1139
sg68
(lp1150
S':'
asbag61
(g82
g63
NtRp1151
(dp1152
g66
(dp1153
sg75
g1139
sg68
(lp1154
g61
(g62
g63
NtRp1155
(dp1156
g66
(dp1157
g74
I3
ssg75
g1151
sg68
(lp1158
S''
asbasbasbag61
(g77
g63
NtRp1159
(dp1160
g66
(dp1161
sg75
g1095
sg68
(lp1162
g61
(g82
g63
NtRp1163
(dp1164
g66
(dp1165
g86
g87
ssg75
g1159
sg68
(lp1166
g338
asbag61
(g82
g63
NtRp1167
(dp1168
g66
(dp1169
g93
g94
ssg75
g1159
sg68
(lp1170
S':'
asbag61
(g82
g63
NtRp1171
(dp1172
g66
(dp1173
sg75
g1159
sg68
(lp1174
g61
(g62
g63
NtRp1175
(dp1176
g66
(dp1177
g74
I3
ssg75
g1171
sg68
(lp1178
S''
asbasbasbag61
(g77
g63
NtRp1179
(dp1180
g66
(dp1181
sg75
g1095
sg68
(lp1182
g61
(g82
g63
NtRp1183
(dp1184
g66
(dp1185
g86
g87
ssg75
g1179
sg68
(lp1186
g359
asbag61
(g82
g63
NtRp1187
(dp1188
g66
(dp1189
g93
g94
ssg75
g1179
sg68
(lp1190
S':'
asbag61
(g82
g63
NtRp1191
(dp1192
g66
(dp1193
sg75
g1179
sg68
(lp1194
g61
(g62
g63
NtRp1195
(dp1196
g66
(dp1197
g74
I3
ssg75
g1191
sg68
(lp1198
S''
asbasbasbag61
(g77
g63
NtRp1199
(dp1200
g66
(dp1201
sg75
g1095
sg68
(lp1202
g61
(g82
g63
NtRp1203
(dp1204
g66
(dp1205
g86
g87
ssg75
g1199
sg68
(lp1206
g380
asbag61
(g82
g63
NtRp1207
(dp1208
g66
(dp1209
g93
g94
ssg75
g1199
sg68
(lp1210
S':'
asbag61
(g82
g63
NtRp1211
(dp1212
g66
(dp1213
sg75
g1199
sg68
(lp1214
g61
(g62
g63
NtRp1215
(dp1216
g66
(dp1217
g74
I3
ssg75
g1211
sg68
(lp1218
S''
asbasbasbag61
(g77
g63
NtRp1219
(dp1220
g66
(dp1221
sg75
g1095
sg68
(lp1222
g61
(g82
g63
NtRp1223
(dp1224
g66
(dp1225
g86
g87
ssg75
g1219
sg68
(lp1226
g401
asbag61
(g82
g63
NtRp1227
(dp1228
g66
(dp1229
g93
g94
ssg75
g1219
sg68
(lp1230
S':'
asbag61
(g82
g63
NtRp1231
(dp1232
g66
(dp1233
sg75
g1219
sg68
(lp1234
g61
(g62
g63
NtRp1235
(dp1236
g66
(dp1237
g74
I3
ssg75
g1231
sg68
(lp1238
S''
asbasbasbasbasbasbasbasbasbasbasbag61
(g77
g63
NtRp1239
(dp1240
g66
(dp1241
sg75
g71
sg68
(lp1242
g61
(g82
g63
NtRp1243
(dp1244
g66
(dp1245
g86
g87
ssg75
g1239
sg68
(lp1246
S'env'
p1247
asbag61
(g82
g63
NtRp1248
(dp1249
g66
(dp1250
g93
g94
ssg75
g1239
sg68
(lp1251
S':'
asbag61
(g82
g63
NtRp1252
(dp1253
g66
(dp1254
sg75
g1239
sg68
(lp1255
g61
(g62
g63
NtRp1256
(dp1257
g66
(dp1258
g74
I5
ssg75
g1252
sg68
(lp1259
g61
(g70
g63
NtRp1260
(dp1261
g66
(dp1262
g74
I4
ssg75
Nsg68
(lp1263
g61
(g77
g63
NtRp1264
(dp1265
g66
(dp1266
sg75
g1260
sg68
(lp1267
g61
(g82
g63
NtRp1268
(dp1269
g66
(dp1270
g86
g87
ssg75
g1264
sg68
(lp1271
S'app_folders'
p1272
asbag61
(g82
g63
NtRp1273
(dp1274
g66
(dp1275
g93
g94
ssg75
g1264
sg68
(lp1276
S':'
asbag61
(g82
g63
NtRp1277
(dp1278
g66
(dp1279
sg75
g1264
sg68
(lp1280
g61
(g62
g63
NtRp1281
(dp1282
g66
(dp1283
g74
I4
ssg75
g1277
sg68
(lp1284
S"set(['C:\\\\Users\\\\omkara\\\\Desktop\\\\web2py\\\\applications\\\\slug_register_page\\\\', 'C:\\\\Users\\\\omkara\\\\Desktop\\\\web2py\\\\applications\\\\admin\\\\', 'C:\\\\Users\\\\omkara\\\\Desktop\\\\web2py\\\\applications\\\\Assignment3\\\\', 'C:\\\\Users\\\\omkara\\\\Desktop\\\\web2py\\\\applications\\\\welcome\\\\', 'C:\\\\Users\\\\omkara\\\\Desktop\\\\web2py\\\\applications\\\\OnlineNotes_p1_\\\\', 'C:\\\\Users\\\\omkara\\\\Desktop\\\\web2py\\\\applications\\\\SlugBarter\\\\'])"
p1285
asbasbasbag61
(g77
g63
NtRp1286
(dp1287
g66
(dp1288
sg75
g1260
sg68
(lp1289
g61
(g82
g63
NtRp1290
(dp1291
g66
(dp1292
g86
g87
ssg75
g1286
sg68
(lp1293
S'applications_parent'
p1294
asbag61
(g82
g63
NtRp1295
(dp1296
g66
(dp1297
g93
g94
ssg75
g1286
sg68
(lp1298
S':'
asbag61
(g82
g63
NtRp1299
(dp1300
g66
(dp1301
sg75
g1286
sg68
(lp1302
g61
(g62
g63
NtRp1303
(dp1304
g66
(dp1305
g74
I4
ssg75
g1299
sg68
(lp1306
S'C:\\Users\\omkara\\Desktop\\web2py'
p1307
asbasbasbag61
(g77
g63
NtRp1308
(dp1309
g66
(dp1310
sg75
g1260
sg68
(lp1311
g61
(g82
g63
NtRp1312
(dp1313
g66
(dp1314
g86
g87
ssg75
g1308
sg68
(lp1315
S'cmd_args'
p1316
asbag61
(g82
g63
NtRp1317
(dp1318
g66
(dp1319
g93
g94
ssg75
g1308
sg68
(lp1320
S':'
asbag61
(g82
g63
NtRp1321
(dp1322
g66
(dp1323
sg75
g1308
sg68
(lp1324
g61
(g62
g63
NtRp1325
(dp1326
g66
(dp1327
g74
I4
ssg75
g1321
sg68
(lp1328
g61
(g70
g63
NtRp1329
(dp1330
g66
(dp1331
g74
I3
ssg75
Nsg68
(lp1332
sbasbasbasbag61
(g77
g63
NtRp1333
(dp1334
g66
(dp1335
sg75
g1260
sg68
(lp1336
g61
(g82
g63
NtRp1337
(dp1338
g66
(dp1339
g86
g87
ssg75
g1333
sg68
(lp1340
S'cmd_options'
p1341
asbag61
(g82
g63
NtRp1342
(dp1343
g66
(dp1344
g93
g94
ssg75
g1333
sg68
(lp1345
S':'
asbag61
(g82
g63
NtRp1346
(dp1347
g66
(dp1348
sg75
g1333
sg68
(lp1349
g61
(g62
g63
NtRp1350
(dp1351
g66
(dp1352
g74
I4
ssg75
g1346
sg68
(lp1353
S"<Values at 0x28230f8: {'verbose': False, 'ip': '127.0.0.1', 'shutdown_timeout': 5, 'taskbar': False, 'nocron': False, 'pid_filename': 'httpserver.pid', 'maxthreads': None, 'softcron': False, 'server_name': 'omkara-PC', 'bpython': False, 'nogui': False, 'port': 8000, 'extcron': False, 'debuglevel': 30, 'test': None, 'folder': 'C:\\\\Users\\\\omkara\\\\Desktop\\\\web2py', 'config': '', 'import_models': False, 'winservice': '', 'shell': None, 'run': '', 'log_filename': 'httpserver.log', 'args': [''], 'socket_timeout': 5, 'ssl_ca_certificate': None, 'scheduler': None, 'profiler_filename': None, 'ssl_private_key': '', 'password': '<ask>', 'request_queue_size': 5, 'ssl_certificate': '', 'cronjob': False, 'numthreads': None, 'quiet': False, 'interfaces': None, 'minthreads': None, 'timeout': 10, 'plain': False, 'nobanner': False}>"
p1354
asbasbasbag61
(g77
g63
NtRp1355
(dp1356
g66
(dp1357
sg75
g1260
sg68
(lp1358
g61
(g82
g63
NtRp1359
(dp1360
g66
(dp1361
g86
g87
ssg75
g1355
sg68
(lp1362
S'db_sessions'
p1363
asbag61
(g82
g63
NtRp1364
(dp1365
g66
(dp1366
g93
g94
ssg75
g1355
sg68
(lp1367
S':'
asbag61
(g82
g63
NtRp1368
(dp1369
g66
(dp1370
sg75
g1355
sg68
(lp1371
g61
(g62
g63
NtRp1372
(dp1373
g66
(dp1374
g74
I4
ssg75
g1368
sg68
(lp1375
S'set([])'
p1376
asbasbasbag61
(g77
g63
NtRp1377
(dp1378
g66
(dp1379
sg75
g1260
sg68
(lp1380
g61
(g82
g63
NtRp1381
(dp1382
g66
(dp1383
g86
g87
ssg75
g1377
sg68
(lp1384
S'debugging'
p1385
asbag61
(g82
g63
NtRp1386
(dp1387
g66
(dp1388
g93
g94
ssg75
g1377
sg68
(lp1389
S':'
asbag61
(g82
g63
NtRp1390
(dp1391
g66
(dp1392
sg75
g1377
sg68
(lp1393
g61
(g62
g63
NtRp1394
(dp1395
g66
(dp1396
g74
I4
ssg75
g1390
sg68
(lp1397
g104
asbasbasbag61
(g77
g63
NtRp1398
(dp1399
g66
(dp1400
sg75
g1260
sg68
(lp1401
g61
(g82
g63
NtRp1402
(dp1403
g66
(dp1404
g86
g87
ssg75
g1398
sg68
(lp1405
S'gluon_parent'
p1406
asbag61
(g82
g63
NtRp1407
(dp1408
g66
(dp1409
g93
g94
ssg75
g1398
sg68
(lp1410
S':'
asbag61
(g82
g63
NtRp1411
(dp1412
g66
(dp1413
sg75
g1398
sg68
(lp1414
g61
(g62
g63
NtRp1415
(dp1416
g66
(dp1417
g74
I4
ssg75
g1411
sg68
(lp1418
S'C:\\Users\\omkara\\Desktop\\web2py'
p1419
asbasbasbag61
(g77
g63
NtRp1420
(dp1421
g66
(dp1422
sg75
g1260
sg68
(lp1423
g61
(g82
g63
NtRp1424
(dp1425
g66
(dp1426
g86
g87
ssg75
g1420
sg68
(lp1427
S'http_accept'
p1428
asbag61
(g82
g63
NtRp1429
(dp1430
g66
(dp1431
g93
g94
ssg75
g1420
sg68
(lp1432
S':'
asbag61
(g82
g63
NtRp1433
(dp1434
g66
(dp1435
sg75
g1420
sg68
(lp1436
g61
(g62
g63
NtRp1437
(dp1438
g66
(dp1439
g74
I4
ssg75
g1433
sg68
(lp1440
S'text/html,application/xhtml+xml,application/xml;q=0.9,*/*;q=0.8'
p1441
asbasbasbag61
(g77
g63
NtRp1442
(dp1443
g66
(dp1444
sg75
g1260
sg68
(lp1445
g61
(g82
g63
NtRp1446
(dp1447
g66
(dp1448
g86
g87
ssg75
g1442
sg68
(lp1449
S'http_accept_charset'
p1450
asbag61
(g82
g63
NtRp1451
(dp1452
g66
(dp1453
g93
g94
ssg75
g1442
sg68
(lp1454
S':'
asbag61
(g82
g63
NtRp1455
(dp1456
g66
(dp1457
sg75
g1442
sg68
(lp1458
g61
(g62
g63
NtRp1459
(dp1460
g66
(dp1461
g74
I4
ssg75
g1455
sg68
(lp1462
S'ISO-8859-1,utf-8;q=0.7,*;q=0.3'
p1463
asbasbasbag61
(g77
g63
NtRp1464
(dp1465
g66
(dp1466
sg75
g1260
sg68
(lp1467
g61
(g82
g63
NtRp1468
(dp1469
g66
(dp1470
g86
g87
ssg75
g1464
sg68
(lp1471
S'http_accept_encoding'
p1472
asbag61
(g82
g63
NtRp1473
(dp1474
g66
(dp1475
g93
g94
ssg75
g1464
sg68
(lp1476
S':'
asbag61
(g82
g63
NtRp1477
(dp1478
g66
(dp1479
sg75
g1464
sg68
(lp1480
g61
(g62
g63
NtRp1481
(dp1482
g66
(dp1483
g74
I4
ssg75
g1477
sg68
(lp1484
S'gzip,deflate,sdch'
p1485
asbasbasbag61
(g77
g63
NtRp1486
(dp1487
g66
(dp1488
sg75
g1260
sg68
(lp1489
g61
(g82
g63
NtRp1490
(dp1491
g66
(dp1492
g86
g87
ssg75
g1486
sg68
(lp1493
S'http_accept_language'
p1494
asbag61
(g82
g63
NtRp1495
(dp1496
g66
(dp1497
g93
g94
ssg75
g1486
sg68
(lp1498
S':'
asbag61
(g82
g63
NtRp1499
(dp1500
g66
(dp1501
sg75
g1486
sg68
(lp1502
g61
(g62
g63
NtRp1503
(dp1504
g66
(dp1505
g74
I4
ssg75
g1499
sg68
(lp1506
S'en-US,en;q=0.8'
p1507
asbasbasbag61
(g77
g63
NtRp1508
(dp1509
g66
(dp1510
sg75
g1260
sg68
(lp1511
g61
(g82
g63
NtRp1512
(dp1513
g66
(dp1514
g86
g87
ssg75
g1508
sg68
(lp1515
S'http_connection'
p1516
asbag61
(g82
g63
NtRp1517
(dp1518
g66
(dp1519
g93
g94
ssg75
g1508
sg68
(lp1520
S':'
asbag61
(g82
g63
NtRp1521
(dp1522
g66
(dp1523
sg75
g1508
sg68
(lp1524
g61
(g62
g63
NtRp1525
(dp1526
g66
(dp1527
g74
I4
ssg75
g1521
sg68
(lp1528
S'keep-alive'
p1529
asbasbasbag61
(g77
g63
NtRp1530
(dp1531
g66
(dp1532
sg75
g1260
sg68
(lp1533
g61
(g82
g63
NtRp1534
(dp1535
g66
(dp1536
g86
g87
ssg75
g1530
sg68
(lp1537
S'http_cookie'
p1538
asbag61
(g82
g63
NtRp1539
(dp1540
g66
(dp1541
g93
g94
ssg75
g1530
sg68
(lp1542
S':'
asbag61
(g82
g63
NtRp1543
(dp1544
g66
(dp1545
sg75
g1530
sg68
(lp1546
g61
(g62
g63
NtRp1547
(dp1548
g66
(dp1549
g74
I4
ssg75
g1543
sg68
(lp1550
S'session_id_slug_register_page=127.0.0.1-f15706e9-1295-4966-b038-fe9f2920c63b; session_id_onlinenotes_p1_=127.0.0.1-bbeb3d58-63a6-43f5-96c1-8855c711fc8e; session_id_slugbarter=127.0.0.1-731893cd-2bbe-4a91-9483-28b500d609be; session_id_welcome=127.0.0.1-11de0b4a-f781-45be-b8a0-5c0546ffb1c7; session_id_assignment3=127.0.0.1-133e2d9b-1c70-4de6-8636-a7632b1c4876; session_id_admin=127.0.0.1-7358f818-ffbc-48b5-961c-b6a4259bb946'
p1551
asbasbasbag61
(g77
g63
NtRp1552
(dp1553
g66
(dp1554
sg75
g1260
sg68
(lp1555
g61
(g82
g63
NtRp1556
(dp1557
g66
(dp1558
g86
g87
ssg75
g1552
sg68
(lp1559
S'http_host'
p1560
asbag61
(g82
g63
NtRp1561
(dp1562
g66
(dp1563
g93
g94
ssg75
g1552
sg68
(lp1564
S':'
asbag61
(g82
g63
NtRp1565
(dp1566
g66
(dp1567
sg75
g1552
sg68
(lp1568
g61
(g62
g63
NtRp1569
(dp1570
g66
(dp1571
g74
I4
ssg75
g1565
sg68
(lp1572
S'127.0.0.1:8000'
p1573
asbasbasbag61
(g77
g63
NtRp1574
(dp1575
g66
(dp1576
sg75
g1260
sg68
(lp1577
g61
(g82
g63
NtRp1578
(dp1579
g66
(dp1580
g86
g87
ssg75
g1574
sg68
(lp1581
S'http_referer'
p1582
asbag61
(g82
g63
NtRp1583
(dp1584
g66
(dp1585
g93
g94
ssg75
g1574
sg68
(lp1586
S':'
asbag61
(g82
g63
NtRp1587
(dp1588
g66
(dp1589
sg75
g1574
sg68
(lp1590
g61
(g62
g63
NtRp1591
(dp1592
g66
(dp1593
g74
I4
ssg75
g1587
sg68
(lp1594
S'http://127.0.0.1:8000/admin/default/design/SlugBarter'
p1595
asbasbasbag61
(g77
g63
NtRp1596
(dp1597
g66
(dp1598
sg75
g1260
sg68
(lp1599
g61
(g82
g63
NtRp1600
(dp1601
g66
(dp1602
g86
g87
ssg75
g1596
sg68
(lp1603
S'http_user_agent'
p1604
asbag61
(g82
g63
NtRp1605
(dp1606
g66
(dp1607
g93
g94
ssg75
g1596
sg68
(lp1608
S':'
asbag61
(g82
g63
NtRp1609
(dp1610
g66
(dp1611
sg75
g1596
sg68
(lp1612
g61
(g62
g63
NtRp1613
(dp1614
g66
(dp1615
g74
I4
ssg75
g1609
sg68
(lp1616
S'Mozilla/5.0 (Windows NT 6.1) AppleWebKit/537.4 (KHTML, like Gecko) Chrome/22.0.1229.94 Safari/537.4'
p1617
asbasbasbag61
(g77
g63
NtRp1618
(dp1619
g66
(dp1620
sg75
g1260
sg68
(lp1621
g61
(g82
g63
NtRp1622
(dp1623
g66
(dp1624
g86
g87
ssg75
g1618
sg68
(lp1625
S'is_jython'
p1626
asbag61
(g82
g63
NtRp1627
(dp1628
g66
(dp1629
g93
g94
ssg75
g1618
sg68
(lp1630
S':'
asbag61
(g82
g63
NtRp1631
(dp1632
g66
(dp1633
sg75
g1618
sg68
(lp1634
g61
(g62
g63
NtRp1635
(dp1636
g66
(dp1637
g74
I4
ssg75
g1631
sg68
(lp1638
g104
asbasbasbag61
(g77
g63
NtRp1639
(dp1640
g66
(dp1641
sg75
g1260
sg68
(lp1642
g61
(g82
g63
NtRp1643
(dp1644
g66
(dp1645
g86
g87
ssg75
g1639
sg68
(lp1646
S'is_pypy'
p1647
asbag61
(g82
g63
NtRp1648
(dp1649
g66
(dp1650
g93
g94
ssg75
g1639
sg68
(lp1651
S':'
asbag61
(g82
g63
NtRp1652
(dp1653
g66
(dp1654
sg75
g1639
sg68
(lp1655
g61
(g62
g63
NtRp1656
(dp1657
g66
(dp1658
g74
I4
ssg75
g1652
sg68
(lp1659
g104
asbasbasbag61
(g77
g63
NtRp1660
(dp1661
g66
(dp1662
sg75
g1260
sg68
(lp1663
g61
(g82
g63
NtRp1664
(dp1665
g66
(dp1666
g86
g87
ssg75
g1660
sg68
(lp1667
S'path_info'
p1668
asbag61
(g82
g63
NtRp1669
(dp1670
g66
(dp1671
g93
g94
ssg75
g1660
sg68
(lp1672
S':'
asbag61
(g82
g63
NtRp1673
(dp1674
g66
(dp1675
sg75
g1660
sg68
(lp1676
g61
(g62
g63
NtRp1677
(dp1678
g66
(dp1679
g74
I4
ssg75
g1673
sg68
(lp1680
S'/SlugBarter/appadmin/index'
p1681
asbasbasbag61
(g77
g63
NtRp1682
(dp1683
g66
(dp1684
sg75
g1260
sg68
(lp1685
g61
(g82
g63
NtRp1686
(dp1687
g66
(dp1688
g86
g87
ssg75
g1682
sg68
(lp1689
S'query_string'
p1690
asbag61
(g82
g63
NtRp1691
(dp1692
g66
(dp1693
g93
g94
ssg75
g1682
sg68
(lp1694
S':'
asbag61
(g82
g63
NtRp1695
(dp1696
g66
(dp1697
sg75
g1682
sg68
(lp1698
g61
(g62
g63
NtRp1699
(dp1700
g66
(dp1701
g74
I4
ssg75
g1695
sg68
(lp1702
S''
asbasbasbag61
(g77
g63
NtRp1703
(dp1704
g66
(dp1705
sg75
g1260
sg68
(lp1706
g61
(g82
g63
NtRp1707
(dp1708
g66
(dp1709
g86
g87
ssg75
g1703
sg68
(lp1710
S'remote_addr'
p1711
asbag61
(g82
g63
NtRp1712
(dp1713
g66
(dp1714
g93
g94
ssg75
g1703
sg68
(lp1715
S':'
asbag61
(g82
g63
NtRp1716
(dp1717
g66
(dp1718
sg75
g1703
sg68
(lp1719
g61
(g62
g63
NtRp1720
(dp1721
g66
(dp1722
g74
I4
ssg75
g1716
sg68
(lp1723
g194
asbasbasbag61
(g77
g63
NtRp1724
(dp1725
g66
(dp1726
sg75
g1260
sg68
(lp1727
g61
(g82
g63
NtRp1728
(dp1729
g66
(dp1730
g86
g87
ssg75
g1724
sg68
(lp1731
S'remote_port'
p1732
asbag61
(g82
g63
NtRp1733
(dp1734
g66
(dp1735
g93
g94
ssg75
g1724
sg68
(lp1736
S':'
asbag61
(g82
g63
NtRp1737
(dp1738
g66
(dp1739
sg75
g1724
sg68
(lp1740
g61
(g62
g63
NtRp1741
(dp1742
g66
(dp1743
g74
I4
ssg75
g1737
sg68
(lp1744
S'49197'
p1745
asbasbasbag61
(g77
g63
NtRp1746
(dp1747
g66
(dp1748
sg75
g1260
sg68
(lp1749
g61
(g82
g63
NtRp1750
(dp1751
g66
(dp1752
g86
g87
ssg75
g1746
sg68
(lp1753
S'request_method'
p1754
asbag61
(g82
g63
NtRp1755
(dp1756
g66
(dp1757
g93
g94
ssg75
g1746
sg68
(lp1758
S':'
asbag61
(g82
g63
NtRp1759
(dp1760
g66
(dp1761
sg75
g1746
sg68
(lp1762
g61
(g62
g63
NtRp1763
(dp1764
g66
(dp1765
g74
I4
ssg75
g1759
sg68
(lp1766
S'GET'
p1767
asbasbasbag61
(g77
g63
NtRp1768
(dp1769
g66
(dp1770
sg75
g1260
sg68
(lp1771
g61
(g82
g63
NtRp1772
(dp1773
g66
(dp1774
g86
g87
ssg75
g1768
sg68
(lp1775
S'script_name'
p1776
asbag61
(g82
g63
NtRp1777
(dp1778
g66
(dp1779
g93
g94
ssg75
g1768
sg68
(lp1780
S':'
asbag61
(g82
g63
NtRp1781
(dp1782
g66
(dp1783
sg75
g1768
sg68
(lp1784
g61
(g62
g63
NtRp1785
(dp1786
g66
(dp1787
g74
I4
ssg75
g1781
sg68
(lp1788
S''
asbasbasbag61
(g77
g63
NtRp1789
(dp1790
g66
(dp1791
sg75
g1260
sg68
(lp1792
g61
(g82
g63
NtRp1793
(dp1794
g66
(dp1795
g86
g87
ssg75
g1789
sg68
(lp1796
S'server_name'
p1797
asbag61
(g82
g63
NtRp1798
(dp1799
g66
(dp1800
g93
g94
ssg75
g1789
sg68
(lp1801
S':'
asbag61
(g82
g63
NtRp1802
(dp1803
g66
(dp1804
sg75
g1789
sg68
(lp1805
g61
(g62
g63
NtRp1806
(dp1807
g66
(dp1808
g74
I4
ssg75
g1802
sg68
(lp1809
S'omkara-PC'
p1810
asbasbasbag61
(g77
g63
NtRp1811
(dp1812
g66
(dp1813
sg75
g1260
sg68
(lp1814
g61
(g82
g63
NtRp1815
(dp1816
g66
(dp1817
g86
g87
ssg75
g1811
sg68
(lp1818
S'server_port'
p1819
asbag61
(g82
g63
NtRp1820
(dp1821
g66
(dp1822
g93
g94
ssg75
g1811
sg68
(lp1823
S':'
asbag61
(g82
g63
NtRp1824
(dp1825
g66
(dp1826
sg75
g1811
sg68
(lp1827
g61
(g62
g63
NtRp1828
(dp1829
g66
(dp1830
g74
I4
ssg75
g1824
sg68
(lp1831
S'8000'
p1832
asbasbasbag61
(g77
g63
NtRp1833
(dp1834
g66
(dp1835
sg75
g1260
sg68
(lp1836
g61
(g82
g63
NtRp1837
(dp1838
g66
(dp1839
g86
g87
ssg75
g1833
sg68
(lp1840
S'server_protocol'
p1841
asbag61
(g82
g63
NtRp1842
(dp1843
g66
(dp1844
g93
g94
ssg75
g1833
sg68
(lp1845
S':'
asbag61
(g82
g63
NtRp1846
(dp1847
g66
(dp1848
sg75
g1833
sg68
(lp1849
g61
(g62
g63
NtRp1850
(dp1851
g66
(dp1852
g74
I4
ssg75
g1846
sg68
(lp1853
S'HTTP/1.1'
p1854
asbasbasbag61
(g77
g63
NtRp1855
(dp1856
g66
(dp1857
sg75
g1260
sg68
(lp1858
g61
(g82
g63
NtRp1859
(dp1860
g66
(dp1861
g86
g87
ssg75
g1855
sg68
(lp1862
S'server_software'
p1863
asbag61
(g82
g63
NtRp1864
(dp1865
g66
(dp1866
g93
g94
ssg75
g1855
sg68
(lp1867
S':'
asbag61
(g82
g63
NtRp1868
(dp1869
g66
(dp1870
sg75
g1855
sg68
(lp1871
g61
(g62
g63
NtRp1872
(dp1873
g66
(dp1874
g74
I4
ssg75
g1868
sg68
(lp1875
S'Rocket 1.2.4'
p1876
asbasbasbag61
(g77
g63
NtRp1877
(dp1878
g66
(dp1879
sg75
g1260
sg68
(lp1880
g61
(g82
g63
NtRp1881
(dp1882
g66
(dp1883
g86
g87
ssg75
g1877
sg68
(lp1884
S'web2py_crontype'
p1885
asbag61
(g82
g63
NtRp1886
(dp1887
g66
(dp1888
g93
g94
ssg75
g1877
sg68
(lp1889
S':'
asbag61
(g82
g63
NtRp1890
(dp1891
g66
(dp1892
sg75
g1877
sg68
(lp1893
g61
(g62
g63
NtRp1894
(dp1895
g66
(dp1896
g74
I4
ssg75
g1890
sg68
(lp1897
S'hard'
p1898
asbasbasbag61
(g77
g63
NtRp1899
(dp1900
g66
(dp1901
sg75
g1260
sg68
(lp1902
g61
(g82
g63
NtRp1903
(dp1904
g66
(dp1905
g86
g87
ssg75
g1899
sg68
(lp1906
S'web2py_path'
p1907
asbag61
(g82
g63
NtRp1908
(dp1909
g66
(dp1910
g93
g94
ssg75
g1899
sg68
(lp1911
S':'
asbag61
(g82
g63
NtRp1912
(dp1913
g66
(dp1914
sg75
g1899
sg68
(lp1915
g61
(g62
g63
NtRp1916
(dp1917
g66
(dp1918
g74
I4
ssg75
g1912
sg68
(lp1919
g1307
asbasbasbag61
(g77
g63
NtRp1920
(dp1921
g66
(dp1922
sg75
g1260
sg68
(lp1923
g61
(g82
g63
NtRp1924
(dp1925
g66
(dp1926
g86
g87
ssg75
g1920
sg68
(lp1927
S'web2py_version'
p1928
asbag61
(g82
g63
NtRp1929
(dp1930
g66
(dp1931
g93
g94
ssg75
g1920
sg68
(lp1932
S':'
asbag61
(g82
g63
NtRp1933
(dp1934
g66
(dp1935
sg75
g1920
sg68
(lp1936
g61
(g62
g63
NtRp1937
(dp1938
g66
(dp1939
g74
I4
ssg75
g1933
sg68
(lp1940
g61
(g70
g63
NtRp1941
(dp1942
g66
(dp1943
g74
I3
ssg75
Nsg68
(lp1944
g61
(g77
g63
NtRp1945
(dp1946
g66
(dp1947
sg75
g1941
sg68
(lp1948
g61
(g82
g63
NtRp1949
(dp1950
g66
(dp1951
sg75
g1945
sg68
(lp1952
g61
(g62
g63
NtRp1953
(dp1954
g66
(dp1955
g74
I3
ssg75
g1949
sg68
(lp1956
S'1'
asbasbasbag61
(g77
g63
NtRp1957
(dp1958
g66
(dp1959
sg75
g1941
sg68
(lp1960
g61
(g82
g63
NtRp1961
(dp1962
g66
(dp1963
sg75
g1957
sg68
(lp1964
g61
(g62
g63
NtRp1965
(dp1966
g66
(dp1967
g74
I3
ssg75
g1961
sg68
(lp1968
S'99'
p1969
asbasbasbag61
(g77
g63
NtRp1970
(dp1971
g66
(dp1972
sg75
g1941
sg68
(lp1973
g61
(g82
g63
NtRp1974
(dp1975
g66
(dp1976
sg75
g1970
sg68
(lp1977
g61
(g62
g63
NtRp1978
(dp1979
g66
(dp1980
g74
I3
ssg75
g1974
sg68
(lp1981
S'7'
asbasbasbag61
(g77
g63
NtRp1982
(dp1983
g66
(dp1984
sg75
g1941
sg68
(lp1985
g61
(g82
g63
NtRp1986
(dp1987
g66
(dp1988
sg75
g1982
sg68
(lp1989
g61
(g62
g63
NtRp1990
(dp1991
g66
(dp1992
g74
I3
ssg75
g1986
sg68
(lp1993
S'datetime.datetime(2012, 3, 4, 22, 12, 8)'
p1994
asbasbasbag61
(g77
g63
NtRp1995
(dp1996
g66
(dp1997
sg75
g1941
sg68
(lp1998
g61
(g82
g63
NtRp1999
(dp2000
g66
(dp2001
sg75
g1995
sg68
(lp2002
g61
(g62
g63
NtRp2003
(dp2004
g66
(dp2005
g74
I3
ssg75
g1999
sg68
(lp2006
S'stable'
p2007
asbasbasbasbasbasbasbag61
(g77
g63
NtRp2008
(dp2009
g66
(dp2010
sg75
g1260
sg68
(lp2011
g61
(g82
g63
NtRp2012
(dp2013
g66
(dp2014
g86
g87
ssg75
g2008
sg68
(lp2015
S'wsgi_errors'
p2016
asbag61
(g82
g63
NtRp2017
(dp2018
g66
(dp2019
g93
g94
ssg75
g2008
sg68
(lp2020
S':'
asbag61
(g82
g63
NtRp2021
(dp2022
g66
(dp2023
sg75
g2008
sg68
(lp2024
g61
(g62
g63
NtRp2025
(dp2026
g66
(dp2027
g74
I4
ssg75
g2021
sg68
(lp2028
S'<__main__.Stderr object at 0x01377670>'
p2029
asbasbasbag61
(g77
g63
NtRp2030
(dp2031
g66
(dp2032
sg75
g1260
sg68
(lp2033
g61
(g82
g63
NtRp2034
(dp2035
g66
(dp2036
g86
g87
ssg75
g2030
sg68
(lp2037
S'wsgi_file_wrapper'
p2038
asbag61
(g82
g63
NtRp2039
(dp2040
g66
(dp2041
g93
g94
ssg75
g2030
sg68
(lp2042
S':'
asbag61
(g82
g63
NtRp2043
(dp2044
g66
(dp2045
sg75
g2030
sg68
(lp2046
g61
(g62
g63
NtRp2047
(dp2048
g66
(dp2049
g74
I4
ssg75
g2043
sg68
(lp2050
S'<class wsgiref.util.FileWrapper at 0x025B2210>'
p2051
asbasbasbag61
(g77
g63
NtRp2052
(dp2053
g66
(dp2054
sg75
g1260
sg68
(lp2055
g61
(g82
g63
NtRp2056
(dp2057
g66
(dp2058
g86
g87
ssg75
g2052
sg68
(lp2059
S'wsgi_input'
p2060
asbag61
(g82
g63
NtRp2061
(dp2062
g66
(dp2063
g93
g94
ssg75
g2052
sg68
(lp2064
S':'
asbag61
(g82
g63
NtRp2065
(dp2066
g66
(dp2067
sg75
g2052
sg68
(lp2068
g61
(g62
g63
NtRp2069
(dp2070
g66
(dp2071
g74
I4
ssg75
g2065
sg68
(lp2072
S'<socket._fileobject object at 0x05B045B0>'
p2073
asbasbasbag61
(g77
g63
NtRp2074
(dp2075
g66
(dp2076
sg75
g1260
sg68
(lp2077
g61
(g82
g63
NtRp2078
(dp2079
g66
(dp2080
g86
g87
ssg75
g2074
sg68
(lp2081
S'wsgi_multiprocess'
p2082
asbag61
(g82
g63
NtRp2083
(dp2084
g66
(dp2085
g93
g94
ssg75
g2074
sg68
(lp2086
S':'
asbag61
(g82
g63
NtRp2087
(dp2088
g66
(dp2089
sg75
g2074
sg68
(lp2090
g61
(g62
g63
NtRp2091
(dp2092
g66
(dp2093
g74
I4
ssg75
g2087
sg68
(lp2094
g104
asbasbasbag61
(g77
g63
NtRp2095
(dp2096
g66
(dp2097
sg75
g1260
sg68
(lp2098
g61
(g82
g63
NtRp2099
(dp2100
g66
(dp2101
g86
g87
ssg75
g2095
sg68
(lp2102
S'wsgi_multithread'
p2103
asbag61
(g82
g63
NtRp2104
(dp2105
g66
(dp2106
g93
g94
ssg75
g2095
sg68
(lp2107
S':'
asbag61
(g82
g63
NtRp2108
(dp2109
g66
(dp2110
sg75
g2095
sg68
(lp2111
g61
(g62
g63
NtRp2112
(dp2113
g66
(dp2114
g74
I4
ssg75
g2108
sg68
(lp2115
S'True'
p2116
asbasbasbag61
(g77
g63
NtRp2117
(dp2118
g66
(dp2119
sg75
g1260
sg68
(lp2120
g61
(g82
g63
NtRp2121
(dp2122
g66
(dp2123
g86
g87
ssg75
g2117
sg68
(lp2124
S'wsgi_run_once'
p2125
asbag61
(g82
g63
NtRp2126
(dp2127
g66
(dp2128
g93
g94
ssg75
g2117
sg68
(lp2129
S':'
asbag61
(g82
g63
NtRp2130
(dp2131
g66
(dp2132
sg75
g2117
sg68
(lp2133
g61
(g62
g63
NtRp2134
(dp2135
g66
(dp2136
g74
I4
ssg75
g2130
sg68
(lp2137
g104
asbasbasbag61
(g77
g63
NtRp2138
(dp2139
g66
(dp2140
sg75
g1260
sg68
(lp2141
g61
(g82
g63
NtRp2142
(dp2143
g66
(dp2144
g86
g87
ssg75
g2138
sg68
(lp2145
S'wsgi_url_scheme'
p2146
asbag61
(g82
g63
NtRp2147
(dp2148
g66
(dp2149
g93
g94
ssg75
g2138
sg68
(lp2150
S':'
asbag61
(g82
g63
NtRp2151
(dp2152
g66
(dp2153
sg75
g2138
sg68
(lp2154
g61
(g62
g63
NtRp2155
(dp2156
g66
(dp2157
g74
I4
ssg75
g2151
sg68
(lp2158
S'http'
p2159
asbasbasbag61
(g77
g63
NtRp2160
(dp2161
g66
(dp2162
sg75
g1260
sg68
(lp2163
g61
(g82
g63
NtRp2164
(dp2165
g66
(dp2166
g86
g87
ssg75
g2160
sg68
(lp2167
S'wsgi_version'
p2168
asbag61
(g82
g63
NtRp2169
(dp2170
g66
(dp2171
g93
g94
ssg75
g2160
sg68
(lp2172
S':'
asbag61
(g82
g63
NtRp2173
(dp2174
g66
(dp2175
sg75
g2160
sg68
(lp2176
g61
(g62
g63
NtRp2177
(dp2178
g66
(dp2179
g74
I4
ssg75
g2173
sg68
(lp2180
g61
(g70
g63
NtRp2181
(dp2182
g66
(dp2183
g74
I3
ssg75
Nsg68
(lp2184
g61
(g77
g63
NtRp2185
(dp2186
g66
(dp2187
sg75
g2181
sg68
(lp2188
g61
(g82
g63
NtRp2189
(dp2190
g66
(dp2191
sg75
g2185
sg68
(lp2192
g61
(g62
g63
NtRp2193
(dp2194
g66
(dp2195
g74
I3
ssg75
g2189
sg68
(lp2196
S'1'
asbasbasbag61
(g77
g63
NtRp2197
(dp2198
g66
(dp2199
sg75
g2181
sg68
(lp2200
g61
(g82
g63
NtRp2201
(dp2202
g66
(dp2203
sg75
g2197
sg68
(lp2204
g61
(g62
g63
NtRp2205
(dp2206
g66
(dp2207
g74
I3
ssg75
g2201
sg68
(lp2208
S'0'
asbasbasbasbasbasbasbasbasbasbasbag61
(g77
g63
NtRp2209
(dp2210
g66
(dp2211
sg75
g71
sg68
(lp2212
g61
(g82
g63
NtRp2213
(dp2214
g66
(dp2215
g86
g87
ssg75
g2209
sg68
(lp2216
S'extension'
p2217
asbag61
(g82
g63
NtRp2218
(dp2219
g66
(dp2220
g93
g94
ssg75
g2209
sg68
(lp2221
S':'
asbag61
(g82
g63
NtRp2222
(dp2223
g66
(dp2224
sg75
g2209
sg68
(lp2225
g61
(g62
g63
NtRp2226
(dp2227
g66
(dp2228
g74
I5
ssg75
g2222
sg68
(lp2229
S'html'
p2230
asbasbasbag61
(g77
g63
NtRp2231
(dp2232
g66
(dp2233
sg75
g71
sg68
(lp2234
g61
(g82
g63
NtRp2235
(dp2236
g66
(dp2237
g86
g87
ssg75
g2231
sg68
(lp2238
S'folder'
p2239
asbag61
(g82
g63
NtRp2240
(dp2241
g66
(dp2242
g93
g94
ssg75
g2231
sg68
(lp2243
S':'
asbag61
(g82
g63
NtRp2244
(dp2245
g66
(dp2246
sg75
g2231
sg68
(lp2247
g61
(g62
g63
NtRp2248
(dp2249
g66
(dp2250
g74
I5
ssg75
g2244
sg68
(lp2251
S'C:\\Users\\omkara\\Desktop\\web2py\\applications\\SlugBarter\\'
p2252
asbasbasbag61
(g77
g63
NtRp2253
(dp2254
g66
(dp2255
sg75
g71
sg68
(lp2256
g61
(g82
g63
NtRp2257
(dp2258
g66
(dp2259
g86
g87
ssg75
g2253
sg68
(lp2260
S'function'
p2261
asbag61
(g82
g63
NtRp2262
(dp2263
g66
(dp2264
g93
g94
ssg75
g2253
sg68
(lp2265
S':'
asbag61
(g82
g63
NtRp2266
(dp2267
g66
(dp2268
sg75
g2253
sg68
(lp2269
g61
(g62
g63
NtRp2270
(dp2271
g66
(dp2272
g74
I5
ssg75
g2266
sg68
(lp2273
S'index'
p2274
asbasbasbag61
(g77
g63
NtRp2275
(dp2276
g66
(dp2277
sg75
g71
sg68
(lp2278
g61
(g82
g63
NtRp2279
(dp2280
g66
(dp2281
g86
g87
ssg75
g2275
sg68
(lp2282
S'get_vars'
p2283
asbag61
(g82
g63
NtRp2284
(dp2285
g66
(dp2286
g93
g94
ssg75
g2275
sg68
(lp2287
S':'
asbag61
(g82
g63
NtRp2288
(dp2289
g66
(dp2290
sg75
g2275
sg68
(lp2291
g61
(g62
g63
NtRp2292
(dp2293
g66
(dp2294
g74
I5
ssg75
g2288
sg68
(lp2295
g61
(g70
g63
NtRp2296
(dp2297
g66
(dp2298
g74
I4
ssg75
Nsg68
(lp2299
sbasbasbasbag61
(g77
g63
NtRp2300
(dp2301
g66
(dp2302
sg75
g71
sg68
(lp2303
g61
(g82
g63
NtRp2304
(dp2305
g66
(dp2306
g86
g87
ssg75
g2300
sg68
(lp2307
S'global_settings'
p2308
asbag61
(g82
g63
NtRp2309
(dp2310
g66
(dp2311
g93
g94
ssg75
g2300
sg68
(lp2312
S':'
asbag61
(g82
g63
NtRp2313
(dp2314
g66
(dp2315
sg75
g2300
sg68
(lp2316
g61
(g62
g63
NtRp2317
(dp2318
g66
(dp2319
g74
I5
ssg75
g2313
sg68
(lp2320
g61
(g70
g63
NtRp2321
(dp2322
g66
(dp2323
g74
I4
ssg75
Nsg68
(lp2324
g61
(g77
g63
NtRp2325
(dp2326
g66
(dp2327
sg75
g2321
sg68
(lp2328
g61
(g82
g63
NtRp2329
(dp2330
g66
(dp2331
g86
g87
ssg75
g2325
sg68
(lp2332
g1272
asbag61
(g82
g63
NtRp2333
(dp2334
g66
(dp2335
g93
g94
ssg75
g2325
sg68
(lp2336
S':'
asbag61
(g82
g63
NtRp2337
(dp2338
g66
(dp2339
sg75
g2325
sg68
(lp2340
g61
(g62
g63
NtRp2341
(dp2342
g66
(dp2343
g74
I4
ssg75
g2337
sg68
(lp2344
S"set(['C:\\\\Users\\\\omkara\\\\Desktop\\\\web2py\\\\applications\\\\slug_register_page\\\\', 'C:\\\\Users\\\\omkara\\\\Desktop\\\\web2py\\\\applications\\\\admin\\\\', 'C:\\\\Users\\\\omkara\\\\Desktop\\\\web2py\\\\applications\\\\Assignment3\\\\', 'C:\\\\Users\\\\omkara\\\\Desktop\\\\web2py\\\\applications\\\\welcome\\\\', 'C:\\\\Users\\\\omkara\\\\Desktop\\\\web2py\\\\applications\\\\OnlineNotes_p1_\\\\', 'C:\\\\Users\\\\omkara\\\\Desktop\\\\web2py\\\\applications\\\\SlugBarter\\\\'])"
p2345
asbasbasbag61
(g77
g63
NtRp2346
(dp2347
g66
(dp2348
sg75
g2321
sg68
(lp2349
g61
(g82
g63
NtRp2350
(dp2351
g66
(dp2352
g86
g87
ssg75
g2346
sg68
(lp2353
g1294
asbag61
(g82
g63
NtRp2354
(dp2355
g66
(dp2356
g93
g94
ssg75
g2346
sg68
(lp2357
S':'
asbag61
(g82
g63
NtRp2358
(dp2359
g66
(dp2360
sg75
g2346
sg68
(lp2361
g61
(g62
g63
NtRp2362
(dp2363
g66
(dp2364
g74
I4
ssg75
g2358
sg68
(lp2365
g1307
asbasbasbag61
(g77
g63
NtRp2366
(dp2367
g66
(dp2368
sg75
g2321
sg68
(lp2369
g61
(g82
g63
NtRp2370
(dp2371
g66
(dp2372
g86
g87
ssg75
g2366
sg68
(lp2373
g1316
asbag61
(g82
g63
NtRp2374
(dp2375
g66
(dp2376
g93
g94
ssg75
g2366
sg68
(lp2377
S':'
asbag61
(g82
g63
NtRp2378
(dp2379
g66
(dp2380
sg75
g2366
sg68
(lp2381
g61
(g62
g63
NtRp2382
(dp2383
g66
(dp2384
g74
I4
ssg75
g2378
sg68
(lp2385
g61
(g70
g63
NtRp2386
(dp2387
g66
(dp2388
g74
I3
ssg75
Nsg68
(lp2389
sbasbasbasbag61
(g77
g63
NtRp2390
(dp2391
g66
(dp2392
sg75
g2321
sg68
(lp2393
g61
(g82
g63
NtRp2394
(dp2395
g66
(dp2396
g86
g87
ssg75
g2390
sg68
(lp2397
g1341
asbag61
(g82
g63
NtRp2398
(dp2399
g66
(dp2400
g93
g94
ssg75
g2390
sg68
(lp2401
S':'
asbag61
(g82
g63
NtRp2402
(dp2403
g66
(dp2404
sg75
g2390
sg68
(lp2405
g61
(g62
g63
NtRp2406
(dp2407
g66
(dp2408
g74
I4
ssg75
g2402
sg68
(lp2409
S"<Values at 0x28230f8: {'verbose': False, 'ip': '127.0.0.1', 'shutdown_timeout': 5, 'taskbar': False, 'nocron': False, 'pid_filename': 'httpserver.pid', 'maxthreads': None, 'softcron': False, 'server_name': 'omkara-PC', 'bpython': False, 'nogui': False, 'port': 8000, 'extcron': False, 'debuglevel': 30, 'test': None, 'folder': 'C:\\\\Users\\\\omkara\\\\Desktop\\\\web2py', 'config': '', 'import_models': False, 'winservice': '', 'shell': None, 'run': '', 'log_filename': 'httpserver.log', 'args': [''], 'socket_timeout': 5, 'ssl_ca_certificate': None, 'scheduler': None, 'profiler_filename': None, 'ssl_private_key': '', 'password': '<ask>', 'request_queue_size': 5, 'ssl_certificate': '', 'cronjob': False, 'numthreads': None, 'quiet': False, 'interfaces': None, 'minthreads': None, 'timeout': 10, 'plain': False, 'nobanner': False}>"
p2410
asbasbasbag61
(g77
g63
NtRp2411
(dp2412
g66
(dp2413
sg75
g2321
sg68
(lp2414
g61
(g82
g63
NtRp2415
(dp2416
g66
(dp2417
g86
g87
ssg75
g2411
sg68
(lp2418
g1363
asbag61
(g82
g63
NtRp2419
(dp2420
g66
(dp2421
g93
g94
ssg75
g2411
sg68
(lp2422
S':'
asbag61
(g82
g63
NtRp2423
(dp2424
g66
(dp2425
sg75
g2411
sg68
(lp2426
g61
(g62
g63
NtRp2427
(dp2428
g66
(dp2429
g74
I4
ssg75
g2423
sg68
(lp2430
S'set([])'
p2431
asbasbasbag61
(g77
g63
NtRp2432
(dp2433
g66
(dp2434
sg75
g2321
sg68
(lp2435
g61
(g82
g63
NtRp2436
(dp2437
g66
(dp2438
g86
g87
ssg75
g2432
sg68
(lp2439
g1385
asbag61
(g82
g63
NtRp2440
(dp2441
g66
(dp2442
g93
g94
ssg75
g2432
sg68
(lp2443
S':'
asbag61
(g82
g63
NtRp2444
(dp2445
g66
(dp2446
sg75
g2432
sg68
(lp2447
g61
(g62
g63
NtRp2448
(dp2449
g66
(dp2450
g74
I4
ssg75
g2444
sg68
(lp2451
g104
asbasbasbag61
(g77
g63
NtRp2452
(dp2453
g66
(dp2454
sg75
g2321
sg68
(lp2455
g61
(g82
g63
NtRp2456
(dp2457
g66
(dp2458
g86
g87
ssg75
g2452
sg68
(lp2459
g1406
asbag61
(g82
g63
NtRp2460
(dp2461
g66
(dp2462
g93
g94
ssg75
g2452
sg68
(lp2463
S':'
asbag61
(g82
g63
NtRp2464
(dp2465
g66
(dp2466
sg75
g2452
sg68
(lp2467
g61
(g62
g63
NtRp2468
(dp2469
g66
(dp2470
g74
I4
ssg75
g2464
sg68
(lp2471
g1419
asbasbasbag61
(g77
g63
NtRp2472
(dp2473
g66
(dp2474
sg75
g2321
sg68
(lp2475
g61
(g82
g63
NtRp2476
(dp2477
g66
(dp2478
g86
g87
ssg75
g2472
sg68
(lp2479
g1626
asbag61
(g82
g63
NtRp2480
(dp2481
g66
(dp2482
g93
g94
ssg75
g2472
sg68
(lp2483
S':'
asbag61
(g82
g63
NtRp2484
(dp2485
g66
(dp2486
sg75
g2472
sg68
(lp2487
g61
(g62
g63
NtRp2488
(dp2489
g66
(dp2490
g74
I4
ssg75
g2484
sg68
(lp2491
g104
asbasbasbag61
(g77
g63
NtRp2492
(dp2493
g66
(dp2494
sg75
g2321
sg68
(lp2495
g61
(g82
g63
NtRp2496
(dp2497
g66
(dp2498
g86
g87
ssg75
g2492
sg68
(lp2499
g1647
asbag61
(g82
g63
NtRp2500
(dp2501
g66
(dp2502
g93
g94
ssg75
g2492
sg68
(lp2503
S':'
asbag61
(g82
g63
NtRp2504
(dp2505
g66
(dp2506
sg75
g2492
sg68
(lp2507
g61
(g62
g63
NtRp2508
(dp2509
g66
(dp2510
g74
I4
ssg75
g2504
sg68
(lp2511
g104
asbasbasbag61
(g77
g63
NtRp2512
(dp2513
g66
(dp2514
sg75
g2321
sg68
(lp2515
g61
(g82
g63
NtRp2516
(dp2517
g66
(dp2518
g86
g87
ssg75
g2512
sg68
(lp2519
g1885
asbag61
(g82
g63
NtRp2520
(dp2521
g66
(dp2522
g93
g94
ssg75
g2512
sg68
(lp2523
S':'
asbag61
(g82
g63
NtRp2524
(dp2525
g66
(dp2526
sg75
g2512
sg68
(lp2527
g61
(g62
g63
NtRp2528
(dp2529
g66
(dp2530
g74
I4
ssg75
g2524
sg68
(lp2531
g1898
asbasbasbag61
(g77
g63
NtRp2532
(dp2533
g66
(dp2534
sg75
g2321
sg68
(lp2535
g61
(g82
g63
NtRp2536
(dp2537
g66
(dp2538
g86
g87
ssg75
g2532
sg68
(lp2539
g1928
asbag61
(g82
g63
NtRp2540
(dp2541
g66
(dp2542
g93
g94
ssg75
g2532
sg68
(lp2543
S':'
asbag61
(g82
g63
NtRp2544
(dp2545
g66
(dp2546
sg75
g2532
sg68
(lp2547
g61
(g62
g63
NtRp2548
(dp2549
g66
(dp2550
g74
I4
ssg75
g2544
sg68
(lp2551
g61
(g70
g63
NtRp2552
(dp2553
g66
(dp2554
g74
I3
ssg75
Nsg68
(lp2555
g61
(g77
g63
NtRp2556
(dp2557
g66
(dp2558
sg75
g2552
sg68
(lp2559
g61
(g82
g63
NtRp2560
(dp2561
g66
(dp2562
sg75
g2556
sg68
(lp2563
g61
(g62
g63
NtRp2564
(dp2565
g66
(dp2566
g74
I3
ssg75
g2560
sg68
(lp2567
S'1'
asbasbasbag61
(g77
g63
NtRp2568
(dp2569
g66
(dp2570
sg75
g2552
sg68
(lp2571
g61
(g82
g63
NtRp2572
(dp2573
g66
(dp2574
sg75
g2568
sg68
(lp2575
g61
(g62
g63
NtRp2576
(dp2577
g66
(dp2578
g74
I3
ssg75
g2572
sg68
(lp2579
S'99'
p2580
asbasbasbag61
(g77
g63
NtRp2581
(dp2582
g66
(dp2583
sg75
g2552
sg68
(lp2584
g61
(g82
g63
NtRp2585
(dp2586
g66
(dp2587
sg75
g2581
sg68
(lp2588
g61
(g62
g63
NtRp2589
(dp2590
g66
(dp2591
g74
I3
ssg75
g2585
sg68
(lp2592
S'7'
asbasbasbag61
(g77
g63
NtRp2593
(dp2594
g66
(dp2595
sg75
g2552
sg68
(lp2596
g61
(g82
g63
NtRp2597
(dp2598
g66
(dp2599
sg75
g2593
sg68
(lp2600
g61
(g62
g63
NtRp2601
(dp2602
g66
(dp2603
g74
I3
ssg75
g2597
sg68
(lp2604
S'datetime.datetime(2012, 3, 4, 22, 12, 8)'
p2605
asbasbasbag61
(g77
g63
NtRp2606
(dp2607
g66
(dp2608
sg75
g2552
sg68
(lp2609
g61
(g82
g63
NtRp2610
(dp2611
g66
(dp2612
sg75
g2606
sg68
(lp2613
g61
(g62
g63
NtRp2614
(dp2615
g66
(dp2616
g74
I3
ssg75
g2610
sg68
(lp2617
g2007
asbasbasbasbasbasbasbasbasbasbasbag61
(g77
g63
NtRp2618
(dp2619
g66
(dp2620
sg75
g71
sg68
(lp2621
g61
(g82
g63
NtRp2622
(dp2623
g66
(dp2624
g86
g87
ssg75
g2618
sg68
(lp2625
S'is_https'
p2626
asbag61
(g82
g63
NtRp2627
(dp2628
g66
(dp2629
g93
g94
ssg75
g2618
sg68
(lp2630
S':'
asbag61
(g82
g63
NtRp2631
(dp2632
g66
(dp2633
sg75
g2618
sg68
(lp2634
g61
(g62
g63
NtRp2635
(dp2636
g66
(dp2637
g74
I5
ssg75
g2631
sg68
(lp2638
g104
asbasbasbag61
(g77
g63
NtRp2639
(dp2640
g66
(dp2641
sg75
g71
sg68
(lp2642
g61
(g82
g63
NtRp2643
(dp2644
g66
(dp2645
g86
g87
ssg75
g2639
sg68
(lp2646
S'is_local'
p2647
asbag61
(g82
g63
NtRp2648
(dp2649
g66
(dp2650
g93
g94
ssg75
g2639
sg68
(lp2651
S':'
asbag61
(g82
g63
NtRp2652
(dp2653
g66
(dp2654
sg75
g2639
sg68
(lp2655
g61
(g62
g63
NtRp2656
(dp2657
g66
(dp2658
g74
I5
ssg75
g2652
sg68
(lp2659
g2116
asbasbasbag61
(g77
g63
NtRp2660
(dp2661
g66
(dp2662
sg75
g71
sg68
(lp2663
g61
(g82
g63
NtRp2664
(dp2665
g66
(dp2666
g86
g87
ssg75
g2660
sg68
(lp2667
S'is_restful'
p2668
asbag61
(g82
g63
NtRp2669
(dp2670
g66
(dp2671
g93
g94
ssg75
g2660
sg68
(lp2672
S':'
asbag61
(g82
g63
NtRp2673
(dp2674
g66
(dp2675
sg75
g2660
sg68
(lp2676
g61
(g62
g63
NtRp2677
(dp2678
g66
(dp2679
g74
I5
ssg75
g2673
sg68
(lp2680
g104
asbasbasbag61
(g77
g63
NtRp2681
(dp2682
g66
(dp2683
sg75
g71
sg68
(lp2684
g61
(g82
g63
NtRp2685
(dp2686
g66
(dp2687
g86
g87
ssg75
g2681
sg68
(lp2688
S'now'
p2689
asbag61
(g82
g63
NtRp2690
(dp2691
g66
(dp2692
g93
g94
ssg75
g2681
sg68
(lp2693
S':'
asbag61
(g82
g63
NtRp2694
(dp2695
g66
(dp2696
sg75
g2681
sg68
(lp2697
g61
(g62
g63
NtRp2698
(dp2699
g66
(dp2700
g74
I5
ssg75
g2694
sg68
(lp2701
S'datetime.datetime(2012, 11, 6, 17, 2, 37, 329000)'
p2702
asbasbasbag61
(g77
g63
NtRp2703
(dp2704
g66
(dp2705
sg75
g71
sg68
(lp2706
g61
(g82
g63
NtRp2707
(dp2708
g66
(dp2709
g86
g87
ssg75
g2703
sg68
(lp2710
S'post_vars'
p2711
asbag61
(g82
g63
NtRp2712
(dp2713
g66
(dp2714
g93
g94
ssg75
g2703
sg68
(lp2715
S':'
asbag61
(g82
g63
NtRp2716
(dp2717
g66
(dp2718
sg75
g2703
sg68
(lp2719
g61
(g62
g63
NtRp2720
(dp2721
g66
(dp2722
g74
I5
ssg75
g2716
sg68
(lp2723
g61
(g70
g63
NtRp2724
(dp2725
g66
(dp2726
g74
I4
ssg75
Nsg68
(lp2727
sbasbasbasbag61
(g77
g63
NtRp2728
(dp2729
g66
(dp2730
sg75
g71
sg68
(lp2731
g61
(g82
g63
NtRp2732
(dp2733
g66
(dp2734
g86
g87
ssg75
g2728
sg68
(lp2735
S'url'
p2736
asbag61
(g82
g63
NtRp2737
(dp2738
g66
(dp2739
g93
g94
ssg75
g2728
sg68
(lp2740
S':'
asbag61
(g82
g63
NtRp2741
(dp2742
g66
(dp2743
sg75
g2728
sg68
(lp2744
g61
(g62
g63
NtRp2745
(dp2746
g66
(dp2747
g74
I5
ssg75
g2741
sg68
(lp2748
S'/SlugBarter/appadmin/index'
p2749
asbasbasbag61
(g77
g63
NtRp2750
(dp2751
g66
(dp2752
sg75
g71
sg68
(lp2753
g61
(g82
g63
NtRp2754
(dp2755
g66
(dp2756
g86
g87
ssg75
g2750
sg68
(lp2757
S'utcnow'
p2758
asbag61
(g82
g63
NtRp2759
(dp2760
g66
(dp2761
g93
g94
ssg75
g2750
sg68
(lp2762
S':'
asbag61
(g82
g63
NtRp2763
(dp2764
g66
(dp2765
sg75
g2750
sg68
(lp2766
g61
(g62
g63
NtRp2767
(dp2768
g66
(dp2769
g74
I5
ssg75
g2763
sg68
(lp2770
S'datetime.datetime(2012, 11, 7, 1, 2, 37, 329000)'
p2771
asbasbasbag61
(g77
g63
NtRp2772
(dp2773
g66
(dp2774
sg75
g71
sg68
(lp2775
g61
(g82
g63
NtRp2776
(dp2777
g66
(dp2778
g86
g87
ssg75
g2772
sg68
(lp2779
S'uuid'
p2780
asbag61
(g82
g63
NtRp2781
(dp2782
g66
(dp2783
g93
g94
ssg75
g2772
sg68
(lp2784
S':'
asbag61
(g82
g63
NtRp2785
(dp2786
g66
(dp2787
sg75
g2772
sg68
(lp2788
g61
(g62
g63
NtRp2789
(dp2790
g66
(dp2791
g74
I5
ssg75
g2785
sg68
(lp2792
S'SlugBarter/127.0.0.1.2012-11-06.17-02-37.4049ee09-74e5-4857-8a61-b02792c01994'
p2793
asbasbasbag61
(g77
g63
NtRp2794
(dp2795
g66
(dp2796
sg75
g71
sg68
(lp2797
g61
(g82
g63
NtRp2798
(dp2799
g66
(dp2800
g86
g87
ssg75
g2794
sg68
(lp2801
S'vars'
p2802
asbag61
(g82
g63
NtRp2803
(dp2804
g66
(dp2805
g93
g94
ssg75
g2794
sg68
(lp2806
S':'
asbag61
(g82
g63
NtRp2807
(dp2808
g66
(dp2809
sg75
g2794
sg68
(lp2810
g61
(g62
g63
NtRp2811
(dp2812
g66
(dp2813
g74
I5
ssg75
g2807
sg68
(lp2814
g61
(g70
g63
NtRp2815
(dp2816
g66
(dp2817
g74
I4
ssg75
Nsg68
(lp2818
sbasbasbasbag61
(g77
g63
NtRp2819
(dp2820
g66
(dp2821
sg75
g71
sg68
(lp2822
g61
(g82
g63
NtRp2823
(dp2824
g66
(dp2825
g86
g87
ssg75
g2819
sg68
(lp2826
S'wsgi'
p2827
asbag61
(g82
g63
NtRp2828
(dp2829
g66
(dp2830
g93
g94
ssg75
g2819
sg68
(lp2831
S':'
asbag61
(g82
g63
NtRp2832
(dp2833
g66
(dp2834
sg75
g2819
sg68
(lp2835
g61
(g62
g63
NtRp2836
(dp2837
g66
(dp2838
g74
I5
ssg75
g2832
sg68
(lp2839
g61
(g70
g63
NtRp2840
(dp2841
g66
(dp2842
g74
I4
ssg75
Nsg68
(lp2843
g61
(g77
g63
NtRp2844
(dp2845
g66
(dp2846
sg75
g2840
sg68
(lp2847
g61
(g82
g63
NtRp2848
(dp2849
g66
(dp2850
g86
g87
ssg75
g2844
sg68
(lp2851
S'environ'
p2852
asbag61
(g82
g63
NtRp2853
(dp2854
g66
(dp2855
g93
g94
ssg75
g2844
sg68
(lp2856
S':'
asbag61
(g82
g63
NtRp2857
(dp2858
g66
(dp2859
sg75
g2844
sg68
(lp2860
g61
(g62
g63
NtRp2861
(dp2862
g66
(dp2863
g74
I4
ssg75
g2857
sg68
(lp2864
g61
(g70
g63
NtRp2865
(dp2866
g66
(dp2867
g74
I3
ssg75
Nsg68
(lp2868
g61
(g77
g63
NtRp2869
(dp2870
g66
(dp2871
sg75
g2865
sg68
(lp2872
g61
(g82
g63
NtRp2873
(dp2874
g66
(dp2875
g86
g87
ssg75
g2869
sg68
(lp2876
S'HTTP_ACCEPT'
p2877
asbag61
(g82
g63
NtRp2878
(dp2879
g66
(dp2880
g93
g94
ssg75
g2869
sg68
(lp2881
S':'
asbag61
(g82
g63
NtRp2882
(dp2883
g66
(dp2884
sg75
g2869
sg68
(lp2885
g61
(g62
g63
NtRp2886
(dp2887
g66
(dp2888
g74
I3
ssg75
g2882
sg68
(lp2889
g1441
asbasbasbag61
(g77
g63
NtRp2890
(dp2891
g66
(dp2892
sg75
g2865
sg68
(lp2893
g61
(g82
g63
NtRp2894
(dp2895
g66
(dp2896
g86
g87
ssg75
g2890
sg68
(lp2897
S'HTTP_ACCEPT_CHARSET'
p2898
asbag61
(g82
g63
NtRp2899
(dp2900
g66
(dp2901
g93
g94
ssg75
g2890
sg68
(lp2902
S':'
asbag61
(g82
g63
NtRp2903
(dp2904
g66
(dp2905
sg75
g2890
sg68
(lp2906
g61
(g62
g63
NtRp2907
(dp2908
g66
(dp2909
g74
I3
ssg75
g2903
sg68
(lp2910
g1463
asbasbasbag61
(g77
g63
NtRp2911
(dp2912
g66
(dp2913
sg75
g2865
sg68
(lp2914
g61
(g82
g63
NtRp2915
(dp2916
g66
(dp2917
g86
g87
ssg75
g2911
sg68
(lp2918
S'HTTP_ACCEPT_ENCODING'
p2919
asbag61
(g82
g63
NtRp2920
(dp2921
g66
(dp2922
g93
g94
ssg75
g2911
sg68
(lp2923
S':'
asbag61
(g82
g63
NtRp2924
(dp2925
g66
(dp2926
sg75
g2911
sg68
(lp2927
g61
(g62
g63
NtRp2928
(dp2929
g66
(dp2930
g74
I3
ssg75
g2924
sg68
(lp2931
g1485
asbasbasbag61
(g77
g63
NtRp2932
(dp2933
g66
(dp2934
sg75
g2865
sg68
(lp2935
g61
(g82
g63
NtRp2936
(dp2937
g66
(dp2938
g86
g87
ssg75
g2932
sg68
(lp2939
S'HTTP_ACCEPT_LANGUAGE'
p2940
asbag61
(g82
g63
NtRp2941
(dp2942
g66
(dp2943
g93
g94
ssg75
g2932
sg68
(lp2944
S':'
asbag61
(g82
g63
NtRp2945
(dp2946
g66
(dp2947
sg75
g2932
sg68
(lp2948
g61
(g62
g63
NtRp2949
(dp2950
g66
(dp2951
g74
I3
ssg75
g2945
sg68
(lp2952
g1507
asbasbasbag61
(g77
g63
NtRp2953
(dp2954
g66
(dp2955
sg75
g2865
sg68
(lp2956
g61
(g82
g63
NtRp2957
(dp2958
g66
(dp2959
g86
g87
ssg75
g2953
sg68
(lp2960
S'HTTP_CONNECTION'
p2961
asbag61
(g82
g63
NtRp2962
(dp2963
g66
(dp2964
g93
g94
ssg75
g2953
sg68
(lp2965
S':'
asbag61
(g82
g63
NtRp2966
(dp2967
g66
(dp2968
sg75
g2953
sg68
(lp2969
g61
(g62
g63
NtRp2970
(dp2971
g66
(dp2972
g74
I3
ssg75
g2966
sg68
(lp2973
g1529
asbasbasbag61
(g77
g63
NtRp2974
(dp2975
g66
(dp2976
sg75
g2865
sg68
(lp2977
g61
(g82
g63
NtRp2978
(dp2979
g66
(dp2980
g86
g87
ssg75
g2974
sg68
(lp2981
S'HTTP_COOKIE'
p2982
asbag61
(g82
g63
NtRp2983
(dp2984
g66
(dp2985
g93
g94
ssg75
g2974
sg68
(lp2986
S':'
asbag61
(g82
g63
NtRp2987
(dp2988
g66
(dp2989
sg75
g2974
sg68
(lp2990
g61
(g62
g63
NtRp2991
(dp2992
g66
(dp2993
g74
I3
ssg75
g2987
sg68
(lp2994
g1551
asbasbasbag61
(g77
g63
NtRp2995
(dp2996
g66
(dp2997
sg75
g2865
sg68
(lp2998
g61
(g82
g63
NtRp2999
(dp3000
g66
(dp3001
g86
g87
ssg75
g2995
sg68
(lp3002
S'HTTP_HOST'
p3003
asbag61
(g82
g63
NtRp3004
(dp3005
g66
(dp3006
g93
g94
ssg75
g2995
sg68
(lp3007
S':'
asbag61
(g82
g63
NtRp3008
(dp3009
g66
(dp3010
sg75
g2995
sg68
(lp3011
g61
(g62
g63
NtRp3012
(dp3013
g66
(dp3014
g74
I3
ssg75
g3008
sg68
(lp3015
g1573
asbasbasbag61
(g77
g63
NtRp3016
(dp3017
g66
(dp3018
sg75
g2865
sg68
(lp3019
g61
(g82
g63
NtRp3020
(dp3021
g66
(dp3022
g86
g87
ssg75
g3016
sg68
(lp3023
S'HTTP_REFERER'
p3024
asbag61
(g82
g63
NtRp3025
(dp3026
g66
(dp3027
g93
g94
ssg75
g3016
sg68
(lp3028
S':'
asbag61
(g82
g63
NtRp3029
(dp3030
g66
(dp3031
sg75
g3016
sg68
(lp3032
g61
(g62
g63
NtRp3033
(dp3034
g66
(dp3035
g74
I3
ssg75
g3029
sg68
(lp3036
g1595
asbasbasbag61
(g77
g63
NtRp3037
(dp3038
g66
(dp3039
sg75
g2865
sg68
(lp3040
g61
(g82
g63
NtRp3041
(dp3042
g66
(dp3043
g86
g87
ssg75
g3037
sg68
(lp3044
S'HTTP_USER_AGENT'
p3045
asbag61
(g82
g63
NtRp3046
(dp3047
g66
(dp3048
g93
g94
ssg75
g3037
sg68
(lp3049
S':'
asbag61
(g82
g63
NtRp3050
(dp3051
g66
(dp3052
sg75
g3037
sg68
(lp3053
g61
(g62
g63
NtRp3054
(dp3055
g66
(dp3056
g74
I3
ssg75
g3050
sg68
(lp3057
g1617
asbasbasbag61
(g77
g63
NtRp3058
(dp3059
g66
(dp3060
sg75
g2865
sg68
(lp3061
g61
(g82
g63
NtRp3062
(dp3063
g66
(dp3064
g86
g87
ssg75
g3058
sg68
(lp3065
S'PATH_INFO'
p3066
asbag61
(g82
g63
NtRp3067
(dp3068
g66
(dp3069
g93
g94
ssg75
g3058
sg68
(lp3070
S':'
asbag61
(g82
g63
NtRp3071
(dp3072
g66
(dp3073
sg75
g3058
sg68
(lp3074
g61
(g62
g63
NtRp3075
(dp3076
g66
(dp3077
g74
I3
ssg75
g3071
sg68
(lp3078
g1681
asbasbasbag61
(g77
g63
NtRp3079
(dp3080
g66
(dp3081
sg75
g2865
sg68
(lp3082
g61
(g82
g63
NtRp3083
(dp3084
g66
(dp3085
g86
g87
ssg75
g3079
sg68
(lp3086
S'QUERY_STRING'
p3087
asbag61
(g82
g63
NtRp3088
(dp3089
g66
(dp3090
g93
g94
ssg75
g3079
sg68
(lp3091
S':'
asbag61
(g82
g63
NtRp3092
(dp3093
g66
(dp3094
sg75
g3079
sg68
(lp3095
g61
(g62
g63
NtRp3096
(dp3097
g66
(dp3098
g74
I3
ssg75
g3092
sg68
(lp3099
S''
asbasbasbag61
(g77
g63
NtRp3100
(dp3101
g66
(dp3102
sg75
g2865
sg68
(lp3103
g61
(g82
g63
NtRp3104
(dp3105
g66
(dp3106
g86
g87
ssg75
g3100
sg68
(lp3107
S'REMOTE_ADDR'
p3108
asbag61
(g82
g63
NtRp3109
(dp3110
g66
(dp3111
g93
g94
ssg75
g3100
sg68
(lp3112
S':'
asbag61
(g82
g63
NtRp3113
(dp3114
g66
(dp3115
sg75
g3100
sg68
(lp3116
g61
(g62
g63
NtRp3117
(dp3118
g66
(dp3119
g74
I3
ssg75
g3113
sg68
(lp3120
g194
asbasbasbag61
(g77
g63
NtRp3121
(dp3122
g66
(dp3123
sg75
g2865
sg68
(lp3124
g61
(g82
g63
NtRp3125
(dp3126
g66
(dp3127
g86
g87
ssg75
g3121
sg68
(lp3128
S'REMOTE_PORT'
p3129
asbag61
(g82
g63
NtRp3130
(dp3131
g66
(dp3132
g93
g94
ssg75
g3121
sg68
(lp3133
S':'
asbag61
(g82
g63
NtRp3134
(dp3135
g66
(dp3136
sg75
g3121
sg68
(lp3137
g61
(g62
g63
NtRp3138
(dp3139
g66
(dp3140
g74
I3
ssg75
g3134
sg68
(lp3141
g1745
asbasbasbag61
(g77
g63
NtRp3142
(dp3143
g66
(dp3144
sg75
g2865
sg68
(lp3145
g61
(g82
g63
NtRp3146
(dp3147
g66
(dp3148
g86
g87
ssg75
g3142
sg68
(lp3149
S'REQUEST_METHOD'
p3150
asbag61
(g82
g63
NtRp3151
(dp3152
g66
(dp3153
g93
g94
ssg75
g3142
sg68
(lp3154
S':'
asbag61
(g82
g63
NtRp3155
(dp3156
g66
(dp3157
sg75
g3142
sg68
(lp3158
g61
(g62
g63
NtRp3159
(dp3160
g66
(dp3161
g74
I3
ssg75
g3155
sg68
(lp3162
g1767
asbasbasbag61
(g77
g63
NtRp3163
(dp3164
g66
(dp3165
sg75
g2865
sg68
(lp3166
g61
(g82
g63
NtRp3167
(dp3168
g66
(dp3169
g86
g87
ssg75
g3163
sg68
(lp3170
S'SCRIPT_NAME'
p3171
asbag61
(g82
g63
NtRp3172
(dp3173
g66
(dp3174
g93
g94
ssg75
g3163
sg68
(lp3175
S':'
asbag61
(g82
g63
NtRp3176
(dp3177
g66
(dp3178
sg75
g3163
sg68
(lp3179
g61
(g62
g63
NtRp3180
(dp3181
g66
(dp3182
g74
I3
ssg75
g3176
sg68
(lp3183
S''
asbasbasbag61
(g77
g63
NtRp3184
(dp3185
g66
(dp3186
sg75
g2865
sg68
(lp3187
g61
(g82
g63
NtRp3188
(dp3189
g66
(dp3190
g86
g87
ssg75
g3184
sg68
(lp3191
S'SERVER_NAME'
p3192
asbag61
(g82
g63
NtRp3193
(dp3194
g66
(dp3195
g93
g94
ssg75
g3184
sg68
(lp3196
S':'
asbag61
(g82
g63
NtRp3197
(dp3198
g66
(dp3199
sg75
g3184
sg68
(lp3200
g61
(g62
g63
NtRp3201
(dp3202
g66
(dp3203
g74
I3
ssg75
g3197
sg68
(lp3204
g1810
asbasbasbag61
(g77
g63
NtRp3205
(dp3206
g66
(dp3207
sg75
g2865
sg68
(lp3208
g61
(g82
g63
NtRp3209
(dp3210
g66
(dp3211
g86
g87
ssg75
g3205
sg68
(lp3212
S'SERVER_PORT'
p3213
asbag61
(g82
g63
NtRp3214
(dp3215
g66
(dp3216
g93
g94
ssg75
g3205
sg68
(lp3217
S':'
asbag61
(g82
g63
NtRp3218
(dp3219
g66
(dp3220
sg75
g3205
sg68
(lp3221
g61
(g62
g63
NtRp3222
(dp3223
g66
(dp3224
g74
I3
ssg75
g3218
sg68
(lp3225
g1832
asbasbasbag61
(g77
g63
NtRp3226
(dp3227
g66
(dp3228
sg75
g2865
sg68
(lp3229
g61
(g82
g63
NtRp3230
(dp3231
g66
(dp3232
g86
g87
ssg75
g3226
sg68
(lp3233
S'SERVER_PROTOCOL'
p3234
asbag61
(g82
g63
NtRp3235
(dp3236
g66
(dp3237
g93
g94
ssg75
g3226
sg68
(lp3238
S':'
asbag61
(g82
g63
NtRp3239
(dp3240
g66
(dp3241
sg75
g3226
sg68
(lp3242
g61
(g62
g63
NtRp3243
(dp3244
g66
(dp3245
g74
I3
ssg75
g3239
sg68
(lp3246
g1854
asbasbasbag61
(g77
g63
NtRp3247
(dp3248
g66
(dp3249
sg75
g2865
sg68
(lp3250
g61
(g82
g63
NtRp3251
(dp3252
g66
(dp3253
g86
g87
ssg75
g3247
sg68
(lp3254
S'SERVER_SOFTWARE'
p3255
asbag61
(g82
g63
NtRp3256
(dp3257
g66
(dp3258
g93
g94
ssg75
g3247
sg68
(lp3259
S':'
asbag61
(g82
g63
NtRp3260
(dp3261
g66
(dp3262
sg75
g3247
sg68
(lp3263
g61
(g62
g63
NtRp3264
(dp3265
g66
(dp3266
g74
I3
ssg75
g3260
sg68
(lp3267
g1876
asbasbasbag61
(g77
g63
NtRp3268
(dp3269
g66
(dp3270
sg75
g2865
sg68
(lp3271
g61
(g82
g63
NtRp3272
(dp3273
g66
(dp3274
g86
g87
ssg75
g3268
sg68
(lp3275
S'wsgi.errors'
p3276
asbag61
(g82
g63
NtRp3277
(dp3278
g66
(dp3279
g93
g94
ssg75
g3268
sg68
(lp3280
S':'
asbag61
(g82
g63
NtRp3281
(dp3282
g66
(dp3283
sg75
g3268
sg68
(lp3284
g61
(g62
g63
NtRp3285
(dp3286
g66
(dp3287
g74
I3
ssg75
g3281
sg68
(lp3288
S'<__main__.Stderr object at 0x01377670>'
p3289
asbasbasbag61
(g77
g63
NtRp3290
(dp3291
g66
(dp3292
sg75
g2865
sg68
(lp3293
g61
(g82
g63
NtRp3294
(dp3295
g66
(dp3296
g86
g87
ssg75
g3290
sg68
(lp3297
S'wsgi.file_wrapper'
p3298
asbag61
(g82
g63
NtRp3299
(dp3300
g66
(dp3301
g93
g94
ssg75
g3290
sg68
(lp3302
S':'
asbag61
(g82
g63
NtRp3303
(dp3304
g66
(dp3305
sg75
g3290
sg68
(lp3306
g61
(g62
g63
NtRp3307
(dp3308
g66
(dp3309
g74
I3
ssg75
g3303
sg68
(lp3310
S'<class wsgiref.util.FileWrapper at 0x025B2210>'
p3311
asbasbasbag61
(g77
g63
NtRp3312
(dp3313
g66
(dp3314
sg75
g2865
sg68
(lp3315
g61
(g82
g63
NtRp3316
(dp3317
g66
(dp3318
g86
g87
ssg75
g3312
sg68
(lp3319
S'wsgi.input'
p3320
asbag61
(g82
g63
NtRp3321
(dp3322
g66
(dp3323
g93
g94
ssg75
g3312
sg68
(lp3324
S':'
asbag61
(g82
g63
NtRp3325
(dp3326
g66
(dp3327
sg75
g3312
sg68
(lp3328
g61
(g62
g63
NtRp3329
(dp3330
g66
(dp3331
g74
I3
ssg75
g3325
sg68
(lp3332
S'<cStringIO.StringO object at 0x063457E0>'
p3333
asbasbasbag61
(g77
g63
NtRp3334
(dp3335
g66
(dp3336
sg75
g2865
sg68
(lp3337
g61
(g82
g63
NtRp3338
(dp3339
g66
(dp3340
g86
g87
ssg75
g3334
sg68
(lp3341
S'wsgi.multiprocess'
p3342
asbag61
(g82
g63
NtRp3343
(dp3344
g66
(dp3345
g93
g94
ssg75
g3334
sg68
(lp3346
S':'
asbag61
(g82
g63
NtRp3347
(dp3348
g66
(dp3349
sg75
g3334
sg68
(lp3350
g61
(g62
g63
NtRp3351
(dp3352
g66
(dp3353
g74
I3
ssg75
g3347
sg68
(lp3354
g104
asbasbasbag61
(g77
g63
NtRp3355
(dp3356
g66
(dp3357
sg75
g2865
sg68
(lp3358
g61
(g82
g63
NtRp3359
(dp3360
g66
(dp3361
g86
g87
ssg75
g3355
sg68
(lp3362
S'wsgi.multithread'
p3363
asbag61
(g82
g63
NtRp3364
(dp3365
g66
(dp3366
g93
g94
ssg75
g3355
sg68
(lp3367
S':'
asbag61
(g82
g63
NtRp3368
(dp3369
g66
(dp3370
sg75
g3355
sg68
(lp3371
g61
(g62
g63
NtRp3372
(dp3373
g66
(dp3374
g74
I3
ssg75
g3368
sg68
(lp3375
g2116
asbasbasbag61
(g77
g63
NtRp3376
(dp3377
g66
(dp3378
sg75
g2865
sg68
(lp3379
g61
(g82
g63
NtRp3380
(dp3381
g66
(dp3382
g86
g87
ssg75
g3376
sg68
(lp3383
S'wsgi.run_once'
p3384
asbag61
(g82
g63
NtRp3385
(dp3386
g66
(dp3387
g93
g94
ssg75
g3376
sg68
(lp3388
S':'
asbag61
(g82
g63
NtRp3389
(dp3390
g66
(dp3391
sg75
g3376
sg68
(lp3392
g61
(g62
g63
NtRp3393
(dp3394
g66
(dp3395
g74
I3
ssg75
g3389
sg68
(lp3396
g104
asbasbasbag61
(g77
g63
NtRp3397
(dp3398
g66
(dp3399
sg75
g2865
sg68
(lp3400
g61
(g82
g63
NtRp3401
(dp3402
g66
(dp3403
g86
g87
ssg75
g3397
sg68
(lp3404
S'wsgi.url_scheme'
p3405
asbag61
(g82
g63
NtRp3406
(dp3407
g66
(dp3408
g93
g94
ssg75
g3397
sg68
(lp3409
S':'
asbag61
(g82
g63
NtRp3410
(dp3411
g66
(dp3412
sg75
g3397
sg68
(lp3413
g61
(g62
g63
NtRp3414
(dp3415
g66
(dp3416
g74
I3
ssg75
g3410
sg68
(lp3417
g2159
asbasbasbag61
(g77
g63
NtRp3418
(dp3419
g66
(dp3420
sg75
g2865
sg68
(lp3421
g61
(g82
g63
NtRp3422
(dp3423
g66
(dp3424
g86
g87
ssg75
g3418
sg68
(lp3425
S'wsgi.version'
p3426
asbag61
(g82
g63
NtRp3427
(dp3428
g66
(dp3429
g93
g94
ssg75
g3418
sg68
(lp3430
S':'
asbag61
(g82
g63
NtRp3431
(dp3432
g66
(dp3433
sg75
g3418
sg68
(lp3434
g61
(g62
g63
NtRp3435
(dp3436
g66
(dp3437
g74
I3
ssg75
g3431
sg68
(lp3438
S'1'
asbasbasbasbasbasbasbasbasbasbasbasbasbsS'frames'
p3439
(lp3440
(dp3441
S'file'
p3442
S'C:\\Users\\omkara\\Desktop\\web2py\\gluon\\restricted.py'
p3443
sS'dump'
p3444
(dp3445
sS'lnum'
p3446
I205
sS'lines'
p3447
(dp3448
sS'call'
p3449
S"(code='#Needed for authenticating users\\nfrom gluon.tool...e_user = custom_auth_table \\nauth.define_tables()\\n', environment={'A': <class 'gluon.html.A'>, 'Auth': <class 'gluon.tools.Auth'>, 'B': <class 'gluon.html.B'>, 'BEAUTIFY': <class 'gluon.html.BEAUTIFY'>, 'BODY': <class 'gluon.html.BODY'>, 'BR': <class 'gluon.html.BR'>, 'BUTTON': <class 'gluon.html.BUTTON'>, 'CAT': <class 'gluon.html.CAT'>, 'CENTER': <class 'gluon.html.CENTER'>, 'CLEANUP': <class 'gluon.validators.CLEANUP'>, ...}, layer=r'C:\\Users\\omkara\\Desktop\\web2py\\applications\\SlugBarter\\models\\registerForm.py')"
p3450
sS'func'
p3451
S'restricted'
p3452
sa(dp3453
g3442
S'C:\\Users\\omkara\\Desktop\\web2py\\applications\\SlugBarter\\models\\registerForm.py'
p3454
sg3444
(dp3455
sg3446
I18
sg3447
(dp3456
I13
S"    Field('registration_key', length=512,                # required"
p3457
sI14
S"          writable=False, readable=False, default=''),"
p3458
sI15
S"    Field('reset_password_key', length=512,              # required"
p3459
sI16
S"          writable=False, readable=False, default=''),"
p3460
sI17
S"    Field('registration_id', length=512,                 # required"
p3461
sI18
S"          writable=False, readable=False, default='')"
p3462
sI19
S'    )'
p3463
sI20
S''
sI21
S'custom_auth_table = db[auth.settings.table_user_name]'
p3464
sI22
S'custom_auth_table.firstName.requires = [IS_NOT_EMPTY()]'
p3465
ssg3449
S'()'
p3466
sg3451
S'<module>'
p3467
sa(dp3468
g3442
S'C:\\Users\\omkara\\Desktop\\web2py\\gluon\\dal.py'
p3469
sg3444
(dp3470
sg3446
I6292
sg3447
(dp3471
sg3449
S"(self=<DAL {'auth_event': <Table {'origin': <gluon.dal..._key': <gluon.dal.Field object at 0x05DE7290>}>}>, tablename='auth_user', *fields=(<gluon.dal.Field object at 0x059A5730>, <gluon.dal.Field object at 0x05CEEE30>, <gluon.dal.Field object at 0x05CEEB90>, <gluon.dal.Field object at 0x05CEEE50>, <gluon.dal.Field object at 0x05CEE350>, <gluon.dal.Field object at 0x05CEEAD0>, <gluon.dal.Field object at 0x05CEEB10>, <gluon.dal.Field object at 0x05CEE4B0>), **args={})"
p3472
sg3451
S'define_table'
p3473
sasS'pyver'
p3474
S'Python 2.5.4: C:\\Users\\omkara\\Desktop\\web2py\\web2py_no_console.exe'
p3475
sS'session'
p3476
g61
(g62
g63
NtRp3477
(dp3478
g66
(dp3479
sg68
(lp3480
g61
(g70
g63
NtRp3481
(dp3482
g66
(dp3483
g74
I5
ssg75
Nsg68
(lp3484
sbasbsS'etype'
p3485
S"<type 'exceptions.SyntaxError'>"
p3486
sS'date'
p3487
S'Tue Nov 06 17:02:37 2012'
p3488
sS'response'
p3489
g61
(g62
g63
NtRp3490
(dp3491
g66
(dp3492
sg68
(lp3493
g61
(g70
g63
NtRp3494
(dp3495
g66
(dp3496
g74
I5
ssg75
Nsg68
(lp3497
g61
(g77
g63
NtRp3498
(dp3499
g66
(dp3500
sg75
g3494
sg68
(lp3501
g61
(g82
g63
NtRp3502
(dp3503
g66
(dp3504
g86
g87
ssg75
g3498
sg68
(lp3505
g159
asbag61
(g82
g63
NtRp3506
(dp3507
g66
(dp3508
g93
g94
ssg75
g3498
sg68
(lp3509
S':'
asbag61
(g82
g63
NtRp3510
(dp3511
g66
(dp3512
sg75
g3498
sg68
(lp3513
g61
(g62
g63
NtRp3514
(dp3515
g66
(dp3516
g74
I5
ssg75
g3510
sg68
(lp3517
S'<cStringIO.StringO object at 0x06483260>'
p3518
asbasbasbag61
(g77
g63
NtRp3519
(dp3520
g66
(dp3521
sg75
g3494
sg68
(lp3522
g61
(g82
g63
NtRp3523
(dp3524
g66
(dp3525
g86
g87
ssg75
g3519
sg68
(lp3526
g225
asbag61
(g82
g63
NtRp3527
(dp3528
g66
(dp3529
g93
g94
ssg75
g3519
sg68
(lp3530
S':'
asbag61
(g82
g63
NtRp3531
(dp3532
g66
(dp3533
sg75
g3519
sg68
(lp3534
g61
(g62
g63
NtRp3535
(dp3536
g66
(dp3537
g74
I5
ssg75
g3531
sg68
(lp3538
g61
(g70
g63
NtRp3539
(dp3540
g66
(dp3541
g74
I4
ssg75
Nsg68
(lp3542
g61
(g77
g63
NtRp3543
(dp3544
g66
(dp3545
sg75
g3539
sg68
(lp3546
g61
(g82
g63
NtRp3547
(dp3548
g66
(dp3549
g86
g87
ssg75
g3543
sg68
(lp3550
S'session_id_slugbarter'
p3551
asbag61
(g82
g63
NtRp3552
(dp3553
g66
(dp3554
g93
g94
ssg75
g3543
sg68
(lp3555
S':'
asbag61
(g82
g63
NtRp3556
(dp3557
g66
(dp3558
sg75
g3543
sg68
(lp3559
g61
(g62
g63
NtRp3560
(dp3561
g66
(dp3562
g74
I4
ssg75
g3556
sg68
(lp3563
g61
(g70
g63
NtRp3564
(dp3565
g66
(dp3566
g74
I3
ssg75
Nsg68
(lp3567
g61
(g77
g63
NtRp3568
(dp3569
g66
(dp3570
sg75
g3564
sg68
(lp3571
g61
(g82
g63
NtRp3572
(dp3573
g66
(dp3574
g86
g87
ssg75
g3568
sg68
(lp3575
g275
asbag61
(g82
g63
NtRp3576
(dp3577
g66
(dp3578
g93
g94
ssg75
g3568
sg68
(lp3579
S':'
asbag61
(g82
g63
NtRp3580
(dp3581
g66
(dp3582
sg75
g3568
sg68
(lp3583
g61
(g62
g63
NtRp3584
(dp3585
g66
(dp3586
g74
I3
ssg75
g3580
sg68
(lp3587
S''
asbasbasbag61
(g77
g63
NtRp3588
(dp3589
g66
(dp3590
sg75
g3564
sg68
(lp3591
g61
(g82
g63
NtRp3592
(dp3593
g66
(dp3594
g86
g87
ssg75
g3588
sg68
(lp3595
g296
asbag61
(g82
g63
NtRp3596
(dp3597
g66
(dp3598
g93
g94
ssg75
g3588
sg68
(lp3599
S':'
asbag61
(g82
g63
NtRp3600
(dp3601
g66
(dp3602
sg75
g3588
sg68
(lp3603
g61
(g62
g63
NtRp3604
(dp3605
g66
(dp3606
g74
I3
ssg75
g3600
sg68
(lp3607
S''
asbasbasbag61
(g77
g63
NtRp3608
(dp3609
g66
(dp3610
sg75
g3564
sg68
(lp3611
g61
(g82
g63
NtRp3612
(dp3613
g66
(dp3614
g86
g87
ssg75
g3608
sg68
(lp3615
g317
asbag61
(g82
g63
NtRp3616
(dp3617
g66
(dp3618
g93
g94
ssg75
g3608
sg68
(lp3619
S':'
asbag61
(g82
g63
NtRp3620
(dp3621
g66
(dp3622
sg75
g3608
sg68
(lp3623
g61
(g62
g63
NtRp3624
(dp3625
g66
(dp3626
g74
I3
ssg75
g3620
sg68
(lp3627
S''
asbasbasbag61
(g77
g63
NtRp3628
(dp3629
g66
(dp3630
sg75
g3564
sg68
(lp3631
g61
(g82
g63
NtRp3632
(dp3633
g66
(dp3634
g86
g87
ssg75
g3628
sg68
(lp3635
g338
asbag61
(g82
g63
NtRp3636
(dp3637
g66
(dp3638
g93
g94
ssg75
g3628
sg68
(lp3639
S':'
asbag61
(g82
g63
NtRp3640
(dp3641
g66
(dp3642
sg75
g3628
sg68
(lp3643
g61
(g62
g63
NtRp3644
(dp3645
g66
(dp3646
g74
I3
ssg75
g3640
sg68
(lp3647
S''
asbasbasbag61
(g77
g63
NtRp3648
(dp3649
g66
(dp3650
sg75
g3564
sg68
(lp3651
g61
(g82
g63
NtRp3652
(dp3653
g66
(dp3654
g86
g87
ssg75
g3648
sg68
(lp3655
g359
asbag61
(g82
g63
NtRp3656
(dp3657
g66
(dp3658
g93
g94
ssg75
g3648
sg68
(lp3659
S':'
asbag61
(g82
g63
NtRp3660
(dp3661
g66
(dp3662
sg75
g3648
sg68
(lp3663
g61
(g62
g63
NtRp3664
(dp3665
g66
(dp3666
g74
I3
ssg75
g3660
sg68
(lp3667
S'/'
asbasbasbag61
(g77
g63
NtRp3668
(dp3669
g66
(dp3670
sg75
g3564
sg68
(lp3671
g61
(g82
g63
NtRp3672
(dp3673
g66
(dp3674
g86
g87
ssg75
g3668
sg68
(lp3675
g380
asbag61
(g82
g63
NtRp3676
(dp3677
g66
(dp3678
g93
g94
ssg75
g3668
sg68
(lp3679
S':'
asbag61
(g82
g63
NtRp3680
(dp3681
g66
(dp3682
sg75
g3668
sg68
(lp3683
g61
(g62
g63
NtRp3684
(dp3685
g66
(dp3686
g74
I3
ssg75
g3680
sg68
(lp3687
S''
asbasbasbag61
(g77
g63
NtRp3688
(dp3689
g66
(dp3690
sg75
g3564
sg68
(lp3691
g61
(g82
g63
NtRp3692
(dp3693
g66
(dp3694
g86
g87
ssg75
g3688
sg68
(lp3695
g401
asbag61
(g82
g63
NtRp3696
(dp3697
g66
(dp3698
g93
g94
ssg75
g3688
sg68
(lp3699
S':'
asbag61
(g82
g63
NtRp3700
(dp3701
g66
(dp3702
sg75
g3688
sg68
(lp3703
g61
(g62
g63
NtRp3704
(dp3705
g66
(dp3706
g74
I3
ssg75
g3700
sg68
(lp3707
S''
asbasbasbasbasbasbasbasbasbasbasbag61
(g77
g63
NtRp3708
(dp3709
g66
(dp3710
sg75
g3494
sg68
(lp3711
g61
(g82
g63
NtRp3712
(dp3713
g66
(dp3714
g86
g87
ssg75
g3708
sg68
(lp3715
S'delimiters'
p3716
asbag61
(g82
g63
NtRp3717
(dp3718
g66
(dp3719
g93
g94
ssg75
g3708
sg68
(lp3720
S':'
asbag61
(g82
g63
NtRp3721
(dp3722
g66
(dp3723
sg75
g3708
sg68
(lp3724
g61
(g62
g63
NtRp3725
(dp3726
g66
(dp3727
g74
I5
ssg75
g3721
sg68
(lp3728
g61
(g70
g63
NtRp3729
(dp3730
g66
(dp3731
g74
I4
ssg75
Nsg68
(lp3732
g61
(g77
g63
NtRp3733
(dp3734
g66
(dp3735
sg75
g3729
sg68
(lp3736
g61
(g82
g63
NtRp3737
(dp3738
g66
(dp3739
sg75
g3733
sg68
(lp3740
g61
(g62
g63
NtRp3741
(dp3742
g66
(dp3743
g74
I4
ssg75
g3737
sg68
(lp3744
S'{{'
p3745
asbasbasbag61
(g77
g63
NtRp3746
(dp3747
g66
(dp3748
sg75
g3729
sg68
(lp3749
g61
(g82
g63
NtRp3750
(dp3751
g66
(dp3752
sg75
g3746
sg68
(lp3753
g61
(g62
g63
NtRp3754
(dp3755
g66
(dp3756
g74
I4
ssg75
g3750
sg68
(lp3757
S'}}'
p3758
asbasbasbasbasbasbasbag61
(g77
g63
NtRp3759
(dp3760
g66
(dp3761
sg75
g3494
sg68
(lp3762
g61
(g82
g63
NtRp3763
(dp3764
g66
(dp3765
g86
g87
ssg75
g3759
sg68
(lp3766
S'files'
p3767
asbag61
(g82
g63
NtRp3768
(dp3769
g66
(dp3770
g93
g94
ssg75
g3759
sg68
(lp3771
S':'
asbag61
(g82
g63
NtRp3772
(dp3773
g66
(dp3774
sg75
g3759
sg68
(lp3775
g61
(g62
g63
NtRp3776
(dp3777
g66
(dp3778
g74
I5
ssg75
g3772
sg68
(lp3779
g61
(g70
g63
NtRp3780
(dp3781
g66
(dp3782
g74
I4
ssg75
Nsg68
(lp3783
sbasbasbasbag61
(g77
g63
NtRp3784
(dp3785
g66
(dp3786
sg75
g3494
sg68
(lp3787
g61
(g82
g63
NtRp3788
(dp3789
g66
(dp3790
g86
g87
ssg75
g3784
sg68
(lp3791
S'flash'
p3792
asbag61
(g82
g63
NtRp3793
(dp3794
g66
(dp3795
g93
g94
ssg75
g3784
sg68
(lp3796
S':'
asbag61
(g82
g63
NtRp3797
(dp3798
g66
(dp3799
sg75
g3784
sg68
(lp3800
g61
(g62
g63
NtRp3801
(dp3802
g66
(dp3803
g74
I5
ssg75
g3797
sg68
(lp3804
S''
asbasbasbag61
(g77
g63
NtRp3805
(dp3806
g66
(dp3807
sg75
g3494
sg68
(lp3808
g61
(g82
g63
NtRp3809
(dp3810
g66
(dp3811
g86
g87
ssg75
g3805
sg68
(lp3812
S'generic_patterns'
p3813
asbag61
(g82
g63
NtRp3814
(dp3815
g66
(dp3816
g93
g94
ssg75
g3805
sg68
(lp3817
S':'
asbag61
(g82
g63
NtRp3818
(dp3819
g66
(dp3820
sg75
g3805
sg68
(lp3821
g61
(g62
g63
NtRp3822
(dp3823
g66
(dp3824
g74
I5
ssg75
g3818
sg68
(lp3825
g61
(g70
g63
NtRp3826
(dp3827
g66
(dp3828
g74
I4
ssg75
Nsg68
(lp3829
g61
(g77
g63
NtRp3830
(dp3831
g66
(dp3832
sg75
g3826
sg68
(lp3833
g61
(g82
g63
NtRp3834
(dp3835
g66
(dp3836
sg75
g3830
sg68
(lp3837
g61
(g62
g63
NtRp3838
(dp3839
g66
(dp3840
g74
I4
ssg75
g3834
sg68
(lp3841
S'*'
asbasbasbasbasbasbasbag61
(g77
g63
NtRp3842
(dp3843
g66
(dp3844
sg75
g3494
sg68
(lp3845
g61
(g82
g63
NtRp3846
(dp3847
g66
(dp3848
g86
g87
ssg75
g3842
sg68
(lp3849
S'headers'
p3850
asbag61
(g82
g63
NtRp3851
(dp3852
g66
(dp3853
g93
g94
ssg75
g3842
sg68
(lp3854
S':'
asbag61
(g82
g63
NtRp3855
(dp3856
g66
(dp3857
sg75
g3842
sg68
(lp3858
g61
(g62
g63
NtRp3859
(dp3860
g66
(dp3861
g74
I5
ssg75
g3855
sg68
(lp3862
g61
(g70
g63
NtRp3863
(dp3864
g66
(dp3865
g74
I4
ssg75
Nsg68
(lp3866
g61
(g77
g63
NtRp3867
(dp3868
g66
(dp3869
sg75
g3863
sg68
(lp3870
g61
(g82
g63
NtRp3871
(dp3872
g66
(dp3873
g86
g87
ssg75
g3867
sg68
(lp3874
S'Cache-Control'
p3875
asbag61
(g82
g63
NtRp3876
(dp3877
g66
(dp3878
g93
g94
ssg75
g3867
sg68
(lp3879
S':'
asbag61
(g82
g63
NtRp3880
(dp3881
g66
(dp3882
sg75
g3867
sg68
(lp3883
g61
(g62
g63
NtRp3884
(dp3885
g66
(dp3886
g74
I4
ssg75
g3880
sg68
(lp3887
S'no-store, no-cache, must-revalidate, post-check=0, pre-check=0'
p3888
asbasbasbag61
(g77
g63
NtRp3889
(dp3890
g66
(dp3891
sg75
g3863
sg68
(lp3892
g61
(g82
g63
NtRp3893
(dp3894
g66
(dp3895
g86
g87
ssg75
g3889
sg68
(lp3896
S'Content-Type'
p3897
asbag61
(g82
g63
NtRp3898
(dp3899
g66
(dp3900
g93
g94
ssg75
g3889
sg68
(lp3901
S':'
asbag61
(g82
g63
NtRp3902
(dp3903
g66
(dp3904
sg75
g3889
sg68
(lp3905
g61
(g62
g63
NtRp3906
(dp3907
g66
(dp3908
g74
I4
ssg75
g3902
sg68
(lp3909
S'text/html; charset=utf-8'
p3910
asbasbasbag61
(g77
g63
NtRp3911
(dp3912
g66
(dp3913
sg75
g3863
sg68
(lp3914
g61
(g82
g63
NtRp3915
(dp3916
g66
(dp3917
g86
g87
ssg75
g3911
sg68
(lp3918
S'Expires'
p3919
asbag61
(g82
g63
NtRp3920
(dp3921
g66
(dp3922
g93
g94
ssg75
g3911
sg68
(lp3923
S':'
asbag61
(g82
g63
NtRp3924
(dp3925
g66
(dp3926
sg75
g3911
sg68
(lp3927
g61
(g62
g63
NtRp3928
(dp3929
g66
(dp3930
g74
I4
ssg75
g3924
sg68
(lp3931
S'Wed, 07 Nov 2012 01:02:37 GMT'
p3932
asbasbasbag61
(g77
g63
NtRp3933
(dp3934
g66
(dp3935
sg75
g3863
sg68
(lp3936
g61
(g82
g63
NtRp3937
(dp3938
g66
(dp3939
g86
g87
ssg75
g3933
sg68
(lp3940
S'Pragma'
p3941
asbag61
(g82
g63
NtRp3942
(dp3943
g66
(dp3944
g93
g94
ssg75
g3933
sg68
(lp3945
S':'
asbag61
(g82
g63
NtRp3946
(dp3947
g66
(dp3948
sg75
g3933
sg68
(lp3949
g61
(g62
g63
NtRp3950
(dp3951
g66
(dp3952
g74
I4
ssg75
g3946
sg68
(lp3953
S'no-cache'
p3954
asbasbasbag61
(g77
g63
NtRp3955
(dp3956
g66
(dp3957
sg75
g3863
sg68
(lp3958
g61
(g82
g63
NtRp3959
(dp3960
g66
(dp3961
g86
g87
ssg75
g3955
sg68
(lp3962
S'X-Powered-By'
p3963
asbag61
(g82
g63
NtRp3964
(dp3965
g66
(dp3966
g93
g94
ssg75
g3955
sg68
(lp3967
S':'
asbag61
(g82
g63
NtRp3968
(dp3969
g66
(dp3970
sg75
g3955
sg68
(lp3971
g61
(g62
g63
NtRp3972
(dp3973
g66
(dp3974
g74
I4
ssg75
g3968
sg68
(lp3975
S'web2py'
p3976
asbasbasbasbasbasbasbag61
(g77
g63
NtRp3977
(dp3978
g66
(dp3979
sg75
g3494
sg68
(lp3980
g61
(g82
g63
NtRp3981
(dp3982
g66
(dp3983
g86
g87
ssg75
g3977
sg68
(lp3984
S'menu'
p3985
asbag61
(g82
g63
NtRp3986
(dp3987
g66
(dp3988
g93
g94
ssg75
g3977
sg68
(lp3989
S':'
asbag61
(g82
g63
NtRp3990
(dp3991
g66
(dp3992
sg75
g3977
sg68
(lp3993
g61
(g62
g63
NtRp3994
(dp3995
g66
(dp3996
g74
I5
ssg75
g3990
sg68
(lp3997
g61
(g70
g63
NtRp3998
(dp3999
g66
(dp4000
g74
I4
ssg75
Nsg68
(lp4001
g61
(g77
g63
NtRp4002
(dp4003
g66
(dp4004
sg75
g3998
sg68
(lp4005
g61
(g82
g63
NtRp4006
(dp4007
g66
(dp4008
sg75
g4002
sg68
(lp4009
g61
(g62
g63
NtRp4010
(dp4011
g66
(dp4012
g74
I4
ssg75
g4006
sg68
(lp4013
g61
(g70
g63
NtRp4014
(dp4015
g66
(dp4016
g74
I3
ssg75
Nsg68
(lp4017
g61
(g77
g63
NtRp4018
(dp4019
g66
(dp4020
sg75
g4014
sg68
(lp4021
g61
(g82
g63
NtRp4022
(dp4023
g66
(dp4024
sg75
g4018
sg68
(lp4025
g61
(g62
g63
NtRp4026
(dp4027
g66
(dp4028
g74
I3
ssg75
g4022
sg68
(lp4029
cgluon.languages
lazyT_unpickle
p4030
(S's\x04\x00\x00\x00Home'
tRp4031
asbasbasbag61
(g77
g63
NtRp4032
(dp4033
g66
(dp4034
sg75
g4014
sg68
(lp4035
g61
(g82
g63
NtRp4036
(dp4037
g66
(dp4038
sg75
g4032
sg68
(lp4039
g61
(g62
g63
NtRp4040
(dp4041
g66
(dp4042
g74
I3
ssg75
g4036
sg68
(lp4043
g104
asbasbasbag61
(g77
g63
NtRp4044
(dp4045
g66
(dp4046
sg75
g4014
sg68
(lp4047
g61
(g82
g63
NtRp4048
(dp4049
g66
(dp4050
sg75
g4044
sg68
(lp4051
g61
(g62
g63
NtRp4052
(dp4053
g66
(dp4054
g74
I3
ssg75
g4048
sg68
(lp4055
S'/SlugBarter/default/index'
p4056
asbasbasbag61
(g77
g63
NtRp4057
(dp4058
g66
(dp4059
sg75
g4014
sg68
(lp4060
g61
(g82
g63
NtRp4061
(dp4062
g66
(dp4063
sg75
g4057
sg68
(lp4064
g61
(g62
g63
NtRp4065
(dp4066
g66
(dp4067
g74
I3
ssg75
g4061
sg68
(lp4068
g61
(g70
g63
NtRp4069
(dp4070
g66
(dp4071
g74
I2
ssg75
Nsg68
(lp4072
sbasbasbasbasbasbasbasbag61
(g77
g63
NtRp4073
(dp4074
g66
(dp4075
sg75
g3998
sg68
(lp4076
g61
(g82
g63
NtRp4077
(dp4078
g66
(dp4079
sg75
g4073
sg68
(lp4080
g61
(g62
g63
NtRp4081
(dp4082
g66
(dp4083
g74
I4
ssg75
g4077
sg68
(lp4084
g61
(g70
g63
NtRp4085
(dp4086
g66
(dp4087
g74
I3
ssg75
Nsg68
(lp4088
g61
(g77
g63
NtRp4089
(dp4090
g66
(dp4091
sg75
g4085
sg68
(lp4092
g61
(g82
g63
NtRp4093
(dp4094
g66
(dp4095
sg75
g4089
sg68
(lp4096
g61
(g62
g63
NtRp4097
(dp4098
g66
(dp4099
g74
I3
ssg75
g4093
sg68
(lp4100
g61
(cgluon.html
SPAN
p4101
g63
NtRp4102
(dp4103
g66
(dp4104
g86
S'color:yellow'
p4105
ssg75
Nsg68
(lp4106
g3976
asbasbasbasbag61
(g77
g63
NtRp4107
(dp4108
g66
(dp4109
sg75
g4085
sg68
(lp4110
g61
(g82
g63
NtRp4111
(dp4112
g66
(dp4113
sg75
g4107
sg68
(lp4114
g61
(g62
g63
NtRp4115
(dp4116
g66
(dp4117
g74
I3
ssg75
g4111
sg68
(lp4118
g104
asbasbasbag61
(g77
g63
NtRp4119
(dp4120
g66
(dp4121
sg75
g4085
sg68
(lp4122
g61
(g82
g63
NtRp4123
(dp4124
g66
(dp4125
sg75
g4119
sg68
(lp4126
g61
(g62
g63
NtRp4127
(dp4128
g66
(dp4129
g74
I3
ssg75
g4123
sg68
(lp4130
S'None'
p4131
asbasbasbag61
(g77
g63
NtRp4132
(dp4133
g66
(dp4134
sg75
g4085
sg68
(lp4135
g61
(g82
g63
NtRp4136
(dp4137
g66
(dp4138
sg75
g4132
sg68
(lp4139
g61
(g62
g63
NtRp4140
(dp4141
g66
(dp4142
g74
I3
ssg75
g4136
sg68
(lp4143
g61
(g70
g63
NtRp4144
(dp4145
g66
(dp4146
g74
I2
ssg75
Nsg68
(lp4147
g61
(g77
g63
NtRp4148
(dp4149
g66
(dp4150
sg75
g4144
sg68
(lp4151
g61
(g82
g63
NtRp4152
(dp4153
g66
(dp4154
sg75
g4148
sg68
(lp4155
g61
(g62
g63
NtRp4156
(dp4157
g66
(dp4158
g74
I2
ssg75
g4152
sg68
(lp4159
g61
(g70
g63
NtRp4160
(dp4161
g66
(dp4162
g74
I1
ssg75
Nsg68
(lp4163
g61
(g77
g63
NtRp4164
(dp4165
g66
(dp4166
sg75
g4160
sg68
(lp4167
g61
(g82
g63
NtRp4168
(dp4169
g66
(dp4170
sg75
g4164
sg68
(lp4171
g61
(g62
g63
NtRp4172
(dp4173
g66
(dp4174
g74
I1
ssg75
g4168
sg68
(lp4175
g4030
(S's\x08\x00\x00\x00My Sites'
tRp4176
asbasbasbag61
(g77
g63
NtRp4177
(dp4178
g66
(dp4179
sg75
g4160
sg68
(lp4180
g61
(g82
g63
NtRp4181
(dp4182
g66
(dp4183
sg75
g4177
sg68
(lp4184
g61
(g62
g63
NtRp4185
(dp4186
g66
(dp4187
g74
I1
ssg75
g4181
sg68
(lp4188
I00
asbasbasbag61
(g77
g63
NtRp4189
(dp4190
g66
(dp4191
sg75
g4160
sg68
(lp4192
g61
(g82
g63
NtRp4193
(dp4194
g66
(dp4195
sg75
g4189
sg68
(lp4196
g61
(g62
g63
NtRp4197
(dp4198
g66
(dp4199
g74
I1
ssg75
g4193
sg68
(lp4200
S'/admin/default/site'
p4201
asbasbasbasbasbasbasbag61
(g77
g63
NtRp4202
(dp4203
g66
(dp4204
sg75
g4144
sg68
(lp4205
g61
(g82
g63
NtRp4206
(dp4207
g66
(dp4208
sg75
g4202
sg68
(lp4209
g61
(g62
g63
NtRp4210
(dp4211
g66
(dp4212
g74
I2
ssg75
g4206
sg68
(lp4213
g61
(g70
g63
NtRp4214
(dp4215
g66
(dp4216
g74
I1
ssg75
Nsg68
(lp4217
g61
(g77
g63
NtRp4218
(dp4219
g66
(dp4220
sg75
g4214
sg68
(lp4221
g61
(g82
g63
NtRp4222
(dp4223
g66
(dp4224
sg75
g4218
sg68
(lp4225
g61
(g62
g63
NtRp4226
(dp4227
g66
(dp4228
g74
I1
ssg75
g4222
sg68
(lp4229
g4030
(S's\x08\x00\x00\x00This App'
tRp4230
asbasbasbag61
(g77
g63
NtRp4231
(dp4232
g66
(dp4233
sg75
g4214
sg68
(lp4234
g61
(g82
g63
NtRp4235
(dp4236
g66
(dp4237
sg75
g4231
sg68
(lp4238
g61
(g62
g63
NtRp4239
(dp4240
g66
(dp4241
g74
I1
ssg75
g4235
sg68
(lp4242
I00
asbasbasbag61
(g77
g63
NtRp4243
(dp4244
g66
(dp4245
sg75
g4214
sg68
(lp4246
g61
(g82
g63
NtRp4247
(dp4248
g66
(dp4249
sg75
g4243
sg68
(lp4250
g61
(g62
g63
NtRp4251
(dp4252
g66
(dp4253
g74
I1
ssg75
g4247
sg68
(lp4254
S'/admin/default/design/SlugBarter'
p4255
asbasbasbag61
(g77
g63
NtRp4256
(dp4257
g66
(dp4258
sg75
g4214
sg68
(lp4259
g61
(g82
g63
NtRp4260
(dp4261
g66
(dp4262
sg75
g4256
sg68
(lp4263
g61
(g62
g63
NtRp4264
(dp4265
g66
(dp4266
g74
I1
ssg75
g4260
sg68
(lp4267
(lp4268
(g4030
(S's\n\x00\x00\x00Controller'
tRp4269
I00
S'/admin/default/edit/SlugBarter/controllers/appadmin.py'
tp4270
a(g4030
(S's\x04\x00\x00\x00View'
tRp4271
I00
S'/admin/default/edit/SlugBarter/views/appadmin/index.html'
tp4272
a(g4030
(S's\x06\x00\x00\x00Layout'
tRp4273
I00
S'/admin/default/edit/SlugBarter/views/layout.html'
tp4274
a(g4030
(S's\n\x00\x00\x00Stylesheet'
tRp4275
I00
S'/admin/default/edit/SlugBarter/static/css/web2py.css'
tp4276
a(g4030
(S's\x08\x00\x00\x00DB Model'
tRp4277
I00
S'/admin/default/edit/SlugBarter/models/db.py'
tp4278
a(g4030
(S's\n\x00\x00\x00Menu Model'
tRp4279
I00
S'/admin/default/edit/SlugBarter/models/menu.py'
tp4280
a(g4030
(S's\x08\x00\x00\x00Database'
tRp4281
I00
S'/SlugBarter/appadmin/index'
tp4282
a(g4030
(S's\x06\x00\x00\x00Errors'
tRp4283
I00
S'/admin/default/errors/SlugBarter'
tp4284
a(g4030
(S's\x05\x00\x00\x00About'
tRp4285
I00
S'/admin/default/about/SlugBarter'
tp4286
aasbasbasbasbasbasbasbag61
(g77
g63
NtRp4287
(dp4288
g66
(dp4289
sg75
g4144
sg68
(lp4290
g61
(g82
g63
NtRp4291
(dp4292
g66
(dp4293
sg75
g4287
sg68
(lp4294
g61
(g62
g63
NtRp4295
(dp4296
g66
(dp4297
g74
I2
ssg75
g4291
sg68
(lp4298
g61
(g70
g63
NtRp4299
(dp4300
g66
(dp4301
g74
I1
ssg75
Nsg68
(lp4302
g61
(g77
g63
NtRp4303
(dp4304
g66
(dp4305
sg75
g4299
sg68
(lp4306
g61
(g82
g63
NtRp4307
(dp4308
g66
(dp4309
sg75
g4303
sg68
(lp4310
g61
(g62
g63
NtRp4311
(dp4312
g66
(dp4313
g74
I1
ssg75
g4307
sg68
(lp4314
S'web2py.com'
p4315
asbasbasbag61
(g77
g63
NtRp4316
(dp4317
g66
(dp4318
sg75
g4299
sg68
(lp4319
g61
(g82
g63
NtRp4320
(dp4321
g66
(dp4322
sg75
g4316
sg68
(lp4323
g61
(g62
g63
NtRp4324
(dp4325
g66
(dp4326
g74
I1
ssg75
g4320
sg68
(lp4327
I00
asbasbasbag61
(g77
g63
NtRp4328
(dp4329
g66
(dp4330
sg75
g4299
sg68
(lp4331
g61
(g82
g63
NtRp4332
(dp4333
g66
(dp4334
sg75
g4328
sg68
(lp4335
g61
(g62
g63
NtRp4336
(dp4337
g66
(dp4338
g74
I1
ssg75
g4332
sg68
(lp4339
S'http://www.web2py.com'
p4340
asbasbasbag61
(g77
g63
NtRp4341
(dp4342
g66
(dp4343
sg75
g4299
sg68
(lp4344
g61
(g82
g63
NtRp4345
(dp4346
g66
(dp4347
sg75
g4341
sg68
(lp4348
g61
(g62
g63
NtRp4349
(dp4350
g66
(dp4351
g74
I1
ssg75
g4345
sg68
(lp4352
(lp4353
(g4030
(S's\x08\x00\x00\x00Download'
tRp4354
I00
S'http://www.web2py.com/examples/default/download'
p4355
tp4356
a(g4030
(S's\x07\x00\x00\x00Support'
tRp4357
I00
S'http://www.web2py.com/examples/default/support'
p4358
tp4359
a(g4030
(S's\x04\x00\x00\x00Demo'
tRp4360
I00
S'http://web2py.com/demo_admin'
p4361
tp4362
a(g4030
(S's\x0e\x00\x00\x00Quick Examples'
tRp4363
I00
S'http://web2py.com/examples/default/examples'
p4364
tp4365
a(g4030
(S's\x03\x00\x00\x00FAQ'
tRp4366
I00
S'http://web2py.com/AlterEgo'
p4367
tp4368
a(g4030
(S's\x06\x00\x00\x00Videos'
tRp4369
I00
S'http://www.web2py.com/examples/default/videos/'
p4370
tp4371
a(g4030
(S's\x11\x00\x00\x00Free Applications'
tRp4372
I00
S'http://web2py.com/appliances'
p4373
tp4374
a(g4030
(S's\x07\x00\x00\x00Plugins'
tRp4375
I00
S'http://web2py.com/plugins'
p4376
tp4377
a(g4030
(S's\x07\x00\x00\x00Layouts'
tRp4378
I00
S'http://web2py.com/layouts'
p4379
tp4380
a(g4030
(S's\x07\x00\x00\x00Recipes'
tRp4381
I00
S'http://web2pyslices.com/'
p4382
tp4383
a(g4030
(S's\x08\x00\x00\x00Semantic'
tRp4384
I00
S'http://web2py.com/semantic'
p4385
tp4386
aasbasbasbasbasbasbasbag61
(g77
g63
NtRp4387
(dp4388
g66
(dp4389
sg75
g4144
sg68
(lp4390
g61
(g82
g63
NtRp4391
(dp4392
g66
(dp4393
sg75
g4387
sg68
(lp4394
g61
(g62
g63
NtRp4395
(dp4396
g66
(dp4397
g74
I2
ssg75
g4391
sg68
(lp4398
g61
(g70
g63
NtRp4399
(dp4400
g66
(dp4401
g74
I1
ssg75
Nsg68
(lp4402
g61
(g77
g63
NtRp4403
(dp4404
g66
(dp4405
sg75
g4399
sg68
(lp4406
g61
(g82
g63
NtRp4407
(dp4408
g66
(dp4409
sg75
g4403
sg68
(lp4410
g61
(g62
g63
NtRp4411
(dp4412
g66
(dp4413
g74
I1
ssg75
g4407
sg68
(lp4414
g4030
(S's\r\x00\x00\x00Documentation'
tRp4415
asbasbasbag61
(g77
g63
NtRp4416
(dp4417
g66
(dp4418
sg75
g4399
sg68
(lp4419
g61
(g82
g63
NtRp4420
(dp4421
g66
(dp4422
sg75
g4416
sg68
(lp4423
g61
(g62
g63
NtRp4424
(dp4425
g66
(dp4426
g74
I1
ssg75
g4420
sg68
(lp4427
I00
asbasbasbag61
(g77
g63
NtRp4428
(dp4429
g66
(dp4430
sg75
g4399
sg68
(lp4431
g61
(g82
g63
NtRp4432
(dp4433
g66
(dp4434
sg75
g4428
sg68
(lp4435
g61
(g62
g63
NtRp4436
(dp4437
g66
(dp4438
g74
I1
ssg75
g4432
sg68
(lp4439
S'http://www.web2py.com/book'
p4440
asbasbasbag61
(g77
g63
NtRp4441
(dp4442
g66
(dp4443
sg75
g4399
sg68
(lp4444
g61
(g82
g63
NtRp4445
(dp4446
g66
(dp4447
sg75
g4441
sg68
(lp4448
g61
(g62
g63
NtRp4449
(dp4450
g66
(dp4451
g74
I1
ssg75
g4445
sg68
(lp4452
(lp4453
(g4030
(S's\x07\x00\x00\x00Preface'
tRp4454
I00
S'http://www.web2py.com/book/default/chapter/00'
p4455
tp4456
a(g4030
(S's\x0c\x00\x00\x00Introduction'
tRp4457
I00
S'http://www.web2py.com/book/default/chapter/01'
p4458
tp4459
a(g4030
(S's\x06\x00\x00\x00Python'
tRp4460
I00
S'http://www.web2py.com/book/default/chapter/02'
p4461
tp4462
a(g4030
(S's\x08\x00\x00\x00Overview'
tRp4463
I00
S'http://www.web2py.com/book/default/chapter/03'
p4464
tp4465
a(g4030
(S's\x08\x00\x00\x00The Core'
tRp4466
I00
S'http://www.web2py.com/book/default/chapter/04'
p4467
tp4468
a(g4030
(S's\t\x00\x00\x00The Views'
tRp4469
I00
S'http://www.web2py.com/book/default/chapter/05'
p4470
tp4471
a(g4030
(S's\x08\x00\x00\x00Database'
tRp4472
I00
S'http://www.web2py.com/book/default/chapter/06'
p4473
tp4474
a(g4030
(S's\x14\x00\x00\x00Forms and Validators'
tRp4475
I00
S'http://www.web2py.com/book/default/chapter/07'
p4476
tp4477
a(g4030
(S's\r\x00\x00\x00Email and SMS'
tRp4478
I00
S'http://www.web2py.com/book/default/chapter/08'
p4479
tp4480
a(g4030
(S's\x0e\x00\x00\x00Access Control'
tRp4481
I00
S'http://www.web2py.com/book/default/chapter/09'
p4482
tp4483
a(g4030
(S's\x08\x00\x00\x00Services'
tRp4484
I00
S'http://www.web2py.com/book/default/chapter/10'
p4485
tp4486
a(g4030
(S's\x0c\x00\x00\x00Ajax Recipes'
tRp4487
I00
S'http://www.web2py.com/book/default/chapter/11'
p4488
tp4489
a(g4030
(S's\x16\x00\x00\x00Components and Plugins'
tRp4490
I00
S'http://www.web2py.com/book/default/chapter/12'
p4491
tp4492
a(g4030
(S's\x12\x00\x00\x00Deployment Recipes'
tRp4493
I00
S'http://www.web2py.com/book/default/chapter/13'
p4494
tp4495
a(g4030
(S's\r\x00\x00\x00Other Recipes'
tRp4496
I00
S'http://www.web2py.com/book/default/chapter/14'
p4497
tp4498
a(g4030
(S's\r\x00\x00\x00Buy this book'
tRp4499
I00
S'http://stores.lulu.com/web2py'
p4500
tp4501
aasbasbasbasbasbasbasbag61
(g77
g63
NtRp4502
(dp4503
g66
(dp4504
sg75
g4144
sg68
(lp4505
g61
(g82
g63
NtRp4506
(dp4507
g66
(dp4508
sg75
g4502
sg68
(lp4509
g61
(g62
g63
NtRp4510
(dp4511
g66
(dp4512
g74
I2
ssg75
g4506
sg68
(lp4513
g61
(g70
g63
NtRp4514
(dp4515
g66
(dp4516
g74
I1
ssg75
Nsg68
(lp4517
g61
(g77
g63
NtRp4518
(dp4519
g66
(dp4520
sg75
g4514
sg68
(lp4521
g61
(g82
g63
NtRp4522
(dp4523
g66
(dp4524
sg75
g4518
sg68
(lp4525
g61
(g62
g63
NtRp4526
(dp4527
g66
(dp4528
g74
I1
ssg75
g4522
sg68
(lp4529
g4030
(S's\t\x00\x00\x00Community'
tRp4530
asbasbasbag61
(g77
g63
NtRp4531
(dp4532
g66
(dp4533
sg75
g4514
sg68
(lp4534
g61
(g82
g63
NtRp4535
(dp4536
g66
(dp4537
sg75
g4531
sg68
(lp4538
g61
(g62
g63
NtRp4539
(dp4540
g66
(dp4541
g74
I1
ssg75
g4535
sg68
(lp4542
I00
asbasbasbag61
(g77
g63
NtRp4543
(dp4544
g66
(dp4545
sg75
g4514
sg68
(lp4546
g61
(g82
g63
NtRp4547
(dp4548
g66
(dp4549
sg75
g4543
sg68
(lp4550
g61
(g62
g63
NtRp4551
(dp4552
g66
(dp4553
g74
I1
ssg75
g4547
sg68
(lp4554
Nasbasbasbag61
(g77
g63
NtRp4555
(dp4556
g66
(dp4557
sg75
g4514
sg68
(lp4558
g61
(g82
g63
NtRp4559
(dp4560
g66
(dp4561
sg75
g4555
sg68
(lp4562
g61
(g62
g63
NtRp4563
(dp4564
g66
(dp4565
g74
I1
ssg75
g4559
sg68
(lp4566
(lp4567
(g4030
(S's\x06\x00\x00\x00Groups'
tRp4568
I00
S'http://www.web2py.com/examples/default/usergroups'
p4569
tp4570
a(g4030
(S's\x07\x00\x00\x00Twitter'
tRp4571
I00
S'http://twitter.com/web2py'
p4572
tp4573
a(g4030
(S's\t\x00\x00\x00Live Chat'
tRp4574
I00
S'http://webchat.freenode.net/?channels=web2py'
p4575
tp4576
aasbasbasbasbasbasbasbag61
(g77
g63
NtRp4577
(dp4578
g66
(dp4579
sg75
g4144
sg68
(lp4580
g61
(g82
g63
NtRp4581
(dp4582
g66
(dp4583
sg75
g4577
sg68
(lp4584
g61
(g62
g63
NtRp4585
(dp4586
g66
(dp4587
g74
I2
ssg75
g4581
sg68
(lp4588
g61
(g70
g63
NtRp4589
(dp4590
g66
(dp4591
g74
I1
ssg75
Nsg68
(lp4592
g61
(g77
g63
NtRp4593
(dp4594
g66
(dp4595
sg75
g4589
sg68
(lp4596
g61
(g82
g63
NtRp4597
(dp4598
g66
(dp4599
sg75
g4593
sg68
(lp4600
g61
(g62
g63
NtRp4601
(dp4602
g66
(dp4603
g74
I1
ssg75
g4597
sg68
(lp4604
g4030
(S's\x07\x00\x00\x00Plugins'
tRp4605
asbasbasbag61
(g77
g63
NtRp4606
(dp4607
g66
(dp4608
sg75
g4589
sg68
(lp4609
g61
(g82
g63
NtRp4610
(dp4611
g66
(dp4612
sg75
g4606
sg68
(lp4613
g61
(g62
g63
NtRp4614
(dp4615
g66
(dp4616
g74
I1
ssg75
g4610
sg68
(lp4617
I00
asbasbasbag61
(g77
g63
NtRp4618
(dp4619
g66
(dp4620
sg75
g4589
sg68
(lp4621
g61
(g82
g63
NtRp4622
(dp4623
g66
(dp4624
sg75
g4618
sg68
(lp4625
g61
(g62
g63
NtRp4626
(dp4627
g66
(dp4628
g74
I1
ssg75
g4622
sg68
(lp4629
Nasbasbasbag61
(g77
g63
NtRp4630
(dp4631
g66
(dp4632
sg75
g4589
sg68
(lp4633
g61
(g82
g63
NtRp4634
(dp4635
g66
(dp4636
sg75
g4630
sg68
(lp4637
g61
(g62
g63
NtRp4638
(dp4639
g66
(dp4640
g74
I1
ssg75
g4634
sg68
(lp4641
(lp4642
(S'plugin_wiki'
p4643
I00
S'http://web2py.com/examples/default/download'
p4644
tp4645
a(g4030
(S's\r\x00\x00\x00Other Plugins'
tRp4646
I00
g4376
tp4647
a(g4030
(S's\x0e\x00\x00\x00Layout Plugins'
tRp4648
I00
g4379
tp4649
aasbasbasbasbasbasbasbasbasbasbasbasbasbasbasbasbasbasbasbag61
(g77
g63
NtRp4650
(dp4651
g66
(dp4652
sg75
g3494
sg68
(lp4653
g61
(g82
g63
NtRp4654
(dp4655
g66
(dp4656
g86
g87
ssg75
g4650
sg68
(lp4657
S'meta'
p4658
asbag61
(g82
g63
NtRp4659
(dp4660
g66
(dp4661
g93
g94
ssg75
g4650
sg68
(lp4662
S':'
asbag61
(g82
g63
NtRp4663
(dp4664
g66
(dp4665
sg75
g4650
sg68
(lp4666
g61
(g62
g63
NtRp4667
(dp4668
g66
(dp4669
g74
I5
ssg75
g4663
sg68
(lp4670
g61
(g70
g63
NtRp4671
(dp4672
g66
(dp4673
g74
I4
ssg75
Nsg68
(lp4674
g61
(g77
g63
NtRp4675
(dp4676
g66
(dp4677
sg75
g4671
sg68
(lp4678
g61
(g82
g63
NtRp4679
(dp4680
g66
(dp4681
g86
g87
ssg75
g4675
sg68
(lp4682
S'author'
p4683
asbag61
(g82
g63
NtRp4684
(dp4685
g66
(dp4686
g93
g94
ssg75
g4675
sg68
(lp4687
S':'
asbag61
(g82
g63
NtRp4688
(dp4689
g66
(dp4690
sg75
g4675
sg68
(lp4691
g61
(g62
g63
NtRp4692
(dp4693
g66
(dp4694
g74
I4
ssg75
g4688
sg68
(lp4695
S'Your Name <you@example.com>'
p4696
asbasbasbag61
(g77
g63
NtRp4697
(dp4698
g66
(dp4699
sg75
g4671
sg68
(lp4700
g61
(g82
g63
NtRp4701
(dp4702
g66
(dp4703
g86
g87
ssg75
g4697
sg68
(lp4704
S'copyright'
p4705
asbag61
(g82
g63
NtRp4706
(dp4707
g66
(dp4708
g93
g94
ssg75
g4697
sg68
(lp4709
S':'
asbag61
(g82
g63
NtRp4710
(dp4711
g66
(dp4712
sg75
g4697
sg68
(lp4713
g61
(g62
g63
NtRp4714
(dp4715
g66
(dp4716
g74
I4
ssg75
g4710
sg68
(lp4717
S'Copyright 2011'
p4718
asbasbasbag61
(g77
g63
NtRp4719
(dp4720
g66
(dp4721
sg75
g4671
sg68
(lp4722
g61
(g82
g63
NtRp4723
(dp4724
g66
(dp4725
g86
g87
ssg75
g4719
sg68
(lp4726
S'description'
p4727
asbag61
(g82
g63
NtRp4728
(dp4729
g66
(dp4730
g93
g94
ssg75
g4719
sg68
(lp4731
S':'
asbag61
(g82
g63
NtRp4732
(dp4733
g66
(dp4734
sg75
g4719
sg68
(lp4735
g61
(g62
g63
NtRp4736
(dp4737
g66
(dp4738
g74
I4
ssg75
g4732
sg68
(lp4739
S'a cool new app'
p4740
asbasbasbag61
(g77
g63
NtRp4741
(dp4742
g66
(dp4743
sg75
g4671
sg68
(lp4744
g61
(g82
g63
NtRp4745
(dp4746
g66
(dp4747
g86
g87
ssg75
g4741
sg68
(lp4748
S'generator'
p4749
asbag61
(g82
g63
NtRp4750
(dp4751
g66
(dp4752
g93
g94
ssg75
g4741
sg68
(lp4753
S':'
asbag61
(g82
g63
NtRp4754
(dp4755
g66
(dp4756
sg75
g4741
sg68
(lp4757
g61
(g62
g63
NtRp4758
(dp4759
g66
(dp4760
g74
I4
ssg75
g4754
sg68
(lp4761
S'Web2py Web Framework'
p4762
asbasbasbag61
(g77
g63
NtRp4763
(dp4764
g66
(dp4765
sg75
g4671
sg68
(lp4766
g61
(g82
g63
NtRp4767
(dp4768
g66
(dp4769
g86
g87
ssg75
g4763
sg68
(lp4770
S'keywords'
p4771
asbag61
(g82
g63
NtRp4772
(dp4773
g66
(dp4774
g93
g94
ssg75
g4763
sg68
(lp4775
S':'
asbag61
(g82
g63
NtRp4776
(dp4777
g66
(dp4778
sg75
g4763
sg68
(lp4779
g61
(g62
g63
NtRp4780
(dp4781
g66
(dp4782
g74
I4
ssg75
g4776
sg68
(lp4783
S'web2py, python, framework'
p4784
asbasbasbasbasbasbasbag61
(g77
g63
NtRp4785
(dp4786
g66
(dp4787
sg75
g3494
sg68
(lp4788
g61
(g82
g63
NtRp4789
(dp4790
g66
(dp4791
g86
g87
ssg75
g4785
sg68
(lp4792
S'postprocessing'
p4793
asbag61
(g82
g63
NtRp4794
(dp4795
g66
(dp4796
g93
g94
ssg75
g4785
sg68
(lp4797
S':'
asbag61
(g82
g63
NtRp4798
(dp4799
g66
(dp4800
sg75
g4785
sg68
(lp4801
g61
(g62
g63
NtRp4802
(dp4803
g66
(dp4804
g74
I5
ssg75
g4798
sg68
(lp4805
g61
(g70
g63
NtRp4806
(dp4807
g66
(dp4808
g74
I4
ssg75
Nsg68
(lp4809
sbasbasbasbag61
(g77
g63
NtRp4810
(dp4811
g66
(dp4812
sg75
g3494
sg68
(lp4813
g61
(g82
g63
NtRp4814
(dp4815
g66
(dp4816
g86
g87
ssg75
g4810
sg68
(lp4817
S'session_filename'
p4818
asbag61
(g82
g63
NtRp4819
(dp4820
g66
(dp4821
g93
g94
ssg75
g4810
sg68
(lp4822
S':'
asbag61
(g82
g63
NtRp4823
(dp4824
g66
(dp4825
sg75
g4810
sg68
(lp4826
g61
(g62
g63
NtRp4827
(dp4828
g66
(dp4829
g74
I5
ssg75
g4823
sg68
(lp4830
S'C:\\Users\\omkara\\Desktop\\web2py\\applications\\SlugBarter\\sessions\\127.0.0.1-0bbbbc26-524c-4ed9-9192-6b5e9058f2b7'
p4831
asbasbasbag61
(g77
g63
NtRp4832
(dp4833
g66
(dp4834
sg75
g3494
sg68
(lp4835
g61
(g82
g63
NtRp4836
(dp4837
g66
(dp4838
g86
g87
ssg75
g4832
sg68
(lp4839
S'session_id'
p4840
asbag61
(g82
g63
NtRp4841
(dp4842
g66
(dp4843
g93
g94
ssg75
g4832
sg68
(lp4844
S':'
asbag61
(g82
g63
NtRp4845
(dp4846
g66
(dp4847
sg75
g4832
sg68
(lp4848
g61
(g62
g63
NtRp4849
(dp4850
g66
(dp4851
g74
I5
ssg75
g4845
sg68
(lp4852
S'127.0.0.1-0bbbbc26-524c-4ed9-9192-6b5e9058f2b7'
p4853
asbasbasbag61
(g77
g63
NtRp4854
(dp4855
g66
(dp4856
sg75
g3494
sg68
(lp4857
g61
(g82
g63
NtRp4858
(dp4859
g66
(dp4860
g86
g87
ssg75
g4854
sg68
(lp4861
S'session_id_name'
p4862
asbag61
(g82
g63
NtRp4863
(dp4864
g66
(dp4865
g93
g94
ssg75
g4854
sg68
(lp4866
S':'
asbag61
(g82
g63
NtRp4867
(dp4868
g66
(dp4869
sg75
g4854
sg68
(lp4870
g61
(g62
g63
NtRp4871
(dp4872
g66
(dp4873
g74
I5
ssg75
g4867
sg68
(lp4874
g3551
asbasbasbag61
(g77
g63
NtRp4875
(dp4876
g66
(dp4877
sg75
g3494
sg68
(lp4878
g61
(g82
g63
NtRp4879
(dp4880
g66
(dp4881
g86
g87
ssg75
g4875
sg68
(lp4882
S'session_new'
p4883
asbag61
(g82
g63
NtRp4884
(dp4885
g66
(dp4886
g93
g94
ssg75
g4875
sg68
(lp4887
S':'
asbag61
(g82
g63
NtRp4888
(dp4889
g66
(dp4890
sg75
g4875
sg68
(lp4891
g61
(g62
g63
NtRp4892
(dp4893
g66
(dp4894
g74
I5
ssg75
g4888
sg68
(lp4895
g2116
asbasbasbag61
(g77
g63
NtRp4896
(dp4897
g66
(dp4898
sg75
g3494
sg68
(lp4899
g61
(g82
g63
NtRp4900
(dp4901
g66
(dp4902
g86
g87
ssg75
g4896
sg68
(lp4903
S'status'
p4904
asbag61
(g82
g63
NtRp4905
(dp4906
g66
(dp4907
g93
g94
ssg75
g4896
sg68
(lp4908
S':'
asbag61
(g82
g63
NtRp4909
(dp4910
g66
(dp4911
sg75
g4896
sg68
(lp4912
g61
(g62
g63
NtRp4913
(dp4914
g66
(dp4915
g74
I5
ssg75
g4909
sg68
(lp4916
S'200'
p4917
asbasbasbag61
(g77
g63
NtRp4918
(dp4919
g66
(dp4920
sg75
g3494
sg68
(lp4921
g61
(g82
g63
NtRp4922
(dp4923
g66
(dp4924
g86
g87
ssg75
g4918
sg68
(lp4925
S'subtitle'
p4926
asbag61
(g82
g63
NtRp4927
(dp4928
g66
(dp4929
g93
g94
ssg75
g4918
sg68
(lp4930
S':'
asbag61
(g82
g63
NtRp4931
(dp4932
g66
(dp4933
sg75
g4918
sg68
(lp4934
g61
(g62
g63
NtRp4935
(dp4936
g66
(dp4937
g74
I5
ssg75
g4931
sg68
(lp4938
g4030
(S's\r\x00\x00\x00customize me!'
tRp4939
asbasbasbag61
(g77
g63
NtRp4940
(dp4941
g66
(dp4942
sg75
g3494
sg68
(lp4943
g61
(g82
g63
NtRp4944
(dp4945
g66
(dp4946
g86
g87
ssg75
g4940
sg68
(lp4947
S'title'
p4948
asbag61
(g82
g63
NtRp4949
(dp4950
g66
(dp4951
g93
g94
ssg75
g4940
sg68
(lp4952
S':'
asbag61
(g82
g63
NtRp4953
(dp4954
g66
(dp4955
sg75
g4940
sg68
(lp4956
g61
(g62
g63
NtRp4957
(dp4958
g66
(dp4959
g74
I5
ssg75
g4953
sg68
(lp4960
S'Slugbarter'
p4961
asbasbasbag61
(g77
g63
NtRp4962
(dp4963
g66
(dp4964
sg75
g3494
sg68
(lp4965
g61
(g82
g63
NtRp4966
(dp4967
g66
(dp4968
g86
g87
ssg75
g4962
sg68
(lp4969
g2780
asbag61
(g82
g63
NtRp4970
(dp4971
g66
(dp4972
g93
g94
ssg75
g4962
sg68
(lp4973
S':'
asbag61
(g82
g63
NtRp4974
(dp4975
g66
(dp4976
sg75
g4962
sg68
(lp4977
g61
(g62
g63
NtRp4978
(dp4979
g66
(dp4980
g74
I5
ssg75
g4974
sg68
(lp4981
g2793
asbasbasbag61
(g77
g63
NtRp4982
(dp4983
g66
(dp4984
sg75
g3494
sg68
(lp4985
g61
(g82
g63
NtRp4986
(dp4987
g66
(dp4988
g86
g87
ssg75
g4982
sg68
(lp4989
S'view'
p4990
asbag61
(g82
g63
NtRp4991
(dp4992
g66
(dp4993
g93
g94
ssg75
g4982
sg68
(lp4994
S':'
asbag61
(g82
g63
NtRp4995
(dp4996
g66
(dp4997
sg75
g4982
sg68
(lp4998
g61
(g62
g63
NtRp4999
(dp5000
g66
(dp5001
g74
I5
ssg75
g4995
sg68
(lp5002
S'appadmin/index.html'
p5003
asbasbasbasbasbsS'locals'
p5004
(dp5005
S'polymodel'
p5006
S'None'
p5007
sS'lowertablename'
p5008
S"'auth_user'"
p5009
sS'singular'
p5010
S"'Auth user'"
p5011
sS'migrate'
p5012
g2116
sS'fields'
p5013
S'(<gluon.dal.Field object at 0x059A5730>, <gluon.dal.Field object at 0x05CEEE30>, <gluon.dal.Field object at 0x05CEEB90>, <gluon.dal.Field object at 0x05CEEE50>, <gluon.dal.Field object at 0x05CEE350>, <gluon.dal.Field object at 0x05CEEAD0>, <gluon.dal.Field object at 0x05CEEB10>, <gluon.dal.Field object at 0x05CEE4B0>)'
p5014
sS'sequence_name'
p5015
S'None'
p5016
sg48
g21
sS'tablename'
p5017
S"'auth_user'"
p5018
sS'fake_migrate'
p5019
g104
sS'self'
p5020
S"<DAL {'auth_event': <Table {'origin': <gluon.dal..._key': <gluon.dal.Field object at 0x05DE7290>}>}>"
p5021
sS'table_class'
p5022
S"<class 'gluon.dal.Table'>"
p5023
sS'format'
p5024
S'None'
p5025
sS'trigger_name'
p5026
S'None'
p5027
sS'plural'
p5028
S"'Auth users'"
p5029
sS'primarykey'
p5030
S'None'
p5031
sssS'traceback'
p5032
S'Traceback (most recent call last):\n  File "gluon/restricted.py", line 205, in restricted\n  File "C:\\Users\\omkara\\Desktop\\web2py\\applications\\SlugBarter\\models\\registerForm.py", line 18, in <module>\n  File "gluon/dal.py", line 6292, in define_table\nSyntaxError: invalid table name: auth_user\n'
p5033
s.