(dp1
S'output'
p2
S"<type 'exceptions.TypeError'> __init__() got an unexpected keyword argument 'Readable'"
p3
sS'layer'
p4
S'C:\\Users\\omkara\\Desktop\\web2py\\applications\\SlugBarter\\models\\registerForm.py'
p5
sS'code'
p6
S"# coding: utf8\nfrom gluon.tools import Auth\nfrom datetime import datetime\nauth = Auth(db)\n\nauth.settings.extra_fields['auth_user']= [\n  Field('username','string',label ='Username:', writable = True, Readable= True),\n  Field('dateCreated','string', default= datetime.utcnow())]\n  \nauth.define_tables()\n"
p7
sS'snapshot'
p8
(dp9
S'exception'
p10
(dp11
S'__hash__'
p12
S"<method-wrapper '__hash__' of exceptions.TypeError object at 0x0659D828>"
p13
sS'__setattr__'
p14
S"<method-wrapper '__setattr__' of exceptions.TypeError object at 0x0659D828>"
p15
sS'__reduce_ex__'
p16
S'<built-in method __reduce_ex__ of exceptions.TypeError object at 0x0659D828>'
p17
sS'__getslice__'
p18
S"<method-wrapper '__getslice__' of exceptions.TypeError object at 0x0659D828>"
p19
sS'__getitem__'
p20
S"<method-wrapper '__getitem__' of exceptions.TypeError object at 0x0659D828>"
p21
sS'__setstate__'
p22
S'<built-in method __setstate__ of exceptions.TypeError object at 0x0659D828>'
p23
sS'__reduce__'
p24
S'<built-in method __reduce__ of exceptions.TypeError object at 0x0659D828>'
p25
sS'__str__'
p26
S"<method-wrapper '__str__' of exceptions.TypeError object at 0x0659D828>"
p27
sS'args'
p28
S'("__init__() got an unexpected keyword argument \'Readable\'",)'
p29
sS'__getattribute__'
p30
S"<method-wrapper '__getattribute__' of exceptions.TypeError object at 0x0659D828>"
p31
sS'__class__'
p32
S"<type 'exceptions.TypeError'>"
p33
sS'__delattr__'
p34
S"<method-wrapper '__delattr__' of exceptions.TypeError object at 0x0659D828>"
p35
sS'__repr__'
p36
S"<method-wrapper '__repr__' of exceptions.TypeError object at 0x0659D828>"
p37
sS'__dict__'
p38
S'{}'
p39
sS'__doc__'
p40
S"'Inappropriate argument type.'"
p41
sS'__init__'
p42
S"<method-wrapper '__init__' of exceptions.TypeError object at 0x0659D828>"
p43
sS'__new__'
p44
S'<built-in method __new__ of type object at 0x1E1CCD78>'
p45
ssS'evalue'
p46
S"__init__() got an unexpected keyword argument 'Readable'"
p47
sS'request'
p48
ccopy_reg
_reconstructor
p49
(cgluon.html
BEAUTIFY
p50
c__builtin__
object
p51
NtRp52
(dp53
S'attributes'
p54
(dp55
sS'components'
p56
(lp57
g49
(cgluon.html
TABLE
p58
g51
NtRp59
(dp60
g54
(dp61
S'level'
p62
I5
ssS'parent'
p63
Nsg56
(lp64
g49
(cgluon.html
TR
p65
g51
NtRp66
(dp67
g54
(dp68
sg63
g59
sg56
(lp69
g49
(cgluon.html
TD
p70
g51
NtRp71
(dp72
g54
(dp73
S'_style'
p74
S'font-weight:bold;vertical-align:top'
p75
ssg63
g66
sg56
(lp76
S'ajax'
p77
asbag49
(g70
g51
NtRp78
(dp79
g54
(dp80
S'_valign'
p81
S'top'
p82
ssg63
g66
sg56
(lp83
S':'
asbag49
(g70
g51
NtRp84
(dp85
g54
(dp86
sg63
g66
sg56
(lp87
g49
(g50
g51
NtRp88
(dp89
g54
(dp90
g62
I5
ssg63
g84
sg56
(lp91
S'False'
p92
asbasbasbag49
(g65
g51
NtRp93
(dp94
g54
(dp95
sg63
g59
sg56
(lp96
g49
(g70
g51
NtRp97
(dp98
g54
(dp99
g74
g75
ssg63
g93
sg56
(lp100
S'application'
p101
asbag49
(g70
g51
NtRp102
(dp103
g54
(dp104
g81
g82
ssg63
g93
sg56
(lp105
S':'
asbag49
(g70
g51
NtRp106
(dp107
g54
(dp108
sg63
g93
sg56
(lp109
g49
(g50
g51
NtRp110
(dp111
g54
(dp112
g62
I5
ssg63
g106
sg56
(lp113
S'SlugBarter'
p114
asbasbasbag49
(g65
g51
NtRp115
(dp116
g54
(dp117
sg63
g59
sg56
(lp118
g49
(g70
g51
NtRp119
(dp120
g54
(dp121
g74
g75
ssg63
g115
sg56
(lp122
g28
asbag49
(g70
g51
NtRp123
(dp124
g54
(dp125
g81
g82
ssg63
g115
sg56
(lp126
S':'
asbag49
(g70
g51
NtRp127
(dp128
g54
(dp129
sg63
g115
sg56
(lp130
g49
(g50
g51
NtRp131
(dp132
g54
(dp133
g62
I5
ssg63
g127
sg56
(lp134
g49
(g58
g51
NtRp135
(dp136
g54
(dp137
g62
I4
ssg63
Nsg56
(lp138
g49
(g65
g51
NtRp139
(dp140
g54
(dp141
sg63
g135
sg56
(lp142
g49
(g70
g51
NtRp143
(dp144
g54
(dp145
sg63
g139
sg56
(lp146
g49
(g50
g51
NtRp147
(dp148
g54
(dp149
g62
I4
ssg63
g143
sg56
(lp150
S'login'
p151
asbasbasbasbasbasbasbag49
(g65
g51
NtRp152
(dp153
g54
(dp154
sg63
g59
sg56
(lp155
g49
(g70
g51
NtRp156
(dp157
g54
(dp158
g74
g75
ssg63
g152
sg56
(lp159
S'body'
p160
asbag49
(g70
g51
NtRp161
(dp162
g54
(dp163
g81
g82
ssg63
g152
sg56
(lp164
S':'
asbag49
(g70
g51
NtRp165
(dp166
g54
(dp167
sg63
g152
sg56
(lp168
g49
(g50
g51
NtRp169
(dp170
g54
(dp171
g62
I5
ssg63
g165
sg56
(lp172
S'<cStringIO.StringO object at 0x066876E0>'
p173
asbasbasbag49
(g65
g51
NtRp174
(dp175
g54
(dp176
sg63
g59
sg56
(lp177
g49
(g70
g51
NtRp178
(dp179
g54
(dp180
g74
g75
ssg63
g174
sg56
(lp181
S'client'
p182
asbag49
(g70
g51
NtRp183
(dp184
g54
(dp185
g81
g82
ssg63
g174
sg56
(lp186
S':'
asbag49
(g70
g51
NtRp187
(dp188
g54
(dp189
sg63
g174
sg56
(lp190
g49
(g50
g51
NtRp191
(dp192
g54
(dp193
g62
I5
ssg63
g187
sg56
(lp194
S'127.0.0.1'
p195
asbasbasbag49
(g65
g51
NtRp196
(dp197
g54
(dp198
sg63
g59
sg56
(lp199
g49
(g70
g51
NtRp200
(dp201
g54
(dp202
g74
g75
ssg63
g196
sg56
(lp203
S'controller'
p204
asbag49
(g70
g51
NtRp205
(dp206
g54
(dp207
g81
g82
ssg63
g196
sg56
(lp208
S':'
asbag49
(g70
g51
NtRp209
(dp210
g54
(dp211
sg63
g196
sg56
(lp212
g49
(g50
g51
NtRp213
(dp214
g54
(dp215
g62
I5
ssg63
g209
sg56
(lp216
S'default'
p217
asbasbasbag49
(g65
g51
NtRp218
(dp219
g54
(dp220
sg63
g59
sg56
(lp221
g49
(g70
g51
NtRp222
(dp223
g54
(dp224
g74
g75
ssg63
g218
sg56
(lp225
S'cookies'
p226
asbag49
(g70
g51
NtRp227
(dp228
g54
(dp229
g81
g82
ssg63
g218
sg56
(lp230
S':'
asbag49
(g70
g51
NtRp231
(dp232
g54
(dp233
sg63
g218
sg56
(lp234
g49
(g50
g51
NtRp235
(dp236
g54
(dp237
g62
I5
ssg63
g231
sg56
(lp238
g49
(g58
g51
NtRp239
(dp240
g54
(dp241
g62
I4
ssg63
Nsg56
(lp242
g49
(g65
g51
NtRp243
(dp244
g54
(dp245
sg63
g239
sg56
(lp246
g49
(g70
g51
NtRp247
(dp248
g54
(dp249
g74
g75
ssg63
g243
sg56
(lp250
S'session_id_admin'
p251
asbag49
(g70
g51
NtRp252
(dp253
g54
(dp254
g81
g82
ssg63
g243
sg56
(lp255
S':'
asbag49
(g70
g51
NtRp256
(dp257
g54
(dp258
sg63
g243
sg56
(lp259
g49
(g50
g51
NtRp260
(dp261
g54
(dp262
g62
I4
ssg63
g256
sg56
(lp263
g49
(g58
g51
NtRp264
(dp265
g54
(dp266
g62
I3
ssg63
Nsg56
(lp267
g49
(g65
g51
NtRp268
(dp269
g54
(dp270
sg63
g264
sg56
(lp271
g49
(g70
g51
NtRp272
(dp273
g54
(dp274
g74
g75
ssg63
g268
sg56
(lp275
S'comment'
p276
asbag49
(g70
g51
NtRp277
(dp278
g54
(dp279
g81
g82
ssg63
g268
sg56
(lp280
S':'
asbag49
(g70
g51
NtRp281
(dp282
g54
(dp283
sg63
g268
sg56
(lp284
g49
(g50
g51
NtRp285
(dp286
g54
(dp287
g62
I3
ssg63
g281
sg56
(lp288
S''
asbasbasbag49
(g65
g51
NtRp289
(dp290
g54
(dp291
sg63
g264
sg56
(lp292
g49
(g70
g51
NtRp293
(dp294
g54
(dp295
g74
g75
ssg63
g289
sg56
(lp296
S'domain'
p297
asbag49
(g70
g51
NtRp298
(dp299
g54
(dp300
g81
g82
ssg63
g289
sg56
(lp301
S':'
asbag49
(g70
g51
NtRp302
(dp303
g54
(dp304
sg63
g289
sg56
(lp305
g49
(g50
g51
NtRp306
(dp307
g54
(dp308
g62
I3
ssg63
g302
sg56
(lp309
S''
asbasbasbag49
(g65
g51
NtRp310
(dp311
g54
(dp312
sg63
g264
sg56
(lp313
g49
(g70
g51
NtRp314
(dp315
g54
(dp316
g74
g75
ssg63
g310
sg56
(lp317
S'expires'
p318
asbag49
(g70
g51
NtRp319
(dp320
g54
(dp321
g81
g82
ssg63
g310
sg56
(lp322
S':'
asbag49
(g70
g51
NtRp323
(dp324
g54
(dp325
sg63
g310
sg56
(lp326
g49
(g50
g51
NtRp327
(dp328
g54
(dp329
g62
I3
ssg63
g323
sg56
(lp330
S''
asbasbasbag49
(g65
g51
NtRp331
(dp332
g54
(dp333
sg63
g264
sg56
(lp334
g49
(g70
g51
NtRp335
(dp336
g54
(dp337
g74
g75
ssg63
g331
sg56
(lp338
S'max-age'
p339
asbag49
(g70
g51
NtRp340
(dp341
g54
(dp342
g81
g82
ssg63
g331
sg56
(lp343
S':'
asbag49
(g70
g51
NtRp344
(dp345
g54
(dp346
sg63
g331
sg56
(lp347
g49
(g50
g51
NtRp348
(dp349
g54
(dp350
g62
I3
ssg63
g344
sg56
(lp351
S''
asbasbasbag49
(g65
g51
NtRp352
(dp353
g54
(dp354
sg63
g264
sg56
(lp355
g49
(g70
g51
NtRp356
(dp357
g54
(dp358
g74
g75
ssg63
g352
sg56
(lp359
S'path'
p360
asbag49
(g70
g51
NtRp361
(dp362
g54
(dp363
g81
g82
ssg63
g352
sg56
(lp364
S':'
asbag49
(g70
g51
NtRp365
(dp366
g54
(dp367
sg63
g352
sg56
(lp368
g49
(g50
g51
NtRp369
(dp370
g54
(dp371
g62
I3
ssg63
g365
sg56
(lp372
S''
asbasbasbag49
(g65
g51
NtRp373
(dp374
g54
(dp375
sg63
g264
sg56
(lp376
g49
(g70
g51
NtRp377
(dp378
g54
(dp379
g74
g75
ssg63
g373
sg56
(lp380
S'secure'
p381
asbag49
(g70
g51
NtRp382
(dp383
g54
(dp384
g81
g82
ssg63
g373
sg56
(lp385
S':'
asbag49
(g70
g51
NtRp386
(dp387
g54
(dp388
sg63
g373
sg56
(lp389
g49
(g50
g51
NtRp390
(dp391
g54
(dp392
g62
I3
ssg63
g386
sg56
(lp393
S''
asbasbasbag49
(g65
g51
NtRp394
(dp395
g54
(dp396
sg63
g264
sg56
(lp397
g49
(g70
g51
NtRp398
(dp399
g54
(dp400
g74
g75
ssg63
g394
sg56
(lp401
S'version'
p402
asbag49
(g70
g51
NtRp403
(dp404
g54
(dp405
g81
g82
ssg63
g394
sg56
(lp406
S':'
asbag49
(g70
g51
NtRp407
(dp408
g54
(dp409
sg63
g394
sg56
(lp410
g49
(g50
g51
NtRp411
(dp412
g54
(dp413
g62
I3
ssg63
g407
sg56
(lp414
S''
asbasbasbasbasbasbasbag49
(g65
g51
NtRp415
(dp416
g54
(dp417
sg63
g239
sg56
(lp418
g49
(g70
g51
NtRp419
(dp420
g54
(dp421
g74
g75
ssg63
g415
sg56
(lp422
S'session_id_onlinenotes_p1_'
p423
asbag49
(g70
g51
NtRp424
(dp425
g54
(dp426
g81
g82
ssg63
g415
sg56
(lp427
S':'
asbag49
(g70
g51
NtRp428
(dp429
g54
(dp430
sg63
g415
sg56
(lp431
g49
(g50
g51
NtRp432
(dp433
g54
(dp434
g62
I4
ssg63
g428
sg56
(lp435
g49
(g58
g51
NtRp436
(dp437
g54
(dp438
g62
I3
ssg63
Nsg56
(lp439
g49
(g65
g51
NtRp440
(dp441
g54
(dp442
sg63
g436
sg56
(lp443
g49
(g70
g51
NtRp444
(dp445
g54
(dp446
g74
g75
ssg63
g440
sg56
(lp447
g276
asbag49
(g70
g51
NtRp448
(dp449
g54
(dp450
g81
g82
ssg63
g440
sg56
(lp451
S':'
asbag49
(g70
g51
NtRp452
(dp453
g54
(dp454
sg63
g440
sg56
(lp455
g49
(g50
g51
NtRp456
(dp457
g54
(dp458
g62
I3
ssg63
g452
sg56
(lp459
S''
asbasbasbag49
(g65
g51
NtRp460
(dp461
g54
(dp462
sg63
g436
sg56
(lp463
g49
(g70
g51
NtRp464
(dp465
g54
(dp466
g74
g75
ssg63
g460
sg56
(lp467
g297
asbag49
(g70
g51
NtRp468
(dp469
g54
(dp470
g81
g82
ssg63
g460
sg56
(lp471
S':'
asbag49
(g70
g51
NtRp472
(dp473
g54
(dp474
sg63
g460
sg56
(lp475
g49
(g50
g51
NtRp476
(dp477
g54
(dp478
g62
I3
ssg63
g472
sg56
(lp479
S''
asbasbasbag49
(g65
g51
NtRp480
(dp481
g54
(dp482
sg63
g436
sg56
(lp483
g49
(g70
g51
NtRp484
(dp485
g54
(dp486
g74
g75
ssg63
g480
sg56
(lp487
g318
asbag49
(g70
g51
NtRp488
(dp489
g54
(dp490
g81
g82
ssg63
g480
sg56
(lp491
S':'
asbag49
(g70
g51
NtRp492
(dp493
g54
(dp494
sg63
g480
sg56
(lp495
g49
(g50
g51
NtRp496
(dp497
g54
(dp498
g62
I3
ssg63
g492
sg56
(lp499
S''
asbasbasbag49
(g65
g51
NtRp500
(dp501
g54
(dp502
sg63
g436
sg56
(lp503
g49
(g70
g51
NtRp504
(dp505
g54
(dp506
g74
g75
ssg63
g500
sg56
(lp507
g339
asbag49
(g70
g51
NtRp508
(dp509
g54
(dp510
g81
g82
ssg63
g500
sg56
(lp511
S':'
asbag49
(g70
g51
NtRp512
(dp513
g54
(dp514
sg63
g500
sg56
(lp515
g49
(g50
g51
NtRp516
(dp517
g54
(dp518
g62
I3
ssg63
g512
sg56
(lp519
S''
asbasbasbag49
(g65
g51
NtRp520
(dp521
g54
(dp522
sg63
g436
sg56
(lp523
g49
(g70
g51
NtRp524
(dp525
g54
(dp526
g74
g75
ssg63
g520
sg56
(lp527
g360
asbag49
(g70
g51
NtRp528
(dp529
g54
(dp530
g81
g82
ssg63
g520
sg56
(lp531
S':'
asbag49
(g70
g51
NtRp532
(dp533
g54
(dp534
sg63
g520
sg56
(lp535
g49
(g50
g51
NtRp536
(dp537
g54
(dp538
g62
I3
ssg63
g532
sg56
(lp539
S''
asbasbasbag49
(g65
g51
NtRp540
(dp541
g54
(dp542
sg63
g436
sg56
(lp543
g49
(g70
g51
NtRp544
(dp545
g54
(dp546
g74
g75
ssg63
g540
sg56
(lp547
g381
asbag49
(g70
g51
NtRp548
(dp549
g54
(dp550
g81
g82
ssg63
g540
sg56
(lp551
S':'
asbag49
(g70
g51
NtRp552
(dp553
g54
(dp554
sg63
g540
sg56
(lp555
g49
(g50
g51
NtRp556
(dp557
g54
(dp558
g62
I3
ssg63
g552
sg56
(lp559
S''
asbasbasbag49
(g65
g51
NtRp560
(dp561
g54
(dp562
sg63
g436
sg56
(lp563
g49
(g70
g51
NtRp564
(dp565
g54
(dp566
g74
g75
ssg63
g560
sg56
(lp567
g402
asbag49
(g70
g51
NtRp568
(dp569
g54
(dp570
g81
g82
ssg63
g560
sg56
(lp571
S':'
asbag49
(g70
g51
NtRp572
(dp573
g54
(dp574
sg63
g560
sg56
(lp575
g49
(g50
g51
NtRp576
(dp577
g54
(dp578
g62
I3
ssg63
g572
sg56
(lp579
S''
asbasbasbasbasbasbasbag49
(g65
g51
NtRp580
(dp581
g54
(dp582
sg63
g239
sg56
(lp583
g49
(g70
g51
NtRp584
(dp585
g54
(dp586
g74
g75
ssg63
g580
sg56
(lp587
S'session_id_slugbarter'
p588
asbag49
(g70
g51
NtRp589
(dp590
g54
(dp591
g81
g82
ssg63
g580
sg56
(lp592
S':'
asbag49
(g70
g51
NtRp593
(dp594
g54
(dp595
sg63
g580
sg56
(lp596
g49
(g50
g51
NtRp597
(dp598
g54
(dp599
g62
I4
ssg63
g593
sg56
(lp600
g49
(g58
g51
NtRp601
(dp602
g54
(dp603
g62
I3
ssg63
Nsg56
(lp604
g49
(g65
g51
NtRp605
(dp606
g54
(dp607
sg63
g601
sg56
(lp608
g49
(g70
g51
NtRp609
(dp610
g54
(dp611
g74
g75
ssg63
g605
sg56
(lp612
g276
asbag49
(g70
g51
NtRp613
(dp614
g54
(dp615
g81
g82
ssg63
g605
sg56
(lp616
S':'
asbag49
(g70
g51
NtRp617
(dp618
g54
(dp619
sg63
g605
sg56
(lp620
g49
(g50
g51
NtRp621
(dp622
g54
(dp623
g62
I3
ssg63
g617
sg56
(lp624
S''
asbasbasbag49
(g65
g51
NtRp625
(dp626
g54
(dp627
sg63
g601
sg56
(lp628
g49
(g70
g51
NtRp629
(dp630
g54
(dp631
g74
g75
ssg63
g625
sg56
(lp632
g297
asbag49
(g70
g51
NtRp633
(dp634
g54
(dp635
g81
g82
ssg63
g625
sg56
(lp636
S':'
asbag49
(g70
g51
NtRp637
(dp638
g54
(dp639
sg63
g625
sg56
(lp640
g49
(g50
g51
NtRp641
(dp642
g54
(dp643
g62
I3
ssg63
g637
sg56
(lp644
S''
asbasbasbag49
(g65
g51
NtRp645
(dp646
g54
(dp647
sg63
g601
sg56
(lp648
g49
(g70
g51
NtRp649
(dp650
g54
(dp651
g74
g75
ssg63
g645
sg56
(lp652
g318
asbag49
(g70
g51
NtRp653
(dp654
g54
(dp655
g81
g82
ssg63
g645
sg56
(lp656
S':'
asbag49
(g70
g51
NtRp657
(dp658
g54
(dp659
sg63
g645
sg56
(lp660
g49
(g50
g51
NtRp661
(dp662
g54
(dp663
g62
I3
ssg63
g657
sg56
(lp664
S''
asbasbasbag49
(g65
g51
NtRp665
(dp666
g54
(dp667
sg63
g601
sg56
(lp668
g49
(g70
g51
NtRp669
(dp670
g54
(dp671
g74
g75
ssg63
g665
sg56
(lp672
g339
asbag49
(g70
g51
NtRp673
(dp674
g54
(dp675
g81
g82
ssg63
g665
sg56
(lp676
S':'
asbag49
(g70
g51
NtRp677
(dp678
g54
(dp679
sg63
g665
sg56
(lp680
g49
(g50
g51
NtRp681
(dp682
g54
(dp683
g62
I3
ssg63
g677
sg56
(lp684
S''
asbasbasbag49
(g65
g51
NtRp685
(dp686
g54
(dp687
sg63
g601
sg56
(lp688
g49
(g70
g51
NtRp689
(dp690
g54
(dp691
g74
g75
ssg63
g685
sg56
(lp692
g360
asbag49
(g70
g51
NtRp693
(dp694
g54
(dp695
g81
g82
ssg63
g685
sg56
(lp696
S':'
asbag49
(g70
g51
NtRp697
(dp698
g54
(dp699
sg63
g685
sg56
(lp700
g49
(g50
g51
NtRp701
(dp702
g54
(dp703
g62
I3
ssg63
g697
sg56
(lp704
S''
asbasbasbag49
(g65
g51
NtRp705
(dp706
g54
(dp707
sg63
g601
sg56
(lp708
g49
(g70
g51
NtRp709
(dp710
g54
(dp711
g74
g75
ssg63
g705
sg56
(lp712
g381
asbag49
(g70
g51
NtRp713
(dp714
g54
(dp715
g81
g82
ssg63
g705
sg56
(lp716
S':'
asbag49
(g70
g51
NtRp717
(dp718
g54
(dp719
sg63
g705
sg56
(lp720
g49
(g50
g51
NtRp721
(dp722
g54
(dp723
g62
I3
ssg63
g717
sg56
(lp724
S''
asbasbasbag49
(g65
g51
NtRp725
(dp726
g54
(dp727
sg63
g601
sg56
(lp728
g49
(g70
g51
NtRp729
(dp730
g54
(dp731
g74
g75
ssg63
g725
sg56
(lp732
g402
asbag49
(g70
g51
NtRp733
(dp734
g54
(dp735
g81
g82
ssg63
g725
sg56
(lp736
S':'
asbag49
(g70
g51
NtRp737
(dp738
g54
(dp739
sg63
g725
sg56
(lp740
g49
(g50
g51
NtRp741
(dp742
g54
(dp743
g62
I3
ssg63
g737
sg56
(lp744
S''
asbasbasbasbasbasbasbag49
(g65
g51
NtRp745
(dp746
g54
(dp747
sg63
g239
sg56
(lp748
g49
(g70
g51
NtRp749
(dp750
g54
(dp751
g74
g75
ssg63
g745
sg56
(lp752
S'session_id_welcome'
p753
asbag49
(g70
g51
NtRp754
(dp755
g54
(dp756
g81
g82
ssg63
g745
sg56
(lp757
S':'
asbag49
(g70
g51
NtRp758
(dp759
g54
(dp760
sg63
g745
sg56
(lp761
g49
(g50
g51
NtRp762
(dp763
g54
(dp764
g62
I4
ssg63
g758
sg56
(lp765
g49
(g58
g51
NtRp766
(dp767
g54
(dp768
g62
I3
ssg63
Nsg56
(lp769
g49
(g65
g51
NtRp770
(dp771
g54
(dp772
sg63
g766
sg56
(lp773
g49
(g70
g51
NtRp774
(dp775
g54
(dp776
g74
g75
ssg63
g770
sg56
(lp777
g276
asbag49
(g70
g51
NtRp778
(dp779
g54
(dp780
g81
g82
ssg63
g770
sg56
(lp781
S':'
asbag49
(g70
g51
NtRp782
(dp783
g54
(dp784
sg63
g770
sg56
(lp785
g49
(g50
g51
NtRp786
(dp787
g54
(dp788
g62
I3
ssg63
g782
sg56
(lp789
S''
asbasbasbag49
(g65
g51
NtRp790
(dp791
g54
(dp792
sg63
g766
sg56
(lp793
g49
(g70
g51
NtRp794
(dp795
g54
(dp796
g74
g75
ssg63
g790
sg56
(lp797
g297
asbag49
(g70
g51
NtRp798
(dp799
g54
(dp800
g81
g82
ssg63
g790
sg56
(lp801
S':'
asbag49
(g70
g51
NtRp802
(dp803
g54
(dp804
sg63
g790
sg56
(lp805
g49
(g50
g51
NtRp806
(dp807
g54
(dp808
g62
I3
ssg63
g802
sg56
(lp809
S''
asbasbasbag49
(g65
g51
NtRp810
(dp811
g54
(dp812
sg63
g766
sg56
(lp813
g49
(g70
g51
NtRp814
(dp815
g54
(dp816
g74
g75
ssg63
g810
sg56
(lp817
g318
asbag49
(g70
g51
NtRp818
(dp819
g54
(dp820
g81
g82
ssg63
g810
sg56
(lp821
S':'
asbag49
(g70
g51
NtRp822
(dp823
g54
(dp824
sg63
g810
sg56
(lp825
g49
(g50
g51
NtRp826
(dp827
g54
(dp828
g62
I3
ssg63
g822
sg56
(lp829
S''
asbasbasbag49
(g65
g51
NtRp830
(dp831
g54
(dp832
sg63
g766
sg56
(lp833
g49
(g70
g51
NtRp834
(dp835
g54
(dp836
g74
g75
ssg63
g830
sg56
(lp837
g339
asbag49
(g70
g51
NtRp838
(dp839
g54
(dp840
g81
g82
ssg63
g830
sg56
(lp841
S':'
asbag49
(g70
g51
NtRp842
(dp843
g54
(dp844
sg63
g830
sg56
(lp845
g49
(g50
g51
NtRp846
(dp847
g54
(dp848
g62
I3
ssg63
g842
sg56
(lp849
S''
asbasbasbag49
(g65
g51
NtRp850
(dp851
g54
(dp852
sg63
g766
sg56
(lp853
g49
(g70
g51
NtRp854
(dp855
g54
(dp856
g74
g75
ssg63
g850
sg56
(lp857
g360
asbag49
(g70
g51
NtRp858
(dp859
g54
(dp860
g81
g82
ssg63
g850
sg56
(lp861
S':'
asbag49
(g70
g51
NtRp862
(dp863
g54
(dp864
sg63
g850
sg56
(lp865
g49
(g50
g51
NtRp866
(dp867
g54
(dp868
g62
I3
ssg63
g862
sg56
(lp869
S''
asbasbasbag49
(g65
g51
NtRp870
(dp871
g54
(dp872
sg63
g766
sg56
(lp873
g49
(g70
g51
NtRp874
(dp875
g54
(dp876
g74
g75
ssg63
g870
sg56
(lp877
g381
asbag49
(g70
g51
NtRp878
(dp879
g54
(dp880
g81
g82
ssg63
g870
sg56
(lp881
S':'
asbag49
(g70
g51
NtRp882
(dp883
g54
(dp884
sg63
g870
sg56
(lp885
g49
(g50
g51
NtRp886
(dp887
g54
(dp888
g62
I3
ssg63
g882
sg56
(lp889
S''
asbasbasbag49
(g65
g51
NtRp890
(dp891
g54
(dp892
sg63
g766
sg56
(lp893
g49
(g70
g51
NtRp894
(dp895
g54
(dp896
g74
g75
ssg63
g890
sg56
(lp897
g402
asbag49
(g70
g51
NtRp898
(dp899
g54
(dp900
g81
g82
ssg63
g890
sg56
(lp901
S':'
asbag49
(g70
g51
NtRp902
(dp903
g54
(dp904
sg63
g890
sg56
(lp905
g49
(g50
g51
NtRp906
(dp907
g54
(dp908
g62
I3
ssg63
g902
sg56
(lp909
S''
asbasbasbasbasbasbasbasbasbasbasbag49
(g65
g51
NtRp910
(dp911
g54
(dp912
sg63
g59
sg56
(lp913
g49
(g70
g51
NtRp914
(dp915
g54
(dp916
g74
g75
ssg63
g910
sg56
(lp917
S'env'
p918
asbag49
(g70
g51
NtRp919
(dp920
g54
(dp921
g81
g82
ssg63
g910
sg56
(lp922
S':'
asbag49
(g70
g51
NtRp923
(dp924
g54
(dp925
sg63
g910
sg56
(lp926
g49
(g50
g51
NtRp927
(dp928
g54
(dp929
g62
I5
ssg63
g923
sg56
(lp930
g49
(g58
g51
NtRp931
(dp932
g54
(dp933
g62
I4
ssg63
Nsg56
(lp934
g49
(g65
g51
NtRp935
(dp936
g54
(dp937
sg63
g931
sg56
(lp938
g49
(g70
g51
NtRp939
(dp940
g54
(dp941
g74
g75
ssg63
g935
sg56
(lp942
S'app_folders'
p943
asbag49
(g70
g51
NtRp944
(dp945
g54
(dp946
g81
g82
ssg63
g935
sg56
(lp947
S':'
asbag49
(g70
g51
NtRp948
(dp949
g54
(dp950
sg63
g935
sg56
(lp951
g49
(g50
g51
NtRp952
(dp953
g54
(dp954
g62
I4
ssg63
g948
sg56
(lp955
S"set(['C:\\\\Users\\\\omkara\\\\Desktop\\\\web2py\\\\applications\\\\admin\\\\', 'C:\\\\Users\\\\omkara\\\\Desktop\\\\web2py\\\\applications\\\\welcome\\\\', 'C:\\\\Users\\\\omkara\\\\Desktop\\\\web2py\\\\applications\\\\SlugBarter\\\\', 'C:\\\\Users\\\\omkara\\\\Desktop\\\\web2py\\\\applications\\\\OnlineNotes_p1_\\\\'])"
p956
asbasbasbag49
(g65
g51
NtRp957
(dp958
g54
(dp959
sg63
g931
sg56
(lp960
g49
(g70
g51
NtRp961
(dp962
g54
(dp963
g74
g75
ssg63
g957
sg56
(lp964
S'applications_parent'
p965
asbag49
(g70
g51
NtRp966
(dp967
g54
(dp968
g81
g82
ssg63
g957
sg56
(lp969
S':'
asbag49
(g70
g51
NtRp970
(dp971
g54
(dp972
sg63
g957
sg56
(lp973
g49
(g50
g51
NtRp974
(dp975
g54
(dp976
g62
I4
ssg63
g970
sg56
(lp977
S'C:\\Users\\omkara\\Desktop\\web2py'
p978
asbasbasbag49
(g65
g51
NtRp979
(dp980
g54
(dp981
sg63
g931
sg56
(lp982
g49
(g70
g51
NtRp983
(dp984
g54
(dp985
g74
g75
ssg63
g979
sg56
(lp986
S'cmd_args'
p987
asbag49
(g70
g51
NtRp988
(dp989
g54
(dp990
g81
g82
ssg63
g979
sg56
(lp991
S':'
asbag49
(g70
g51
NtRp992
(dp993
g54
(dp994
sg63
g979
sg56
(lp995
g49
(g50
g51
NtRp996
(dp997
g54
(dp998
g62
I4
ssg63
g992
sg56
(lp999
g49
(g58
g51
NtRp1000
(dp1001
g54
(dp1002
g62
I3
ssg63
Nsg56
(lp1003
sbasbasbasbag49
(g65
g51
NtRp1004
(dp1005
g54
(dp1006
sg63
g931
sg56
(lp1007
g49
(g70
g51
NtRp1008
(dp1009
g54
(dp1010
g74
g75
ssg63
g1004
sg56
(lp1011
S'cmd_options'
p1012
asbag49
(g70
g51
NtRp1013
(dp1014
g54
(dp1015
g81
g82
ssg63
g1004
sg56
(lp1016
S':'
asbag49
(g70
g51
NtRp1017
(dp1018
g54
(dp1019
sg63
g1004
sg56
(lp1020
g49
(g50
g51
NtRp1021
(dp1022
g54
(dp1023
g62
I4
ssg63
g1017
sg56
(lp1024
S"<Values at 0x27a30f8: {'verbose': False, 'ip': '127.0.0.1', 'shutdown_timeout': 5, 'taskbar': False, 'nocron': False, 'pid_filename': 'httpserver.pid', 'maxthreads': None, 'softcron': False, 'server_name': 'omkara-PC', 'bpython': False, 'nogui': False, 'port': 8000, 'extcron': False, 'debuglevel': 30, 'test': None, 'folder': 'C:\\\\Users\\\\omkara\\\\Desktop\\\\web2py', 'config': '', 'import_models': False, 'winservice': '', 'shell': None, 'run': '', 'log_filename': 'httpserver.log', 'args': [''], 'socket_timeout': 5, 'ssl_ca_certificate': None, 'scheduler': None, 'profiler_filename': None, 'ssl_private_key': '', 'password': '<ask>', 'request_queue_size': 5, 'ssl_certificate': '', 'cronjob': False, 'numthreads': None, 'quiet': False, 'interfaces': None, 'minthreads': None, 'timeout': 10, 'plain': False, 'nobanner': False}>"
p1025
asbasbasbag49
(g65
g51
NtRp1026
(dp1027
g54
(dp1028
sg63
g931
sg56
(lp1029
g49
(g70
g51
NtRp1030
(dp1031
g54
(dp1032
g74
g75
ssg63
g1026
sg56
(lp1033
S'db_sessions'
p1034
asbag49
(g70
g51
NtRp1035
(dp1036
g54
(dp1037
g81
g82
ssg63
g1026
sg56
(lp1038
S':'
asbag49
(g70
g51
NtRp1039
(dp1040
g54
(dp1041
sg63
g1026
sg56
(lp1042
g49
(g50
g51
NtRp1043
(dp1044
g54
(dp1045
g62
I4
ssg63
g1039
sg56
(lp1046
S'set([])'
p1047
asbasbasbag49
(g65
g51
NtRp1048
(dp1049
g54
(dp1050
sg63
g931
sg56
(lp1051
g49
(g70
g51
NtRp1052
(dp1053
g54
(dp1054
g74
g75
ssg63
g1048
sg56
(lp1055
S'debugging'
p1056
asbag49
(g70
g51
NtRp1057
(dp1058
g54
(dp1059
g81
g82
ssg63
g1048
sg56
(lp1060
S':'
asbag49
(g70
g51
NtRp1061
(dp1062
g54
(dp1063
sg63
g1048
sg56
(lp1064
g49
(g50
g51
NtRp1065
(dp1066
g54
(dp1067
g62
I4
ssg63
g1061
sg56
(lp1068
g92
asbasbasbag49
(g65
g51
NtRp1069
(dp1070
g54
(dp1071
sg63
g931
sg56
(lp1072
g49
(g70
g51
NtRp1073
(dp1074
g54
(dp1075
g74
g75
ssg63
g1069
sg56
(lp1076
S'gluon_parent'
p1077
asbag49
(g70
g51
NtRp1078
(dp1079
g54
(dp1080
g81
g82
ssg63
g1069
sg56
(lp1081
S':'
asbag49
(g70
g51
NtRp1082
(dp1083
g54
(dp1084
sg63
g1069
sg56
(lp1085
g49
(g50
g51
NtRp1086
(dp1087
g54
(dp1088
g62
I4
ssg63
g1082
sg56
(lp1089
S'C:\\Users\\omkara\\Desktop\\web2py'
p1090
asbasbasbag49
(g65
g51
NtRp1091
(dp1092
g54
(dp1093
sg63
g931
sg56
(lp1094
g49
(g70
g51
NtRp1095
(dp1096
g54
(dp1097
g74
g75
ssg63
g1091
sg56
(lp1098
S'http_accept'
p1099
asbag49
(g70
g51
NtRp1100
(dp1101
g54
(dp1102
g81
g82
ssg63
g1091
sg56
(lp1103
S':'
asbag49
(g70
g51
NtRp1104
(dp1105
g54
(dp1106
sg63
g1091
sg56
(lp1107
g49
(g50
g51
NtRp1108
(dp1109
g54
(dp1110
g62
I4
ssg63
g1104
sg56
(lp1111
S'text/html,application/xhtml+xml,application/xml;q=0.9,*/*;q=0.8'
p1112
asbasbasbag49
(g65
g51
NtRp1113
(dp1114
g54
(dp1115
sg63
g931
sg56
(lp1116
g49
(g70
g51
NtRp1117
(dp1118
g54
(dp1119
g74
g75
ssg63
g1113
sg56
(lp1120
S'http_accept_charset'
p1121
asbag49
(g70
g51
NtRp1122
(dp1123
g54
(dp1124
g81
g82
ssg63
g1113
sg56
(lp1125
S':'
asbag49
(g70
g51
NtRp1126
(dp1127
g54
(dp1128
sg63
g1113
sg56
(lp1129
g49
(g50
g51
NtRp1130
(dp1131
g54
(dp1132
g62
I4
ssg63
g1126
sg56
(lp1133
S'ISO-8859-1,utf-8;q=0.7,*;q=0.3'
p1134
asbasbasbag49
(g65
g51
NtRp1135
(dp1136
g54
(dp1137
sg63
g931
sg56
(lp1138
g49
(g70
g51
NtRp1139
(dp1140
g54
(dp1141
g74
g75
ssg63
g1135
sg56
(lp1142
S'http_accept_encoding'
p1143
asbag49
(g70
g51
NtRp1144
(dp1145
g54
(dp1146
g81
g82
ssg63
g1135
sg56
(lp1147
S':'
asbag49
(g70
g51
NtRp1148
(dp1149
g54
(dp1150
sg63
g1135
sg56
(lp1151
g49
(g50
g51
NtRp1152
(dp1153
g54
(dp1154
g62
I4
ssg63
g1148
sg56
(lp1155
S'gzip,deflate,sdch'
p1156
asbasbasbag49
(g65
g51
NtRp1157
(dp1158
g54
(dp1159
sg63
g931
sg56
(lp1160
g49
(g70
g51
NtRp1161
(dp1162
g54
(dp1163
g74
g75
ssg63
g1157
sg56
(lp1164
S'http_accept_language'
p1165
asbag49
(g70
g51
NtRp1166
(dp1167
g54
(dp1168
g81
g82
ssg63
g1157
sg56
(lp1169
S':'
asbag49
(g70
g51
NtRp1170
(dp1171
g54
(dp1172
sg63
g1157
sg56
(lp1173
g49
(g50
g51
NtRp1174
(dp1175
g54
(dp1176
g62
I4
ssg63
g1170
sg56
(lp1177
S'en-US,en;q=0.8'
p1178
asbasbasbag49
(g65
g51
NtRp1179
(dp1180
g54
(dp1181
sg63
g931
sg56
(lp1182
g49
(g70
g51
NtRp1183
(dp1184
g54
(dp1185
g74
g75
ssg63
g1179
sg56
(lp1186
S'http_cache_control'
p1187
asbag49
(g70
g51
NtRp1188
(dp1189
g54
(dp1190
g81
g82
ssg63
g1179
sg56
(lp1191
S':'
asbag49
(g70
g51
NtRp1192
(dp1193
g54
(dp1194
sg63
g1179
sg56
(lp1195
g49
(g50
g51
NtRp1196
(dp1197
g54
(dp1198
g62
I4
ssg63
g1192
sg56
(lp1199
S'max-age=0'
p1200
asbasbasbag49
(g65
g51
NtRp1201
(dp1202
g54
(dp1203
sg63
g931
sg56
(lp1204
g49
(g70
g51
NtRp1205
(dp1206
g54
(dp1207
g74
g75
ssg63
g1201
sg56
(lp1208
S'http_connection'
p1209
asbag49
(g70
g51
NtRp1210
(dp1211
g54
(dp1212
g81
g82
ssg63
g1201
sg56
(lp1213
S':'
asbag49
(g70
g51
NtRp1214
(dp1215
g54
(dp1216
sg63
g1201
sg56
(lp1217
g49
(g50
g51
NtRp1218
(dp1219
g54
(dp1220
g62
I4
ssg63
g1214
sg56
(lp1221
S'keep-alive'
p1222
asbasbasbag49
(g65
g51
NtRp1223
(dp1224
g54
(dp1225
sg63
g931
sg56
(lp1226
g49
(g70
g51
NtRp1227
(dp1228
g54
(dp1229
g74
g75
ssg63
g1223
sg56
(lp1230
S'http_cookie'
p1231
asbag49
(g70
g51
NtRp1232
(dp1233
g54
(dp1234
g81
g82
ssg63
g1223
sg56
(lp1235
S':'
asbag49
(g70
g51
NtRp1236
(dp1237
g54
(dp1238
sg63
g1223
sg56
(lp1239
g49
(g50
g51
NtRp1240
(dp1241
g54
(dp1242
g62
I4
ssg63
g1236
sg56
(lp1243
S'session_id_welcome=127.0.0.1-a1b3016b-66b8-408b-ae8e-37231f35f16e; session_id_onlinenotes_p1_=127.0.0.1-2b1a349f-aa95-4718-93d5-e7df1c85d951; session_id_slugbarter=127.0.0.1-e6ebae72-1bbc-48a5-9458-95dbb65a4e54; session_id_admin=127.0.0.1-3b1553ef-7186-4588-80e8-d2bbbaa88c9f'
p1244
asbasbasbag49
(g65
g51
NtRp1245
(dp1246
g54
(dp1247
sg63
g931
sg56
(lp1248
g49
(g70
g51
NtRp1249
(dp1250
g54
(dp1251
g74
g75
ssg63
g1245
sg56
(lp1252
S'http_host'
p1253
asbag49
(g70
g51
NtRp1254
(dp1255
g54
(dp1256
g81
g82
ssg63
g1245
sg56
(lp1257
S':'
asbag49
(g70
g51
NtRp1258
(dp1259
g54
(dp1260
sg63
g1245
sg56
(lp1261
g49
(g50
g51
NtRp1262
(dp1263
g54
(dp1264
g62
I4
ssg63
g1258
sg56
(lp1265
S'127.0.0.1:8000'
p1266
asbasbasbag49
(g65
g51
NtRp1267
(dp1268
g54
(dp1269
sg63
g931
sg56
(lp1270
g49
(g70
g51
NtRp1271
(dp1272
g54
(dp1273
g74
g75
ssg63
g1267
sg56
(lp1274
S'http_referer'
p1275
asbag49
(g70
g51
NtRp1276
(dp1277
g54
(dp1278
g81
g82
ssg63
g1267
sg56
(lp1279
S':'
asbag49
(g70
g51
NtRp1280
(dp1281
g54
(dp1282
sg63
g1267
sg56
(lp1283
g49
(g50
g51
NtRp1284
(dp1285
g54
(dp1286
g62
I4
ssg63
g1280
sg56
(lp1287
S'http://127.0.0.1:8000/SlugBarter/default/index'
p1288
asbasbasbag49
(g65
g51
NtRp1289
(dp1290
g54
(dp1291
sg63
g931
sg56
(lp1292
g49
(g70
g51
NtRp1293
(dp1294
g54
(dp1295
g74
g75
ssg63
g1289
sg56
(lp1296
S'http_user_agent'
p1297
asbag49
(g70
g51
NtRp1298
(dp1299
g54
(dp1300
g81
g82
ssg63
g1289
sg56
(lp1301
S':'
asbag49
(g70
g51
NtRp1302
(dp1303
g54
(dp1304
sg63
g1289
sg56
(lp1305
g49
(g50
g51
NtRp1306
(dp1307
g54
(dp1308
g62
I4
ssg63
g1302
sg56
(lp1309
S'Mozilla/5.0 (Windows NT 6.1) AppleWebKit/537.11 (KHTML, like Gecko) Chrome/23.0.1271.64 Safari/537.11'
p1310
asbasbasbag49
(g65
g51
NtRp1311
(dp1312
g54
(dp1313
sg63
g931
sg56
(lp1314
g49
(g70
g51
NtRp1315
(dp1316
g54
(dp1317
g74
g75
ssg63
g1311
sg56
(lp1318
S'is_jython'
p1319
asbag49
(g70
g51
NtRp1320
(dp1321
g54
(dp1322
g81
g82
ssg63
g1311
sg56
(lp1323
S':'
asbag49
(g70
g51
NtRp1324
(dp1325
g54
(dp1326
sg63
g1311
sg56
(lp1327
g49
(g50
g51
NtRp1328
(dp1329
g54
(dp1330
g62
I4
ssg63
g1324
sg56
(lp1331
g92
asbasbasbag49
(g65
g51
NtRp1332
(dp1333
g54
(dp1334
sg63
g931
sg56
(lp1335
g49
(g70
g51
NtRp1336
(dp1337
g54
(dp1338
g74
g75
ssg63
g1332
sg56
(lp1339
S'is_pypy'
p1340
asbag49
(g70
g51
NtRp1341
(dp1342
g54
(dp1343
g81
g82
ssg63
g1332
sg56
(lp1344
S':'
asbag49
(g70
g51
NtRp1345
(dp1346
g54
(dp1347
sg63
g1332
sg56
(lp1348
g49
(g50
g51
NtRp1349
(dp1350
g54
(dp1351
g62
I4
ssg63
g1345
sg56
(lp1352
g92
asbasbasbag49
(g65
g51
NtRp1353
(dp1354
g54
(dp1355
sg63
g931
sg56
(lp1356
g49
(g70
g51
NtRp1357
(dp1358
g54
(dp1359
g74
g75
ssg63
g1353
sg56
(lp1360
S'path_info'
p1361
asbag49
(g70
g51
NtRp1362
(dp1363
g54
(dp1364
g81
g82
ssg63
g1353
sg56
(lp1365
S':'
asbag49
(g70
g51
NtRp1366
(dp1367
g54
(dp1368
sg63
g1353
sg56
(lp1369
g49
(g50
g51
NtRp1370
(dp1371
g54
(dp1372
g62
I4
ssg63
g1366
sg56
(lp1373
S'/SlugBarter/default/register/login'
p1374
asbasbasbag49
(g65
g51
NtRp1375
(dp1376
g54
(dp1377
sg63
g931
sg56
(lp1378
g49
(g70
g51
NtRp1379
(dp1380
g54
(dp1381
g74
g75
ssg63
g1375
sg56
(lp1382
S'query_string'
p1383
asbag49
(g70
g51
NtRp1384
(dp1385
g54
(dp1386
g81
g82
ssg63
g1375
sg56
(lp1387
S':'
asbag49
(g70
g51
NtRp1388
(dp1389
g54
(dp1390
sg63
g1375
sg56
(lp1391
g49
(g50
g51
NtRp1392
(dp1393
g54
(dp1394
g62
I4
ssg63
g1388
sg56
(lp1395
S''
asbasbasbag49
(g65
g51
NtRp1396
(dp1397
g54
(dp1398
sg63
g931
sg56
(lp1399
g49
(g70
g51
NtRp1400
(dp1401
g54
(dp1402
g74
g75
ssg63
g1396
sg56
(lp1403
S'remote_addr'
p1404
asbag49
(g70
g51
NtRp1405
(dp1406
g54
(dp1407
g81
g82
ssg63
g1396
sg56
(lp1408
S':'
asbag49
(g70
g51
NtRp1409
(dp1410
g54
(dp1411
sg63
g1396
sg56
(lp1412
g49
(g50
g51
NtRp1413
(dp1414
g54
(dp1415
g62
I4
ssg63
g1409
sg56
(lp1416
g195
asbasbasbag49
(g65
g51
NtRp1417
(dp1418
g54
(dp1419
sg63
g931
sg56
(lp1420
g49
(g70
g51
NtRp1421
(dp1422
g54
(dp1423
g74
g75
ssg63
g1417
sg56
(lp1424
S'remote_port'
p1425
asbag49
(g70
g51
NtRp1426
(dp1427
g54
(dp1428
g81
g82
ssg63
g1417
sg56
(lp1429
S':'
asbag49
(g70
g51
NtRp1430
(dp1431
g54
(dp1432
sg63
g1417
sg56
(lp1433
g49
(g50
g51
NtRp1434
(dp1435
g54
(dp1436
g62
I4
ssg63
g1430
sg56
(lp1437
S'59749'
p1438
asbasbasbag49
(g65
g51
NtRp1439
(dp1440
g54
(dp1441
sg63
g931
sg56
(lp1442
g49
(g70
g51
NtRp1443
(dp1444
g54
(dp1445
g74
g75
ssg63
g1439
sg56
(lp1446
S'request_method'
p1447
asbag49
(g70
g51
NtRp1448
(dp1449
g54
(dp1450
g81
g82
ssg63
g1439
sg56
(lp1451
S':'
asbag49
(g70
g51
NtRp1452
(dp1453
g54
(dp1454
sg63
g1439
sg56
(lp1455
g49
(g50
g51
NtRp1456
(dp1457
g54
(dp1458
g62
I4
ssg63
g1452
sg56
(lp1459
S'GET'
p1460
asbasbasbag49
(g65
g51
NtRp1461
(dp1462
g54
(dp1463
sg63
g931
sg56
(lp1464
g49
(g70
g51
NtRp1465
(dp1466
g54
(dp1467
g74
g75
ssg63
g1461
sg56
(lp1468
S'script_name'
p1469
asbag49
(g70
g51
NtRp1470
(dp1471
g54
(dp1472
g81
g82
ssg63
g1461
sg56
(lp1473
S':'
asbag49
(g70
g51
NtRp1474
(dp1475
g54
(dp1476
sg63
g1461
sg56
(lp1477
g49
(g50
g51
NtRp1478
(dp1479
g54
(dp1480
g62
I4
ssg63
g1474
sg56
(lp1481
S''
asbasbasbag49
(g65
g51
NtRp1482
(dp1483
g54
(dp1484
sg63
g931
sg56
(lp1485
g49
(g70
g51
NtRp1486
(dp1487
g54
(dp1488
g74
g75
ssg63
g1482
sg56
(lp1489
S'server_name'
p1490
asbag49
(g70
g51
NtRp1491
(dp1492
g54
(dp1493
g81
g82
ssg63
g1482
sg56
(lp1494
S':'
asbag49
(g70
g51
NtRp1495
(dp1496
g54
(dp1497
sg63
g1482
sg56
(lp1498
g49
(g50
g51
NtRp1499
(dp1500
g54
(dp1501
g62
I4
ssg63
g1495
sg56
(lp1502
S'omkara-PC'
p1503
asbasbasbag49
(g65
g51
NtRp1504
(dp1505
g54
(dp1506
sg63
g931
sg56
(lp1507
g49
(g70
g51
NtRp1508
(dp1509
g54
(dp1510
g74
g75
ssg63
g1504
sg56
(lp1511
S'server_port'
p1512
asbag49
(g70
g51
NtRp1513
(dp1514
g54
(dp1515
g81
g82
ssg63
g1504
sg56
(lp1516
S':'
asbag49
(g70
g51
NtRp1517
(dp1518
g54
(dp1519
sg63
g1504
sg56
(lp1520
g49
(g50
g51
NtRp1521
(dp1522
g54
(dp1523
g62
I4
ssg63
g1517
sg56
(lp1524
S'8000'
p1525
asbasbasbag49
(g65
g51
NtRp1526
(dp1527
g54
(dp1528
sg63
g931
sg56
(lp1529
g49
(g70
g51
NtRp1530
(dp1531
g54
(dp1532
g74
g75
ssg63
g1526
sg56
(lp1533
S'server_protocol'
p1534
asbag49
(g70
g51
NtRp1535
(dp1536
g54
(dp1537
g81
g82
ssg63
g1526
sg56
(lp1538
S':'
asbag49
(g70
g51
NtRp1539
(dp1540
g54
(dp1541
sg63
g1526
sg56
(lp1542
g49
(g50
g51
NtRp1543
(dp1544
g54
(dp1545
g62
I4
ssg63
g1539
sg56
(lp1546
S'HTTP/1.1'
p1547
asbasbasbag49
(g65
g51
NtRp1548
(dp1549
g54
(dp1550
sg63
g931
sg56
(lp1551
g49
(g70
g51
NtRp1552
(dp1553
g54
(dp1554
g74
g75
ssg63
g1548
sg56
(lp1555
S'server_software'
p1556
asbag49
(g70
g51
NtRp1557
(dp1558
g54
(dp1559
g81
g82
ssg63
g1548
sg56
(lp1560
S':'
asbag49
(g70
g51
NtRp1561
(dp1562
g54
(dp1563
sg63
g1548
sg56
(lp1564
g49
(g50
g51
NtRp1565
(dp1566
g54
(dp1567
g62
I4
ssg63
g1561
sg56
(lp1568
S'Rocket 1.2.4'
p1569
asbasbasbag49
(g65
g51
NtRp1570
(dp1571
g54
(dp1572
sg63
g931
sg56
(lp1573
g49
(g70
g51
NtRp1574
(dp1575
g54
(dp1576
g74
g75
ssg63
g1570
sg56
(lp1577
S'web2py_crontype'
p1578
asbag49
(g70
g51
NtRp1579
(dp1580
g54
(dp1581
g81
g82
ssg63
g1570
sg56
(lp1582
S':'
asbag49
(g70
g51
NtRp1583
(dp1584
g54
(dp1585
sg63
g1570
sg56
(lp1586
g49
(g50
g51
NtRp1587
(dp1588
g54
(dp1589
g62
I4
ssg63
g1583
sg56
(lp1590
S'hard'
p1591
asbasbasbag49
(g65
g51
NtRp1592
(dp1593
g54
(dp1594
sg63
g931
sg56
(lp1595
g49
(g70
g51
NtRp1596
(dp1597
g54
(dp1598
g74
g75
ssg63
g1592
sg56
(lp1599
S'web2py_path'
p1600
asbag49
(g70
g51
NtRp1601
(dp1602
g54
(dp1603
g81
g82
ssg63
g1592
sg56
(lp1604
S':'
asbag49
(g70
g51
NtRp1605
(dp1606
g54
(dp1607
sg63
g1592
sg56
(lp1608
g49
(g50
g51
NtRp1609
(dp1610
g54
(dp1611
g62
I4
ssg63
g1605
sg56
(lp1612
g978
asbasbasbag49
(g65
g51
NtRp1613
(dp1614
g54
(dp1615
sg63
g931
sg56
(lp1616
g49
(g70
g51
NtRp1617
(dp1618
g54
(dp1619
g74
g75
ssg63
g1613
sg56
(lp1620
S'web2py_version'
p1621
asbag49
(g70
g51
NtRp1622
(dp1623
g54
(dp1624
g81
g82
ssg63
g1613
sg56
(lp1625
S':'
asbag49
(g70
g51
NtRp1626
(dp1627
g54
(dp1628
sg63
g1613
sg56
(lp1629
g49
(g50
g51
NtRp1630
(dp1631
g54
(dp1632
g62
I4
ssg63
g1626
sg56
(lp1633
g49
(g58
g51
NtRp1634
(dp1635
g54
(dp1636
g62
I3
ssg63
Nsg56
(lp1637
g49
(g65
g51
NtRp1638
(dp1639
g54
(dp1640
sg63
g1634
sg56
(lp1641
g49
(g70
g51
NtRp1642
(dp1643
g54
(dp1644
sg63
g1638
sg56
(lp1645
g49
(g50
g51
NtRp1646
(dp1647
g54
(dp1648
g62
I3
ssg63
g1642
sg56
(lp1649
S'1'
asbasbasbag49
(g65
g51
NtRp1650
(dp1651
g54
(dp1652
sg63
g1634
sg56
(lp1653
g49
(g70
g51
NtRp1654
(dp1655
g54
(dp1656
sg63
g1650
sg56
(lp1657
g49
(g50
g51
NtRp1658
(dp1659
g54
(dp1660
g62
I3
ssg63
g1654
sg56
(lp1661
S'99'
p1662
asbasbasbag49
(g65
g51
NtRp1663
(dp1664
g54
(dp1665
sg63
g1634
sg56
(lp1666
g49
(g70
g51
NtRp1667
(dp1668
g54
(dp1669
sg63
g1663
sg56
(lp1670
g49
(g50
g51
NtRp1671
(dp1672
g54
(dp1673
g62
I3
ssg63
g1667
sg56
(lp1674
S'7'
asbasbasbag49
(g65
g51
NtRp1675
(dp1676
g54
(dp1677
sg63
g1634
sg56
(lp1678
g49
(g70
g51
NtRp1679
(dp1680
g54
(dp1681
sg63
g1675
sg56
(lp1682
g49
(g50
g51
NtRp1683
(dp1684
g54
(dp1685
g62
I3
ssg63
g1679
sg56
(lp1686
S'datetime.datetime(2012, 3, 4, 22, 12, 8)'
p1687
asbasbasbag49
(g65
g51
NtRp1688
(dp1689
g54
(dp1690
sg63
g1634
sg56
(lp1691
g49
(g70
g51
NtRp1692
(dp1693
g54
(dp1694
sg63
g1688
sg56
(lp1695
g49
(g50
g51
NtRp1696
(dp1697
g54
(dp1698
g62
I3
ssg63
g1692
sg56
(lp1699
S'stable'
p1700
asbasbasbasbasbasbasbag49
(g65
g51
NtRp1701
(dp1702
g54
(dp1703
sg63
g931
sg56
(lp1704
g49
(g70
g51
NtRp1705
(dp1706
g54
(dp1707
g74
g75
ssg63
g1701
sg56
(lp1708
S'wsgi_errors'
p1709
asbag49
(g70
g51
NtRp1710
(dp1711
g54
(dp1712
g81
g82
ssg63
g1701
sg56
(lp1713
S':'
asbag49
(g70
g51
NtRp1714
(dp1715
g54
(dp1716
sg63
g1701
sg56
(lp1717
g49
(g50
g51
NtRp1718
(dp1719
g54
(dp1720
g62
I4
ssg63
g1714
sg56
(lp1721
S'<__main__.Stderr object at 0x01667670>'
p1722
asbasbasbag49
(g65
g51
NtRp1723
(dp1724
g54
(dp1725
sg63
g931
sg56
(lp1726
g49
(g70
g51
NtRp1727
(dp1728
g54
(dp1729
g74
g75
ssg63
g1723
sg56
(lp1730
S'wsgi_file_wrapper'
p1731
asbag49
(g70
g51
NtRp1732
(dp1733
g54
(dp1734
g81
g82
ssg63
g1723
sg56
(lp1735
S':'
asbag49
(g70
g51
NtRp1736
(dp1737
g54
(dp1738
sg63
g1723
sg56
(lp1739
g49
(g50
g51
NtRp1740
(dp1741
g54
(dp1742
g62
I4
ssg63
g1736
sg56
(lp1743
S'<class wsgiref.util.FileWrapper at 0x02532210>'
p1744
asbasbasbag49
(g65
g51
NtRp1745
(dp1746
g54
(dp1747
sg63
g931
sg56
(lp1748
g49
(g70
g51
NtRp1749
(dp1750
g54
(dp1751
g74
g75
ssg63
g1745
sg56
(lp1752
S'wsgi_input'
p1753
asbag49
(g70
g51
NtRp1754
(dp1755
g54
(dp1756
g81
g82
ssg63
g1745
sg56
(lp1757
S':'
asbag49
(g70
g51
NtRp1758
(dp1759
g54
(dp1760
sg63
g1745
sg56
(lp1761
g49
(g50
g51
NtRp1762
(dp1763
g54
(dp1764
g62
I4
ssg63
g1758
sg56
(lp1765
S'<socket._fileobject object at 0x05E284F0>'
p1766
asbasbasbag49
(g65
g51
NtRp1767
(dp1768
g54
(dp1769
sg63
g931
sg56
(lp1770
g49
(g70
g51
NtRp1771
(dp1772
g54
(dp1773
g74
g75
ssg63
g1767
sg56
(lp1774
S'wsgi_multiprocess'
p1775
asbag49
(g70
g51
NtRp1776
(dp1777
g54
(dp1778
g81
g82
ssg63
g1767
sg56
(lp1779
S':'
asbag49
(g70
g51
NtRp1780
(dp1781
g54
(dp1782
sg63
g1767
sg56
(lp1783
g49
(g50
g51
NtRp1784
(dp1785
g54
(dp1786
g62
I4
ssg63
g1780
sg56
(lp1787
g92
asbasbasbag49
(g65
g51
NtRp1788
(dp1789
g54
(dp1790
sg63
g931
sg56
(lp1791
g49
(g70
g51
NtRp1792
(dp1793
g54
(dp1794
g74
g75
ssg63
g1788
sg56
(lp1795
S'wsgi_multithread'
p1796
asbag49
(g70
g51
NtRp1797
(dp1798
g54
(dp1799
g81
g82
ssg63
g1788
sg56
(lp1800
S':'
asbag49
(g70
g51
NtRp1801
(dp1802
g54
(dp1803
sg63
g1788
sg56
(lp1804
g49
(g50
g51
NtRp1805
(dp1806
g54
(dp1807
g62
I4
ssg63
g1801
sg56
(lp1808
S'True'
p1809
asbasbasbag49
(g65
g51
NtRp1810
(dp1811
g54
(dp1812
sg63
g931
sg56
(lp1813
g49
(g70
g51
NtRp1814
(dp1815
g54
(dp1816
g74
g75
ssg63
g1810
sg56
(lp1817
S'wsgi_run_once'
p1818
asbag49
(g70
g51
NtRp1819
(dp1820
g54
(dp1821
g81
g82
ssg63
g1810
sg56
(lp1822
S':'
asbag49
(g70
g51
NtRp1823
(dp1824
g54
(dp1825
sg63
g1810
sg56
(lp1826
g49
(g50
g51
NtRp1827
(dp1828
g54
(dp1829
g62
I4
ssg63
g1823
sg56
(lp1830
g92
asbasbasbag49
(g65
g51
NtRp1831
(dp1832
g54
(dp1833
sg63
g931
sg56
(lp1834
g49
(g70
g51
NtRp1835
(dp1836
g54
(dp1837
g74
g75
ssg63
g1831
sg56
(lp1838
S'wsgi_url_scheme'
p1839
asbag49
(g70
g51
NtRp1840
(dp1841
g54
(dp1842
g81
g82
ssg63
g1831
sg56
(lp1843
S':'
asbag49
(g70
g51
NtRp1844
(dp1845
g54
(dp1846
sg63
g1831
sg56
(lp1847
g49
(g50
g51
NtRp1848
(dp1849
g54
(dp1850
g62
I4
ssg63
g1844
sg56
(lp1851
S'http'
p1852
asbasbasbag49
(g65
g51
NtRp1853
(dp1854
g54
(dp1855
sg63
g931
sg56
(lp1856
g49
(g70
g51
NtRp1857
(dp1858
g54
(dp1859
g74
g75
ssg63
g1853
sg56
(lp1860
S'wsgi_version'
p1861
asbag49
(g70
g51
NtRp1862
(dp1863
g54
(dp1864
g81
g82
ssg63
g1853
sg56
(lp1865
S':'
asbag49
(g70
g51
NtRp1866
(dp1867
g54
(dp1868
sg63
g1853
sg56
(lp1869
g49
(g50
g51
NtRp1870
(dp1871
g54
(dp1872
g62
I4
ssg63
g1866
sg56
(lp1873
g49
(g58
g51
NtRp1874
(dp1875
g54
(dp1876
g62
I3
ssg63
Nsg56
(lp1877
g49
(g65
g51
NtRp1878
(dp1879
g54
(dp1880
sg63
g1874
sg56
(lp1881
g49
(g70
g51
NtRp1882
(dp1883
g54
(dp1884
sg63
g1878
sg56
(lp1885
g49
(g50
g51
NtRp1886
(dp1887
g54
(dp1888
g62
I3
ssg63
g1882
sg56
(lp1889
S'1'
asbasbasbag49
(g65
g51
NtRp1890
(dp1891
g54
(dp1892
sg63
g1874
sg56
(lp1893
g49
(g70
g51
NtRp1894
(dp1895
g54
(dp1896
sg63
g1890
sg56
(lp1897
g49
(g50
g51
NtRp1898
(dp1899
g54
(dp1900
g62
I3
ssg63
g1894
sg56
(lp1901
S'0'
asbasbasbasbasbasbasbasbasbasbasbag49
(g65
g51
NtRp1902
(dp1903
g54
(dp1904
sg63
g59
sg56
(lp1905
g49
(g70
g51
NtRp1906
(dp1907
g54
(dp1908
g74
g75
ssg63
g1902
sg56
(lp1909
S'extension'
p1910
asbag49
(g70
g51
NtRp1911
(dp1912
g54
(dp1913
g81
g82
ssg63
g1902
sg56
(lp1914
S':'
asbag49
(g70
g51
NtRp1915
(dp1916
g54
(dp1917
sg63
g1902
sg56
(lp1918
g49
(g50
g51
NtRp1919
(dp1920
g54
(dp1921
g62
I5
ssg63
g1915
sg56
(lp1922
S'html'
p1923
asbasbasbag49
(g65
g51
NtRp1924
(dp1925
g54
(dp1926
sg63
g59
sg56
(lp1927
g49
(g70
g51
NtRp1928
(dp1929
g54
(dp1930
g74
g75
ssg63
g1924
sg56
(lp1931
S'folder'
p1932
asbag49
(g70
g51
NtRp1933
(dp1934
g54
(dp1935
g81
g82
ssg63
g1924
sg56
(lp1936
S':'
asbag49
(g70
g51
NtRp1937
(dp1938
g54
(dp1939
sg63
g1924
sg56
(lp1940
g49
(g50
g51
NtRp1941
(dp1942
g54
(dp1943
g62
I5
ssg63
g1937
sg56
(lp1944
S'C:\\Users\\omkara\\Desktop\\web2py\\applications\\SlugBarter\\'
p1945
asbasbasbag49
(g65
g51
NtRp1946
(dp1947
g54
(dp1948
sg63
g59
sg56
(lp1949
g49
(g70
g51
NtRp1950
(dp1951
g54
(dp1952
g74
g75
ssg63
g1946
sg56
(lp1953
S'function'
p1954
asbag49
(g70
g51
NtRp1955
(dp1956
g54
(dp1957
g81
g82
ssg63
g1946
sg56
(lp1958
S':'
asbag49
(g70
g51
NtRp1959
(dp1960
g54
(dp1961
sg63
g1946
sg56
(lp1962
g49
(g50
g51
NtRp1963
(dp1964
g54
(dp1965
g62
I5
ssg63
g1959
sg56
(lp1966
S'register'
p1967
asbasbasbag49
(g65
g51
NtRp1968
(dp1969
g54
(dp1970
sg63
g59
sg56
(lp1971
g49
(g70
g51
NtRp1972
(dp1973
g54
(dp1974
g74
g75
ssg63
g1968
sg56
(lp1975
S'get_vars'
p1976
asbag49
(g70
g51
NtRp1977
(dp1978
g54
(dp1979
g81
g82
ssg63
g1968
sg56
(lp1980
S':'
asbag49
(g70
g51
NtRp1981
(dp1982
g54
(dp1983
sg63
g1968
sg56
(lp1984
g49
(g50
g51
NtRp1985
(dp1986
g54
(dp1987
g62
I5
ssg63
g1981
sg56
(lp1988
g49
(g58
g51
NtRp1989
(dp1990
g54
(dp1991
g62
I4
ssg63
Nsg56
(lp1992
sbasbasbasbag49
(g65
g51
NtRp1993
(dp1994
g54
(dp1995
sg63
g59
sg56
(lp1996
g49
(g70
g51
NtRp1997
(dp1998
g54
(dp1999
g74
g75
ssg63
g1993
sg56
(lp2000
S'global_settings'
p2001
asbag49
(g70
g51
NtRp2002
(dp2003
g54
(dp2004
g81
g82
ssg63
g1993
sg56
(lp2005
S':'
asbag49
(g70
g51
NtRp2006
(dp2007
g54
(dp2008
sg63
g1993
sg56
(lp2009
g49
(g50
g51
NtRp2010
(dp2011
g54
(dp2012
g62
I5
ssg63
g2006
sg56
(lp2013
g49
(g58
g51
NtRp2014
(dp2015
g54
(dp2016
g62
I4
ssg63
Nsg56
(lp2017
g49
(g65
g51
NtRp2018
(dp2019
g54
(dp2020
sg63
g2014
sg56
(lp2021
g49
(g70
g51
NtRp2022
(dp2023
g54
(dp2024
g74
g75
ssg63
g2018
sg56
(lp2025
g943
asbag49
(g70
g51
NtRp2026
(dp2027
g54
(dp2028
g81
g82
ssg63
g2018
sg56
(lp2029
S':'
asbag49
(g70
g51
NtRp2030
(dp2031
g54
(dp2032
sg63
g2018
sg56
(lp2033
g49
(g50
g51
NtRp2034
(dp2035
g54
(dp2036
g62
I4
ssg63
g2030
sg56
(lp2037
S"set(['C:\\\\Users\\\\omkara\\\\Desktop\\\\web2py\\\\applications\\\\admin\\\\', 'C:\\\\Users\\\\omkara\\\\Desktop\\\\web2py\\\\applications\\\\welcome\\\\', 'C:\\\\Users\\\\omkara\\\\Desktop\\\\web2py\\\\applications\\\\SlugBarter\\\\', 'C:\\\\Users\\\\omkara\\\\Desktop\\\\web2py\\\\applications\\\\OnlineNotes_p1_\\\\'])"
p2038
asbasbasbag49
(g65
g51
NtRp2039
(dp2040
g54
(dp2041
sg63
g2014
sg56
(lp2042
g49
(g70
g51
NtRp2043
(dp2044
g54
(dp2045
g74
g75
ssg63
g2039
sg56
(lp2046
g965
asbag49
(g70
g51
NtRp2047
(dp2048
g54
(dp2049
g81
g82
ssg63
g2039
sg56
(lp2050
S':'
asbag49
(g70
g51
NtRp2051
(dp2052
g54
(dp2053
sg63
g2039
sg56
(lp2054
g49
(g50
g51
NtRp2055
(dp2056
g54
(dp2057
g62
I4
ssg63
g2051
sg56
(lp2058
g978
asbasbasbag49
(g65
g51
NtRp2059
(dp2060
g54
(dp2061
sg63
g2014
sg56
(lp2062
g49
(g70
g51
NtRp2063
(dp2064
g54
(dp2065
g74
g75
ssg63
g2059
sg56
(lp2066
g987
asbag49
(g70
g51
NtRp2067
(dp2068
g54
(dp2069
g81
g82
ssg63
g2059
sg56
(lp2070
S':'
asbag49
(g70
g51
NtRp2071
(dp2072
g54
(dp2073
sg63
g2059
sg56
(lp2074
g49
(g50
g51
NtRp2075
(dp2076
g54
(dp2077
g62
I4
ssg63
g2071
sg56
(lp2078
g49
(g58
g51
NtRp2079
(dp2080
g54
(dp2081
g62
I3
ssg63
Nsg56
(lp2082
sbasbasbasbag49
(g65
g51
NtRp2083
(dp2084
g54
(dp2085
sg63
g2014
sg56
(lp2086
g49
(g70
g51
NtRp2087
(dp2088
g54
(dp2089
g74
g75
ssg63
g2083
sg56
(lp2090
g1012
asbag49
(g70
g51
NtRp2091
(dp2092
g54
(dp2093
g81
g82
ssg63
g2083
sg56
(lp2094
S':'
asbag49
(g70
g51
NtRp2095
(dp2096
g54
(dp2097
sg63
g2083
sg56
(lp2098
g49
(g50
g51
NtRp2099
(dp2100
g54
(dp2101
g62
I4
ssg63
g2095
sg56
(lp2102
S"<Values at 0x27a30f8: {'verbose': False, 'ip': '127.0.0.1', 'shutdown_timeout': 5, 'taskbar': False, 'nocron': False, 'pid_filename': 'httpserver.pid', 'maxthreads': None, 'softcron': False, 'server_name': 'omkara-PC', 'bpython': False, 'nogui': False, 'port': 8000, 'extcron': False, 'debuglevel': 30, 'test': None, 'folder': 'C:\\\\Users\\\\omkara\\\\Desktop\\\\web2py', 'config': '', 'import_models': False, 'winservice': '', 'shell': None, 'run': '', 'log_filename': 'httpserver.log', 'args': [''], 'socket_timeout': 5, 'ssl_ca_certificate': None, 'scheduler': None, 'profiler_filename': None, 'ssl_private_key': '', 'password': '<ask>', 'request_queue_size': 5, 'ssl_certificate': '', 'cronjob': False, 'numthreads': None, 'quiet': False, 'interfaces': None, 'minthreads': None, 'timeout': 10, 'plain': False, 'nobanner': False}>"
p2103
asbasbasbag49
(g65
g51
NtRp2104
(dp2105
g54
(dp2106
sg63
g2014
sg56
(lp2107
g49
(g70
g51
NtRp2108
(dp2109
g54
(dp2110
g74
g75
ssg63
g2104
sg56
(lp2111
g1034
asbag49
(g70
g51
NtRp2112
(dp2113
g54
(dp2114
g81
g82
ssg63
g2104
sg56
(lp2115
S':'
asbag49
(g70
g51
NtRp2116
(dp2117
g54
(dp2118
sg63
g2104
sg56
(lp2119
g49
(g50
g51
NtRp2120
(dp2121
g54
(dp2122
g62
I4
ssg63
g2116
sg56
(lp2123
S'set([])'
p2124
asbasbasbag49
(g65
g51
NtRp2125
(dp2126
g54
(dp2127
sg63
g2014
sg56
(lp2128
g49
(g70
g51
NtRp2129
(dp2130
g54
(dp2131
g74
g75
ssg63
g2125
sg56
(lp2132
g1056
asbag49
(g70
g51
NtRp2133
(dp2134
g54
(dp2135
g81
g82
ssg63
g2125
sg56
(lp2136
S':'
asbag49
(g70
g51
NtRp2137
(dp2138
g54
(dp2139
sg63
g2125
sg56
(lp2140
g49
(g50
g51
NtRp2141
(dp2142
g54
(dp2143
g62
I4
ssg63
g2137
sg56
(lp2144
g92
asbasbasbag49
(g65
g51
NtRp2145
(dp2146
g54
(dp2147
sg63
g2014
sg56
(lp2148
g49
(g70
g51
NtRp2149
(dp2150
g54
(dp2151
g74
g75
ssg63
g2145
sg56
(lp2152
g1077
asbag49
(g70
g51
NtRp2153
(dp2154
g54
(dp2155
g81
g82
ssg63
g2145
sg56
(lp2156
S':'
asbag49
(g70
g51
NtRp2157
(dp2158
g54
(dp2159
sg63
g2145
sg56
(lp2160
g49
(g50
g51
NtRp2161
(dp2162
g54
(dp2163
g62
I4
ssg63
g2157
sg56
(lp2164
g1090
asbasbasbag49
(g65
g51
NtRp2165
(dp2166
g54
(dp2167
sg63
g2014
sg56
(lp2168
g49
(g70
g51
NtRp2169
(dp2170
g54
(dp2171
g74
g75
ssg63
g2165
sg56
(lp2172
g1319
asbag49
(g70
g51
NtRp2173
(dp2174
g54
(dp2175
g81
g82
ssg63
g2165
sg56
(lp2176
S':'
asbag49
(g70
g51
NtRp2177
(dp2178
g54
(dp2179
sg63
g2165
sg56
(lp2180
g49
(g50
g51
NtRp2181
(dp2182
g54
(dp2183
g62
I4
ssg63
g2177
sg56
(lp2184
g92
asbasbasbag49
(g65
g51
NtRp2185
(dp2186
g54
(dp2187
sg63
g2014
sg56
(lp2188
g49
(g70
g51
NtRp2189
(dp2190
g54
(dp2191
g74
g75
ssg63
g2185
sg56
(lp2192
g1340
asbag49
(g70
g51
NtRp2193
(dp2194
g54
(dp2195
g81
g82
ssg63
g2185
sg56
(lp2196
S':'
asbag49
(g70
g51
NtRp2197
(dp2198
g54
(dp2199
sg63
g2185
sg56
(lp2200
g49
(g50
g51
NtRp2201
(dp2202
g54
(dp2203
g62
I4
ssg63
g2197
sg56
(lp2204
g92
asbasbasbag49
(g65
g51
NtRp2205
(dp2206
g54
(dp2207
sg63
g2014
sg56
(lp2208
g49
(g70
g51
NtRp2209
(dp2210
g54
(dp2211
g74
g75
ssg63
g2205
sg56
(lp2212
g1578
asbag49
(g70
g51
NtRp2213
(dp2214
g54
(dp2215
g81
g82
ssg63
g2205
sg56
(lp2216
S':'
asbag49
(g70
g51
NtRp2217
(dp2218
g54
(dp2219
sg63
g2205
sg56
(lp2220
g49
(g50
g51
NtRp2221
(dp2222
g54
(dp2223
g62
I4
ssg63
g2217
sg56
(lp2224
g1591
asbasbasbag49
(g65
g51
NtRp2225
(dp2226
g54
(dp2227
sg63
g2014
sg56
(lp2228
g49
(g70
g51
NtRp2229
(dp2230
g54
(dp2231
g74
g75
ssg63
g2225
sg56
(lp2232
g1621
asbag49
(g70
g51
NtRp2233
(dp2234
g54
(dp2235
g81
g82
ssg63
g2225
sg56
(lp2236
S':'
asbag49
(g70
g51
NtRp2237
(dp2238
g54
(dp2239
sg63
g2225
sg56
(lp2240
g49
(g50
g51
NtRp2241
(dp2242
g54
(dp2243
g62
I4
ssg63
g2237
sg56
(lp2244
g49
(g58
g51
NtRp2245
(dp2246
g54
(dp2247
g62
I3
ssg63
Nsg56
(lp2248
g49
(g65
g51
NtRp2249
(dp2250
g54
(dp2251
sg63
g2245
sg56
(lp2252
g49
(g70
g51
NtRp2253
(dp2254
g54
(dp2255
sg63
g2249
sg56
(lp2256
g49
(g50
g51
NtRp2257
(dp2258
g54
(dp2259
g62
I3
ssg63
g2253
sg56
(lp2260
S'1'
asbasbasbag49
(g65
g51
NtRp2261
(dp2262
g54
(dp2263
sg63
g2245
sg56
(lp2264
g49
(g70
g51
NtRp2265
(dp2266
g54
(dp2267
sg63
g2261
sg56
(lp2268
g49
(g50
g51
NtRp2269
(dp2270
g54
(dp2271
g62
I3
ssg63
g2265
sg56
(lp2272
S'99'
p2273
asbasbasbag49
(g65
g51
NtRp2274
(dp2275
g54
(dp2276
sg63
g2245
sg56
(lp2277
g49
(g70
g51
NtRp2278
(dp2279
g54
(dp2280
sg63
g2274
sg56
(lp2281
g49
(g50
g51
NtRp2282
(dp2283
g54
(dp2284
g62
I3
ssg63
g2278
sg56
(lp2285
S'7'
asbasbasbag49
(g65
g51
NtRp2286
(dp2287
g54
(dp2288
sg63
g2245
sg56
(lp2289
g49
(g70
g51
NtRp2290
(dp2291
g54
(dp2292
sg63
g2286
sg56
(lp2293
g49
(g50
g51
NtRp2294
(dp2295
g54
(dp2296
g62
I3
ssg63
g2290
sg56
(lp2297
S'datetime.datetime(2012, 3, 4, 22, 12, 8)'
p2298
asbasbasbag49
(g65
g51
NtRp2299
(dp2300
g54
(dp2301
sg63
g2245
sg56
(lp2302
g49
(g70
g51
NtRp2303
(dp2304
g54
(dp2305
sg63
g2299
sg56
(lp2306
g49
(g50
g51
NtRp2307
(dp2308
g54
(dp2309
g62
I3
ssg63
g2303
sg56
(lp2310
g1700
asbasbasbasbasbasbasbasbasbasbasbag49
(g65
g51
NtRp2311
(dp2312
g54
(dp2313
sg63
g59
sg56
(lp2314
g49
(g70
g51
NtRp2315
(dp2316
g54
(dp2317
g74
g75
ssg63
g2311
sg56
(lp2318
S'is_https'
p2319
asbag49
(g70
g51
NtRp2320
(dp2321
g54
(dp2322
g81
g82
ssg63
g2311
sg56
(lp2323
S':'
asbag49
(g70
g51
NtRp2324
(dp2325
g54
(dp2326
sg63
g2311
sg56
(lp2327
g49
(g50
g51
NtRp2328
(dp2329
g54
(dp2330
g62
I5
ssg63
g2324
sg56
(lp2331
g92
asbasbasbag49
(g65
g51
NtRp2332
(dp2333
g54
(dp2334
sg63
g59
sg56
(lp2335
g49
(g70
g51
NtRp2336
(dp2337
g54
(dp2338
g74
g75
ssg63
g2332
sg56
(lp2339
S'is_local'
p2340
asbag49
(g70
g51
NtRp2341
(dp2342
g54
(dp2343
g81
g82
ssg63
g2332
sg56
(lp2344
S':'
asbag49
(g70
g51
NtRp2345
(dp2346
g54
(dp2347
sg63
g2332
sg56
(lp2348
g49
(g50
g51
NtRp2349
(dp2350
g54
(dp2351
g62
I5
ssg63
g2345
sg56
(lp2352
g1809
asbasbasbag49
(g65
g51
NtRp2353
(dp2354
g54
(dp2355
sg63
g59
sg56
(lp2356
g49
(g70
g51
NtRp2357
(dp2358
g54
(dp2359
g74
g75
ssg63
g2353
sg56
(lp2360
S'is_restful'
p2361
asbag49
(g70
g51
NtRp2362
(dp2363
g54
(dp2364
g81
g82
ssg63
g2353
sg56
(lp2365
S':'
asbag49
(g70
g51
NtRp2366
(dp2367
g54
(dp2368
sg63
g2353
sg56
(lp2369
g49
(g50
g51
NtRp2370
(dp2371
g54
(dp2372
g62
I5
ssg63
g2366
sg56
(lp2373
g92
asbasbasbag49
(g65
g51
NtRp2374
(dp2375
g54
(dp2376
sg63
g59
sg56
(lp2377
g49
(g70
g51
NtRp2378
(dp2379
g54
(dp2380
g74
g75
ssg63
g2374
sg56
(lp2381
S'now'
p2382
asbag49
(g70
g51
NtRp2383
(dp2384
g54
(dp2385
g81
g82
ssg63
g2374
sg56
(lp2386
S':'
asbag49
(g70
g51
NtRp2387
(dp2388
g54
(dp2389
sg63
g2374
sg56
(lp2390
g49
(g50
g51
NtRp2391
(dp2392
g54
(dp2393
g62
I5
ssg63
g2387
sg56
(lp2394
S'datetime.datetime(2012, 11, 10, 12, 1, 40, 551000)'
p2395
asbasbasbag49
(g65
g51
NtRp2396
(dp2397
g54
(dp2398
sg63
g59
sg56
(lp2399
g49
(g70
g51
NtRp2400
(dp2401
g54
(dp2402
g74
g75
ssg63
g2396
sg56
(lp2403
S'post_vars'
p2404
asbag49
(g70
g51
NtRp2405
(dp2406
g54
(dp2407
g81
g82
ssg63
g2396
sg56
(lp2408
S':'
asbag49
(g70
g51
NtRp2409
(dp2410
g54
(dp2411
sg63
g2396
sg56
(lp2412
g49
(g50
g51
NtRp2413
(dp2414
g54
(dp2415
g62
I5
ssg63
g2409
sg56
(lp2416
g49
(g58
g51
NtRp2417
(dp2418
g54
(dp2419
g62
I4
ssg63
Nsg56
(lp2420
sbasbasbasbag49
(g65
g51
NtRp2421
(dp2422
g54
(dp2423
sg63
g59
sg56
(lp2424
g49
(g70
g51
NtRp2425
(dp2426
g54
(dp2427
g74
g75
ssg63
g2421
sg56
(lp2428
S'raw_args'
p2429
asbag49
(g70
g51
NtRp2430
(dp2431
g54
(dp2432
g81
g82
ssg63
g2421
sg56
(lp2433
S':'
asbag49
(g70
g51
NtRp2434
(dp2435
g54
(dp2436
sg63
g2421
sg56
(lp2437
g49
(g50
g51
NtRp2438
(dp2439
g54
(dp2440
g62
I5
ssg63
g2434
sg56
(lp2441
S'login'
p2442
asbasbasbag49
(g65
g51
NtRp2443
(dp2444
g54
(dp2445
sg63
g59
sg56
(lp2446
g49
(g70
g51
NtRp2447
(dp2448
g54
(dp2449
g74
g75
ssg63
g2443
sg56
(lp2450
S'url'
p2451
asbag49
(g70
g51
NtRp2452
(dp2453
g54
(dp2454
g81
g82
ssg63
g2443
sg56
(lp2455
S':'
asbag49
(g70
g51
NtRp2456
(dp2457
g54
(dp2458
sg63
g2443
sg56
(lp2459
g49
(g50
g51
NtRp2460
(dp2461
g54
(dp2462
g62
I5
ssg63
g2456
sg56
(lp2463
S'/SlugBarter/default/register/login'
p2464
asbasbasbag49
(g65
g51
NtRp2465
(dp2466
g54
(dp2467
sg63
g59
sg56
(lp2468
g49
(g70
g51
NtRp2469
(dp2470
g54
(dp2471
g74
g75
ssg63
g2465
sg56
(lp2472
S'utcnow'
p2473
asbag49
(g70
g51
NtRp2474
(dp2475
g54
(dp2476
g81
g82
ssg63
g2465
sg56
(lp2477
S':'
asbag49
(g70
g51
NtRp2478
(dp2479
g54
(dp2480
sg63
g2465
sg56
(lp2481
g49
(g50
g51
NtRp2482
(dp2483
g54
(dp2484
g62
I5
ssg63
g2478
sg56
(lp2485
S'datetime.datetime(2012, 11, 10, 20, 1, 40, 551000)'
p2486
asbasbasbag49
(g65
g51
NtRp2487
(dp2488
g54
(dp2489
sg63
g59
sg56
(lp2490
g49
(g70
g51
NtRp2491
(dp2492
g54
(dp2493
g74
g75
ssg63
g2487
sg56
(lp2494
S'uuid'
p2495
asbag49
(g70
g51
NtRp2496
(dp2497
g54
(dp2498
g81
g82
ssg63
g2487
sg56
(lp2499
S':'
asbag49
(g70
g51
NtRp2500
(dp2501
g54
(dp2502
sg63
g2487
sg56
(lp2503
g49
(g50
g51
NtRp2504
(dp2505
g54
(dp2506
g62
I5
ssg63
g2500
sg56
(lp2507
S'SlugBarter/127.0.0.1.2012-11-10.12-01-40.1f761938-52a2-475b-9722-96488123a786'
p2508
asbasbasbag49
(g65
g51
NtRp2509
(dp2510
g54
(dp2511
sg63
g59
sg56
(lp2512
g49
(g70
g51
NtRp2513
(dp2514
g54
(dp2515
g74
g75
ssg63
g2509
sg56
(lp2516
S'vars'
p2517
asbag49
(g70
g51
NtRp2518
(dp2519
g54
(dp2520
g81
g82
ssg63
g2509
sg56
(lp2521
S':'
asbag49
(g70
g51
NtRp2522
(dp2523
g54
(dp2524
sg63
g2509
sg56
(lp2525
g49
(g50
g51
NtRp2526
(dp2527
g54
(dp2528
g62
I5
ssg63
g2522
sg56
(lp2529
g49
(g58
g51
NtRp2530
(dp2531
g54
(dp2532
g62
I4
ssg63
Nsg56
(lp2533
sbasbasbasbag49
(g65
g51
NtRp2534
(dp2535
g54
(dp2536
sg63
g59
sg56
(lp2537
g49
(g70
g51
NtRp2538
(dp2539
g54
(dp2540
g74
g75
ssg63
g2534
sg56
(lp2541
S'wsgi'
p2542
asbag49
(g70
g51
NtRp2543
(dp2544
g54
(dp2545
g81
g82
ssg63
g2534
sg56
(lp2546
S':'
asbag49
(g70
g51
NtRp2547
(dp2548
g54
(dp2549
sg63
g2534
sg56
(lp2550
g49
(g50
g51
NtRp2551
(dp2552
g54
(dp2553
g62
I5
ssg63
g2547
sg56
(lp2554
g49
(g58
g51
NtRp2555
(dp2556
g54
(dp2557
g62
I4
ssg63
Nsg56
(lp2558
g49
(g65
g51
NtRp2559
(dp2560
g54
(dp2561
sg63
g2555
sg56
(lp2562
g49
(g70
g51
NtRp2563
(dp2564
g54
(dp2565
g74
g75
ssg63
g2559
sg56
(lp2566
S'environ'
p2567
asbag49
(g70
g51
NtRp2568
(dp2569
g54
(dp2570
g81
g82
ssg63
g2559
sg56
(lp2571
S':'
asbag49
(g70
g51
NtRp2572
(dp2573
g54
(dp2574
sg63
g2559
sg56
(lp2575
g49
(g50
g51
NtRp2576
(dp2577
g54
(dp2578
g62
I4
ssg63
g2572
sg56
(lp2579
g49
(g58
g51
NtRp2580
(dp2581
g54
(dp2582
g62
I3
ssg63
Nsg56
(lp2583
g49
(g65
g51
NtRp2584
(dp2585
g54
(dp2586
sg63
g2580
sg56
(lp2587
g49
(g70
g51
NtRp2588
(dp2589
g54
(dp2590
g74
g75
ssg63
g2584
sg56
(lp2591
S'HTTP_ACCEPT'
p2592
asbag49
(g70
g51
NtRp2593
(dp2594
g54
(dp2595
g81
g82
ssg63
g2584
sg56
(lp2596
S':'
asbag49
(g70
g51
NtRp2597
(dp2598
g54
(dp2599
sg63
g2584
sg56
(lp2600
g49
(g50
g51
NtRp2601
(dp2602
g54
(dp2603
g62
I3
ssg63
g2597
sg56
(lp2604
g1112
asbasbasbag49
(g65
g51
NtRp2605
(dp2606
g54
(dp2607
sg63
g2580
sg56
(lp2608
g49
(g70
g51
NtRp2609
(dp2610
g54
(dp2611
g74
g75
ssg63
g2605
sg56
(lp2612
S'HTTP_ACCEPT_CHARSET'
p2613
asbag49
(g70
g51
NtRp2614
(dp2615
g54
(dp2616
g81
g82
ssg63
g2605
sg56
(lp2617
S':'
asbag49
(g70
g51
NtRp2618
(dp2619
g54
(dp2620
sg63
g2605
sg56
(lp2621
g49
(g50
g51
NtRp2622
(dp2623
g54
(dp2624
g62
I3
ssg63
g2618
sg56
(lp2625
g1134
asbasbasbag49
(g65
g51
NtRp2626
(dp2627
g54
(dp2628
sg63
g2580
sg56
(lp2629
g49
(g70
g51
NtRp2630
(dp2631
g54
(dp2632
g74
g75
ssg63
g2626
sg56
(lp2633
S'HTTP_ACCEPT_ENCODING'
p2634
asbag49
(g70
g51
NtRp2635
(dp2636
g54
(dp2637
g81
g82
ssg63
g2626
sg56
(lp2638
S':'
asbag49
(g70
g51
NtRp2639
(dp2640
g54
(dp2641
sg63
g2626
sg56
(lp2642
g49
(g50
g51
NtRp2643
(dp2644
g54
(dp2645
g62
I3
ssg63
g2639
sg56
(lp2646
g1156
asbasbasbag49
(g65
g51
NtRp2647
(dp2648
g54
(dp2649
sg63
g2580
sg56
(lp2650
g49
(g70
g51
NtRp2651
(dp2652
g54
(dp2653
g74
g75
ssg63
g2647
sg56
(lp2654
S'HTTP_ACCEPT_LANGUAGE'
p2655
asbag49
(g70
g51
NtRp2656
(dp2657
g54
(dp2658
g81
g82
ssg63
g2647
sg56
(lp2659
S':'
asbag49
(g70
g51
NtRp2660
(dp2661
g54
(dp2662
sg63
g2647
sg56
(lp2663
g49
(g50
g51
NtRp2664
(dp2665
g54
(dp2666
g62
I3
ssg63
g2660
sg56
(lp2667
g1178
asbasbasbag49
(g65
g51
NtRp2668
(dp2669
g54
(dp2670
sg63
g2580
sg56
(lp2671
g49
(g70
g51
NtRp2672
(dp2673
g54
(dp2674
g74
g75
ssg63
g2668
sg56
(lp2675
S'HTTP_CACHE_CONTROL'
p2676
asbag49
(g70
g51
NtRp2677
(dp2678
g54
(dp2679
g81
g82
ssg63
g2668
sg56
(lp2680
S':'
asbag49
(g70
g51
NtRp2681
(dp2682
g54
(dp2683
sg63
g2668
sg56
(lp2684
g49
(g50
g51
NtRp2685
(dp2686
g54
(dp2687
g62
I3
ssg63
g2681
sg56
(lp2688
g1200
asbasbasbag49
(g65
g51
NtRp2689
(dp2690
g54
(dp2691
sg63
g2580
sg56
(lp2692
g49
(g70
g51
NtRp2693
(dp2694
g54
(dp2695
g74
g75
ssg63
g2689
sg56
(lp2696
S'HTTP_CONNECTION'
p2697
asbag49
(g70
g51
NtRp2698
(dp2699
g54
(dp2700
g81
g82
ssg63
g2689
sg56
(lp2701
S':'
asbag49
(g70
g51
NtRp2702
(dp2703
g54
(dp2704
sg63
g2689
sg56
(lp2705
g49
(g50
g51
NtRp2706
(dp2707
g54
(dp2708
g62
I3
ssg63
g2702
sg56
(lp2709
g1222
asbasbasbag49
(g65
g51
NtRp2710
(dp2711
g54
(dp2712
sg63
g2580
sg56
(lp2713
g49
(g70
g51
NtRp2714
(dp2715
g54
(dp2716
g74
g75
ssg63
g2710
sg56
(lp2717
S'HTTP_COOKIE'
p2718
asbag49
(g70
g51
NtRp2719
(dp2720
g54
(dp2721
g81
g82
ssg63
g2710
sg56
(lp2722
S':'
asbag49
(g70
g51
NtRp2723
(dp2724
g54
(dp2725
sg63
g2710
sg56
(lp2726
g49
(g50
g51
NtRp2727
(dp2728
g54
(dp2729
g62
I3
ssg63
g2723
sg56
(lp2730
g1244
asbasbasbag49
(g65
g51
NtRp2731
(dp2732
g54
(dp2733
sg63
g2580
sg56
(lp2734
g49
(g70
g51
NtRp2735
(dp2736
g54
(dp2737
g74
g75
ssg63
g2731
sg56
(lp2738
S'HTTP_HOST'
p2739
asbag49
(g70
g51
NtRp2740
(dp2741
g54
(dp2742
g81
g82
ssg63
g2731
sg56
(lp2743
S':'
asbag49
(g70
g51
NtRp2744
(dp2745
g54
(dp2746
sg63
g2731
sg56
(lp2747
g49
(g50
g51
NtRp2748
(dp2749
g54
(dp2750
g62
I3
ssg63
g2744
sg56
(lp2751
g1266
asbasbasbag49
(g65
g51
NtRp2752
(dp2753
g54
(dp2754
sg63
g2580
sg56
(lp2755
g49
(g70
g51
NtRp2756
(dp2757
g54
(dp2758
g74
g75
ssg63
g2752
sg56
(lp2759
S'HTTP_REFERER'
p2760
asbag49
(g70
g51
NtRp2761
(dp2762
g54
(dp2763
g81
g82
ssg63
g2752
sg56
(lp2764
S':'
asbag49
(g70
g51
NtRp2765
(dp2766
g54
(dp2767
sg63
g2752
sg56
(lp2768
g49
(g50
g51
NtRp2769
(dp2770
g54
(dp2771
g62
I3
ssg63
g2765
sg56
(lp2772
g1288
asbasbasbag49
(g65
g51
NtRp2773
(dp2774
g54
(dp2775
sg63
g2580
sg56
(lp2776
g49
(g70
g51
NtRp2777
(dp2778
g54
(dp2779
g74
g75
ssg63
g2773
sg56
(lp2780
S'HTTP_USER_AGENT'
p2781
asbag49
(g70
g51
NtRp2782
(dp2783
g54
(dp2784
g81
g82
ssg63
g2773
sg56
(lp2785
S':'
asbag49
(g70
g51
NtRp2786
(dp2787
g54
(dp2788
sg63
g2773
sg56
(lp2789
g49
(g50
g51
NtRp2790
(dp2791
g54
(dp2792
g62
I3
ssg63
g2786
sg56
(lp2793
g1310
asbasbasbag49
(g65
g51
NtRp2794
(dp2795
g54
(dp2796
sg63
g2580
sg56
(lp2797
g49
(g70
g51
NtRp2798
(dp2799
g54
(dp2800
g74
g75
ssg63
g2794
sg56
(lp2801
S'PATH_INFO'
p2802
asbag49
(g70
g51
NtRp2803
(dp2804
g54
(dp2805
g81
g82
ssg63
g2794
sg56
(lp2806
S':'
asbag49
(g70
g51
NtRp2807
(dp2808
g54
(dp2809
sg63
g2794
sg56
(lp2810
g49
(g50
g51
NtRp2811
(dp2812
g54
(dp2813
g62
I3
ssg63
g2807
sg56
(lp2814
g1374
asbasbasbag49
(g65
g51
NtRp2815
(dp2816
g54
(dp2817
sg63
g2580
sg56
(lp2818
g49
(g70
g51
NtRp2819
(dp2820
g54
(dp2821
g74
g75
ssg63
g2815
sg56
(lp2822
S'QUERY_STRING'
p2823
asbag49
(g70
g51
NtRp2824
(dp2825
g54
(dp2826
g81
g82
ssg63
g2815
sg56
(lp2827
S':'
asbag49
(g70
g51
NtRp2828
(dp2829
g54
(dp2830
sg63
g2815
sg56
(lp2831
g49
(g50
g51
NtRp2832
(dp2833
g54
(dp2834
g62
I3
ssg63
g2828
sg56
(lp2835
S''
asbasbasbag49
(g65
g51
NtRp2836
(dp2837
g54
(dp2838
sg63
g2580
sg56
(lp2839
g49
(g70
g51
NtRp2840
(dp2841
g54
(dp2842
g74
g75
ssg63
g2836
sg56
(lp2843
S'REMOTE_ADDR'
p2844
asbag49
(g70
g51
NtRp2845
(dp2846
g54
(dp2847
g81
g82
ssg63
g2836
sg56
(lp2848
S':'
asbag49
(g70
g51
NtRp2849
(dp2850
g54
(dp2851
sg63
g2836
sg56
(lp2852
g49
(g50
g51
NtRp2853
(dp2854
g54
(dp2855
g62
I3
ssg63
g2849
sg56
(lp2856
g195
asbasbasbag49
(g65
g51
NtRp2857
(dp2858
g54
(dp2859
sg63
g2580
sg56
(lp2860
g49
(g70
g51
NtRp2861
(dp2862
g54
(dp2863
g74
g75
ssg63
g2857
sg56
(lp2864
S'REMOTE_PORT'
p2865
asbag49
(g70
g51
NtRp2866
(dp2867
g54
(dp2868
g81
g82
ssg63
g2857
sg56
(lp2869
S':'
asbag49
(g70
g51
NtRp2870
(dp2871
g54
(dp2872
sg63
g2857
sg56
(lp2873
g49
(g50
g51
NtRp2874
(dp2875
g54
(dp2876
g62
I3
ssg63
g2870
sg56
(lp2877
g1438
asbasbasbag49
(g65
g51
NtRp2878
(dp2879
g54
(dp2880
sg63
g2580
sg56
(lp2881
g49
(g70
g51
NtRp2882
(dp2883
g54
(dp2884
g74
g75
ssg63
g2878
sg56
(lp2885
S'REQUEST_METHOD'
p2886
asbag49
(g70
g51
NtRp2887
(dp2888
g54
(dp2889
g81
g82
ssg63
g2878
sg56
(lp2890
S':'
asbag49
(g70
g51
NtRp2891
(dp2892
g54
(dp2893
sg63
g2878
sg56
(lp2894
g49
(g50
g51
NtRp2895
(dp2896
g54
(dp2897
g62
I3
ssg63
g2891
sg56
(lp2898
g1460
asbasbasbag49
(g65
g51
NtRp2899
(dp2900
g54
(dp2901
sg63
g2580
sg56
(lp2902
g49
(g70
g51
NtRp2903
(dp2904
g54
(dp2905
g74
g75
ssg63
g2899
sg56
(lp2906
S'SCRIPT_NAME'
p2907
asbag49
(g70
g51
NtRp2908
(dp2909
g54
(dp2910
g81
g82
ssg63
g2899
sg56
(lp2911
S':'
asbag49
(g70
g51
NtRp2912
(dp2913
g54
(dp2914
sg63
g2899
sg56
(lp2915
g49
(g50
g51
NtRp2916
(dp2917
g54
(dp2918
g62
I3
ssg63
g2912
sg56
(lp2919
S''
asbasbasbag49
(g65
g51
NtRp2920
(dp2921
g54
(dp2922
sg63
g2580
sg56
(lp2923
g49
(g70
g51
NtRp2924
(dp2925
g54
(dp2926
g74
g75
ssg63
g2920
sg56
(lp2927
S'SERVER_NAME'
p2928
asbag49
(g70
g51
NtRp2929
(dp2930
g54
(dp2931
g81
g82
ssg63
g2920
sg56
(lp2932
S':'
asbag49
(g70
g51
NtRp2933
(dp2934
g54
(dp2935
sg63
g2920
sg56
(lp2936
g49
(g50
g51
NtRp2937
(dp2938
g54
(dp2939
g62
I3
ssg63
g2933
sg56
(lp2940
g1503
asbasbasbag49
(g65
g51
NtRp2941
(dp2942
g54
(dp2943
sg63
g2580
sg56
(lp2944
g49
(g70
g51
NtRp2945
(dp2946
g54
(dp2947
g74
g75
ssg63
g2941
sg56
(lp2948
S'SERVER_PORT'
p2949
asbag49
(g70
g51
NtRp2950
(dp2951
g54
(dp2952
g81
g82
ssg63
g2941
sg56
(lp2953
S':'
asbag49
(g70
g51
NtRp2954
(dp2955
g54
(dp2956
sg63
g2941
sg56
(lp2957
g49
(g50
g51
NtRp2958
(dp2959
g54
(dp2960
g62
I3
ssg63
g2954
sg56
(lp2961
g1525
asbasbasbag49
(g65
g51
NtRp2962
(dp2963
g54
(dp2964
sg63
g2580
sg56
(lp2965
g49
(g70
g51
NtRp2966
(dp2967
g54
(dp2968
g74
g75
ssg63
g2962
sg56
(lp2969
S'SERVER_PROTOCOL'
p2970
asbag49
(g70
g51
NtRp2971
(dp2972
g54
(dp2973
g81
g82
ssg63
g2962
sg56
(lp2974
S':'
asbag49
(g70
g51
NtRp2975
(dp2976
g54
(dp2977
sg63
g2962
sg56
(lp2978
g49
(g50
g51
NtRp2979
(dp2980
g54
(dp2981
g62
I3
ssg63
g2975
sg56
(lp2982
g1547
asbasbasbag49
(g65
g51
NtRp2983
(dp2984
g54
(dp2985
sg63
g2580
sg56
(lp2986
g49
(g70
g51
NtRp2987
(dp2988
g54
(dp2989
g74
g75
ssg63
g2983
sg56
(lp2990
S'SERVER_SOFTWARE'
p2991
asbag49
(g70
g51
NtRp2992
(dp2993
g54
(dp2994
g81
g82
ssg63
g2983
sg56
(lp2995
S':'
asbag49
(g70
g51
NtRp2996
(dp2997
g54
(dp2998
sg63
g2983
sg56
(lp2999
g49
(g50
g51
NtRp3000
(dp3001
g54
(dp3002
g62
I3
ssg63
g2996
sg56
(lp3003
g1569
asbasbasbag49
(g65
g51
NtRp3004
(dp3005
g54
(dp3006
sg63
g2580
sg56
(lp3007
g49
(g70
g51
NtRp3008
(dp3009
g54
(dp3010
g74
g75
ssg63
g3004
sg56
(lp3011
S'wsgi.errors'
p3012
asbag49
(g70
g51
NtRp3013
(dp3014
g54
(dp3015
g81
g82
ssg63
g3004
sg56
(lp3016
S':'
asbag49
(g70
g51
NtRp3017
(dp3018
g54
(dp3019
sg63
g3004
sg56
(lp3020
g49
(g50
g51
NtRp3021
(dp3022
g54
(dp3023
g62
I3
ssg63
g3017
sg56
(lp3024
S'<__main__.Stderr object at 0x01667670>'
p3025
asbasbasbag49
(g65
g51
NtRp3026
(dp3027
g54
(dp3028
sg63
g2580
sg56
(lp3029
g49
(g70
g51
NtRp3030
(dp3031
g54
(dp3032
g74
g75
ssg63
g3026
sg56
(lp3033
S'wsgi.file_wrapper'
p3034
asbag49
(g70
g51
NtRp3035
(dp3036
g54
(dp3037
g81
g82
ssg63
g3026
sg56
(lp3038
S':'
asbag49
(g70
g51
NtRp3039
(dp3040
g54
(dp3041
sg63
g3026
sg56
(lp3042
g49
(g50
g51
NtRp3043
(dp3044
g54
(dp3045
g62
I3
ssg63
g3039
sg56
(lp3046
S'<class wsgiref.util.FileWrapper at 0x02532210>'
p3047
asbasbasbag49
(g65
g51
NtRp3048
(dp3049
g54
(dp3050
sg63
g2580
sg56
(lp3051
g49
(g70
g51
NtRp3052
(dp3053
g54
(dp3054
g74
g75
ssg63
g3048
sg56
(lp3055
S'wsgi.input'
p3056
asbag49
(g70
g51
NtRp3057
(dp3058
g54
(dp3059
g81
g82
ssg63
g3048
sg56
(lp3060
S':'
asbag49
(g70
g51
NtRp3061
(dp3062
g54
(dp3063
sg63
g3048
sg56
(lp3064
g49
(g50
g51
NtRp3065
(dp3066
g54
(dp3067
g62
I3
ssg63
g3061
sg56
(lp3068
S'<cStringIO.StringO object at 0x066876E0>'
p3069
asbasbasbag49
(g65
g51
NtRp3070
(dp3071
g54
(dp3072
sg63
g2580
sg56
(lp3073
g49
(g70
g51
NtRp3074
(dp3075
g54
(dp3076
g74
g75
ssg63
g3070
sg56
(lp3077
S'wsgi.multiprocess'
p3078
asbag49
(g70
g51
NtRp3079
(dp3080
g54
(dp3081
g81
g82
ssg63
g3070
sg56
(lp3082
S':'
asbag49
(g70
g51
NtRp3083
(dp3084
g54
(dp3085
sg63
g3070
sg56
(lp3086
g49
(g50
g51
NtRp3087
(dp3088
g54
(dp3089
g62
I3
ssg63
g3083
sg56
(lp3090
g92
asbasbasbag49
(g65
g51
NtRp3091
(dp3092
g54
(dp3093
sg63
g2580
sg56
(lp3094
g49
(g70
g51
NtRp3095
(dp3096
g54
(dp3097
g74
g75
ssg63
g3091
sg56
(lp3098
S'wsgi.multithread'
p3099
asbag49
(g70
g51
NtRp3100
(dp3101
g54
(dp3102
g81
g82
ssg63
g3091
sg56
(lp3103
S':'
asbag49
(g70
g51
NtRp3104
(dp3105
g54
(dp3106
sg63
g3091
sg56
(lp3107
g49
(g50
g51
NtRp3108
(dp3109
g54
(dp3110
g62
I3
ssg63
g3104
sg56
(lp3111
g1809
asbasbasbag49
(g65
g51
NtRp3112
(dp3113
g54
(dp3114
sg63
g2580
sg56
(lp3115
g49
(g70
g51
NtRp3116
(dp3117
g54
(dp3118
g74
g75
ssg63
g3112
sg56
(lp3119
S'wsgi.run_once'
p3120
asbag49
(g70
g51
NtRp3121
(dp3122
g54
(dp3123
g81
g82
ssg63
g3112
sg56
(lp3124
S':'
asbag49
(g70
g51
NtRp3125
(dp3126
g54
(dp3127
sg63
g3112
sg56
(lp3128
g49
(g50
g51
NtRp3129
(dp3130
g54
(dp3131
g62
I3
ssg63
g3125
sg56
(lp3132
g92
asbasbasbag49
(g65
g51
NtRp3133
(dp3134
g54
(dp3135
sg63
g2580
sg56
(lp3136
g49
(g70
g51
NtRp3137
(dp3138
g54
(dp3139
g74
g75
ssg63
g3133
sg56
(lp3140
S'wsgi.url_scheme'
p3141
asbag49
(g70
g51
NtRp3142
(dp3143
g54
(dp3144
g81
g82
ssg63
g3133
sg56
(lp3145
S':'
asbag49
(g70
g51
NtRp3146
(dp3147
g54
(dp3148
sg63
g3133
sg56
(lp3149
g49
(g50
g51
NtRp3150
(dp3151
g54
(dp3152
g62
I3
ssg63
g3146
sg56
(lp3153
g1852
asbasbasbag49
(g65
g51
NtRp3154
(dp3155
g54
(dp3156
sg63
g2580
sg56
(lp3157
g49
(g70
g51
NtRp3158
(dp3159
g54
(dp3160
g74
g75
ssg63
g3154
sg56
(lp3161
S'wsgi.version'
p3162
asbag49
(g70
g51
NtRp3163
(dp3164
g54
(dp3165
g81
g82
ssg63
g3154
sg56
(lp3166
S':'
asbag49
(g70
g51
NtRp3167
(dp3168
g54
(dp3169
sg63
g3154
sg56
(lp3170
g49
(g50
g51
NtRp3171
(dp3172
g54
(dp3173
g62
I3
ssg63
g3167
sg56
(lp3174
S'1'
asbasbasbasbasbasbasbasbasbasbasbasbasbsS'frames'
p3175
(lp3176
(dp3177
S'file'
p3178
S'C:\\Users\\omkara\\Desktop\\web2py\\gluon\\restricted.py'
p3179
sS'dump'
p3180
(dp3181
sS'lnum'
p3182
I205
sS'lines'
p3183
(dp3184
sS'call'
p3185
S"(code='# coding: utf8\\nfrom gluon.tools import Auth\\nfrom...ult= datetime.utcnow())]\\n  \\nauth.define_tables()\\n', environment={'A': <class 'gluon.html.A'>, 'Auth': <class 'gluon.tools.Auth'>, 'B': <class 'gluon.html.B'>, 'BEAUTIFY': <class 'gluon.html.BEAUTIFY'>, 'BODY': <class 'gluon.html.BODY'>, 'BR': <class 'gluon.html.BR'>, 'BUTTON': <class 'gluon.html.BUTTON'>, 'CAT': <class 'gluon.html.CAT'>, 'CENTER': <class 'gluon.html.CENTER'>, 'CLEANUP': <class 'gluon.validators.CLEANUP'>, ...}, layer=r'C:\\Users\\omkara\\Desktop\\web2py\\applications\\SlugBarter\\models\\registerForm.py')"
p3186
sS'func'
p3187
S'restricted'
p3188
sa(dp3189
g3178
S'C:\\Users\\omkara\\Desktop\\web2py\\applications\\SlugBarter\\models\\registerForm.py'
p3190
sg3180
(dp3191
sg3182
I7
sg3183
(dp3192
I1
S'# coding: utf8'
p3193
sI2
S'from gluon.tools import Auth'
p3194
sI3
S'from datetime import datetime'
p3195
sI4
S'auth = Auth(db)'
p3196
sI5
S''
sI6
S"auth.settings.extra_fields['auth_user']= ["
p3197
sI7
S"  Field('username','string',label ='Username:', writable = True, Readable= True),"
p3198
sI8
S"  Field('dateCreated','string', default= datetime.utcnow())]"
p3199
sI9
S''
sI10
S'auth.define_tables()'
p3200
ssg3185
S'()'
p3201
sg3187
S'<module>'
p3202
sasS'pyver'
p3203
S'Python 2.5.4: C:\\Users\\omkara\\Desktop\\web2py\\web2py_no_console.exe'
p3204
sS'session'
p3205
g49
(g50
g51
NtRp3206
(dp3207
g54
(dp3208
sg56
(lp3209
g49
(g58
g51
NtRp3210
(dp3211
g54
(dp3212
g62
I5
ssg63
Nsg56
(lp3213
g49
(g65
g51
NtRp3214
(dp3215
g54
(dp3216
sg63
g3210
sg56
(lp3217
g49
(g70
g51
NtRp3218
(dp3219
g54
(dp3220
g74
g75
ssg63
g3214
sg56
(lp3221
S'last_query'
p3222
asbag49
(g70
g51
NtRp3223
(dp3224
g54
(dp3225
g81
g82
ssg63
g3214
sg56
(lp3226
S':'
asbag49
(g70
g51
NtRp3227
(dp3228
g54
(dp3229
sg63
g3214
sg56
(lp3230
g49
(g50
g51
NtRp3231
(dp3232
g54
(dp3233
g62
I5
ssg63
g3227
sg56
(lp3234
S'db.auth_user.id>0'
p3235
asbasbasbasbasbsS'etype'
p3236
S"<type 'exceptions.TypeError'>"
p3237
sS'date'
p3238
S'Sat Nov 10 12:01:40 2012'
p3239
sS'response'
p3240
g49
(g50
g51
NtRp3241
(dp3242
g54
(dp3243
sg56
(lp3244
g49
(g58
g51
NtRp3245
(dp3246
g54
(dp3247
g62
I5
ssg63
Nsg56
(lp3248
g49
(g65
g51
NtRp3249
(dp3250
g54
(dp3251
sg63
g3245
sg56
(lp3252
g49
(g70
g51
NtRp3253
(dp3254
g54
(dp3255
g74
g75
ssg63
g3249
sg56
(lp3256
g160
asbag49
(g70
g51
NtRp3257
(dp3258
g54
(dp3259
g81
g82
ssg63
g3249
sg56
(lp3260
S':'
asbag49
(g70
g51
NtRp3261
(dp3262
g54
(dp3263
sg63
g3249
sg56
(lp3264
g49
(g50
g51
NtRp3265
(dp3266
g54
(dp3267
g62
I5
ssg63
g3261
sg56
(lp3268
S'<cStringIO.StringO object at 0x0295A780>'
p3269
asbasbasbag49
(g65
g51
NtRp3270
(dp3271
g54
(dp3272
sg63
g3245
sg56
(lp3273
g49
(g70
g51
NtRp3274
(dp3275
g54
(dp3276
g74
g75
ssg63
g3270
sg56
(lp3277
g226
asbag49
(g70
g51
NtRp3278
(dp3279
g54
(dp3280
g81
g82
ssg63
g3270
sg56
(lp3281
S':'
asbag49
(g70
g51
NtRp3282
(dp3283
g54
(dp3284
sg63
g3270
sg56
(lp3285
g49
(g50
g51
NtRp3286
(dp3287
g54
(dp3288
g62
I5
ssg63
g3282
sg56
(lp3289
g49
(g58
g51
NtRp3290
(dp3291
g54
(dp3292
g62
I4
ssg63
Nsg56
(lp3293
g49
(g65
g51
NtRp3294
(dp3295
g54
(dp3296
sg63
g3290
sg56
(lp3297
g49
(g70
g51
NtRp3298
(dp3299
g54
(dp3300
g74
g75
ssg63
g3294
sg56
(lp3301
S'session_id_slugbarter'
p3302
asbag49
(g70
g51
NtRp3303
(dp3304
g54
(dp3305
g81
g82
ssg63
g3294
sg56
(lp3306
S':'
asbag49
(g70
g51
NtRp3307
(dp3308
g54
(dp3309
sg63
g3294
sg56
(lp3310
g49
(g50
g51
NtRp3311
(dp3312
g54
(dp3313
g62
I4
ssg63
g3307
sg56
(lp3314
g49
(g58
g51
NtRp3315
(dp3316
g54
(dp3317
g62
I3
ssg63
Nsg56
(lp3318
g49
(g65
g51
NtRp3319
(dp3320
g54
(dp3321
sg63
g3315
sg56
(lp3322
g49
(g70
g51
NtRp3323
(dp3324
g54
(dp3325
g74
g75
ssg63
g3319
sg56
(lp3326
g276
asbag49
(g70
g51
NtRp3327
(dp3328
g54
(dp3329
g81
g82
ssg63
g3319
sg56
(lp3330
S':'
asbag49
(g70
g51
NtRp3331
(dp3332
g54
(dp3333
sg63
g3319
sg56
(lp3334
g49
(g50
g51
NtRp3335
(dp3336
g54
(dp3337
g62
I3
ssg63
g3331
sg56
(lp3338
S''
asbasbasbag49
(g65
g51
NtRp3339
(dp3340
g54
(dp3341
sg63
g3315
sg56
(lp3342
g49
(g70
g51
NtRp3343
(dp3344
g54
(dp3345
g74
g75
ssg63
g3339
sg56
(lp3346
g297
asbag49
(g70
g51
NtRp3347
(dp3348
g54
(dp3349
g81
g82
ssg63
g3339
sg56
(lp3350
S':'
asbag49
(g70
g51
NtRp3351
(dp3352
g54
(dp3353
sg63
g3339
sg56
(lp3354
g49
(g50
g51
NtRp3355
(dp3356
g54
(dp3357
g62
I3
ssg63
g3351
sg56
(lp3358
S''
asbasbasbag49
(g65
g51
NtRp3359
(dp3360
g54
(dp3361
sg63
g3315
sg56
(lp3362
g49
(g70
g51
NtRp3363
(dp3364
g54
(dp3365
g74
g75
ssg63
g3359
sg56
(lp3366
g318
asbag49
(g70
g51
NtRp3367
(dp3368
g54
(dp3369
g81
g82
ssg63
g3359
sg56
(lp3370
S':'
asbag49
(g70
g51
NtRp3371
(dp3372
g54
(dp3373
sg63
g3359
sg56
(lp3374
g49
(g50
g51
NtRp3375
(dp3376
g54
(dp3377
g62
I3
ssg63
g3371
sg56
(lp3378
S''
asbasbasbag49
(g65
g51
NtRp3379
(dp3380
g54
(dp3381
sg63
g3315
sg56
(lp3382
g49
(g70
g51
NtRp3383
(dp3384
g54
(dp3385
g74
g75
ssg63
g3379
sg56
(lp3386
g339
asbag49
(g70
g51
NtRp3387
(dp3388
g54
(dp3389
g81
g82
ssg63
g3379
sg56
(lp3390
S':'
asbag49
(g70
g51
NtRp3391
(dp3392
g54
(dp3393
sg63
g3379
sg56
(lp3394
g49
(g50
g51
NtRp3395
(dp3396
g54
(dp3397
g62
I3
ssg63
g3391
sg56
(lp3398
S''
asbasbasbag49
(g65
g51
NtRp3399
(dp3400
g54
(dp3401
sg63
g3315
sg56
(lp3402
g49
(g70
g51
NtRp3403
(dp3404
g54
(dp3405
g74
g75
ssg63
g3399
sg56
(lp3406
g360
asbag49
(g70
g51
NtRp3407
(dp3408
g54
(dp3409
g81
g82
ssg63
g3399
sg56
(lp3410
S':'
asbag49
(g70
g51
NtRp3411
(dp3412
g54
(dp3413
sg63
g3399
sg56
(lp3414
g49
(g50
g51
NtRp3415
(dp3416
g54
(dp3417
g62
I3
ssg63
g3411
sg56
(lp3418
S'/'
asbasbasbag49
(g65
g51
NtRp3419
(dp3420
g54
(dp3421
sg63
g3315
sg56
(lp3422
g49
(g70
g51
NtRp3423
(dp3424
g54
(dp3425
g74
g75
ssg63
g3419
sg56
(lp3426
g381
asbag49
(g70
g51
NtRp3427
(dp3428
g54
(dp3429
g81
g82
ssg63
g3419
sg56
(lp3430
S':'
asbag49
(g70
g51
NtRp3431
(dp3432
g54
(dp3433
sg63
g3419
sg56
(lp3434
g49
(g50
g51
NtRp3435
(dp3436
g54
(dp3437
g62
I3
ssg63
g3431
sg56
(lp3438
S''
asbasbasbag49
(g65
g51
NtRp3439
(dp3440
g54
(dp3441
sg63
g3315
sg56
(lp3442
g49
(g70
g51
NtRp3443
(dp3444
g54
(dp3445
g74
g75
ssg63
g3439
sg56
(lp3446
g402
asbag49
(g70
g51
NtRp3447
(dp3448
g54
(dp3449
g81
g82
ssg63
g3439
sg56
(lp3450
S':'
asbag49
(g70
g51
NtRp3451
(dp3452
g54
(dp3453
sg63
g3439
sg56
(lp3454
g49
(g50
g51
NtRp3455
(dp3456
g54
(dp3457
g62
I3
ssg63
g3451
sg56
(lp3458
S''
asbasbasbasbasbasbasbasbasbasbasbag49
(g65
g51
NtRp3459
(dp3460
g54
(dp3461
sg63
g3245
sg56
(lp3462
g49
(g70
g51
NtRp3463
(dp3464
g54
(dp3465
g74
g75
ssg63
g3459
sg56
(lp3466
S'delimiters'
p3467
asbag49
(g70
g51
NtRp3468
(dp3469
g54
(dp3470
g81
g82
ssg63
g3459
sg56
(lp3471
S':'
asbag49
(g70
g51
NtRp3472
(dp3473
g54
(dp3474
sg63
g3459
sg56
(lp3475
g49
(g50
g51
NtRp3476
(dp3477
g54
(dp3478
g62
I5
ssg63
g3472
sg56
(lp3479
g49
(g58
g51
NtRp3480
(dp3481
g54
(dp3482
g62
I4
ssg63
Nsg56
(lp3483
g49
(g65
g51
NtRp3484
(dp3485
g54
(dp3486
sg63
g3480
sg56
(lp3487
g49
(g70
g51
NtRp3488
(dp3489
g54
(dp3490
sg63
g3484
sg56
(lp3491
g49
(g50
g51
NtRp3492
(dp3493
g54
(dp3494
g62
I4
ssg63
g3488
sg56
(lp3495
S'{{'
p3496
asbasbasbag49
(g65
g51
NtRp3497
(dp3498
g54
(dp3499
sg63
g3480
sg56
(lp3500
g49
(g70
g51
NtRp3501
(dp3502
g54
(dp3503
sg63
g3497
sg56
(lp3504
g49
(g50
g51
NtRp3505
(dp3506
g54
(dp3507
g62
I4
ssg63
g3501
sg56
(lp3508
S'}}'
p3509
asbasbasbasbasbasbasbag49
(g65
g51
NtRp3510
(dp3511
g54
(dp3512
sg63
g3245
sg56
(lp3513
g49
(g70
g51
NtRp3514
(dp3515
g54
(dp3516
g74
g75
ssg63
g3510
sg56
(lp3517
S'files'
p3518
asbag49
(g70
g51
NtRp3519
(dp3520
g54
(dp3521
g81
g82
ssg63
g3510
sg56
(lp3522
S':'
asbag49
(g70
g51
NtRp3523
(dp3524
g54
(dp3525
sg63
g3510
sg56
(lp3526
g49
(g50
g51
NtRp3527
(dp3528
g54
(dp3529
g62
I5
ssg63
g3523
sg56
(lp3530
g49
(g58
g51
NtRp3531
(dp3532
g54
(dp3533
g62
I4
ssg63
Nsg56
(lp3534
sbasbasbasbag49
(g65
g51
NtRp3535
(dp3536
g54
(dp3537
sg63
g3245
sg56
(lp3538
g49
(g70
g51
NtRp3539
(dp3540
g54
(dp3541
g74
g75
ssg63
g3535
sg56
(lp3542
S'flash'
p3543
asbag49
(g70
g51
NtRp3544
(dp3545
g54
(dp3546
g81
g82
ssg63
g3535
sg56
(lp3547
S':'
asbag49
(g70
g51
NtRp3548
(dp3549
g54
(dp3550
sg63
g3535
sg56
(lp3551
g49
(g50
g51
NtRp3552
(dp3553
g54
(dp3554
g62
I5
ssg63
g3548
sg56
(lp3555
S''
asbasbasbag49
(g65
g51
NtRp3556
(dp3557
g54
(dp3558
sg63
g3245
sg56
(lp3559
g49
(g70
g51
NtRp3560
(dp3561
g54
(dp3562
g74
g75
ssg63
g3556
sg56
(lp3563
S'generic_patterns'
p3564
asbag49
(g70
g51
NtRp3565
(dp3566
g54
(dp3567
g81
g82
ssg63
g3556
sg56
(lp3568
S':'
asbag49
(g70
g51
NtRp3569
(dp3570
g54
(dp3571
sg63
g3556
sg56
(lp3572
g49
(g50
g51
NtRp3573
(dp3574
g54
(dp3575
g62
I5
ssg63
g3569
sg56
(lp3576
g49
(g58
g51
NtRp3577
(dp3578
g54
(dp3579
g62
I4
ssg63
Nsg56
(lp3580
g49
(g65
g51
NtRp3581
(dp3582
g54
(dp3583
sg63
g3577
sg56
(lp3584
g49
(g70
g51
NtRp3585
(dp3586
g54
(dp3587
sg63
g3581
sg56
(lp3588
g49
(g50
g51
NtRp3589
(dp3590
g54
(dp3591
g62
I4
ssg63
g3585
sg56
(lp3592
S'*'
asbasbasbasbasbasbasbag49
(g65
g51
NtRp3593
(dp3594
g54
(dp3595
sg63
g3245
sg56
(lp3596
g49
(g70
g51
NtRp3597
(dp3598
g54
(dp3599
g74
g75
ssg63
g3593
sg56
(lp3600
S'headers'
p3601
asbag49
(g70
g51
NtRp3602
(dp3603
g54
(dp3604
g81
g82
ssg63
g3593
sg56
(lp3605
S':'
asbag49
(g70
g51
NtRp3606
(dp3607
g54
(dp3608
sg63
g3593
sg56
(lp3609
g49
(g50
g51
NtRp3610
(dp3611
g54
(dp3612
g62
I5
ssg63
g3606
sg56
(lp3613
g49
(g58
g51
NtRp3614
(dp3615
g54
(dp3616
g62
I4
ssg63
Nsg56
(lp3617
g49
(g65
g51
NtRp3618
(dp3619
g54
(dp3620
sg63
g3614
sg56
(lp3621
g49
(g70
g51
NtRp3622
(dp3623
g54
(dp3624
g74
g75
ssg63
g3618
sg56
(lp3625
S'Cache-Control'
p3626
asbag49
(g70
g51
NtRp3627
(dp3628
g54
(dp3629
g81
g82
ssg63
g3618
sg56
(lp3630
S':'
asbag49
(g70
g51
NtRp3631
(dp3632
g54
(dp3633
sg63
g3618
sg56
(lp3634
g49
(g50
g51
NtRp3635
(dp3636
g54
(dp3637
g62
I4
ssg63
g3631
sg56
(lp3638
S'no-store, no-cache, must-revalidate, post-check=0, pre-check=0'
p3639
asbasbasbag49
(g65
g51
NtRp3640
(dp3641
g54
(dp3642
sg63
g3614
sg56
(lp3643
g49
(g70
g51
NtRp3644
(dp3645
g54
(dp3646
g74
g75
ssg63
g3640
sg56
(lp3647
S'Content-Type'
p3648
asbag49
(g70
g51
NtRp3649
(dp3650
g54
(dp3651
g81
g82
ssg63
g3640
sg56
(lp3652
S':'
asbag49
(g70
g51
NtRp3653
(dp3654
g54
(dp3655
sg63
g3640
sg56
(lp3656
g49
(g50
g51
NtRp3657
(dp3658
g54
(dp3659
g62
I4
ssg63
g3653
sg56
(lp3660
S'text/html; charset=utf-8'
p3661
asbasbasbag49
(g65
g51
NtRp3662
(dp3663
g54
(dp3664
sg63
g3614
sg56
(lp3665
g49
(g70
g51
NtRp3666
(dp3667
g54
(dp3668
g74
g75
ssg63
g3662
sg56
(lp3669
S'Expires'
p3670
asbag49
(g70
g51
NtRp3671
(dp3672
g54
(dp3673
g81
g82
ssg63
g3662
sg56
(lp3674
S':'
asbag49
(g70
g51
NtRp3675
(dp3676
g54
(dp3677
sg63
g3662
sg56
(lp3678
g49
(g50
g51
NtRp3679
(dp3680
g54
(dp3681
g62
I4
ssg63
g3675
sg56
(lp3682
S'Sat, 10 Nov 2012 20:01:40 GMT'
p3683
asbasbasbag49
(g65
g51
NtRp3684
(dp3685
g54
(dp3686
sg63
g3614
sg56
(lp3687
g49
(g70
g51
NtRp3688
(dp3689
g54
(dp3690
g74
g75
ssg63
g3684
sg56
(lp3691
S'Pragma'
p3692
asbag49
(g70
g51
NtRp3693
(dp3694
g54
(dp3695
g81
g82
ssg63
g3684
sg56
(lp3696
S':'
asbag49
(g70
g51
NtRp3697
(dp3698
g54
(dp3699
sg63
g3684
sg56
(lp3700
g49
(g50
g51
NtRp3701
(dp3702
g54
(dp3703
g62
I4
ssg63
g3697
sg56
(lp3704
S'no-cache'
p3705
asbasbasbag49
(g65
g51
NtRp3706
(dp3707
g54
(dp3708
sg63
g3614
sg56
(lp3709
g49
(g70
g51
NtRp3710
(dp3711
g54
(dp3712
g74
g75
ssg63
g3706
sg56
(lp3713
S'X-Powered-By'
p3714
asbag49
(g70
g51
NtRp3715
(dp3716
g54
(dp3717
g81
g82
ssg63
g3706
sg56
(lp3718
S':'
asbag49
(g70
g51
NtRp3719
(dp3720
g54
(dp3721
sg63
g3706
sg56
(lp3722
g49
(g50
g51
NtRp3723
(dp3724
g54
(dp3725
g62
I4
ssg63
g3719
sg56
(lp3726
S'web2py'
p3727
asbasbasbasbasbasbasbag49
(g65
g51
NtRp3728
(dp3729
g54
(dp3730
sg63
g3245
sg56
(lp3731
g49
(g70
g51
NtRp3732
(dp3733
g54
(dp3734
g74
g75
ssg63
g3728
sg56
(lp3735
S'menu'
p3736
asbag49
(g70
g51
NtRp3737
(dp3738
g54
(dp3739
g81
g82
ssg63
g3728
sg56
(lp3740
S':'
asbag49
(g70
g51
NtRp3741
(dp3742
g54
(dp3743
sg63
g3728
sg56
(lp3744
g49
(g50
g51
NtRp3745
(dp3746
g54
(dp3747
g62
I5
ssg63
g3741
sg56
(lp3748
g49
(g58
g51
NtRp3749
(dp3750
g54
(dp3751
g62
I4
ssg63
Nsg56
(lp3752
g49
(g65
g51
NtRp3753
(dp3754
g54
(dp3755
sg63
g3749
sg56
(lp3756
g49
(g70
g51
NtRp3757
(dp3758
g54
(dp3759
sg63
g3753
sg56
(lp3760
g49
(g50
g51
NtRp3761
(dp3762
g54
(dp3763
g62
I4
ssg63
g3757
sg56
(lp3764
g49
(g58
g51
NtRp3765
(dp3766
g54
(dp3767
g62
I3
ssg63
Nsg56
(lp3768
g49
(g65
g51
NtRp3769
(dp3770
g54
(dp3771
sg63
g3765
sg56
(lp3772
g49
(g70
g51
NtRp3773
(dp3774
g54
(dp3775
sg63
g3769
sg56
(lp3776
g49
(g50
g51
NtRp3777
(dp3778
g54
(dp3779
g62
I3
ssg63
g3773
sg56
(lp3780
cgluon.languages
lazyT_unpickle
p3781
(S's\x04\x00\x00\x00Home'
tRp3782
asbasbasbag49
(g65
g51
NtRp3783
(dp3784
g54
(dp3785
sg63
g3765
sg56
(lp3786
g49
(g70
g51
NtRp3787
(dp3788
g54
(dp3789
sg63
g3783
sg56
(lp3790
g49
(g50
g51
NtRp3791
(dp3792
g54
(dp3793
g62
I3
ssg63
g3787
sg56
(lp3794
g92
asbasbasbag49
(g65
g51
NtRp3795
(dp3796
g54
(dp3797
sg63
g3765
sg56
(lp3798
g49
(g70
g51
NtRp3799
(dp3800
g54
(dp3801
sg63
g3795
sg56
(lp3802
g49
(g50
g51
NtRp3803
(dp3804
g54
(dp3805
g62
I3
ssg63
g3799
sg56
(lp3806
S'/SlugBarter/default/index'
p3807
asbasbasbag49
(g65
g51
NtRp3808
(dp3809
g54
(dp3810
sg63
g3765
sg56
(lp3811
g49
(g70
g51
NtRp3812
(dp3813
g54
(dp3814
sg63
g3808
sg56
(lp3815
g49
(g50
g51
NtRp3816
(dp3817
g54
(dp3818
g62
I3
ssg63
g3812
sg56
(lp3819
g49
(g58
g51
NtRp3820
(dp3821
g54
(dp3822
g62
I2
ssg63
Nsg56
(lp3823
sbasbasbasbasbasbasbasbag49
(g65
g51
NtRp3824
(dp3825
g54
(dp3826
sg63
g3749
sg56
(lp3827
g49
(g70
g51
NtRp3828
(dp3829
g54
(dp3830
sg63
g3824
sg56
(lp3831
g49
(g50
g51
NtRp3832
(dp3833
g54
(dp3834
g62
I4
ssg63
g3828
sg56
(lp3835
g49
(g58
g51
NtRp3836
(dp3837
g54
(dp3838
g62
I3
ssg63
Nsg56
(lp3839
g49
(g65
g51
NtRp3840
(dp3841
g54
(dp3842
sg63
g3836
sg56
(lp3843
g49
(g70
g51
NtRp3844
(dp3845
g54
(dp3846
sg63
g3840
sg56
(lp3847
g49
(g50
g51
NtRp3848
(dp3849
g54
(dp3850
g62
I3
ssg63
g3844
sg56
(lp3851
g49
(cgluon.html
SPAN
p3852
g51
NtRp3853
(dp3854
g54
(dp3855
g74
S'color:yellow'
p3856
ssg63
Nsg56
(lp3857
g3727
asbasbasbasbag49
(g65
g51
NtRp3858
(dp3859
g54
(dp3860
sg63
g3836
sg56
(lp3861
g49
(g70
g51
NtRp3862
(dp3863
g54
(dp3864
sg63
g3858
sg56
(lp3865
g49
(g50
g51
NtRp3866
(dp3867
g54
(dp3868
g62
I3
ssg63
g3862
sg56
(lp3869
g92
asbasbasbag49
(g65
g51
NtRp3870
(dp3871
g54
(dp3872
sg63
g3836
sg56
(lp3873
g49
(g70
g51
NtRp3874
(dp3875
g54
(dp3876
sg63
g3870
sg56
(lp3877
g49
(g50
g51
NtRp3878
(dp3879
g54
(dp3880
g62
I3
ssg63
g3874
sg56
(lp3881
S'None'
p3882
asbasbasbag49
(g65
g51
NtRp3883
(dp3884
g54
(dp3885
sg63
g3836
sg56
(lp3886
g49
(g70
g51
NtRp3887
(dp3888
g54
(dp3889
sg63
g3883
sg56
(lp3890
g49
(g50
g51
NtRp3891
(dp3892
g54
(dp3893
g62
I3
ssg63
g3887
sg56
(lp3894
g49
(g58
g51
NtRp3895
(dp3896
g54
(dp3897
g62
I2
ssg63
Nsg56
(lp3898
g49
(g65
g51
NtRp3899
(dp3900
g54
(dp3901
sg63
g3895
sg56
(lp3902
g49
(g70
g51
NtRp3903
(dp3904
g54
(dp3905
sg63
g3899
sg56
(lp3906
g49
(g50
g51
NtRp3907
(dp3908
g54
(dp3909
g62
I2
ssg63
g3903
sg56
(lp3910
g49
(g58
g51
NtRp3911
(dp3912
g54
(dp3913
g62
I1
ssg63
Nsg56
(lp3914
g49
(g65
g51
NtRp3915
(dp3916
g54
(dp3917
sg63
g3911
sg56
(lp3918
g49
(g70
g51
NtRp3919
(dp3920
g54
(dp3921
sg63
g3915
sg56
(lp3922
g49
(g50
g51
NtRp3923
(dp3924
g54
(dp3925
g62
I1
ssg63
g3919
sg56
(lp3926
g3781
(S's\x08\x00\x00\x00My Sites'
tRp3927
asbasbasbag49
(g65
g51
NtRp3928
(dp3929
g54
(dp3930
sg63
g3911
sg56
(lp3931
g49
(g70
g51
NtRp3932
(dp3933
g54
(dp3934
sg63
g3928
sg56
(lp3935
g49
(g50
g51
NtRp3936
(dp3937
g54
(dp3938
g62
I1
ssg63
g3932
sg56
(lp3939
I00
asbasbasbag49
(g65
g51
NtRp3940
(dp3941
g54
(dp3942
sg63
g3911
sg56
(lp3943
g49
(g70
g51
NtRp3944
(dp3945
g54
(dp3946
sg63
g3940
sg56
(lp3947
g49
(g50
g51
NtRp3948
(dp3949
g54
(dp3950
g62
I1
ssg63
g3944
sg56
(lp3951
S'/admin/default/site'
p3952
asbasbasbasbasbasbasbag49
(g65
g51
NtRp3953
(dp3954
g54
(dp3955
sg63
g3895
sg56
(lp3956
g49
(g70
g51
NtRp3957
(dp3958
g54
(dp3959
sg63
g3953
sg56
(lp3960
g49
(g50
g51
NtRp3961
(dp3962
g54
(dp3963
g62
I2
ssg63
g3957
sg56
(lp3964
g49
(g58
g51
NtRp3965
(dp3966
g54
(dp3967
g62
I1
ssg63
Nsg56
(lp3968
g49
(g65
g51
NtRp3969
(dp3970
g54
(dp3971
sg63
g3965
sg56
(lp3972
g49
(g70
g51
NtRp3973
(dp3974
g54
(dp3975
sg63
g3969
sg56
(lp3976
g49
(g50
g51
NtRp3977
(dp3978
g54
(dp3979
g62
I1
ssg63
g3973
sg56
(lp3980
g3781
(S's\x08\x00\x00\x00This App'
tRp3981
asbasbasbag49
(g65
g51
NtRp3982
(dp3983
g54
(dp3984
sg63
g3965
sg56
(lp3985
g49
(g70
g51
NtRp3986
(dp3987
g54
(dp3988
sg63
g3982
sg56
(lp3989
g49
(g50
g51
NtRp3990
(dp3991
g54
(dp3992
g62
I1
ssg63
g3986
sg56
(lp3993
I00
asbasbasbag49
(g65
g51
NtRp3994
(dp3995
g54
(dp3996
sg63
g3965
sg56
(lp3997
g49
(g70
g51
NtRp3998
(dp3999
g54
(dp4000
sg63
g3994
sg56
(lp4001
g49
(g50
g51
NtRp4002
(dp4003
g54
(dp4004
g62
I1
ssg63
g3998
sg56
(lp4005
S'/admin/default/design/SlugBarter'
p4006
asbasbasbag49
(g65
g51
NtRp4007
(dp4008
g54
(dp4009
sg63
g3965
sg56
(lp4010
g49
(g70
g51
NtRp4011
(dp4012
g54
(dp4013
sg63
g4007
sg56
(lp4014
g49
(g50
g51
NtRp4015
(dp4016
g54
(dp4017
g62
I1
ssg63
g4011
sg56
(lp4018
(lp4019
(g3781
(S's\n\x00\x00\x00Controller'
tRp4020
I00
S'/admin/default/edit/SlugBarter/controllers/default.py'
tp4021
a(g3781
(S's\x04\x00\x00\x00View'
tRp4022
I00
S'/admin/default/edit/SlugBarter/views/default/register.html'
tp4023
a(g3781
(S's\x06\x00\x00\x00Layout'
tRp4024
I00
S'/admin/default/edit/SlugBarter/views/layout.html'
tp4025
a(g3781
(S's\n\x00\x00\x00Stylesheet'
tRp4026
I00
S'/admin/default/edit/SlugBarter/static/css/web2py.css'
tp4027
a(g3781
(S's\x08\x00\x00\x00DB Model'
tRp4028
I00
S'/admin/default/edit/SlugBarter/models/db.py'
tp4029
a(g3781
(S's\n\x00\x00\x00Menu Model'
tRp4030
I00
S'/admin/default/edit/SlugBarter/models/menu.py'
tp4031
a(g3781
(S's\x08\x00\x00\x00Database'
tRp4032
I00
S'/SlugBarter/appadmin/index'
tp4033
a(g3781
(S's\x06\x00\x00\x00Errors'
tRp4034
I00
S'/admin/default/errors/SlugBarter'
tp4035
a(g3781
(S's\x05\x00\x00\x00About'
tRp4036
I00
S'/admin/default/about/SlugBarter'
tp4037
aasbasbasbasbasbasbasbag49
(g65
g51
NtRp4038
(dp4039
g54
(dp4040
sg63
g3895
sg56
(lp4041
g49
(g70
g51
NtRp4042
(dp4043
g54
(dp4044
sg63
g4038
sg56
(lp4045
g49
(g50
g51
NtRp4046
(dp4047
g54
(dp4048
g62
I2
ssg63
g4042
sg56
(lp4049
g49
(g58
g51
NtRp4050
(dp4051
g54
(dp4052
g62
I1
ssg63
Nsg56
(lp4053
g49
(g65
g51
NtRp4054
(dp4055
g54
(dp4056
sg63
g4050
sg56
(lp4057
g49
(g70
g51
NtRp4058
(dp4059
g54
(dp4060
sg63
g4054
sg56
(lp4061
g49
(g50
g51
NtRp4062
(dp4063
g54
(dp4064
g62
I1
ssg63
g4058
sg56
(lp4065
S'web2py.com'
p4066
asbasbasbag49
(g65
g51
NtRp4067
(dp4068
g54
(dp4069
sg63
g4050
sg56
(lp4070
g49
(g70
g51
NtRp4071
(dp4072
g54
(dp4073
sg63
g4067
sg56
(lp4074
g49
(g50
g51
NtRp4075
(dp4076
g54
(dp4077
g62
I1
ssg63
g4071
sg56
(lp4078
I00
asbasbasbag49
(g65
g51
NtRp4079
(dp4080
g54
(dp4081
sg63
g4050
sg56
(lp4082
g49
(g70
g51
NtRp4083
(dp4084
g54
(dp4085
sg63
g4079
sg56
(lp4086
g49
(g50
g51
NtRp4087
(dp4088
g54
(dp4089
g62
I1
ssg63
g4083
sg56
(lp4090
S'http://www.web2py.com'
p4091
asbasbasbag49
(g65
g51
NtRp4092
(dp4093
g54
(dp4094
sg63
g4050
sg56
(lp4095
g49
(g70
g51
NtRp4096
(dp4097
g54
(dp4098
sg63
g4092
sg56
(lp4099
g49
(g50
g51
NtRp4100
(dp4101
g54
(dp4102
g62
I1
ssg63
g4096
sg56
(lp4103
(lp4104
(g3781
(S's\x08\x00\x00\x00Download'
tRp4105
I00
S'http://www.web2py.com/examples/default/download'
p4106
tp4107
a(g3781
(S's\x07\x00\x00\x00Support'
tRp4108
I00
S'http://www.web2py.com/examples/default/support'
p4109
tp4110
a(g3781
(S's\x04\x00\x00\x00Demo'
tRp4111
I00
S'http://web2py.com/demo_admin'
p4112
tp4113
a(g3781
(S's\x0e\x00\x00\x00Quick Examples'
tRp4114
I00
S'http://web2py.com/examples/default/examples'
p4115
tp4116
a(g3781
(S's\x03\x00\x00\x00FAQ'
tRp4117
I00
S'http://web2py.com/AlterEgo'
p4118
tp4119
a(g3781
(S's\x06\x00\x00\x00Videos'
tRp4120
I00
S'http://www.web2py.com/examples/default/videos/'
p4121
tp4122
a(g3781
(S's\x11\x00\x00\x00Free Applications'
tRp4123
I00
S'http://web2py.com/appliances'
p4124
tp4125
a(g3781
(S's\x07\x00\x00\x00Plugins'
tRp4126
I00
S'http://web2py.com/plugins'
p4127
tp4128
a(g3781
(S's\x07\x00\x00\x00Layouts'
tRp4129
I00
S'http://web2py.com/layouts'
p4130
tp4131
a(g3781
(S's\x07\x00\x00\x00Recipes'
tRp4132
I00
S'http://web2pyslices.com/'
p4133
tp4134
a(g3781
(S's\x08\x00\x00\x00Semantic'
tRp4135
I00
S'http://web2py.com/semantic'
p4136
tp4137
aasbasbasbasbasbasbasbag49
(g65
g51
NtRp4138
(dp4139
g54
(dp4140
sg63
g3895
sg56
(lp4141
g49
(g70
g51
NtRp4142
(dp4143
g54
(dp4144
sg63
g4138
sg56
(lp4145
g49
(g50
g51
NtRp4146
(dp4147
g54
(dp4148
g62
I2
ssg63
g4142
sg56
(lp4149
g49
(g58
g51
NtRp4150
(dp4151
g54
(dp4152
g62
I1
ssg63
Nsg56
(lp4153
g49
(g65
g51
NtRp4154
(dp4155
g54
(dp4156
sg63
g4150
sg56
(lp4157
g49
(g70
g51
NtRp4158
(dp4159
g54
(dp4160
sg63
g4154
sg56
(lp4161
g49
(g50
g51
NtRp4162
(dp4163
g54
(dp4164
g62
I1
ssg63
g4158
sg56
(lp4165
g3781
(S's\r\x00\x00\x00Documentation'
tRp4166
asbasbasbag49
(g65
g51
NtRp4167
(dp4168
g54
(dp4169
sg63
g4150
sg56
(lp4170
g49
(g70
g51
NtRp4171
(dp4172
g54
(dp4173
sg63
g4167
sg56
(lp4174
g49
(g50
g51
NtRp4175
(dp4176
g54
(dp4177
g62
I1
ssg63
g4171
sg56
(lp4178
I00
asbasbasbag49
(g65
g51
NtRp4179
(dp4180
g54
(dp4181
sg63
g4150
sg56
(lp4182
g49
(g70
g51
NtRp4183
(dp4184
g54
(dp4185
sg63
g4179
sg56
(lp4186
g49
(g50
g51
NtRp4187
(dp4188
g54
(dp4189
g62
I1
ssg63
g4183
sg56
(lp4190
S'http://www.web2py.com/book'
p4191
asbasbasbag49
(g65
g51
NtRp4192
(dp4193
g54
(dp4194
sg63
g4150
sg56
(lp4195
g49
(g70
g51
NtRp4196
(dp4197
g54
(dp4198
sg63
g4192
sg56
(lp4199
g49
(g50
g51
NtRp4200
(dp4201
g54
(dp4202
g62
I1
ssg63
g4196
sg56
(lp4203
(lp4204
(g3781
(S's\x07\x00\x00\x00Preface'
tRp4205
I00
S'http://www.web2py.com/book/default/chapter/00'
p4206
tp4207
a(g3781
(S's\x0c\x00\x00\x00Introduction'
tRp4208
I00
S'http://www.web2py.com/book/default/chapter/01'
p4209
tp4210
a(g3781
(S's\x06\x00\x00\x00Python'
tRp4211
I00
S'http://www.web2py.com/book/default/chapter/02'
p4212
tp4213
a(g3781
(S's\x08\x00\x00\x00Overview'
tRp4214
I00
S'http://www.web2py.com/book/default/chapter/03'
p4215
tp4216
a(g3781
(S's\x08\x00\x00\x00The Core'
tRp4217
I00
S'http://www.web2py.com/book/default/chapter/04'
p4218
tp4219
a(g3781
(S's\t\x00\x00\x00The Views'
tRp4220
I00
S'http://www.web2py.com/book/default/chapter/05'
p4221
tp4222
a(g3781
(S's\x08\x00\x00\x00Database'
tRp4223
I00
S'http://www.web2py.com/book/default/chapter/06'
p4224
tp4225
a(g3781
(S's\x14\x00\x00\x00Forms and Validators'
tRp4226
I00
S'http://www.web2py.com/book/default/chapter/07'
p4227
tp4228
a(g3781
(S's\r\x00\x00\x00Email and SMS'
tRp4229
I00
S'http://www.web2py.com/book/default/chapter/08'
p4230
tp4231
a(g3781
(S's\x0e\x00\x00\x00Access Control'
tRp4232
I00
S'http://www.web2py.com/book/default/chapter/09'
p4233
tp4234
a(g3781
(S's\x08\x00\x00\x00Services'
tRp4235
I00
S'http://www.web2py.com/book/default/chapter/10'
p4236
tp4237
a(g3781
(S's\x0c\x00\x00\x00Ajax Recipes'
tRp4238
I00
S'http://www.web2py.com/book/default/chapter/11'
p4239
tp4240
a(g3781
(S's\x16\x00\x00\x00Components and Plugins'
tRp4241
I00
S'http://www.web2py.com/book/default/chapter/12'
p4242
tp4243
a(g3781
(S's\x12\x00\x00\x00Deployment Recipes'
tRp4244
I00
S'http://www.web2py.com/book/default/chapter/13'
p4245
tp4246
a(g3781
(S's\r\x00\x00\x00Other Recipes'
tRp4247
I00
S'http://www.web2py.com/book/default/chapter/14'
p4248
tp4249
a(g3781
(S's\r\x00\x00\x00Buy this book'
tRp4250
I00
S'http://stores.lulu.com/web2py'
p4251
tp4252
aasbasbasbasbasbasbasbag49
(g65
g51
NtRp4253
(dp4254
g54
(dp4255
sg63
g3895
sg56
(lp4256
g49
(g70
g51
NtRp4257
(dp4258
g54
(dp4259
sg63
g4253
sg56
(lp4260
g49
(g50
g51
NtRp4261
(dp4262
g54
(dp4263
g62
I2
ssg63
g4257
sg56
(lp4264
g49
(g58
g51
NtRp4265
(dp4266
g54
(dp4267
g62
I1
ssg63
Nsg56
(lp4268
g49
(g65
g51
NtRp4269
(dp4270
g54
(dp4271
sg63
g4265
sg56
(lp4272
g49
(g70
g51
NtRp4273
(dp4274
g54
(dp4275
sg63
g4269
sg56
(lp4276
g49
(g50
g51
NtRp4277
(dp4278
g54
(dp4279
g62
I1
ssg63
g4273
sg56
(lp4280
g3781
(S's\t\x00\x00\x00Community'
tRp4281
asbasbasbag49
(g65
g51
NtRp4282
(dp4283
g54
(dp4284
sg63
g4265
sg56
(lp4285
g49
(g70
g51
NtRp4286
(dp4287
g54
(dp4288
sg63
g4282
sg56
(lp4289
g49
(g50
g51
NtRp4290
(dp4291
g54
(dp4292
g62
I1
ssg63
g4286
sg56
(lp4293
I00
asbasbasbag49
(g65
g51
NtRp4294
(dp4295
g54
(dp4296
sg63
g4265
sg56
(lp4297
g49
(g70
g51
NtRp4298
(dp4299
g54
(dp4300
sg63
g4294
sg56
(lp4301
g49
(g50
g51
NtRp4302
(dp4303
g54
(dp4304
g62
I1
ssg63
g4298
sg56
(lp4305
Nasbasbasbag49
(g65
g51
NtRp4306
(dp4307
g54
(dp4308
sg63
g4265
sg56
(lp4309
g49
(g70
g51
NtRp4310
(dp4311
g54
(dp4312
sg63
g4306
sg56
(lp4313
g49
(g50
g51
NtRp4314
(dp4315
g54
(dp4316
g62
I1
ssg63
g4310
sg56
(lp4317
(lp4318
(g3781
(S's\x06\x00\x00\x00Groups'
tRp4319
I00
S'http://www.web2py.com/examples/default/usergroups'
p4320
tp4321
a(g3781
(S's\x07\x00\x00\x00Twitter'
tRp4322
I00
S'http://twitter.com/web2py'
p4323
tp4324
a(g3781
(S's\t\x00\x00\x00Live Chat'
tRp4325
I00
S'http://webchat.freenode.net/?channels=web2py'
p4326
tp4327
aasbasbasbasbasbasbasbag49
(g65
g51
NtRp4328
(dp4329
g54
(dp4330
sg63
g3895
sg56
(lp4331
g49
(g70
g51
NtRp4332
(dp4333
g54
(dp4334
sg63
g4328
sg56
(lp4335
g49
(g50
g51
NtRp4336
(dp4337
g54
(dp4338
g62
I2
ssg63
g4332
sg56
(lp4339
g49
(g58
g51
NtRp4340
(dp4341
g54
(dp4342
g62
I1
ssg63
Nsg56
(lp4343
g49
(g65
g51
NtRp4344
(dp4345
g54
(dp4346
sg63
g4340
sg56
(lp4347
g49
(g70
g51
NtRp4348
(dp4349
g54
(dp4350
sg63
g4344
sg56
(lp4351
g49
(g50
g51
NtRp4352
(dp4353
g54
(dp4354
g62
I1
ssg63
g4348
sg56
(lp4355
g3781
(S's\x07\x00\x00\x00Plugins'
tRp4356
asbasbasbag49
(g65
g51
NtRp4357
(dp4358
g54
(dp4359
sg63
g4340
sg56
(lp4360
g49
(g70
g51
NtRp4361
(dp4362
g54
(dp4363
sg63
g4357
sg56
(lp4364
g49
(g50
g51
NtRp4365
(dp4366
g54
(dp4367
g62
I1
ssg63
g4361
sg56
(lp4368
I00
asbasbasbag49
(g65
g51
NtRp4369
(dp4370
g54
(dp4371
sg63
g4340
sg56
(lp4372
g49
(g70
g51
NtRp4373
(dp4374
g54
(dp4375
sg63
g4369
sg56
(lp4376
g49
(g50
g51
NtRp4377
(dp4378
g54
(dp4379
g62
I1
ssg63
g4373
sg56
(lp4380
Nasbasbasbag49
(g65
g51
NtRp4381
(dp4382
g54
(dp4383
sg63
g4340
sg56
(lp4384
g49
(g70
g51
NtRp4385
(dp4386
g54
(dp4387
sg63
g4381
sg56
(lp4388
g49
(g50
g51
NtRp4389
(dp4390
g54
(dp4391
g62
I1
ssg63
g4385
sg56
(lp4392
(lp4393
(S'plugin_wiki'
p4394
I00
S'http://web2py.com/examples/default/download'
p4395
tp4396
a(g3781
(S's\r\x00\x00\x00Other Plugins'
tRp4397
I00
g4127
tp4398
a(g3781
(S's\x0e\x00\x00\x00Layout Plugins'
tRp4399
I00
g4130
tp4400
aasbasbasbasbasbasbasbasbasbasbasbasbasbasbasbasbasbasbasbag49
(g65
g51
NtRp4401
(dp4402
g54
(dp4403
sg63
g3245
sg56
(lp4404
g49
(g70
g51
NtRp4405
(dp4406
g54
(dp4407
g74
g75
ssg63
g4401
sg56
(lp4408
S'meta'
p4409
asbag49
(g70
g51
NtRp4410
(dp4411
g54
(dp4412
g81
g82
ssg63
g4401
sg56
(lp4413
S':'
asbag49
(g70
g51
NtRp4414
(dp4415
g54
(dp4416
sg63
g4401
sg56
(lp4417
g49
(g50
g51
NtRp4418
(dp4419
g54
(dp4420
g62
I5
ssg63
g4414
sg56
(lp4421
g49
(g58
g51
NtRp4422
(dp4423
g54
(dp4424
g62
I4
ssg63
Nsg56
(lp4425
g49
(g65
g51
NtRp4426
(dp4427
g54
(dp4428
sg63
g4422
sg56
(lp4429
g49
(g70
g51
NtRp4430
(dp4431
g54
(dp4432
g74
g75
ssg63
g4426
sg56
(lp4433
S'author'
p4434
asbag49
(g70
g51
NtRp4435
(dp4436
g54
(dp4437
g81
g82
ssg63
g4426
sg56
(lp4438
S':'
asbag49
(g70
g51
NtRp4439
(dp4440
g54
(dp4441
sg63
g4426
sg56
(lp4442
g49
(g50
g51
NtRp4443
(dp4444
g54
(dp4445
g62
I4
ssg63
g4439
sg56
(lp4446
S'Your Name <you@example.com>'
p4447
asbasbasbag49
(g65
g51
NtRp4448
(dp4449
g54
(dp4450
sg63
g4422
sg56
(lp4451
g49
(g70
g51
NtRp4452
(dp4453
g54
(dp4454
g74
g75
ssg63
g4448
sg56
(lp4455
S'copyright'
p4456
asbag49
(g70
g51
NtRp4457
(dp4458
g54
(dp4459
g81
g82
ssg63
g4448
sg56
(lp4460
S':'
asbag49
(g70
g51
NtRp4461
(dp4462
g54
(dp4463
sg63
g4448
sg56
(lp4464
g49
(g50
g51
NtRp4465
(dp4466
g54
(dp4467
g62
I4
ssg63
g4461
sg56
(lp4468
S'Copyright 2011'
p4469
asbasbasbag49
(g65
g51
NtRp4470
(dp4471
g54
(dp4472
sg63
g4422
sg56
(lp4473
g49
(g70
g51
NtRp4474
(dp4475
g54
(dp4476
g74
g75
ssg63
g4470
sg56
(lp4477
S'description'
p4478
asbag49
(g70
g51
NtRp4479
(dp4480
g54
(dp4481
g81
g82
ssg63
g4470
sg56
(lp4482
S':'
asbag49
(g70
g51
NtRp4483
(dp4484
g54
(dp4485
sg63
g4470
sg56
(lp4486
g49
(g50
g51
NtRp4487
(dp4488
g54
(dp4489
g62
I4
ssg63
g4483
sg56
(lp4490
S'a cool new app'
p4491
asbasbasbag49
(g65
g51
NtRp4492
(dp4493
g54
(dp4494
sg63
g4422
sg56
(lp4495
g49
(g70
g51
NtRp4496
(dp4497
g54
(dp4498
g74
g75
ssg63
g4492
sg56
(lp4499
S'generator'
p4500
asbag49
(g70
g51
NtRp4501
(dp4502
g54
(dp4503
g81
g82
ssg63
g4492
sg56
(lp4504
S':'
asbag49
(g70
g51
NtRp4505
(dp4506
g54
(dp4507
sg63
g4492
sg56
(lp4508
g49
(g50
g51
NtRp4509
(dp4510
g54
(dp4511
g62
I4
ssg63
g4505
sg56
(lp4512
S'Web2py Web Framework'
p4513
asbasbasbag49
(g65
g51
NtRp4514
(dp4515
g54
(dp4516
sg63
g4422
sg56
(lp4517
g49
(g70
g51
NtRp4518
(dp4519
g54
(dp4520
g74
g75
ssg63
g4514
sg56
(lp4521
S'keywords'
p4522
asbag49
(g70
g51
NtRp4523
(dp4524
g54
(dp4525
g81
g82
ssg63
g4514
sg56
(lp4526
S':'
asbag49
(g70
g51
NtRp4527
(dp4528
g54
(dp4529
sg63
g4514
sg56
(lp4530
g49
(g50
g51
NtRp4531
(dp4532
g54
(dp4533
g62
I4
ssg63
g4527
sg56
(lp4534
S'web2py, python, framework'
p4535
asbasbasbasbasbasbasbag49
(g65
g51
NtRp4536
(dp4537
g54
(dp4538
sg63
g3245
sg56
(lp4539
g49
(g70
g51
NtRp4540
(dp4541
g54
(dp4542
g74
g75
ssg63
g4536
sg56
(lp4543
S'postprocessing'
p4544
asbag49
(g70
g51
NtRp4545
(dp4546
g54
(dp4547
g81
g82
ssg63
g4536
sg56
(lp4548
S':'
asbag49
(g70
g51
NtRp4549
(dp4550
g54
(dp4551
sg63
g4536
sg56
(lp4552
g49
(g50
g51
NtRp4553
(dp4554
g54
(dp4555
g62
I5
ssg63
g4549
sg56
(lp4556
g49
(g58
g51
NtRp4557
(dp4558
g54
(dp4559
g62
I4
ssg63
Nsg56
(lp4560
sbasbasbasbag49
(g65
g51
NtRp4561
(dp4562
g54
(dp4563
sg63
g3245
sg56
(lp4564
g49
(g70
g51
NtRp4565
(dp4566
g54
(dp4567
g74
g75
ssg63
g4561
sg56
(lp4568
S'session_file'
p4569
asbag49
(g70
g51
NtRp4570
(dp4571
g54
(dp4572
g81
g82
ssg63
g4561
sg56
(lp4573
S':'
asbag49
(g70
g51
NtRp4574
(dp4575
g54
(dp4576
sg63
g4561
sg56
(lp4577
g49
(g50
g51
NtRp4578
(dp4579
g54
(dp4580
g62
I5
ssg63
g4574
sg56
(lp4581
S"<open file 'C:\\Users\\omkara\\Desktop\\web2py\\applications\\SlugBarter\\sessions\\127.0.0.1-e6ebae72-1bbc-48a5-9458-95dbb65a4e54', mode 'rb+' at 0x062A0140>"
p4582
asbasbasbag49
(g65
g51
NtRp4583
(dp4584
g54
(dp4585
sg63
g3245
sg56
(lp4586
g49
(g70
g51
NtRp4587
(dp4588
g54
(dp4589
g74
g75
ssg63
g4583
sg56
(lp4590
S'session_filename'
p4591
asbag49
(g70
g51
NtRp4592
(dp4593
g54
(dp4594
g81
g82
ssg63
g4583
sg56
(lp4595
S':'
asbag49
(g70
g51
NtRp4596
(dp4597
g54
(dp4598
sg63
g4583
sg56
(lp4599
g49
(g50
g51
NtRp4600
(dp4601
g54
(dp4602
g62
I5
ssg63
g4596
sg56
(lp4603
S'C:\\Users\\omkara\\Desktop\\web2py\\applications\\SlugBarter\\sessions\\127.0.0.1-e6ebae72-1bbc-48a5-9458-95dbb65a4e54'
p4604
asbasbasbag49
(g65
g51
NtRp4605
(dp4606
g54
(dp4607
sg63
g3245
sg56
(lp4608
g49
(g70
g51
NtRp4609
(dp4610
g54
(dp4611
g74
g75
ssg63
g4605
sg56
(lp4612
S'session_id'
p4613
asbag49
(g70
g51
NtRp4614
(dp4615
g54
(dp4616
g81
g82
ssg63
g4605
sg56
(lp4617
S':'
asbag49
(g70
g51
NtRp4618
(dp4619
g54
(dp4620
sg63
g4605
sg56
(lp4621
g49
(g50
g51
NtRp4622
(dp4623
g54
(dp4624
g62
I5
ssg63
g4618
sg56
(lp4625
S'127.0.0.1-e6ebae72-1bbc-48a5-9458-95dbb65a4e54'
p4626
asbasbasbag49
(g65
g51
NtRp4627
(dp4628
g54
(dp4629
sg63
g3245
sg56
(lp4630
g49
(g70
g51
NtRp4631
(dp4632
g54
(dp4633
g74
g75
ssg63
g4627
sg56
(lp4634
S'session_id_name'
p4635
asbag49
(g70
g51
NtRp4636
(dp4637
g54
(dp4638
g81
g82
ssg63
g4627
sg56
(lp4639
S':'
asbag49
(g70
g51
NtRp4640
(dp4641
g54
(dp4642
sg63
g4627
sg56
(lp4643
g49
(g50
g51
NtRp4644
(dp4645
g54
(dp4646
g62
I5
ssg63
g4640
sg56
(lp4647
g3302
asbasbasbag49
(g65
g51
NtRp4648
(dp4649
g54
(dp4650
sg63
g3245
sg56
(lp4651
g49
(g70
g51
NtRp4652
(dp4653
g54
(dp4654
g74
g75
ssg63
g4648
sg56
(lp4655
S'session_locked'
p4656
asbag49
(g70
g51
NtRp4657
(dp4658
g54
(dp4659
g81
g82
ssg63
g4648
sg56
(lp4660
S':'
asbag49
(g70
g51
NtRp4661
(dp4662
g54
(dp4663
sg63
g4648
sg56
(lp4664
g49
(g50
g51
NtRp4665
(dp4666
g54
(dp4667
g62
I5
ssg63
g4661
sg56
(lp4668
g1809
asbasbasbag49
(g65
g51
NtRp4669
(dp4670
g54
(dp4671
sg63
g3245
sg56
(lp4672
g49
(g70
g51
NtRp4673
(dp4674
g54
(dp4675
g74
g75
ssg63
g4669
sg56
(lp4676
S'session_new'
p4677
asbag49
(g70
g51
NtRp4678
(dp4679
g54
(dp4680
g81
g82
ssg63
g4669
sg56
(lp4681
S':'
asbag49
(g70
g51
NtRp4682
(dp4683
g54
(dp4684
sg63
g4669
sg56
(lp4685
g49
(g50
g51
NtRp4686
(dp4687
g54
(dp4688
g62
I5
ssg63
g4682
sg56
(lp4689
g92
asbasbasbag49
(g65
g51
NtRp4690
(dp4691
g54
(dp4692
sg63
g3245
sg56
(lp4693
g49
(g70
g51
NtRp4694
(dp4695
g54
(dp4696
g74
g75
ssg63
g4690
sg56
(lp4697
S'status'
p4698
asbag49
(g70
g51
NtRp4699
(dp4700
g54
(dp4701
g81
g82
ssg63
g4690
sg56
(lp4702
S':'
asbag49
(g70
g51
NtRp4703
(dp4704
g54
(dp4705
sg63
g4690
sg56
(lp4706
g49
(g50
g51
NtRp4707
(dp4708
g54
(dp4709
g62
I5
ssg63
g4703
sg56
(lp4710
S'200'
p4711
asbasbasbag49
(g65
g51
NtRp4712
(dp4713
g54
(dp4714
sg63
g3245
sg56
(lp4715
g49
(g70
g51
NtRp4716
(dp4717
g54
(dp4718
g74
g75
ssg63
g4712
sg56
(lp4719
S'subtitle'
p4720
asbag49
(g70
g51
NtRp4721
(dp4722
g54
(dp4723
g81
g82
ssg63
g4712
sg56
(lp4724
S':'
asbag49
(g70
g51
NtRp4725
(dp4726
g54
(dp4727
sg63
g4712
sg56
(lp4728
g49
(g50
g51
NtRp4729
(dp4730
g54
(dp4731
g62
I5
ssg63
g4725
sg56
(lp4732
g3781
(S's\r\x00\x00\x00customize me!'
tRp4733
asbasbasbag49
(g65
g51
NtRp4734
(dp4735
g54
(dp4736
sg63
g3245
sg56
(lp4737
g49
(g70
g51
NtRp4738
(dp4739
g54
(dp4740
g74
g75
ssg63
g4734
sg56
(lp4741
S'title'
p4742
asbag49
(g70
g51
NtRp4743
(dp4744
g54
(dp4745
g81
g82
ssg63
g4734
sg56
(lp4746
S':'
asbag49
(g70
g51
NtRp4747
(dp4748
g54
(dp4749
sg63
g4734
sg56
(lp4750
g49
(g50
g51
NtRp4751
(dp4752
g54
(dp4753
g62
I5
ssg63
g4747
sg56
(lp4754
S'Slugbarter'
p4755
asbasbasbag49
(g65
g51
NtRp4756
(dp4757
g54
(dp4758
sg63
g3245
sg56
(lp4759
g49
(g70
g51
NtRp4760
(dp4761
g54
(dp4762
g74
g75
ssg63
g4756
sg56
(lp4763
g2495
asbag49
(g70
g51
NtRp4764
(dp4765
g54
(dp4766
g81
g82
ssg63
g4756
sg56
(lp4767
S':'
asbag49
(g70
g51
NtRp4768
(dp4769
g54
(dp4770
sg63
g4756
sg56
(lp4771
g49
(g50
g51
NtRp4772
(dp4773
g54
(dp4774
g62
I5
ssg63
g4768
sg56
(lp4775
g2508
asbasbasbag49
(g65
g51
NtRp4776
(dp4777
g54
(dp4778
sg63
g3245
sg56
(lp4779
g49
(g70
g51
NtRp4780
(dp4781
g54
(dp4782
g74
g75
ssg63
g4776
sg56
(lp4783
S'view'
p4784
asbag49
(g70
g51
NtRp4785
(dp4786
g54
(dp4787
g81
g82
ssg63
g4776
sg56
(lp4788
S':'
asbag49
(g70
g51
NtRp4789
(dp4790
g54
(dp4791
sg63
g4776
sg56
(lp4792
g49
(g50
g51
NtRp4793
(dp4794
g54
(dp4795
g62
I5
ssg63
g4789
sg56
(lp4796
S'default/register.html'
p4797
asbasbasbasbasbsS'locals'
p4798
(dp4799
S'Service'
p4800
S"<class 'gluon.tools.Service'>"
p4801
sS'OBJECT'
p4802
S"<class 'gluon.html.OBJECT'>"
p4803
sS'SQLDB'
p4804
S"<class 'gluon.dal.DAL'>"
p4805
sg3205
S"<Storage {'last_query': 'db.auth_user.id>0', '_f...ister]': 'fa0bf5b1-af1c-4eef-9713-de6a0ec01f56'}>"
p4806
sS'LINK'
p4807
S"<class 'gluon.html.LINK'>"
p4808
sS'BR'
p4809
S"<class 'gluon.html.BR'>"
p4810
sS'local_import'
p4811
S'<function <lambda> at 0x05E30030>'
p4812
sS'OPTGROUP'
p4813
S"<class 'gluon.html.OPTGROUP'>"
p4814
sS'PRE'
p4815
S"<class 'gluon.html.PRE'>"
p4816
sS'IS_INT_IN_RANGE'
p4817
S"<class 'gluon.validators.IS_INT_IN_RANGE'>"
p4818
sS'IS_LOWER'
p4819
S"<class 'gluon.validators.IS_LOWER'>"
p4820
sS'IS_STRONG'
p4821
S"<class 'gluon.validators.IS_STRONG'>"
p4822
sS'cache'
p4823
S'<gluon.cache.Cache object at 0x06687870>'
p4824
sS'IS_IN_DB'
p4825
S"<class 'gluon.validators.IS_IN_DB'>"
p4826
sS'TAG'
p4827
S'<gluon.html.__TAG__ object at 0x01E7FD70>'
p4828
sS'SQLField'
p4829
S"<class 'gluon.dal.Field'>"
p4830
sS'mail'
p4831
S'<gluon.tools.Mail object at 0x066874D0>'
p4832
sS'BODY'
p4833
S"<class 'gluon.html.BODY'>"
p4834
sS'IS_DATE_IN_RANGE'
p4835
S"<class 'gluon.validators.IS_DATE_IN_RANGE'>"
p4836
sS'IFRAME'
p4837
S"<class 'gluon.html.IFRAME'>"
p4838
sS'URL'
p4839
S'<function URL at 0x01EE7EF0>'
p4840
sS'__file__'
p4841
S"r'C:\\Users\\omkara\\Desktop\\web2py\\applications\\SlugBarter\\models\\registerForm.py'"
p4842
sS'db'
p4843
S"<DAL {'auth_event': <Table {'origin': <gluon.dal..._key': <gluon.dal.Field object at 0x0679F550>}>}>"
p4844
sS'auth'
p4845
S'<gluon.tools.Auth object at 0x05E26190>'
p4846
sS'P'
S"<class 'gluon.html.P'>"
p4847
sS'TFOOT'
p4848
S"<class 'gluon.html.TFOOT'>"
p4849
sS'XHTML'
p4850
S"<class 'gluon.html.XHTML'>"
p4851
sS'datetime'
p4852
S"<type 'datetime.datetime'>"
p4853
sS'ON'
p4854
g1809
sS'OL'
p4855
S"<class 'gluon.html.OL'>"
p4856
sS'TEXTAREA'
p4857
S"<class 'gluon.html.TEXTAREA'>"
p4858
sS'MENU'
p4859
S"<class 'gluon.html.MENU'>"
p4860
sS'EM'
p4861
S"<class 'gluon.html.EM'>"
p4862
sS'CODE'
p4863
S"<class 'gluon.html.CODE'>"
p4864
sS'HTTP'
p4865
S"<class 'gluon.http.HTTP'>"
p4866
sS'HR'
p4867
S"<class 'gluon.html.HR'>"
p4868
sS'IS_DATETIME'
p4869
S"<class 'gluon.validators.IS_DATETIME'>"
p4870
sS'STYLE'
p4871
S"<class 'gluon.html.STYLE'>"
p4872
sS'LABEL'
p4873
S"<class 'gluon.html.LABEL'>"
p4874
sS'META'
p4875
S"<class 'gluon.html.META'>"
p4876
sS'plugins'
p4877
S'<gluon.tools.PluginManager object at 0x05C4C670>'
p4878
sS'SELECT'
p4879
S"<class 'gluon.html.SELECT'>"
p4880
sS'use_janrain'
p4881
S'<function use_janrain at 0x02957730>'
p4882
sS'CENTER'
p4883
S"<class 'gluon.html.CENTER'>"
p4884
sS'prettydate'
p4885
S'<function prettydate at 0x02954D30>'
p4886
sS'Crud'
p4887
S"<class 'gluon.tools.Crud'>"
p4888
sS'Auth'
p4889
S"<class 'gluon.tools.Auth'>"
p4890
sS'__builtins__'
p4891
S"{'ArithmeticError': <type 'exceptions.ArithmeticError'>, 'AssertionError': <type 'exceptions.AssertionError'>, 'AttributeError': <type 'exceptions.AttributeError'>, 'BaseException': <type 'exceptions.BaseException'>, 'DeprecationWarning': <type 'exceptions.DeprecationWarning'>, 'EOFError': <type 'exceptions.EOFError'>, 'Ellipsis': Ellipsis, 'EnvironmentError': <type 'exceptions.EnvironmentError'>, 'Exception': <type 'exceptions.Exception'>, 'False': False, ...}"
p4892
sS'HTML'
p4893
S"<class 'gluon.html.HTML'>"
p4894
sS'SQLFORM'
p4895
S"<class 'gluon.sqlhtml.SQLFORM'>"
p4896
sS'LOAD'
p4897
S'<function LOAD at 0x021297F0>'
p4898
sS'redirect'
p4899
S'<function redirect at 0x01BEFBB0>'
p4900
sS'FIELDSET'
p4901
S"<class 'gluon.html.FIELDSET'>"
p4902
sS'IS_EQUAL_TO'
p4903
S"<class 'gluon.validators.IS_EQUAL_TO'>"
p4904
sS'embed64'
p4905
S'<function embed64 at 0x01EF6A30>'
p4906
sS'IS_LIST_OF'
p4907
S"<class 'gluon.validators.IS_LIST_OF'>"
p4908
sS'INPUT'
p4909
S"<class 'gluon.html.INPUT'>"
p4910
sS'EMBED'
p4911
S"<class 'gluon.html.EMBED'>"
p4912
sS'_'
S'<function _ at 0x05E30070>'
p4913
sS'FORM'
p4914
S"<class 'gluon.html.FORM'>"
p4915
sS'H2'
p4916
S"<class 'gluon.html.H2'>"
p4917
sS'H3'
p4918
S"<class 'gluon.html.H3'>"
p4919
sS'BUTTON'
p4920
S"<class 'gluon.html.BUTTON'>"
p4921
sS'H1'
p4922
S"<class 'gluon.html.H1'>"
p4923
sS'H6'
p4924
S"<class 'gluon.html.H6'>"
p4925
sS'H4'
p4926
S"<class 'gluon.html.H4'>"
p4927
sS'H5'
p4928
S"<class 'gluon.html.H5'>"
p4929
sS'UL'
p4930
S"<class 'gluon.html.UL'>"
p4931
sS'IS_UPPER'
p4932
S"<class 'gluon.validators.IS_UPPER'>"
p4933
sS'xmlescape'
p4934
S'<function xmlescape at 0x01EE7E70>'
p4935
sS'IS_TIME'
p4936
S"<class 'gluon.validators.IS_TIME'>"
p4937
sS'OPTION'
p4938
S"<class 'gluon.html.OPTION'>"
p4939
sS'TITLE'
p4940
S"<class 'gluon.html.TITLE'>"
p4941
sS'CRYPT'
p4942
S"<class 'gluon.validators.CRYPT'>"
p4943
sS'IS_EMPTY_OR'
p4944
S"<class 'gluon.validators.IS_EMPTY_OR'>"
p4945
sS'MARKMIN'
p4946
S"<class 'gluon.html.MARKMIN'>"
p4947
sS'__name__'
p4948
S"'__restricted__'"
p4949
sS'COL'
p4950
S"<class 'gluon.html.COL'>"
p4951
sS'service'
p4952
S'<gluon.tools.Service object at 0x0679F190>'
p4953
sS'SCRIPT'
p4954
S"<class 'gluon.html.SCRIPT'>"
p4955
sS'TABLE'
p4956
S"<class 'gluon.html.TABLE'>"
p4957
sS'IS_IPV4'
p4958
S"<class 'gluon.validators.IS_IPV4'>"
p4959
sS'IS_LENGTH'
p4960
S"<class 'gluon.validators.IS_LENGTH'>"
p4961
sS'XML'
p4962
S"<class 'gluon.html.XML'>"
p4963
sS'B'
S"<class 'gluon.html.B'>"
p4964
sS'IMG'
p4965
S"<class 'gluon.html.IMG'>"
p4966
sS'SQLTABLE'
p4967
S"<class 'gluon.sqlhtml.SQLTABLE'>"
p4968
sS'IS_MATCH'
p4969
S"<class 'gluon.validators.IS_MATCH'>"
p4970
sS'IS_ALPHANUMERIC'
p4971
S"<class 'gluon.validators.IS_ALPHANUMERIC'>"
p4972
sS'SPAN'
p4973
S"<class 'gluon.html.SPAN'>"
p4974
sS'IS_SLUG'
p4975
S"<class 'gluon.validators.IS_SLUG'>"
p4976
sS'CLEANUP'
p4977
S"<class 'gluon.validators.CLEANUP'>"
p4978
sS'IS_DATE'
p4979
S"<class 'gluon.validators.IS_DATE'>"
p4980
sS'IS_EMAIL'
p4981
S"<class 'gluon.validators.IS_EMAIL'>"
p4982
sS'IS_NOT_EMPTY'
p4983
S"<class 'gluon.validators.IS_NOT_EMPTY'>"
p4984
sS'IS_FLOAT_IN_RANGE'
p4985
S"<class 'gluon.validators.IS_FLOAT_IN_RANGE'>"
p4986
sS'BEAUTIFY'
p4987
S"<class 'gluon.html.BEAUTIFY'>"
p4988
sS'TBODY'
p4989
S"<class 'gluon.html.TBODY'>"
p4990
sS'CAT'
p4991
S"<class 'gluon.html.CAT'>"
p4992
sS'Field'
p4993
S"<class 'gluon.dal.Field'>"
p4994
sS'DIV'
p4995
S"<class 'gluon.html.DIV'>"
p4996
sS'LEGEND'
p4997
S"<class 'gluon.html.LEGEND'>"
p4998
sS'COLGROUP'
p4999
S"<class 'gluon.html.COLGROUP'>"
p5000
sS'DAL'
p5001
S"<class 'gluon.dal.DAL'>"
p5002
sS'TT'
p5003
S"<class 'gluon.html.TT'>"
p5004
sS'TR'
p5005
S"<class 'gluon.html.TR'>"
p5006
sS'LI'
p5007
S"<class 'gluon.html.LI'>"
p5008
sS'TH'
p5009
S"<class 'gluon.html.TH'>"
p5010
sS'TD'
p5011
S"<class 'gluon.html.TD'>"
p5012
sS'PluginManager'
p5013
S"<class 'gluon.tools.PluginManager'>"
p5014
sS'IS_URL'
p5015
S"<class 'gluon.validators.IS_URL'>"
p5016
sS'A'
S"<class 'gluon.html.A'>"
p5017
sS'HEAD'
p5018
S"<class 'gluon.html.HEAD'>"
p5019
sS'IS_DATETIME_IN_RANGE'
p5020
S"<class 'gluon.validators.IS_DATETIME_IN_RANGE'>"
p5021
sS'IS_IMAGE'
p5022
S"<class 'gluon.validators.IS_IMAGE'>"
p5023
sS'I'
S"<class 'gluon.html.I'>"
p5024
sS'crud'
p5025
S'<gluon.tools.Crud object at 0x06687BD0>'
p5026
sS'IS_NOT_IN_DB'
p5027
S"<class 'gluon.validators.IS_NOT_IN_DB'>"
p5028
sg3240
S"<Storage {'body': <cStringIO.StringO object at 0...at 0x05E30AF0>, 'view': 'default/register.html'}>"
p5029
sS'THEAD'
p5030
S"<class 'gluon.html.THEAD'>"
p5031
sS'IS_NULL_OR'
p5032
S"<class 'gluon.validators.IS_EMPTY_OR'>"
p5033
sg48
S"<Storage {'body': <cStringIO.StringO object at 0..._vars': <Storage {}>, 'post_vars': <Storage {}>}>"
p5034
sS'IS_EXPR'
p5035
S"<class 'gluon.validators.IS_EXPR'>"
p5036
sS'IS_IN_SET'
p5037
S"<class 'gluon.validators.IS_IN_SET'>"
p5038
sS'IS_UPLOAD_FILENAME'
p5039
S"<class 'gluon.validators.IS_UPLOAD_FILENAME'>"
p5040
sS'IS_DECIMAL_IN_RANGE'
p5041
S"<class 'gluon.validators.IS_DECIMAL_IN_RANGE'>"
p5042
sS'T'
S'<gluon.languages.translator object at 0x06687CB0>'
p5043
sssS'traceback'
p5044
S'Traceback (most recent call last):\n  File "gluon/restricted.py", line 205, in restricted\n  File "C:\\Users\\omkara\\Desktop\\web2py\\applications\\SlugBarter\\models\\registerForm.py", line 7, in <module>\nTypeError: __init__() got an unexpected keyword argument \'Readable\'\n'
p5045
s.